ARM GAS  /var/folders/f9/8bk2lnw15zn4cbgn6wrnb4lm0000gn/T//ccaQ4clJ.s 			page 1


   1              		.cpu cortex-m0
   2              		.fpu softvfp
   3              		.eabi_attribute 20, 1	@ Tag_ABI_FP_denormal
   4              		.eabi_attribute 21, 1	@ Tag_ABI_FP_exceptions
   5              		.eabi_attribute 23, 3	@ Tag_ABI_FP_number_model
   6              		.eabi_attribute 24, 1	@ Tag_ABI_align8_needed
   7              		.eabi_attribute 25, 1	@ Tag_ABI_align8_preserved
   8              		.eabi_attribute 26, 1	@ Tag_ABI_enum_size
   9              		.eabi_attribute 30, 2	@ Tag_ABI_optimization_goals
  10              		.eabi_attribute 34, 0	@ Tag_CPU_unaligned_access
  11              		.eabi_attribute 18, 4	@ Tag_ABI_PCS_wchar_t
  12              		.file	"adc_11xx.c"
  13              	@ GNU C (GNU Tools for ARM Embedded Processors) version 4.8.4 20140725 (release) [ARM/embedded-4_8-
  14              	@	compiled by GNU C version 4.2.1 (Based on Apple Inc. build 5658) (LLVM build 2336.9.00), GMP vers
  15              	@ GGC heuristics: --param ggc-min-expand=100 --param ggc-min-heapsize=131072
  16              	@ options passed:  -I . -I ../../lpc_chip_11cxx_lib/inc
  17              	@ -I ../../evt_lib/inc -imultilib armv6-m
  18              	@ -iprefix /usr/local/Cellar/gcc-arm-none-eabi/20140805/bin/../lib/gcc/arm-none-eabi/4.8.4/
  19              	@ -isysroot /usr/local/Cellar/gcc-arm-none-eabi/20140805/bin/../arm-none-eabi
  20              	@ -MD bin/adc_11xx.d -MF bin/adc_11xx.d -MP -MQ bin/adc_11xx.o
  21              	@ -D__USES_INITFINI__ -D CORE_M0 ../../lpc_chip_11cxx_lib/src/adc_11xx.c
  22              	@ -mcpu=cortex-m0 -mthumb -auxbase-strip bin/adc_11xx.o -g -ggdb3 -O2 -Wall
  23              	@ -Wstrict-prototypes -Wextra -std=gnu90 -ffunction-sections
  24              	@ -fdata-sections -fverbose-asm
  25              	@ options enabled:  -faggressive-loop-optimizations -fauto-inc-dec
  26              	@ -fbranch-count-reg -fcaller-saves -fcombine-stack-adjustments -fcommon
  27              	@ -fcompare-elim -fcprop-registers -fcrossjumping -fcse-follow-jumps
  28              	@ -fdata-sections -fdefer-pop -fdelete-null-pointer-checks -fdevirtualize
  29              	@ -fdwarf2-cfi-asm -fearly-inlining -feliminate-unused-debug-types
  30              	@ -fexpensive-optimizations -fforward-propagate -ffunction-cse
  31              	@ -ffunction-sections -fgcse -fgcse-lm -fgnu-runtime -fgnu-unique
  32              	@ -fguess-branch-probability -fhoist-adjacent-loads -fident -fif-conversion
  33              	@ -fif-conversion2 -findirect-inlining -finline -finline-atomics
  34              	@ -finline-functions-called-once -finline-small-functions -fipa-cp
  35              	@ -fipa-profile -fipa-pure-const -fipa-reference -fipa-sra
  36              	@ -fira-hoist-pressure -fira-share-save-slots -fira-share-spill-slots
  37              	@ -fivopts -fkeep-static-consts -fleading-underscore -fmath-errno
  38              	@ -fmerge-constants -fmerge-debug-strings -fmove-loop-invariants
  39              	@ -fomit-frame-pointer -foptimize-register-move -foptimize-sibling-calls
  40              	@ -foptimize-strlen -fpartial-inlining -fpeephole -fpeephole2
  41              	@ -fprefetch-loop-arrays -freg-struct-return -fregmove -freorder-blocks
  42              	@ -freorder-functions -frerun-cse-after-loop
  43              	@ -fsched-critical-path-heuristic -fsched-dep-count-heuristic
  44              	@ -fsched-group-heuristic -fsched-interblock -fsched-last-insn-heuristic
  45              	@ -fsched-pressure -fsched-rank-heuristic -fsched-spec
  46              	@ -fsched-spec-insn-heuristic -fsched-stalled-insns-dep -fschedule-insns2
  47              	@ -fsection-anchors -fshow-column -fshrink-wrap -fsigned-zeros
  48              	@ -fsplit-ivs-in-unroller -fsplit-wide-types -fstrict-aliasing
  49              	@ -fstrict-overflow -fstrict-volatile-bitfields -fsync-libcalls
  50              	@ -fthread-jumps -ftoplevel-reorder -ftrapping-math -ftree-bit-ccp
  51              	@ -ftree-builtin-call-dce -ftree-ccp -ftree-ch -ftree-coalesce-vars
  52              	@ -ftree-copy-prop -ftree-copyrename -ftree-cselim -ftree-dce
  53              	@ -ftree-dominator-opts -ftree-dse -ftree-forwprop -ftree-fre
  54              	@ -ftree-loop-if-convert -ftree-loop-im -ftree-loop-ivcanon
  55              	@ -ftree-loop-optimize -ftree-parallelize-loops= -ftree-phiprop -ftree-pre
  56              	@ -ftree-pta -ftree-reassoc -ftree-scev-cprop -ftree-sink
  57              	@ -ftree-slp-vectorize -ftree-slsr -ftree-sra -ftree-switch-conversion
ARM GAS  /var/folders/f9/8bk2lnw15zn4cbgn6wrnb4lm0000gn/T//ccaQ4clJ.s 			page 2


  58              	@ -ftree-tail-merge -ftree-ter -ftree-vect-loop-version -ftree-vrp
  59              	@ -funit-at-a-time -fvar-tracking -fvar-tracking-assignments -fverbose-asm
  60              	@ -fzero-initialized-in-bss -mlittle-endian -mpic-data-is-text-relative
  61              	@ -msched-prolog -mthumb -mvectorize-with-neon-quad
  62              	
  63              		.text
  64              	.Ltext0:
  65              		.cfi_sections	.debug_frame
  66              		.section	.text.setStartMode,"ax",%progbits
  67              		.align	2
  68              		.global	setStartMode
  69              		.code	16
  70              		.thumb_func
  71              		.type	setStartMode, %function
  72              	setStartMode:
  73              	.LFB200:
  74              		.file 1 "../../lpc_chip_11cxx_lib/src/adc_11xx.c"
   1:../../lpc_chip_11cxx_lib/src/adc_11xx.c **** /*
   2:../../lpc_chip_11cxx_lib/src/adc_11xx.c ****  * @brief LPC11xx A/D conversion driver
   3:../../lpc_chip_11cxx_lib/src/adc_11xx.c ****  *
   4:../../lpc_chip_11cxx_lib/src/adc_11xx.c ****  * @note
   5:../../lpc_chip_11cxx_lib/src/adc_11xx.c ****  * Copyright(C) NXP Semiconductors, 2012
   6:../../lpc_chip_11cxx_lib/src/adc_11xx.c ****  * All rights reserved.
   7:../../lpc_chip_11cxx_lib/src/adc_11xx.c ****  *
   8:../../lpc_chip_11cxx_lib/src/adc_11xx.c ****  * @par
   9:../../lpc_chip_11cxx_lib/src/adc_11xx.c ****  * Software that is described herein is for illustrative purposes only
  10:../../lpc_chip_11cxx_lib/src/adc_11xx.c ****  * which provides customers with programming information regarding the
  11:../../lpc_chip_11cxx_lib/src/adc_11xx.c ****  * LPC products.  This software is supplied "AS IS" without any warranties of
  12:../../lpc_chip_11cxx_lib/src/adc_11xx.c ****  * any kind, and NXP Semiconductors and its licensor disclaim any and
  13:../../lpc_chip_11cxx_lib/src/adc_11xx.c ****  * all warranties, express or implied, including all implied warranties of
  14:../../lpc_chip_11cxx_lib/src/adc_11xx.c ****  * merchantability, fitness for a particular purpose and non-infringement of
  15:../../lpc_chip_11cxx_lib/src/adc_11xx.c ****  * intellectual property rights.  NXP Semiconductors assumes no responsibility
  16:../../lpc_chip_11cxx_lib/src/adc_11xx.c ****  * or liability for the use of the software, conveys no license or rights under any
  17:../../lpc_chip_11cxx_lib/src/adc_11xx.c ****  * patent, copyright, mask work right, or any other intellectual property rights in
  18:../../lpc_chip_11cxx_lib/src/adc_11xx.c ****  * or to any products. NXP Semiconductors reserves the right to make changes
  19:../../lpc_chip_11cxx_lib/src/adc_11xx.c ****  * in the software without notification. NXP Semiconductors also makes no
  20:../../lpc_chip_11cxx_lib/src/adc_11xx.c ****  * representation or warranty that such application will be suitable for the
  21:../../lpc_chip_11cxx_lib/src/adc_11xx.c ****  * specified use without further testing or modification.
  22:../../lpc_chip_11cxx_lib/src/adc_11xx.c ****  *
  23:../../lpc_chip_11cxx_lib/src/adc_11xx.c ****  * @par
  24:../../lpc_chip_11cxx_lib/src/adc_11xx.c ****  * Permission to use, copy, modify, and distribute this software and its
  25:../../lpc_chip_11cxx_lib/src/adc_11xx.c ****  * documentation is hereby granted, under NXP Semiconductors' and its
  26:../../lpc_chip_11cxx_lib/src/adc_11xx.c ****  * licensor's relevant copyrights in the software, without fee, provided that it
  27:../../lpc_chip_11cxx_lib/src/adc_11xx.c ****  * is used in conjunction with NXP Semiconductors microcontrollers.  This
  28:../../lpc_chip_11cxx_lib/src/adc_11xx.c ****  * copyright, permission, and disclaimer notice must appear in all copies of
  29:../../lpc_chip_11cxx_lib/src/adc_11xx.c ****  * this code.
  30:../../lpc_chip_11cxx_lib/src/adc_11xx.c ****  */
  31:../../lpc_chip_11cxx_lib/src/adc_11xx.c **** 
  32:../../lpc_chip_11cxx_lib/src/adc_11xx.c **** #include "chip.h"
  33:../../lpc_chip_11cxx_lib/src/adc_11xx.c **** 
  34:../../lpc_chip_11cxx_lib/src/adc_11xx.c **** #if !defined(CHIP_LPC1125)
  35:../../lpc_chip_11cxx_lib/src/adc_11xx.c **** 
  36:../../lpc_chip_11cxx_lib/src/adc_11xx.c **** /*****************************************************************************
  37:../../lpc_chip_11cxx_lib/src/adc_11xx.c ****  * Private types/enumerations/variables
  38:../../lpc_chip_11cxx_lib/src/adc_11xx.c ****  ****************************************************************************/
  39:../../lpc_chip_11cxx_lib/src/adc_11xx.c **** 
  40:../../lpc_chip_11cxx_lib/src/adc_11xx.c **** /*****************************************************************************
ARM GAS  /var/folders/f9/8bk2lnw15zn4cbgn6wrnb4lm0000gn/T//ccaQ4clJ.s 			page 3


  41:../../lpc_chip_11cxx_lib/src/adc_11xx.c ****  * Public types/enumerations/variables
  42:../../lpc_chip_11cxx_lib/src/adc_11xx.c ****  ****************************************************************************/
  43:../../lpc_chip_11cxx_lib/src/adc_11xx.c **** 
  44:../../lpc_chip_11cxx_lib/src/adc_11xx.c **** /*****************************************************************************
  45:../../lpc_chip_11cxx_lib/src/adc_11xx.c ****  * Private functions
  46:../../lpc_chip_11cxx_lib/src/adc_11xx.c ****  ****************************************************************************/
  47:../../lpc_chip_11cxx_lib/src/adc_11xx.c **** 
  48:../../lpc_chip_11cxx_lib/src/adc_11xx.c **** /* Get the number of clock for a full conversion */
  49:../../lpc_chip_11cxx_lib/src/adc_11xx.c **** STATIC INLINE uint8_t getFullConvClk(void)
  50:../../lpc_chip_11cxx_lib/src/adc_11xx.c **** {
  51:../../lpc_chip_11cxx_lib/src/adc_11xx.c **** 	return 11;
  52:../../lpc_chip_11cxx_lib/src/adc_11xx.c **** }
  53:../../lpc_chip_11cxx_lib/src/adc_11xx.c **** 
  54:../../lpc_chip_11cxx_lib/src/adc_11xx.c **** /* Get divider value */
  55:../../lpc_chip_11cxx_lib/src/adc_11xx.c **** STATIC uint8_t getClkDiv(bool burstMode, uint32_t adcRate, uint8_t clks)
  56:../../lpc_chip_11cxx_lib/src/adc_11xx.c **** {
  57:../../lpc_chip_11cxx_lib/src/adc_11xx.c **** 	uint32_t adcBlockFreq;
  58:../../lpc_chip_11cxx_lib/src/adc_11xx.c **** 	uint32_t fullAdcRate;
  59:../../lpc_chip_11cxx_lib/src/adc_11xx.c **** 	uint8_t div;
  60:../../lpc_chip_11cxx_lib/src/adc_11xx.c **** 
  61:../../lpc_chip_11cxx_lib/src/adc_11xx.c **** 	/* The APB clock (PCLK_ADC0) is divided by (CLKDIV+1) to produce the clock for
  62:../../lpc_chip_11cxx_lib/src/adc_11xx.c **** 	   A/D converter, which should be less than or equal to 4.5MHz.
  63:../../lpc_chip_11cxx_lib/src/adc_11xx.c **** 	   A fully conversion requires (bits_accuracy+1) of these clocks.
  64:../../lpc_chip_11cxx_lib/src/adc_11xx.c **** 	   ADC Clock = PCLK_ADC0 / (CLKDIV + 1);
  65:../../lpc_chip_11cxx_lib/src/adc_11xx.c **** 	   ADC rate = ADC clock / (the number of clocks required for each conversion);
  66:../../lpc_chip_11cxx_lib/src/adc_11xx.c **** 	 */
  67:../../lpc_chip_11cxx_lib/src/adc_11xx.c **** 	adcBlockFreq = Chip_Clock_GetSystemClockRate();
  68:../../lpc_chip_11cxx_lib/src/adc_11xx.c **** 
  69:../../lpc_chip_11cxx_lib/src/adc_11xx.c **** 	if (burstMode) {
  70:../../lpc_chip_11cxx_lib/src/adc_11xx.c **** 		fullAdcRate = adcRate * clks;
  71:../../lpc_chip_11cxx_lib/src/adc_11xx.c **** 	}
  72:../../lpc_chip_11cxx_lib/src/adc_11xx.c **** 	else {
  73:../../lpc_chip_11cxx_lib/src/adc_11xx.c **** 		fullAdcRate = adcRate * getFullConvClk();
  74:../../lpc_chip_11cxx_lib/src/adc_11xx.c **** 	}
  75:../../lpc_chip_11cxx_lib/src/adc_11xx.c **** 
  76:../../lpc_chip_11cxx_lib/src/adc_11xx.c **** 	/* Get the round value by fomular: (2*A + B)/(2*B) */
  77:../../lpc_chip_11cxx_lib/src/adc_11xx.c **** 	div = ((adcBlockFreq * 2 + fullAdcRate) / (fullAdcRate * 2)) - 1;
  78:../../lpc_chip_11cxx_lib/src/adc_11xx.c **** 	return div;
  79:../../lpc_chip_11cxx_lib/src/adc_11xx.c **** }
  80:../../lpc_chip_11cxx_lib/src/adc_11xx.c **** 
  81:../../lpc_chip_11cxx_lib/src/adc_11xx.c **** /* Set start mode for ADC */
  82:../../lpc_chip_11cxx_lib/src/adc_11xx.c **** void setStartMode(LPC_ADC_T *pADC, uint8_t start_mode)
  83:../../lpc_chip_11cxx_lib/src/adc_11xx.c **** {
  75              		.loc 1 83 0
  76              		.cfi_startproc
  77              	.LVL0:
  78 0000 10B5     		push	{r4, lr}	@
  79              		.cfi_def_cfa_offset 8
  80              		.cfi_offset 4, -8
  81              		.cfi_offset 14, -4
  84:../../lpc_chip_11cxx_lib/src/adc_11xx.c **** 	uint32_t temp;
  85:../../lpc_chip_11cxx_lib/src/adc_11xx.c **** 	temp = pADC->CR & (~ADC_CR_START_MASK);
  82              		.loc 1 85 0
  83 0002 0468     		ldr	r4, [r0]	@ D.6311, pADC_2(D)->CR
  84              	.LVL1:
  85 0004 034A     		ldr	r2, .L2	@ tmp119,
  86:../../lpc_chip_11cxx_lib/src/adc_11xx.c **** 	pADC->CR = temp | (ADC_CR_START_MODE_SEL((uint32_t) start_mode));
ARM GAS  /var/folders/f9/8bk2lnw15zn4cbgn6wrnb4lm0000gn/T//ccaQ4clJ.s 			page 4


  86              		.loc 1 86 0
  87 0006 0B06     		lsl	r3, r1, #24	@ D.6311, start_mode,
  85:../../lpc_chip_11cxx_lib/src/adc_11xx.c **** 	temp = pADC->CR & (~ADC_CR_START_MASK);
  88              		.loc 1 85 0
  89 0008 211C     		mov	r1, r4	@ temp, D.6311
  90              	.LVL2:
  91 000a 1140     		and	r1, r2	@ temp, tmp119
  92              	.LVL3:
  93              		.loc 1 86 0
  94 000c 1943     		orr	r1, r3	@ D.6311, D.6311
  95              	.LVL4:
  96 000e 0160     		str	r1, [r0]	@ D.6311, pADC_2(D)->CR
  87:../../lpc_chip_11cxx_lib/src/adc_11xx.c **** }
  97              		.loc 1 87 0
  98              		@ sp needed	@
  99              	.LVL5:
 100 0010 10BD     		pop	{r4, pc}
 101              	.L3:
 102 0012 C046     		.align	2
 103              	.L2:
 104 0014 FFFFFFF8 		.word	-117440513
 105              		.cfi_endproc
 106              	.LFE200:
 107              		.size	setStartMode, .-setStartMode
 108              		.section	.text.readAdcVal,"ax",%progbits
 109              		.align	2
 110              		.global	readAdcVal
 111              		.code	16
 112              		.thumb_func
 113              		.type	readAdcVal, %function
 114              	readAdcVal:
 115              	.LFB201:
  88:../../lpc_chip_11cxx_lib/src/adc_11xx.c **** 
  89:../../lpc_chip_11cxx_lib/src/adc_11xx.c **** /* Get the ADC value */
  90:../../lpc_chip_11cxx_lib/src/adc_11xx.c **** Status readAdcVal(LPC_ADC_T *pADC, uint8_t channel, uint16_t *data)
  91:../../lpc_chip_11cxx_lib/src/adc_11xx.c **** {
 116              		.loc 1 91 0
 117              		.cfi_startproc
 118              	.LVL6:
  92:../../lpc_chip_11cxx_lib/src/adc_11xx.c **** 	uint32_t temp;
  93:../../lpc_chip_11cxx_lib/src/adc_11xx.c **** 	temp = pADC->DR[channel];
 119              		.loc 1 93 0
 120 0000 0431     		add	r1, r1, #4	@ tmp121,
 121              	.LVL7:
 122 0002 8900     		lsl	r1, r1, #2	@ tmp122, tmp121,
 123 0004 0B58     		ldr	r3, [r1, r0]	@ temp, pADC_6(D)->DR
 124              	.LVL8:
  94:../../lpc_chip_11cxx_lib/src/adc_11xx.c **** 	if (!ADC_DR_DONE(temp)) {
  95:../../lpc_chip_11cxx_lib/src/adc_11xx.c **** 		return ERROR;
 125              		.loc 1 95 0
 126 0006 0020     		mov	r0, #0	@ D.6314,
 127              	.LVL9:
  94:../../lpc_chip_11cxx_lib/src/adc_11xx.c **** 	if (!ADC_DR_DONE(temp)) {
 128              		.loc 1 94 0
 129 0008 002B     		cmp	r3, #0	@ temp,
 130 000a 03DA     		bge	.L5	@,
  96:../../lpc_chip_11cxx_lib/src/adc_11xx.c **** 	}
ARM GAS  /var/folders/f9/8bk2lnw15zn4cbgn6wrnb4lm0000gn/T//ccaQ4clJ.s 			page 5


  97:../../lpc_chip_11cxx_lib/src/adc_11xx.c **** 	/*	if(ADC_DR_OVERRUN(temp) && (pADC->CR & ADC_CR_BURST)) */
  98:../../lpc_chip_11cxx_lib/src/adc_11xx.c **** 	/*	return ERROR; */
  99:../../lpc_chip_11cxx_lib/src/adc_11xx.c **** 	*data = (uint16_t) ADC_DR_RESULT(temp);
 131              		.loc 1 99 0
 132 000c 1B04     		lsl	r3, r3, #16	@ tmp126, temp,
 133              	.LVL10:
 134 000e 9B0D     		lsr	r3, r3, #22	@ tmp125, tmp126,
 135 0010 1380     		strh	r3, [r2]	@ tmp125, *data_12(D)
 100:../../lpc_chip_11cxx_lib/src/adc_11xx.c **** 	return SUCCESS;
 136              		.loc 1 100 0
 137 0012 0120     		mov	r0, #1	@ D.6314,
 138              	.L5:
 101:../../lpc_chip_11cxx_lib/src/adc_11xx.c **** }
 139              		.loc 1 101 0
 140              		@ sp needed	@
 141 0014 7047     		bx	lr
 142              		.cfi_endproc
 143              	.LFE201:
 144              		.size	readAdcVal, .-readAdcVal
 145              		.global	__aeabi_uidiv
 146 0016 C046     		.section	.text.Chip_ADC_Init,"ax",%progbits
 147              		.align	2
 148              		.global	Chip_ADC_Init
 149              		.code	16
 150              		.thumb_func
 151              		.type	Chip_ADC_Init, %function
 152              	Chip_ADC_Init:
 153              	.LFB202:
 102:../../lpc_chip_11cxx_lib/src/adc_11xx.c **** 
 103:../../lpc_chip_11cxx_lib/src/adc_11xx.c **** /*****************************************************************************
 104:../../lpc_chip_11cxx_lib/src/adc_11xx.c ****  * Public functions
 105:../../lpc_chip_11cxx_lib/src/adc_11xx.c ****  ****************************************************************************/
 106:../../lpc_chip_11cxx_lib/src/adc_11xx.c **** 
 107:../../lpc_chip_11cxx_lib/src/adc_11xx.c **** /* Initialize the ADC peripheral and the ADC setup structure to default value */
 108:../../lpc_chip_11cxx_lib/src/adc_11xx.c **** void Chip_ADC_Init(LPC_ADC_T *pADC, ADC_CLOCK_SETUP_T *ADCSetup)
 109:../../lpc_chip_11cxx_lib/src/adc_11xx.c **** {
 154              		.loc 1 109 0
 155              		.cfi_startproc
 156              	.LVL11:
 157 0000 38B5     		push	{r3, r4, r5, lr}	@
 158              		.cfi_def_cfa_offset 16
 159              		.cfi_offset 3, -16
 160              		.cfi_offset 4, -12
 161              		.cfi_offset 5, -8
 162              		.cfi_offset 14, -4
 163              		.loc 1 109 0
 164 0002 051C     		mov	r5, r0	@ pADC, pADC
 110:../../lpc_chip_11cxx_lib/src/adc_11xx.c **** 	uint8_t div;
 111:../../lpc_chip_11cxx_lib/src/adc_11xx.c **** 	uint32_t cr = 0;
 112:../../lpc_chip_11cxx_lib/src/adc_11xx.c **** 	uint32_t clk;
 113:../../lpc_chip_11cxx_lib/src/adc_11xx.c **** 
 114:../../lpc_chip_11cxx_lib/src/adc_11xx.c **** 	Chip_SYSCTL_PowerUp(SYSCTL_POWERDOWN_ADC_PD);
 165              		.loc 1 114 0
 166 0004 1020     		mov	r0, #16	@,
 167              	.LVL12:
 109:../../lpc_chip_11cxx_lib/src/adc_11xx.c **** {
 168              		.loc 1 109 0
ARM GAS  /var/folders/f9/8bk2lnw15zn4cbgn6wrnb4lm0000gn/T//ccaQ4clJ.s 			page 6


 169 0006 0C1C     		mov	r4, r1	@ ADCSetup, ADCSetup
 170              		.loc 1 114 0
 171 0008 FFF7FEFF 		bl	Chip_SYSCTL_PowerUp	@
 172              	.LVL13:
 173              	.LBB20:
 174              	.LBB21:
 175              		.file 2 "../../lpc_chip_11cxx_lib/inc/clock_11xx.h"
   1:../../lpc_chip_11cxx_lib/inc/clock_11xx.h **** /*
   2:../../lpc_chip_11cxx_lib/inc/clock_11xx.h ****  * @brief LPC11XX Clock control functions
   3:../../lpc_chip_11cxx_lib/inc/clock_11xx.h ****  *
   4:../../lpc_chip_11cxx_lib/inc/clock_11xx.h ****  * @note
   5:../../lpc_chip_11cxx_lib/inc/clock_11xx.h ****  * Copyright(C) NXP Semiconductors, 2012
   6:../../lpc_chip_11cxx_lib/inc/clock_11xx.h ****  * All rights reserved.
   7:../../lpc_chip_11cxx_lib/inc/clock_11xx.h ****  *
   8:../../lpc_chip_11cxx_lib/inc/clock_11xx.h ****  * @par
   9:../../lpc_chip_11cxx_lib/inc/clock_11xx.h ****  * Software that is described herein is for illustrative purposes only
  10:../../lpc_chip_11cxx_lib/inc/clock_11xx.h ****  * which provides customers with programming information regarding the
  11:../../lpc_chip_11cxx_lib/inc/clock_11xx.h ****  * LPC products.  This software is supplied "AS IS" without any warranties of
  12:../../lpc_chip_11cxx_lib/inc/clock_11xx.h ****  * any kind, and NXP Semiconductors and its licensor disclaim any and
  13:../../lpc_chip_11cxx_lib/inc/clock_11xx.h ****  * all warranties, express or implied, including all implied warranties of
  14:../../lpc_chip_11cxx_lib/inc/clock_11xx.h ****  * merchantability, fitness for a particular purpose and non-infringement of
  15:../../lpc_chip_11cxx_lib/inc/clock_11xx.h ****  * intellectual property rights.  NXP Semiconductors assumes no responsibility
  16:../../lpc_chip_11cxx_lib/inc/clock_11xx.h ****  * or liability for the use of the software, conveys no license or rights under any
  17:../../lpc_chip_11cxx_lib/inc/clock_11xx.h ****  * patent, copyright, mask work right, or any other intellectual property rights in
  18:../../lpc_chip_11cxx_lib/inc/clock_11xx.h ****  * or to any products. NXP Semiconductors reserves the right to make changes
  19:../../lpc_chip_11cxx_lib/inc/clock_11xx.h ****  * in the software without notification. NXP Semiconductors also makes no
  20:../../lpc_chip_11cxx_lib/inc/clock_11xx.h ****  * representation or warranty that such application will be suitable for the
  21:../../lpc_chip_11cxx_lib/inc/clock_11xx.h ****  * specified use without further testing or modification.
  22:../../lpc_chip_11cxx_lib/inc/clock_11xx.h ****  *
  23:../../lpc_chip_11cxx_lib/inc/clock_11xx.h ****  * @par
  24:../../lpc_chip_11cxx_lib/inc/clock_11xx.h ****  * Permission to use, copy, modify, and distribute this software and its
  25:../../lpc_chip_11cxx_lib/inc/clock_11xx.h ****  * documentation is hereby granted, under NXP Semiconductors' and its
  26:../../lpc_chip_11cxx_lib/inc/clock_11xx.h ****  * licensor's relevant copyrights in the software, without fee, provided that it
  27:../../lpc_chip_11cxx_lib/inc/clock_11xx.h ****  * is used in conjunction with NXP Semiconductors microcontrollers.  This
  28:../../lpc_chip_11cxx_lib/inc/clock_11xx.h ****  * copyright, permission, and disclaimer notice must appear in all copies of
  29:../../lpc_chip_11cxx_lib/inc/clock_11xx.h ****  * this code.
  30:../../lpc_chip_11cxx_lib/inc/clock_11xx.h ****  */
  31:../../lpc_chip_11cxx_lib/inc/clock_11xx.h **** 
  32:../../lpc_chip_11cxx_lib/inc/clock_11xx.h **** #ifndef __CLOCK_11XX_H_
  33:../../lpc_chip_11cxx_lib/inc/clock_11xx.h **** #define __CLOCK_11XX_H_
  34:../../lpc_chip_11cxx_lib/inc/clock_11xx.h **** 
  35:../../lpc_chip_11cxx_lib/inc/clock_11xx.h **** #ifdef __cplusplus
  36:../../lpc_chip_11cxx_lib/inc/clock_11xx.h **** extern "C" {
  37:../../lpc_chip_11cxx_lib/inc/clock_11xx.h **** #endif
  38:../../lpc_chip_11cxx_lib/inc/clock_11xx.h **** 
  39:../../lpc_chip_11cxx_lib/inc/clock_11xx.h **** /** @defgroup CLOCK_11XX CHIP: LPC11xx Clock Control block driver
  40:../../lpc_chip_11cxx_lib/inc/clock_11xx.h ****  * @ingroup CHIP_11XX_Drivers
  41:../../lpc_chip_11cxx_lib/inc/clock_11xx.h ****  * @{
  42:../../lpc_chip_11cxx_lib/inc/clock_11xx.h ****  */
  43:../../lpc_chip_11cxx_lib/inc/clock_11xx.h **** 
  44:../../lpc_chip_11cxx_lib/inc/clock_11xx.h **** /** Internal oscillator frequency */
  45:../../lpc_chip_11cxx_lib/inc/clock_11xx.h **** #define SYSCTL_IRC_FREQ (12000000)
  46:../../lpc_chip_11cxx_lib/inc/clock_11xx.h **** 
  47:../../lpc_chip_11cxx_lib/inc/clock_11xx.h **** /**
  48:../../lpc_chip_11cxx_lib/inc/clock_11xx.h ****  * @brief	Set System PLL divider values
  49:../../lpc_chip_11cxx_lib/inc/clock_11xx.h ****  * @param	msel    : PLL feedback divider value. M = msel + 1.
  50:../../lpc_chip_11cxx_lib/inc/clock_11xx.h ****  * @param	psel    : PLL post divider value. P =  (1<<psel).
ARM GAS  /var/folders/f9/8bk2lnw15zn4cbgn6wrnb4lm0000gn/T//ccaQ4clJ.s 			page 7


  51:../../lpc_chip_11cxx_lib/inc/clock_11xx.h ****  * @return	Nothing
  52:../../lpc_chip_11cxx_lib/inc/clock_11xx.h ****  * @note	See the user manual for how to setup the PLL.
  53:../../lpc_chip_11cxx_lib/inc/clock_11xx.h ****  */
  54:../../lpc_chip_11cxx_lib/inc/clock_11xx.h **** STATIC INLINE void Chip_Clock_SetupSystemPLL(uint8_t msel, uint8_t psel)
  55:../../lpc_chip_11cxx_lib/inc/clock_11xx.h **** {
  56:../../lpc_chip_11cxx_lib/inc/clock_11xx.h **** 	LPC_SYSCTL->SYSPLLCTRL = (msel & 0x1F) | ((psel & 0x3) << 5);
  57:../../lpc_chip_11cxx_lib/inc/clock_11xx.h **** }
  58:../../lpc_chip_11cxx_lib/inc/clock_11xx.h **** 
  59:../../lpc_chip_11cxx_lib/inc/clock_11xx.h **** /**
  60:../../lpc_chip_11cxx_lib/inc/clock_11xx.h ****  * @brief	Read System PLL lock status
  61:../../lpc_chip_11cxx_lib/inc/clock_11xx.h ****  * @return	true of the PLL is locked. false if not locked
  62:../../lpc_chip_11cxx_lib/inc/clock_11xx.h ****  */
  63:../../lpc_chip_11cxx_lib/inc/clock_11xx.h **** STATIC INLINE bool Chip_Clock_IsSystemPLLLocked(void)
  64:../../lpc_chip_11cxx_lib/inc/clock_11xx.h **** {
  65:../../lpc_chip_11cxx_lib/inc/clock_11xx.h **** 	return (bool) ((LPC_SYSCTL->SYSPLLSTAT & 1) != 0);
  66:../../lpc_chip_11cxx_lib/inc/clock_11xx.h **** }
  67:../../lpc_chip_11cxx_lib/inc/clock_11xx.h **** 
  68:../../lpc_chip_11cxx_lib/inc/clock_11xx.h **** /**
  69:../../lpc_chip_11cxx_lib/inc/clock_11xx.h ****  * Clock sources for system and USB PLLs
  70:../../lpc_chip_11cxx_lib/inc/clock_11xx.h ****  */
  71:../../lpc_chip_11cxx_lib/inc/clock_11xx.h **** typedef enum CHIP_SYSCTL_PLLCLKSRC {
  72:../../lpc_chip_11cxx_lib/inc/clock_11xx.h **** 	SYSCTL_PLLCLKSRC_IRC = 0,		/*!< Internal oscillator in */
  73:../../lpc_chip_11cxx_lib/inc/clock_11xx.h **** 	SYSCTL_PLLCLKSRC_MAINOSC,		/*!< Crystal (main) oscillator in */
  74:../../lpc_chip_11cxx_lib/inc/clock_11xx.h **** #if defined(CHIP_LPC11AXX)
  75:../../lpc_chip_11cxx_lib/inc/clock_11xx.h **** 	SYSCTL_PLLCLKSRC_EXT_CLKIN,	/*!< External clock in (11Axx only) */
  76:../../lpc_chip_11cxx_lib/inc/clock_11xx.h **** #else
  77:../../lpc_chip_11cxx_lib/inc/clock_11xx.h **** 	SYSCTL_PLLCLKSRC_RESERVED1,	/*!< Reserved */
  78:../../lpc_chip_11cxx_lib/inc/clock_11xx.h **** #endif
  79:../../lpc_chip_11cxx_lib/inc/clock_11xx.h **** 	SYSCTL_PLLCLKSRC_RESERVED2,	/*!< Reserved */
  80:../../lpc_chip_11cxx_lib/inc/clock_11xx.h **** } CHIP_SYSCTL_PLLCLKSRC_T;
  81:../../lpc_chip_11cxx_lib/inc/clock_11xx.h **** 
  82:../../lpc_chip_11cxx_lib/inc/clock_11xx.h **** /**
  83:../../lpc_chip_11cxx_lib/inc/clock_11xx.h ****  * @brief	Set System PLL clock source
  84:../../lpc_chip_11cxx_lib/inc/clock_11xx.h ****  * @param	src	: Clock source for system PLL
  85:../../lpc_chip_11cxx_lib/inc/clock_11xx.h ****  * @return	Nothing
  86:../../lpc_chip_11cxx_lib/inc/clock_11xx.h ****  * @note	This function will also toggle the clock source update register
  87:../../lpc_chip_11cxx_lib/inc/clock_11xx.h ****  * to update the clock source.
  88:../../lpc_chip_11cxx_lib/inc/clock_11xx.h ****  */
  89:../../lpc_chip_11cxx_lib/inc/clock_11xx.h **** void Chip_Clock_SetSystemPLLSource(CHIP_SYSCTL_PLLCLKSRC_T src);
  90:../../lpc_chip_11cxx_lib/inc/clock_11xx.h **** 
  91:../../lpc_chip_11cxx_lib/inc/clock_11xx.h **** #if defined(CHIP_LPC11UXX)
  92:../../lpc_chip_11cxx_lib/inc/clock_11xx.h **** /**
  93:../../lpc_chip_11cxx_lib/inc/clock_11xx.h ****  * @brief	Set USB PLL divider values
  94:../../lpc_chip_11cxx_lib/inc/clock_11xx.h ****  * @param	msel    : PLL feedback divider value. M = msel + 1.
  95:../../lpc_chip_11cxx_lib/inc/clock_11xx.h ****  * @param	psel    : PLL post divider value. P = (1<<psel).
  96:../../lpc_chip_11cxx_lib/inc/clock_11xx.h ****  * @return	Nothing
  97:../../lpc_chip_11cxx_lib/inc/clock_11xx.h ****  * @note	See the user manual for how to setup the PLL.
  98:../../lpc_chip_11cxx_lib/inc/clock_11xx.h ****  */
  99:../../lpc_chip_11cxx_lib/inc/clock_11xx.h **** STATIC INLINE void Chip_Clock_SetupUSBPLL(uint8_t msel, uint8_t psel)
 100:../../lpc_chip_11cxx_lib/inc/clock_11xx.h **** {
 101:../../lpc_chip_11cxx_lib/inc/clock_11xx.h **** 	LPC_SYSCTL->USBPLLCTRL = (msel & 0x1F) | ((psel & 0x3) << 5);
 102:../../lpc_chip_11cxx_lib/inc/clock_11xx.h **** }
 103:../../lpc_chip_11cxx_lib/inc/clock_11xx.h **** 
 104:../../lpc_chip_11cxx_lib/inc/clock_11xx.h **** /**
 105:../../lpc_chip_11cxx_lib/inc/clock_11xx.h ****  * @brief	Read USB PLL lock status
 106:../../lpc_chip_11cxx_lib/inc/clock_11xx.h ****  * @return	true of the PLL is locked. false if not locked
 107:../../lpc_chip_11cxx_lib/inc/clock_11xx.h ****  */
ARM GAS  /var/folders/f9/8bk2lnw15zn4cbgn6wrnb4lm0000gn/T//ccaQ4clJ.s 			page 8


 108:../../lpc_chip_11cxx_lib/inc/clock_11xx.h **** STATIC INLINE bool Chip_Clock_IsUSBPLLLocked(void)
 109:../../lpc_chip_11cxx_lib/inc/clock_11xx.h **** {
 110:../../lpc_chip_11cxx_lib/inc/clock_11xx.h **** 	return (bool) ((LPC_SYSCTL->USBPLLSTAT & 1) != 0);
 111:../../lpc_chip_11cxx_lib/inc/clock_11xx.h **** }
 112:../../lpc_chip_11cxx_lib/inc/clock_11xx.h **** 
 113:../../lpc_chip_11cxx_lib/inc/clock_11xx.h **** /**
 114:../../lpc_chip_11cxx_lib/inc/clock_11xx.h ****  * @brief	Set USB PLL clock source
 115:../../lpc_chip_11cxx_lib/inc/clock_11xx.h ****  * @param	src	: Clock source for USB PLL
 116:../../lpc_chip_11cxx_lib/inc/clock_11xx.h ****  * @return	Nothing
 117:../../lpc_chip_11cxx_lib/inc/clock_11xx.h ****  * @note	This function will also toggle the clock source update register
 118:../../lpc_chip_11cxx_lib/inc/clock_11xx.h ****  * to update the clock source.
 119:../../lpc_chip_11cxx_lib/inc/clock_11xx.h ****  */
 120:../../lpc_chip_11cxx_lib/inc/clock_11xx.h **** void Chip_Clock_SetUSBPLLSource(CHIP_SYSCTL_PLLCLKSRC_T src);
 121:../../lpc_chip_11cxx_lib/inc/clock_11xx.h **** 
 122:../../lpc_chip_11cxx_lib/inc/clock_11xx.h **** #endif /*defined(CHIP_LPC11UXX)*/
 123:../../lpc_chip_11cxx_lib/inc/clock_11xx.h **** 
 124:../../lpc_chip_11cxx_lib/inc/clock_11xx.h **** /**
 125:../../lpc_chip_11cxx_lib/inc/clock_11xx.h ****  * @brief	Bypass System Oscillator and set oscillator frequency range
 126:../../lpc_chip_11cxx_lib/inc/clock_11xx.h ****  * @param	bypass	: Flag to bypass oscillator
 127:../../lpc_chip_11cxx_lib/inc/clock_11xx.h ****  * @param	highfr	: Flag to set oscillator range from 15-25 MHz
 128:../../lpc_chip_11cxx_lib/inc/clock_11xx.h ****  * @return	Nothing
 129:../../lpc_chip_11cxx_lib/inc/clock_11xx.h ****  * @note	Sets the PLL input to bypass the oscillator. This would be
 130:../../lpc_chip_11cxx_lib/inc/clock_11xx.h ****  * used if an external clock that is not an oscillator is attached
 131:../../lpc_chip_11cxx_lib/inc/clock_11xx.h ****  * to the XTALIN pin.
 132:../../lpc_chip_11cxx_lib/inc/clock_11xx.h ****  */
 133:../../lpc_chip_11cxx_lib/inc/clock_11xx.h **** void Chip_Clock_SetPLLBypass(bool bypass, bool highfr);
 134:../../lpc_chip_11cxx_lib/inc/clock_11xx.h **** 
 135:../../lpc_chip_11cxx_lib/inc/clock_11xx.h **** /**
 136:../../lpc_chip_11cxx_lib/inc/clock_11xx.h ****  * Watchdog and low frequency oscillator frequencies plus or minus 40%
 137:../../lpc_chip_11cxx_lib/inc/clock_11xx.h ****  */
 138:../../lpc_chip_11cxx_lib/inc/clock_11xx.h **** typedef enum CHIP_WDTLFO_OSC {
 139:../../lpc_chip_11cxx_lib/inc/clock_11xx.h **** 	WDTLFO_OSC_ILLEGAL,
 140:../../lpc_chip_11cxx_lib/inc/clock_11xx.h **** 	WDTLFO_OSC_0_60,	/*!< 0.6 MHz watchdog/LFO rate */
 141:../../lpc_chip_11cxx_lib/inc/clock_11xx.h **** 	WDTLFO_OSC_1_05,	/*!< 1.05 MHz watchdog/LFO rate */
 142:../../lpc_chip_11cxx_lib/inc/clock_11xx.h **** 	WDTLFO_OSC_1_40,	/*!< 1.4 MHz watchdog/LFO rate */
 143:../../lpc_chip_11cxx_lib/inc/clock_11xx.h **** 	WDTLFO_OSC_1_75,	/*!< 1.75 MHz watchdog/LFO rate */
 144:../../lpc_chip_11cxx_lib/inc/clock_11xx.h **** 	WDTLFO_OSC_2_10,	/*!< 2.1 MHz watchdog/LFO rate */
 145:../../lpc_chip_11cxx_lib/inc/clock_11xx.h **** 	WDTLFO_OSC_2_40,	/*!< 2.4 MHz watchdog/LFO rate */
 146:../../lpc_chip_11cxx_lib/inc/clock_11xx.h **** 	WDTLFO_OSC_2_70,	/*!< 2.7 MHz watchdog/LFO rate */
 147:../../lpc_chip_11cxx_lib/inc/clock_11xx.h **** 	WDTLFO_OSC_3_00,	/*!< 3.0 MHz watchdog/LFO rate */
 148:../../lpc_chip_11cxx_lib/inc/clock_11xx.h **** 	WDTLFO_OSC_3_25,	/*!< 3.25 MHz watchdog/LFO rate */
 149:../../lpc_chip_11cxx_lib/inc/clock_11xx.h **** 	WDTLFO_OSC_3_50,	/*!< 3.5 MHz watchdog/LFO rate */
 150:../../lpc_chip_11cxx_lib/inc/clock_11xx.h **** 	WDTLFO_OSC_3_75,	/*!< 3.75 MHz watchdog/LFO rate */
 151:../../lpc_chip_11cxx_lib/inc/clock_11xx.h **** 	WDTLFO_OSC_4_00,	/*!< 4.0 MHz watchdog/LFO rate */
 152:../../lpc_chip_11cxx_lib/inc/clock_11xx.h **** 	WDTLFO_OSC_4_20,	/*!< 4.2 MHz watchdog/LFO rate */
 153:../../lpc_chip_11cxx_lib/inc/clock_11xx.h **** 	WDTLFO_OSC_4_40,	/*!< 4.4 MHz watchdog/LFO rate */
 154:../../lpc_chip_11cxx_lib/inc/clock_11xx.h **** 	WDTLFO_OSC_4_60		/*!< 4.6 MHz watchdog/LFO rate */
 155:../../lpc_chip_11cxx_lib/inc/clock_11xx.h **** } CHIP_WDTLFO_OSC_T;
 156:../../lpc_chip_11cxx_lib/inc/clock_11xx.h **** 
 157:../../lpc_chip_11cxx_lib/inc/clock_11xx.h **** /**
 158:../../lpc_chip_11cxx_lib/inc/clock_11xx.h ****  * @brief	Setup Watchdog oscillator rate and divider
 159:../../lpc_chip_11cxx_lib/inc/clock_11xx.h ****  * @param	wdtclk	: Selected watchdog clock rate
 160:../../lpc_chip_11cxx_lib/inc/clock_11xx.h ****  * @param	div		: Watchdog divider value, even value between 2 and 64
 161:../../lpc_chip_11cxx_lib/inc/clock_11xx.h ****  * @return	Nothing
 162:../../lpc_chip_11cxx_lib/inc/clock_11xx.h ****  * @note	Watchdog rate = selected rate divided by divider rate
 163:../../lpc_chip_11cxx_lib/inc/clock_11xx.h ****  */
 164:../../lpc_chip_11cxx_lib/inc/clock_11xx.h **** STATIC INLINE void Chip_Clock_SetWDTOSC(CHIP_WDTLFO_OSC_T wdtclk, uint8_t div)
ARM GAS  /var/folders/f9/8bk2lnw15zn4cbgn6wrnb4lm0000gn/T//ccaQ4clJ.s 			page 9


 165:../../lpc_chip_11cxx_lib/inc/clock_11xx.h **** {
 166:../../lpc_chip_11cxx_lib/inc/clock_11xx.h **** 	LPC_SYSCTL->WDTOSCCTRL  = (((uint32_t) wdtclk) << 5) | ((div >> 1) - 1);
 167:../../lpc_chip_11cxx_lib/inc/clock_11xx.h **** }
 168:../../lpc_chip_11cxx_lib/inc/clock_11xx.h **** 
 169:../../lpc_chip_11cxx_lib/inc/clock_11xx.h **** #if defined(CHIP_LPC11AXX)
 170:../../lpc_chip_11cxx_lib/inc/clock_11xx.h **** /**
 171:../../lpc_chip_11cxx_lib/inc/clock_11xx.h ****  * @brief	Setup low frequency oscillator rate and divider
 172:../../lpc_chip_11cxx_lib/inc/clock_11xx.h ****  * @param	lfoclk	: Selected low frequency clock rate
 173:../../lpc_chip_11cxx_lib/inc/clock_11xx.h ****  * @param	div		: Low frequency divider value, even value between 2 and 64
 174:../../lpc_chip_11cxx_lib/inc/clock_11xx.h ****  * @return	Nothing
 175:../../lpc_chip_11cxx_lib/inc/clock_11xx.h ****  * @note	Low frequency oscillator rate = selected rate divided by divider rate
 176:../../lpc_chip_11cxx_lib/inc/clock_11xx.h ****  */
 177:../../lpc_chip_11cxx_lib/inc/clock_11xx.h **** STATIC INLINE void Chip_Clock_SetLFOSC(CHIP_WDTLFO_OSC_T lfoclk, uint8_t div)
 178:../../lpc_chip_11cxx_lib/inc/clock_11xx.h **** {
 179:../../lpc_chip_11cxx_lib/inc/clock_11xx.h **** 	LPC_SYSCTL->LFOSCCTRL  = (((uint32_t) lfoclk) << 5) | ((div >> 1) - 1);
 180:../../lpc_chip_11cxx_lib/inc/clock_11xx.h **** }
 181:../../lpc_chip_11cxx_lib/inc/clock_11xx.h **** 
 182:../../lpc_chip_11cxx_lib/inc/clock_11xx.h **** #endif /*CHIP_LPC11AXX*/
 183:../../lpc_chip_11cxx_lib/inc/clock_11xx.h **** 
 184:../../lpc_chip_11cxx_lib/inc/clock_11xx.h **** /**
 185:../../lpc_chip_11cxx_lib/inc/clock_11xx.h ****  * Clock sources for main system clock
 186:../../lpc_chip_11cxx_lib/inc/clock_11xx.h ****  */
 187:../../lpc_chip_11cxx_lib/inc/clock_11xx.h **** typedef enum CHIP_SYSCTL_MAINCLKSRC {
 188:../../lpc_chip_11cxx_lib/inc/clock_11xx.h **** 	SYSCTL_MAINCLKSRC_IRC = 0,		/*!< Internal oscillator */
 189:../../lpc_chip_11cxx_lib/inc/clock_11xx.h **** 	SYSCTL_MAINCLKSRC_PLLIN,		/*!< System PLL input */
 190:../../lpc_chip_11cxx_lib/inc/clock_11xx.h **** 	SYSCTL_MAINCLKSRC_LFOSC,		/*!< LF oscillator rate (11Axx only) */
 191:../../lpc_chip_11cxx_lib/inc/clock_11xx.h **** 	SYSCTL_MAINCLKSRC_WDTOSC = SYSCTL_MAINCLKSRC_LFOSC,	/*!< Watchdog oscillator rate */
 192:../../lpc_chip_11cxx_lib/inc/clock_11xx.h **** 	SYSCTL_MAINCLKSRC_PLLOUT,		/*!< System PLL output */
 193:../../lpc_chip_11cxx_lib/inc/clock_11xx.h **** } CHIP_SYSCTL_MAINCLKSRC_T;
 194:../../lpc_chip_11cxx_lib/inc/clock_11xx.h **** 
 195:../../lpc_chip_11cxx_lib/inc/clock_11xx.h **** /**
 196:../../lpc_chip_11cxx_lib/inc/clock_11xx.h ****  * @brief	Set main system clock source
 197:../../lpc_chip_11cxx_lib/inc/clock_11xx.h ****  * @param	src	: Clock source for main system
 198:../../lpc_chip_11cxx_lib/inc/clock_11xx.h ****  * @return	Nothing
 199:../../lpc_chip_11cxx_lib/inc/clock_11xx.h ****  * @note	This function will also toggle the clock source update register
 200:../../lpc_chip_11cxx_lib/inc/clock_11xx.h ****  * to update the clock source.
 201:../../lpc_chip_11cxx_lib/inc/clock_11xx.h ****  */
 202:../../lpc_chip_11cxx_lib/inc/clock_11xx.h **** void Chip_Clock_SetMainClockSource(CHIP_SYSCTL_MAINCLKSRC_T src);
 203:../../lpc_chip_11cxx_lib/inc/clock_11xx.h **** 
 204:../../lpc_chip_11cxx_lib/inc/clock_11xx.h **** /**
 205:../../lpc_chip_11cxx_lib/inc/clock_11xx.h ****  * @brief   Returns the main clock source
 206:../../lpc_chip_11cxx_lib/inc/clock_11xx.h ****  * @return	Which clock is used for the core clock source?
 207:../../lpc_chip_11cxx_lib/inc/clock_11xx.h ****  */
 208:../../lpc_chip_11cxx_lib/inc/clock_11xx.h **** STATIC INLINE CHIP_SYSCTL_MAINCLKSRC_T Chip_Clock_GetMainClockSource(void)
 209:../../lpc_chip_11cxx_lib/inc/clock_11xx.h **** {
 210:../../lpc_chip_11cxx_lib/inc/clock_11xx.h **** 	return (CHIP_SYSCTL_MAINCLKSRC_T) (LPC_SYSCTL->MAINCLKSEL);
 211:../../lpc_chip_11cxx_lib/inc/clock_11xx.h **** }
 212:../../lpc_chip_11cxx_lib/inc/clock_11xx.h **** 
 213:../../lpc_chip_11cxx_lib/inc/clock_11xx.h **** /**
 214:../../lpc_chip_11cxx_lib/inc/clock_11xx.h ****  * @brief	Set system clock divider
 215:../../lpc_chip_11cxx_lib/inc/clock_11xx.h ****  * @param	div	: divider for system clock
 216:../../lpc_chip_11cxx_lib/inc/clock_11xx.h ****  * @return	Nothing
 217:../../lpc_chip_11cxx_lib/inc/clock_11xx.h ****  * @note	Use 0 to disable, or a divider value of 1 to 255. The system clock
 218:../../lpc_chip_11cxx_lib/inc/clock_11xx.h ****  * rate is the main system clock divided by this value.
 219:../../lpc_chip_11cxx_lib/inc/clock_11xx.h ****  */
 220:../../lpc_chip_11cxx_lib/inc/clock_11xx.h **** STATIC INLINE void Chip_Clock_SetSysClockDiv(uint32_t div)
 221:../../lpc_chip_11cxx_lib/inc/clock_11xx.h **** {
ARM GAS  /var/folders/f9/8bk2lnw15zn4cbgn6wrnb4lm0000gn/T//ccaQ4clJ.s 			page 10


 222:../../lpc_chip_11cxx_lib/inc/clock_11xx.h **** 	LPC_SYSCTL->SYSAHBCLKDIV  = div;
 223:../../lpc_chip_11cxx_lib/inc/clock_11xx.h **** }
 224:../../lpc_chip_11cxx_lib/inc/clock_11xx.h **** 
 225:../../lpc_chip_11cxx_lib/inc/clock_11xx.h **** /**
 226:../../lpc_chip_11cxx_lib/inc/clock_11xx.h ****  * System and peripheral clocks
 227:../../lpc_chip_11cxx_lib/inc/clock_11xx.h ****  */
 228:../../lpc_chip_11cxx_lib/inc/clock_11xx.h **** typedef enum CHIP_SYSCTL_CLOCK {
 229:../../lpc_chip_11cxx_lib/inc/clock_11xx.h **** 	SYSCTL_CLOCK_SYS = 0,				/*!< 0: System clock */
 230:../../lpc_chip_11cxx_lib/inc/clock_11xx.h **** 	SYSCTL_CLOCK_ROM,					/*!<1:  ROM clock */
 231:../../lpc_chip_11cxx_lib/inc/clock_11xx.h **** 	SYSCTL_CLOCK_RAM,					/*!< 2: RAM clock */
 232:../../lpc_chip_11cxx_lib/inc/clock_11xx.h **** 	SYSCTL_CLOCK_FLASHREG,				/*!< 3: FLASH register interface clock */
 233:../../lpc_chip_11cxx_lib/inc/clock_11xx.h **** 	SYSCTL_CLOCK_FLASHARRAY,			/*!< 4: FLASH array access clock */
 234:../../lpc_chip_11cxx_lib/inc/clock_11xx.h **** #if defined(CHIP_LPC110X)
 235:../../lpc_chip_11cxx_lib/inc/clock_11xx.h **** 	SYSCTL_CLOCK_RESERVED5,				/*!< 5: Reserved */
 236:../../lpc_chip_11cxx_lib/inc/clock_11xx.h **** #else
 237:../../lpc_chip_11cxx_lib/inc/clock_11xx.h **** 	SYSCTL_CLOCK_I2C,					/*!< 5: I2C clock, not on LPC110x */
 238:../../lpc_chip_11cxx_lib/inc/clock_11xx.h **** #endif
 239:../../lpc_chip_11cxx_lib/inc/clock_11xx.h **** 	SYSCTL_CLOCK_GPIO,					/*!< 6: GPIO clock */
 240:../../lpc_chip_11cxx_lib/inc/clock_11xx.h **** 	SYSCTL_CLOCK_CT16B0,				/*!< 7: 16-bit Counter/timer 0 clock */
 241:../../lpc_chip_11cxx_lib/inc/clock_11xx.h **** 	SYSCTL_CLOCK_CT16B1,				/*!< 8: 16-bit Counter/timer 1 clock */
 242:../../lpc_chip_11cxx_lib/inc/clock_11xx.h **** 	SYSCTL_CLOCK_CT32B0,				/*!< 9: 32-bit Counter/timer 0 clock */
 243:../../lpc_chip_11cxx_lib/inc/clock_11xx.h **** 	SYSCTL_CLOCK_CT32B1,				/*!< 10: 32-bit Counter/timer 1 clock */
 244:../../lpc_chip_11cxx_lib/inc/clock_11xx.h **** 	SYSCTL_CLOCK_SSP0,					/*!< 11: SSP0 clock */
 245:../../lpc_chip_11cxx_lib/inc/clock_11xx.h **** 	SYSCTL_CLOCK_UART0,					/*!< 12: UART0 clock */
 246:../../lpc_chip_11cxx_lib/inc/clock_11xx.h **** 	SYSCTL_CLOCK_ADC,					/*!< 13: ADC clock */
 247:../../lpc_chip_11cxx_lib/inc/clock_11xx.h **** #if defined(CHIP_LPC11UXX)
 248:../../lpc_chip_11cxx_lib/inc/clock_11xx.h **** 	SYSCTL_CLOCK_USB,					/*!< 14: USB clock, LPC11Uxx only */
 249:../../lpc_chip_11cxx_lib/inc/clock_11xx.h **** #else
 250:../../lpc_chip_11cxx_lib/inc/clock_11xx.h **** 	SYSCTL_CLOCK_RESERVED14,			/*!< 14: Reserved */
 251:../../lpc_chip_11cxx_lib/inc/clock_11xx.h **** #endif
 252:../../lpc_chip_11cxx_lib/inc/clock_11xx.h **** 	SYSCTL_CLOCK_WDT,					/*!< 15: Watchdog timer clock */
 253:../../lpc_chip_11cxx_lib/inc/clock_11xx.h **** 	SYSCTL_CLOCK_IOCON,					/*!< 16: IOCON block clock */
 254:../../lpc_chip_11cxx_lib/inc/clock_11xx.h **** #if defined(CHIP_LPC11CXX)
 255:../../lpc_chip_11cxx_lib/inc/clock_11xx.h **** 	SYSCTL_CLOCK_CAN,					/*!< 17: CAN clock, LPC11Cxx only */
 256:../../lpc_chip_11cxx_lib/inc/clock_11xx.h **** #else
 257:../../lpc_chip_11cxx_lib/inc/clock_11xx.h **** 	SYSCTL_CLOCK_RESERVED17,			/*!< 17: Reserved */
 258:../../lpc_chip_11cxx_lib/inc/clock_11xx.h **** #endif
 259:../../lpc_chip_11cxx_lib/inc/clock_11xx.h **** #if !(defined(CHIP_LPC110X) || defined(CHIP_LPC11XXLV))  
 260:../../lpc_chip_11cxx_lib/inc/clock_11xx.h **** 	SYSCTL_CLOCK_SSP1,					/*!< 18: SSP1 clock, LPC11A/C/E/Uxx//1125 only */
 261:../../lpc_chip_11cxx_lib/inc/clock_11xx.h **** #if !defined(CHIP_LPC11CXX)
 262:../../lpc_chip_11cxx_lib/inc/clock_11xx.h **** 	SYSCTL_CLOCK_PINT,					/*!< 19: GPIO Pin int register interface clock, LPC11A/E/Uxx only */
 263:../../lpc_chip_11cxx_lib/inc/clock_11xx.h **** #if defined(CHIP_LPC11AXX)
 264:../../lpc_chip_11cxx_lib/inc/clock_11xx.h **** 	SYSCTL_CLOCK_ACOMP,					/*!< 20: Analog comparator clock, LPC11Axx only */
 265:../../lpc_chip_11cxx_lib/inc/clock_11xx.h **** 	SYSCTL_CLOCK_DAC,					/*!< 21: DAC clock, LPC11Axx only */
 266:../../lpc_chip_11cxx_lib/inc/clock_11xx.h **** #else
 267:../../lpc_chip_11cxx_lib/inc/clock_11xx.h **** 	SYSCTL_CLOCK_RESERVED20,			/*!< 20: Reserved */
 268:../../lpc_chip_11cxx_lib/inc/clock_11xx.h **** 	SYSCTL_CLOCK_RESERVED21,			/*!< 21: Reserved */
 269:../../lpc_chip_11cxx_lib/inc/clock_11xx.h **** #endif
 270:../../lpc_chip_11cxx_lib/inc/clock_11xx.h **** 	SYSCTL_CLOCK_RESERVED22,			/*!< 22: Reserved */
 271:../../lpc_chip_11cxx_lib/inc/clock_11xx.h **** 	SYSCTL_CLOCK_P0INT,					/*!< 23: GPIO GROUP1 interrupt register clock, LPC11Axx only */
 272:../../lpc_chip_11cxx_lib/inc/clock_11xx.h **** 	SYSCTL_CLOCK_GROUP0INT = SYSCTL_CLOCK_P0INT,/*!< 23: GPIO GROUP0 interrupt register interface cloc
 273:../../lpc_chip_11cxx_lib/inc/clock_11xx.h **** 	SYSCTL_CLOCK_P1INT,					/*!< 24: GPIO GROUP1 interrupt register clock, LPC11Axx only */
 274:../../lpc_chip_11cxx_lib/inc/clock_11xx.h **** 	SYSCTL_CLOCK_GROUP1INT = SYSCTL_CLOCK_P1INT,/*!< 24: GPIO GROUP1 interrupt register interface cloc
 275:../../lpc_chip_11cxx_lib/inc/clock_11xx.h **** 	SYSCTL_CLOCK_RESERVED25,			/*!< 25: Reserved */
 276:../../lpc_chip_11cxx_lib/inc/clock_11xx.h **** #if defined(CHIP_LPC11EXX)  || defined(CHIP_LPC11UXX)
 277:../../lpc_chip_11cxx_lib/inc/clock_11xx.h **** 	SYSCTL_CLOCK_RAM1,					/*!< 26: SRAM block (0x20000000) clock, LPC11E/Uxx only */
 278:../../lpc_chip_11cxx_lib/inc/clock_11xx.h **** #else
ARM GAS  /var/folders/f9/8bk2lnw15zn4cbgn6wrnb4lm0000gn/T//ccaQ4clJ.s 			page 11


 279:../../lpc_chip_11cxx_lib/inc/clock_11xx.h **** 	SYSCTL_CLOCK_RESERVED26,			/*!< 26: Reserved */
 280:../../lpc_chip_11cxx_lib/inc/clock_11xx.h **** #endif
 281:../../lpc_chip_11cxx_lib/inc/clock_11xx.h **** #if defined(CHIP_LPC11UXX)
 282:../../lpc_chip_11cxx_lib/inc/clock_11xx.h **** 	SYSCTL_CLOCK_USBRAM,				/*!< 27: USB SRAM block clock, LPC11Uxx only */
 283:../../lpc_chip_11cxx_lib/inc/clock_11xx.h **** #else
 284:../../lpc_chip_11cxx_lib/inc/clock_11xx.h **** 	SYSCTL_CLOCK_RESERVED27,			/*!< 27: Reserved */
 285:../../lpc_chip_11cxx_lib/inc/clock_11xx.h **** #endif
 286:../../lpc_chip_11cxx_lib/inc/clock_11xx.h **** #endif /* !defined(CHIP_LPC11CXX) */
 287:../../lpc_chip_11cxx_lib/inc/clock_11xx.h **** #endif /* !(defined(CHIP_LPC110X) || defined(CHIP_LPC11XXLV)) */
 288:../../lpc_chip_11cxx_lib/inc/clock_11xx.h **** } CHIP_SYSCTL_CLOCK_T;
 289:../../lpc_chip_11cxx_lib/inc/clock_11xx.h **** 
 290:../../lpc_chip_11cxx_lib/inc/clock_11xx.h **** /**
 291:../../lpc_chip_11cxx_lib/inc/clock_11xx.h ****  * @brief	Enable a system or peripheral clock
 292:../../lpc_chip_11cxx_lib/inc/clock_11xx.h ****  * @param	clk	: Clock to enable
 293:../../lpc_chip_11cxx_lib/inc/clock_11xx.h ****  * @return	Nothing
 294:../../lpc_chip_11cxx_lib/inc/clock_11xx.h ****  */
 295:../../lpc_chip_11cxx_lib/inc/clock_11xx.h **** STATIC INLINE void Chip_Clock_EnablePeriphClock(CHIP_SYSCTL_CLOCK_T clk)
 296:../../lpc_chip_11cxx_lib/inc/clock_11xx.h **** {
 297:../../lpc_chip_11cxx_lib/inc/clock_11xx.h **** 	LPC_SYSCTL->SYSAHBCLKCTRL |= (1 << clk);
 176              		.loc 2 297 0
 177 000c 104A     		ldr	r2, .L9	@ tmp130,
 178 000e 8023     		mov	r3, #128	@ tmp131,
 179 0010 D058     		ldr	r0, [r2, r3]	@ D.6329, MEM[(struct LPC_SYSCTL_T *)1074036736B].SYSAHBCLKCTRL
 180 0012 8021     		mov	r1, #128	@ tmp160,
 181 0014 8901     		lsl	r1, r1, #6	@ tmp132, tmp160,
 182 0016 0143     		orr	r1, r0	@ D.6329, D.6329
 183 0018 D150     		str	r1, [r2, r3]	@ D.6329, MEM[(struct LPC_SYSCTL_T *)1074036736B].SYSAHBCLKCTRL
 184              	.LBE21:
 185              	.LBE20:
 115:../../lpc_chip_11cxx_lib/src/adc_11xx.c **** 
 116:../../lpc_chip_11cxx_lib/src/adc_11xx.c **** 	Chip_Clock_EnablePeriphClock(SYSCTL_CLOCK_ADC);
 117:../../lpc_chip_11cxx_lib/src/adc_11xx.c **** 
 118:../../lpc_chip_11cxx_lib/src/adc_11xx.c **** 	pADC->INTEN = 0;		/* Disable all interrupts */
 119:../../lpc_chip_11cxx_lib/src/adc_11xx.c **** 
 120:../../lpc_chip_11cxx_lib/src/adc_11xx.c **** 	cr |= ADC_CR_PDN;
 121:../../lpc_chip_11cxx_lib/src/adc_11xx.c **** 
 122:../../lpc_chip_11cxx_lib/src/adc_11xx.c **** 	ADCSetup->adcRate = ADC_MAX_SAMPLE_RATE;
 186              		.loc 1 122 0
 187 001a 0E4A     		ldr	r2, .L9+4	@ tmp136,
 118:../../lpc_chip_11cxx_lib/src/adc_11xx.c **** 	pADC->INTEN = 0;		/* Disable all interrupts */
 188              		.loc 1 118 0
 189 001c 0023     		mov	r3, #0	@ tmp135,
 190 001e EB60     		str	r3, [r5, #12]	@ tmp135, pADC_5(D)->INTEN
 191              	.LVL14:
 192              		.loc 1 122 0
 193 0020 2260     		str	r2, [r4]	@ tmp136, ADCSetup_7(D)->adcRate
 123:../../lpc_chip_11cxx_lib/src/adc_11xx.c **** 	ADCSetup->bitsAccuracy = ADC_10BITS;
 194              		.loc 1 123 0
 195 0022 2371     		strb	r3, [r4, #4]	@ tmp135, ADCSetup_7(D)->bitsAccuracy
 196              	.LVL15:
 124:../../lpc_chip_11cxx_lib/src/adc_11xx.c **** 	clk = 11;
 125:../../lpc_chip_11cxx_lib/src/adc_11xx.c **** 
 126:../../lpc_chip_11cxx_lib/src/adc_11xx.c **** 	ADCSetup->burstMode = false;
 197              		.loc 1 126 0
 198 0024 6371     		strb	r3, [r4, #5]	@ tmp135, ADCSetup_7(D)->burstMode
 199              	.LVL16:
 200              	.LBB22:
ARM GAS  /var/folders/f9/8bk2lnw15zn4cbgn6wrnb4lm0000gn/T//ccaQ4clJ.s 			page 12


 201              	.LBB23:
  67:../../lpc_chip_11cxx_lib/src/adc_11xx.c **** 	adcBlockFreq = Chip_Clock_GetSystemClockRate();
 202              		.loc 1 67 0
 203 0026 FFF7FEFF 		bl	Chip_Clock_GetSystemClockRate	@
 204              	.LVL17:
 205              	.LBE23:
 206              	.LBE22:
 127:../../lpc_chip_11cxx_lib/src/adc_11xx.c **** 	div = getClkDiv(false, ADCSetup->adcRate, clk);
 128:../../lpc_chip_11cxx_lib/src/adc_11xx.c **** 	cr |= ADC_CR_CLKDIV(div);
 129:../../lpc_chip_11cxx_lib/src/adc_11xx.c **** 	cr |= ADC_CR_BITACC(ADCSetup->bitsAccuracy);
 207              		.loc 1 129 0
 208 002a 2379     		ldrb	r3, [r4, #4]	@ tmp144,
 209 002c 0724     		mov	r4, #7	@ tmp146,
 210              	.LVL18:
 211 002e 2340     		and	r3, r4	@ D.6328, tmp146
 128:../../lpc_chip_11cxx_lib/src/adc_11xx.c **** 	cr |= ADC_CR_CLKDIV(div);
 212              		.loc 1 128 0
 213 0030 8024     		mov	r4, #128	@ tmp161,
 214              		.loc 1 129 0
 215 0032 5B04     		lsl	r3, r3, #17	@ D.6328, D.6328,
 128:../../lpc_chip_11cxx_lib/src/adc_11xx.c **** 	cr |= ADC_CR_CLKDIV(div);
 216              		.loc 1 128 0
 217 0034 A403     		lsl	r4, r4, #14	@ tmp149, tmp161,
 218 0036 1C43     		orr	r4, r3	@ cr, D.6328
 219              	.LBB25:
 220              	.LBB24:
  77:../../lpc_chip_11cxx_lib/src/adc_11xx.c **** 	div = ((adcBlockFreq * 2 + fullAdcRate) / (fullAdcRate * 2)) - 1;
 221              		.loc 1 77 0
 222 0038 074B     		ldr	r3, .L9+8	@,
 223 003a 4000     		lsl	r0, r0, #1	@ D.6329, adcBlockFreq,
 224              	.LVL19:
 225 003c C018     		add	r0, r0, r3	@ D.6329, D.6329,
 226              	.LVL20:
 227 003e 0749     		ldr	r1, .L9+12	@,
 228 0040 FFF7FEFF 		bl	__aeabi_uidiv	@
 229              	.LVL21:
 230 0044 431E     		sub	r3, r0, #1	@ tmp157, D.6329,
 231              	.LBE24:
 232              	.LBE25:
 128:../../lpc_chip_11cxx_lib/src/adc_11xx.c **** 	cr |= ADC_CR_CLKDIV(div);
 233              		.loc 1 128 0
 234 0046 DBB2     		uxtb	r3, r3	@ D.6328, tmp157
 235 0048 1B02     		lsl	r3, r3, #8	@ D.6328, D.6328,
 236              		.loc 1 129 0
 237 004a 1C43     		orr	r4, r3	@ cr, D.6328
 238              	.LVL22:
 130:../../lpc_chip_11cxx_lib/src/adc_11xx.c **** 	pADC->CR = cr;
 239              		.loc 1 130 0
 240 004c 2C60     		str	r4, [r5]	@ cr, pADC_5(D)->CR
 131:../../lpc_chip_11cxx_lib/src/adc_11xx.c **** }
 241              		.loc 1 131 0
 242              		@ sp needed	@
 243              	.LVL23:
 244              	.LVL24:
 245 004e 38BD     		pop	{r3, r4, r5, pc}
 246              	.L10:
 247              		.align	2
ARM GAS  /var/folders/f9/8bk2lnw15zn4cbgn6wrnb4lm0000gn/T//ccaQ4clJ.s 			page 13


 248              	.L9:
 249 0050 00800440 		.word	1074036736
 250 0054 801A0600 		.word	400000
 251 0058 80234300 		.word	4400000
 252 005c 00478600 		.word	8800000
 253              		.cfi_endproc
 254              	.LFE202:
 255              		.size	Chip_ADC_Init, .-Chip_ADC_Init
 256              		.section	.text.Chip_ADC_DeInit,"ax",%progbits
 257              		.align	2
 258              		.global	Chip_ADC_DeInit
 259              		.code	16
 260              		.thumb_func
 261              		.type	Chip_ADC_DeInit, %function
 262              	Chip_ADC_DeInit:
 263              	.LFB203:
 132:../../lpc_chip_11cxx_lib/src/adc_11xx.c **** 
 133:../../lpc_chip_11cxx_lib/src/adc_11xx.c **** /* Shutdown ADC */
 134:../../lpc_chip_11cxx_lib/src/adc_11xx.c **** void Chip_ADC_DeInit(LPC_ADC_T *pADC)
 135:../../lpc_chip_11cxx_lib/src/adc_11xx.c **** {
 264              		.loc 1 135 0
 265              		.cfi_startproc
 266              	.LVL25:
 267 0000 08B5     		push	{r3, lr}	@
 268              		.cfi_def_cfa_offset 8
 269              		.cfi_offset 3, -8
 270              		.cfi_offset 14, -4
 136:../../lpc_chip_11cxx_lib/src/adc_11xx.c **** 	pADC->INTEN = 0x00000100;
 271              		.loc 1 136 0
 272 0002 8023     		mov	r3, #128	@ tmp120,
 273 0004 5B00     		lsl	r3, r3, #1	@ tmp113, tmp120,
 274 0006 C360     		str	r3, [r0, #12]	@ tmp113, pADC_2(D)->INTEN
 275              	.LBB26:
 276              	.LBB27:
 298:../../lpc_chip_11cxx_lib/inc/clock_11xx.h **** }
 299:../../lpc_chip_11cxx_lib/inc/clock_11xx.h **** 
 300:../../lpc_chip_11cxx_lib/inc/clock_11xx.h **** /**
 301:../../lpc_chip_11cxx_lib/inc/clock_11xx.h ****  * @brief	Disable a system or peripheral clock
 302:../../lpc_chip_11cxx_lib/inc/clock_11xx.h ****  * @param	clk	: Clock to disable
 303:../../lpc_chip_11cxx_lib/inc/clock_11xx.h ****  * @return	Nothing
 304:../../lpc_chip_11cxx_lib/inc/clock_11xx.h ****  */
 305:../../lpc_chip_11cxx_lib/inc/clock_11xx.h **** STATIC INLINE void Chip_Clock_DisablePeriphClock(CHIP_SYSCTL_CLOCK_T clk)
 306:../../lpc_chip_11cxx_lib/inc/clock_11xx.h **** {
 307:../../lpc_chip_11cxx_lib/inc/clock_11xx.h **** 	LPC_SYSCTL->SYSAHBCLKCTRL &= ~(1 << clk);
 277              		.loc 2 307 0
 278 0008 054A     		ldr	r2, .L12	@ tmp115,
 279              	.LBE27:
 280              	.LBE26:
 137:../../lpc_chip_11cxx_lib/src/adc_11xx.c **** 	pADC->CR = 0;
 281              		.loc 1 137 0
 282 000a 0023     		mov	r3, #0	@ tmp114,
 283 000c 0360     		str	r3, [r0]	@ tmp114, pADC_2(D)->CR
 284              	.LVL26:
 285              	.LBB30:
 286              	.LBB28:
 287              		.loc 2 307 0
 288 000e 8023     		mov	r3, #128	@ tmp116,
ARM GAS  /var/folders/f9/8bk2lnw15zn4cbgn6wrnb4lm0000gn/T//ccaQ4clJ.s 			page 14


 289 0010 D058     		ldr	r0, [r2, r3]	@ D.6332, MEM[(struct LPC_SYSCTL_T *)1074036736B].SYSAHBCLKCTRL
 290              	.LVL27:
 291 0012 0449     		ldr	r1, .L12+4	@ tmp117,
 292              	.LBE28:
 293              	.LBE30:
 138:../../lpc_chip_11cxx_lib/src/adc_11xx.c **** 	Chip_Clock_DisablePeriphClock(SYSCTL_CLOCK_ADC);
 139:../../lpc_chip_11cxx_lib/src/adc_11xx.c **** 	Chip_SYSCTL_PowerDown(SYSCTL_POWERDOWN_ADC_PD);
 140:../../lpc_chip_11cxx_lib/src/adc_11xx.c **** }
 294              		.loc 1 140 0
 295              		@ sp needed	@
 296              	.LBB31:
 297              	.LBB29:
 298              		.loc 2 307 0
 299 0014 0140     		and	r1, r0	@ D.6332, D.6332
 300 0016 D150     		str	r1, [r2, r3]	@ D.6332, MEM[(struct LPC_SYSCTL_T *)1074036736B].SYSAHBCLKCTRL
 301              	.LBE29:
 302              	.LBE31:
 139:../../lpc_chip_11cxx_lib/src/adc_11xx.c **** 	Chip_SYSCTL_PowerDown(SYSCTL_POWERDOWN_ADC_PD);
 303              		.loc 1 139 0
 304 0018 1020     		mov	r0, #16	@,
 305 001a FFF7FEFF 		bl	Chip_SYSCTL_PowerDown	@
 306              	.LVL28:
 307              		.loc 1 140 0
 308 001e 08BD     		pop	{r3, pc}
 309              	.L13:
 310              		.align	2
 311              	.L12:
 312 0020 00800440 		.word	1074036736
 313 0024 FFDFFFFF 		.word	-8193
 314              		.cfi_endproc
 315              	.LFE203:
 316              		.size	Chip_ADC_DeInit, .-Chip_ADC_DeInit
 317              		.section	.text.Chip_ADC_ReadValue,"ax",%progbits
 318              		.align	2
 319              		.global	Chip_ADC_ReadValue
 320              		.code	16
 321              		.thumb_func
 322              		.type	Chip_ADC_ReadValue, %function
 323              	Chip_ADC_ReadValue:
 324              	.LFB204:
 141:../../lpc_chip_11cxx_lib/src/adc_11xx.c **** 
 142:../../lpc_chip_11cxx_lib/src/adc_11xx.c **** /* Get the ADC value */
 143:../../lpc_chip_11cxx_lib/src/adc_11xx.c **** Status Chip_ADC_ReadValue(LPC_ADC_T *pADC, uint8_t channel, uint16_t *data)
 144:../../lpc_chip_11cxx_lib/src/adc_11xx.c **** {
 325              		.loc 1 144 0
 326              		.cfi_startproc
 327              	.LVL29:
 328              	.LBB32:
 329              	.LBB33:
  93:../../lpc_chip_11cxx_lib/src/adc_11xx.c **** 	temp = pADC->DR[channel];
 330              		.loc 1 93 0
 331 0000 0431     		add	r1, r1, #4	@ tmp121,
 332              	.LVL30:
 333 0002 8900     		lsl	r1, r1, #2	@ tmp122, tmp121,
 334              	.LVL31:
 335 0004 0B58     		ldr	r3, [r1, r0]	@ temp, pADC_2(D)->DR
 336              	.LVL32:
ARM GAS  /var/folders/f9/8bk2lnw15zn4cbgn6wrnb4lm0000gn/T//ccaQ4clJ.s 			page 15


  95:../../lpc_chip_11cxx_lib/src/adc_11xx.c **** 		return ERROR;
 337              		.loc 1 95 0
 338 0006 0020     		mov	r0, #0	@ D.6338,
 339              	.LVL33:
  94:../../lpc_chip_11cxx_lib/src/adc_11xx.c **** 	if (!ADC_DR_DONE(temp)) {
 340              		.loc 1 94 0
 341 0008 002B     		cmp	r3, #0	@ temp,
 342 000a 03DA     		bge	.L15	@,
  99:../../lpc_chip_11cxx_lib/src/adc_11xx.c **** 	*data = (uint16_t) ADC_DR_RESULT(temp);
 343              		.loc 1 99 0
 344 000c 1B04     		lsl	r3, r3, #16	@ tmp126, temp,
 345              	.LVL34:
 346 000e 9B0D     		lsr	r3, r3, #22	@ tmp125, tmp126,
 347 0010 1380     		strh	r3, [r2]	@ tmp125, *data_4(D)
 100:../../lpc_chip_11cxx_lib/src/adc_11xx.c **** 	return SUCCESS;
 348              		.loc 1 100 0
 349 0012 0120     		mov	r0, #1	@ D.6338,
 350              	.L15:
 351              	.LBE33:
 352              	.LBE32:
 145:../../lpc_chip_11cxx_lib/src/adc_11xx.c **** 	return readAdcVal(pADC, channel, data);
 146:../../lpc_chip_11cxx_lib/src/adc_11xx.c **** }
 353              		.loc 1 146 0
 354              		@ sp needed	@
 355 0014 7047     		bx	lr
 356              		.cfi_endproc
 357              	.LFE204:
 358              		.size	Chip_ADC_ReadValue, .-Chip_ADC_ReadValue
 359 0016 C046     		.section	.text.Chip_ADC_ReadStatus,"ax",%progbits
 360              		.align	2
 361              		.global	Chip_ADC_ReadStatus
 362              		.code	16
 363              		.thumb_func
 364              		.type	Chip_ADC_ReadStatus, %function
 365              	Chip_ADC_ReadStatus:
 366              	.LFB205:
 147:../../lpc_chip_11cxx_lib/src/adc_11xx.c **** 
 148:../../lpc_chip_11cxx_lib/src/adc_11xx.c **** /* Get ADC Channel status from ADC data register */
 149:../../lpc_chip_11cxx_lib/src/adc_11xx.c **** FlagStatus Chip_ADC_ReadStatus(LPC_ADC_T *pADC, uint8_t channel, uint32_t StatusType)
 150:../../lpc_chip_11cxx_lib/src/adc_11xx.c **** {
 367              		.loc 1 150 0
 368              		.cfi_startproc
 369              	.LVL35:
 151:../../lpc_chip_11cxx_lib/src/adc_11xx.c **** 	switch (StatusType) {
 370              		.loc 1 151 0
 371 0000 012A     		cmp	r2, #1	@ StatusType,
 372 0002 11D0     		beq	.L19	@,
 373 0004 002A     		cmp	r2, #0	@ StatusType,
 374 0006 09D0     		beq	.L20	@,
 375 0008 022A     		cmp	r2, #2	@ StatusType,
 376 000a 01D0     		beq	.L21	@,
 152:../../lpc_chip_11cxx_lib/src/adc_11xx.c **** 	case ADC_DR_DONE_STAT:
 153:../../lpc_chip_11cxx_lib/src/adc_11xx.c **** 		return (pADC->STAT & (1UL << channel)) ? SET : RESET;
 154:../../lpc_chip_11cxx_lib/src/adc_11xx.c **** 
 155:../../lpc_chip_11cxx_lib/src/adc_11xx.c **** 	case ADC_DR_OVERRUN_STAT:
 156:../../lpc_chip_11cxx_lib/src/adc_11xx.c **** 		channel += 8;
 157:../../lpc_chip_11cxx_lib/src/adc_11xx.c **** 		return (pADC->STAT & (1UL << channel)) ? SET : RESET;
ARM GAS  /var/folders/f9/8bk2lnw15zn4cbgn6wrnb4lm0000gn/T//ccaQ4clJ.s 			page 16


 158:../../lpc_chip_11cxx_lib/src/adc_11xx.c **** 
 159:../../lpc_chip_11cxx_lib/src/adc_11xx.c **** 	case ADC_DR_ADINT_STAT:
 160:../../lpc_chip_11cxx_lib/src/adc_11xx.c **** 		return pADC->STAT >> 16 ? SET : RESET;
 161:../../lpc_chip_11cxx_lib/src/adc_11xx.c **** 
 162:../../lpc_chip_11cxx_lib/src/adc_11xx.c **** 	default:
 163:../../lpc_chip_11cxx_lib/src/adc_11xx.c **** 		break;
 164:../../lpc_chip_11cxx_lib/src/adc_11xx.c **** 	}
 165:../../lpc_chip_11cxx_lib/src/adc_11xx.c **** 	return RESET;
 377              		.loc 1 165 0
 378 000c 0020     		mov	r0, #0	@ D.6342,
 379              	.LVL36:
 380              	.L18:
 166:../../lpc_chip_11cxx_lib/src/adc_11xx.c **** }
 381              		.loc 1 166 0
 382              		@ sp needed	@
 383 000e 7047     		bx	lr
 384              	.LVL37:
 385              	.L21:
 160:../../lpc_chip_11cxx_lib/src/adc_11xx.c **** 		return pADC->STAT >> 16 ? SET : RESET;
 386              		.loc 1 160 0
 387 0010 006B     		ldr	r0, [r0, #48]	@ D.6343, pADC_4(D)->STAT
 388              	.LVL38:
 389 0012 000C     		lsr	r0, r0, #16	@ D.6343, D.6343,
 390 0014 431E     		sub	r3, r0, #1	@ tmp138, D.6343
 391 0016 9841     		sbc	r0, r0, r3	@ tmp137, D.6343, tmp138
 392 0018 C0B2     		uxtb	r0, r0	@ D.6342, tmp137
 393 001a F8E7     		b	.L18	@
 394              	.LVL39:
 395              	.L20:
 153:../../lpc_chip_11cxx_lib/src/adc_11xx.c **** 		return (pADC->STAT & (1UL << channel)) ? SET : RESET;
 396              		.loc 1 153 0
 397 001c 006B     		ldr	r0, [r0, #48]	@ D.6343, pADC_4(D)->STAT
 398              	.LVL40:
 399 001e C840     		lsr	r0, r0, r1	@ D.6343, D.6343, channel
 400 0020 011C     		mov	r1, r0	@ D.6343, D.6343
 401              	.LVL41:
 402 0022 0120     		mov	r0, #1	@ tmp128,
 403 0024 0840     		and	r0, r1	@ D.6342, D.6343
 404 0026 F2E7     		b	.L18	@
 405              	.LVL42:
 406              	.L19:
 157:../../lpc_chip_11cxx_lib/src/adc_11xx.c **** 		return (pADC->STAT & (1UL << channel)) ? SET : RESET;
 407              		.loc 1 157 0
 408 0028 006B     		ldr	r0, [r0, #48]	@ D.6343, pADC_4(D)->STAT
 409              	.LVL43:
 156:../../lpc_chip_11cxx_lib/src/adc_11xx.c **** 		channel += 8;
 410              		.loc 1 156 0
 411 002a 0831     		add	r1, r1, #8	@ tmp130,
 412              	.LVL44:
 157:../../lpc_chip_11cxx_lib/src/adc_11xx.c **** 		return (pADC->STAT & (1UL << channel)) ? SET : RESET;
 413              		.loc 1 157 0
 414 002c C9B2     		uxtb	r1, r1	@ D.6344, tmp130
 415              	.LVL45:
 416 002e C840     		lsr	r0, r0, r1	@ D.6343, D.6343, D.6344
 417 0030 0240     		and	r2, r0	@ D.6343, D.6343
 418              	.LVL46:
 419 0032 D0B2     		uxtb	r0, r2	@ D.6342, D.6343
ARM GAS  /var/folders/f9/8bk2lnw15zn4cbgn6wrnb4lm0000gn/T//ccaQ4clJ.s 			page 17


 420 0034 EBE7     		b	.L18	@
 421              		.cfi_endproc
 422              	.LFE205:
 423              		.size	Chip_ADC_ReadStatus, .-Chip_ADC_ReadStatus
 424 0036 C046     		.section	.text.Chip_ADC_Int_SetChannelCmd,"ax",%progbits
 425              		.align	2
 426              		.global	Chip_ADC_Int_SetChannelCmd
 427              		.code	16
 428              		.thumb_func
 429              		.type	Chip_ADC_Int_SetChannelCmd, %function
 430              	Chip_ADC_Int_SetChannelCmd:
 431              	.LFB206:
 167:../../lpc_chip_11cxx_lib/src/adc_11xx.c **** 
 168:../../lpc_chip_11cxx_lib/src/adc_11xx.c **** /* Enable/Disable interrupt for ADC channel */
 169:../../lpc_chip_11cxx_lib/src/adc_11xx.c **** void Chip_ADC_Int_SetChannelCmd(LPC_ADC_T *pADC, uint8_t channel, FunctionalState NewState)
 170:../../lpc_chip_11cxx_lib/src/adc_11xx.c **** {
 432              		.loc 1 170 0
 433              		.cfi_startproc
 434              	.LVL47:
 171:../../lpc_chip_11cxx_lib/src/adc_11xx.c **** 	if (NewState == ENABLE) {
 172:../../lpc_chip_11cxx_lib/src/adc_11xx.c **** 		pADC->INTEN |= (1UL << channel);
 435              		.loc 1 172 0
 436 0000 C368     		ldr	r3, [r0, #12]	@ D.6348,
 171:../../lpc_chip_11cxx_lib/src/adc_11xx.c **** 	if (NewState == ENABLE) {
 437              		.loc 1 171 0
 438 0002 012A     		cmp	r2, #1	@ NewState,
 439 0004 04D0     		beq	.L27	@,
 173:../../lpc_chip_11cxx_lib/src/adc_11xx.c **** 	}
 174:../../lpc_chip_11cxx_lib/src/adc_11xx.c **** 	else {
 175:../../lpc_chip_11cxx_lib/src/adc_11xx.c **** 		pADC->INTEN &= (~(1UL << channel));
 440              		.loc 1 175 0
 441 0006 0122     		mov	r2, #1	@ tmp125,
 442              	.LVL48:
 443 0008 8A40     		lsl	r2, r2, r1	@ tmp125, tmp125, channel
 444 000a 9343     		bic	r3, r2	@ D.6348, D.6348
 445 000c C360     		str	r3, [r0, #12]	@ D.6348, pADC_4(D)->INTEN
 446              	.L24:
 176:../../lpc_chip_11cxx_lib/src/adc_11xx.c **** 	}
 177:../../lpc_chip_11cxx_lib/src/adc_11xx.c **** }
 447              		.loc 1 177 0
 448              		@ sp needed	@
 449 000e 7047     		bx	lr
 450              	.LVL49:
 451              	.L27:
 172:../../lpc_chip_11cxx_lib/src/adc_11xx.c **** 		pADC->INTEN |= (1UL << channel);
 452              		.loc 1 172 0
 453 0010 8A40     		lsl	r2, r2, r1	@ D.6348, NewState, channel
 454              	.LVL50:
 455 0012 1A43     		orr	r2, r3	@ D.6348, D.6348
 456 0014 C260     		str	r2, [r0, #12]	@ D.6348, pADC_4(D)->INTEN
 457 0016 FAE7     		b	.L24	@
 458              		.cfi_endproc
 459              	.LFE206:
 460              		.size	Chip_ADC_Int_SetChannelCmd, .-Chip_ADC_Int_SetChannelCmd
 461              		.section	.text.Chip_ADC_SetStartMode,"ax",%progbits
 462              		.align	2
 463              		.global	Chip_ADC_SetStartMode
ARM GAS  /var/folders/f9/8bk2lnw15zn4cbgn6wrnb4lm0000gn/T//ccaQ4clJ.s 			page 18


 464              		.code	16
 465              		.thumb_func
 466              		.type	Chip_ADC_SetStartMode, %function
 467              	Chip_ADC_SetStartMode:
 468              	.LFB207:
 178:../../lpc_chip_11cxx_lib/src/adc_11xx.c **** 
 179:../../lpc_chip_11cxx_lib/src/adc_11xx.c **** /* Select the mode starting the AD conversion */
 180:../../lpc_chip_11cxx_lib/src/adc_11xx.c **** void Chip_ADC_SetStartMode(LPC_ADC_T *pADC, ADC_START_MODE_T mode, ADC_EDGE_CFG_T EdgeOption)
 181:../../lpc_chip_11cxx_lib/src/adc_11xx.c **** {
 469              		.loc 1 181 0
 470              		.cfi_startproc
 471              	.LVL51:
 472 0000 10B5     		push	{r4, lr}	@
 473              		.cfi_def_cfa_offset 8
 474              		.cfi_offset 4, -8
 475              		.cfi_offset 14, -4
 182:../../lpc_chip_11cxx_lib/src/adc_11xx.c **** 	if ((mode != ADC_START_NOW) && (mode != ADC_NO_START)) {
 476              		.loc 1 182 0
 477 0002 0129     		cmp	r1, #1	@ mode,
 478 0004 05D9     		bls	.L29	@,
 183:../../lpc_chip_11cxx_lib/src/adc_11xx.c **** 		if (EdgeOption) {
 479              		.loc 1 183 0
 480 0006 002A     		cmp	r2, #0	@ EdgeOption,
 481 0008 0BD1     		bne	.L31	@,
 184:../../lpc_chip_11cxx_lib/src/adc_11xx.c **** 			pADC->CR |= ADC_CR_EDGE;
 185:../../lpc_chip_11cxx_lib/src/adc_11xx.c **** 		}
 186:../../lpc_chip_11cxx_lib/src/adc_11xx.c **** 		else {
 187:../../lpc_chip_11cxx_lib/src/adc_11xx.c **** 			pADC->CR &= ~ADC_CR_EDGE;
 482              		.loc 1 187 0
 483 000a 0268     		ldr	r2, [r0]	@ D.6352,* pADC
 484              	.LVL52:
 485 000c 084B     		ldr	r3, .L32	@ tmp123,
 486 000e 1340     		and	r3, r2	@ D.6352, D.6352
 487 0010 0360     		str	r3, [r0]	@ D.6352,* pADC
 488              	.L29:
 489              	.LVL53:
 490              	.LBB34:
 491              	.LBB35:
  85:../../lpc_chip_11cxx_lib/src/adc_11xx.c **** 	temp = pADC->CR & (~ADC_CR_START_MASK);
 492              		.loc 1 85 0
 493 0012 0468     		ldr	r4, [r0]	@ D.6352, pADC_5(D)->CR
 494              	.LVL54:
 495 0014 074A     		ldr	r2, .L32+4	@ tmp126,
  86:../../lpc_chip_11cxx_lib/src/adc_11xx.c **** 	pADC->CR = temp | (ADC_CR_START_MODE_SEL((uint32_t) start_mode));
 496              		.loc 1 86 0
 497 0016 0B06     		lsl	r3, r1, #24	@ D.6352, mode,
  85:../../lpc_chip_11cxx_lib/src/adc_11xx.c **** 	temp = pADC->CR & (~ADC_CR_START_MASK);
 498              		.loc 1 85 0
 499 0018 211C     		mov	r1, r4	@ temp, D.6352
 500              	.LVL55:
 501 001a 1140     		and	r1, r2	@ temp, tmp126
 502              	.LVL56:
  86:../../lpc_chip_11cxx_lib/src/adc_11xx.c **** 	pADC->CR = temp | (ADC_CR_START_MODE_SEL((uint32_t) start_mode));
 503              		.loc 1 86 0
 504 001c 1943     		orr	r1, r3	@ D.6352, D.6352
 505              	.LVL57:
 506 001e 0160     		str	r1, [r0]	@ D.6352, pADC_5(D)->CR
ARM GAS  /var/folders/f9/8bk2lnw15zn4cbgn6wrnb4lm0000gn/T//ccaQ4clJ.s 			page 19


 507              	.LBE35:
 508              	.LBE34:
 188:../../lpc_chip_11cxx_lib/src/adc_11xx.c **** 		}
 189:../../lpc_chip_11cxx_lib/src/adc_11xx.c **** 	}
 190:../../lpc_chip_11cxx_lib/src/adc_11xx.c **** 	setStartMode(pADC, (uint8_t) mode);
 191:../../lpc_chip_11cxx_lib/src/adc_11xx.c **** }
 509              		.loc 1 191 0
 510              		@ sp needed	@
 511              	.LVL58:
 512 0020 10BD     		pop	{r4, pc}
 513              	.LVL59:
 514              	.L31:
 184:../../lpc_chip_11cxx_lib/src/adc_11xx.c **** 			pADC->CR |= ADC_CR_EDGE;
 515              		.loc 1 184 0
 516 0022 0268     		ldr	r2, [r0]	@ D.6352,* pADC
 517              	.LVL60:
 518 0024 8023     		mov	r3, #128	@ tmp127,
 519 0026 1B05     		lsl	r3, r3, #20	@ tmp122, tmp127,
 520 0028 1343     		orr	r3, r2	@ D.6352, D.6352
 521 002a 0360     		str	r3, [r0]	@ D.6352,* pADC
 522 002c F1E7     		b	.L29	@
 523              	.L33:
 524 002e C046     		.align	2
 525              	.L32:
 526 0030 FFFFFFF7 		.word	-134217729
 527 0034 FFFFFFF8 		.word	-117440513
 528              		.cfi_endproc
 529              	.LFE207:
 530              		.size	Chip_ADC_SetStartMode, .-Chip_ADC_SetStartMode
 531              		.section	.text.Chip_ADC_SetSampleRate,"ax",%progbits
 532              		.align	2
 533              		.global	Chip_ADC_SetSampleRate
 534              		.code	16
 535              		.thumb_func
 536              		.type	Chip_ADC_SetSampleRate, %function
 537              	Chip_ADC_SetSampleRate:
 538              	.LFB208:
 192:../../lpc_chip_11cxx_lib/src/adc_11xx.c **** 
 193:../../lpc_chip_11cxx_lib/src/adc_11xx.c **** /* Set the ADC Sample rate */
 194:../../lpc_chip_11cxx_lib/src/adc_11xx.c **** void Chip_ADC_SetSampleRate(LPC_ADC_T *pADC, ADC_CLOCK_SETUP_T *ADCSetup, uint32_t rate)
 195:../../lpc_chip_11cxx_lib/src/adc_11xx.c **** {
 539              		.loc 1 195 0
 540              		.cfi_startproc
 541              	.LVL61:
 542 0000 F8B5     		push	{r3, r4, r5, r6, r7, lr}	@
 543              		.cfi_def_cfa_offset 24
 544              		.cfi_offset 3, -24
 545              		.cfi_offset 4, -20
 546              		.cfi_offset 5, -16
 547              		.cfi_offset 6, -12
 548              		.cfi_offset 7, -8
 549              		.cfi_offset 14, -4
 550 0002 4F46     		mov	r7, r9	@,
 551 0004 4646     		mov	r6, r8	@,
 552 0006 C0B4     		push	{r6, r7}	@
 553              		.cfi_def_cfa_offset 32
 554              		.cfi_offset 8, -32
ARM GAS  /var/folders/f9/8bk2lnw15zn4cbgn6wrnb4lm0000gn/T//ccaQ4clJ.s 			page 20


 555              		.cfi_offset 9, -28
 556              		.loc 1 195 0
 557 0008 0C1C     		mov	r4, r1	@ ADCSetup, ADCSetup
 196:../../lpc_chip_11cxx_lib/src/adc_11xx.c **** 	uint8_t div;
 197:../../lpc_chip_11cxx_lib/src/adc_11xx.c **** 	uint32_t cr;
 198:../../lpc_chip_11cxx_lib/src/adc_11xx.c **** 
 199:../../lpc_chip_11cxx_lib/src/adc_11xx.c **** 	cr = pADC->CR & (~ADC_SAMPLE_RATE_CONFIG_MASK);
 558              		.loc 1 199 0
 559 000a 0768     		ldr	r7, [r0]	@ D.6362, pADC_2(D)->CR
 560 000c 154B     		ldr	r3, .L38	@ tmp137,
 200:../../lpc_chip_11cxx_lib/src/adc_11xx.c **** 	ADCSetup->adcRate = rate;
 561              		.loc 1 200 0
 562 000e 2260     		str	r2, [r4]	@ rate, ADCSetup_5(D)->adcRate
 195:../../lpc_chip_11cxx_lib/src/adc_11xx.c **** {
 563              		.loc 1 195 0
 564 0010 151C     		mov	r5, r2	@ rate, rate
 201:../../lpc_chip_11cxx_lib/src/adc_11xx.c **** 	div = getClkDiv(ADCSetup->burstMode, rate, (11 - ADCSetup->bitsAccuracy));
 565              		.loc 1 201 0
 566 0012 4A79     		ldrb	r2, [r1, #5]	@,
 567              	.LVL62:
 199:../../lpc_chip_11cxx_lib/src/adc_11xx.c **** 	cr = pADC->CR & (~ADC_SAMPLE_RATE_CONFIG_MASK);
 568              		.loc 1 199 0
 569 0014 1F40     		and	r7, r3	@ cr, tmp137
 570              	.LVL63:
 571              		.loc 1 201 0
 572 0016 0B79     		ldrb	r3, [r1, #4]	@,
 573 0018 9046     		mov	r8, r2	@ D.6363,
 195:../../lpc_chip_11cxx_lib/src/adc_11xx.c **** {
 574              		.loc 1 195 0
 575 001a 061C     		mov	r6, r0	@ pADC, pADC
 576              		.loc 1 201 0
 577 001c 9946     		mov	r9, r3	@ D.6364,
 578              	.LVL64:
 579              	.LBB38:
 580              	.LBB39:
  67:../../lpc_chip_11cxx_lib/src/adc_11xx.c **** 	adcBlockFreq = Chip_Clock_GetSystemClockRate();
 581              		.loc 1 67 0
 582 001e FFF7FEFF 		bl	Chip_Clock_GetSystemClockRate	@
 583              	.LVL65:
  69:../../lpc_chip_11cxx_lib/src/adc_11xx.c **** 	if (burstMode) {
 584              		.loc 1 69 0
 585 0022 4246     		mov	r2, r8	@, D.6363
 586 0024 002A     		cmp	r2, #0	@,
 587 0026 16D1     		bne	.L37	@,
  73:../../lpc_chip_11cxx_lib/src/adc_11xx.c **** 		fullAdcRate = adcRate * getFullConvClk();
 588              		.loc 1 73 0
 589 0028 AB00     		lsl	r3, r5, #2	@ tmp143, rate,
 590 002a 5B19     		add	r3, r3, r5	@ tmp144, tmp143, rate
 591 002c 5B00     		lsl	r3, r3, #1	@ tmp145, tmp144,
 592 002e 5D19     		add	r5, r3, r5	@ fullAdcRate, tmp145, rate
 593              	.LVL66:
 594              	.L36:
 595              	.LBE39:
 596              	.LBE38:
 202:../../lpc_chip_11cxx_lib/src/adc_11xx.c **** 	cr |= ADC_CR_CLKDIV(div);
 203:../../lpc_chip_11cxx_lib/src/adc_11xx.c **** 	cr |= ADC_CR_BITACC(ADCSetup->bitsAccuracy);
 597              		.loc 1 203 0
ARM GAS  /var/folders/f9/8bk2lnw15zn4cbgn6wrnb4lm0000gn/T//ccaQ4clJ.s 			page 21


 598 0030 2379     		ldrb	r3, [r4, #4]	@ tmp150,
 599              	.LBB43:
 600              	.LBB40:
  77:../../lpc_chip_11cxx_lib/src/adc_11xx.c **** 	div = ((adcBlockFreq * 2 + fullAdcRate) / (fullAdcRate * 2)) - 1;
 601              		.loc 1 77 0
 602 0032 4000     		lsl	r0, r0, #1	@ D.6362, adcBlockFreq,
 603              	.LVL67:
 604 0034 2818     		add	r0, r5, r0	@ D.6362, fullAdcRate, D.6362
 605              	.LVL68:
 606 0036 6900     		lsl	r1, r5, #1	@ D.6362, fullAdcRate,
 607              	.LBE40:
 608              	.LBE43:
 609              		.loc 1 203 0
 610 0038 0724     		mov	r4, #7	@ tmp152,
 611              	.LVL69:
 612 003a 1C40     		and	r4, r3	@ D.6365, tmp150
 613              	.LBB44:
 614              	.LBB41:
  77:../../lpc_chip_11cxx_lib/src/adc_11xx.c **** 	div = ((adcBlockFreq * 2 + fullAdcRate) / (fullAdcRate * 2)) - 1;
 615              		.loc 1 77 0
 616 003c FFF7FEFF 		bl	__aeabi_uidiv	@
 617              	.LVL70:
 618 0040 431E     		sub	r3, r0, #1	@ tmp163, D.6362,
 619              	.LBE41:
 620              	.LBE44:
 621              		.loc 1 203 0
 622 0042 6404     		lsl	r4, r4, #17	@ D.6365, D.6365,
 202:../../lpc_chip_11cxx_lib/src/adc_11xx.c **** 	cr |= ADC_CR_CLKDIV(div);
 623              		.loc 1 202 0
 624 0044 DBB2     		uxtb	r3, r3	@ D.6365, tmp163
 625 0046 3C43     		orr	r4, r7	@ cr, cr
 626 0048 1B02     		lsl	r3, r3, #8	@ D.6365, D.6365,
 627              		.loc 1 203 0
 628 004a 1C43     		orr	r4, r3	@ cr, D.6365
 629              	.LVL71:
 204:../../lpc_chip_11cxx_lib/src/adc_11xx.c **** 	pADC->CR = cr;
 630              		.loc 1 204 0
 631 004c 3460     		str	r4, [r6]	@ cr, pADC_2(D)->CR
 205:../../lpc_chip_11cxx_lib/src/adc_11xx.c **** }
 632              		.loc 1 205 0
 633              		@ sp needed	@
 634              	.LVL72:
 635              	.LVL73:
 636              	.LVL74:
 637              	.LVL75:
 638              	.LVL76:
 639 004e 0CBC     		pop	{r2, r3}
 640 0050 9046     		mov	r8, r2
 641 0052 9946     		mov	r9, r3
 642 0054 F8BD     		pop	{r3, r4, r5, r6, r7, pc}
 643              	.LVL77:
 644              	.L37:
 201:../../lpc_chip_11cxx_lib/src/adc_11xx.c **** 	div = getClkDiv(ADCSetup->burstMode, rate, (11 - ADCSetup->bitsAccuracy));
 645              		.loc 1 201 0
 646 0056 0B23     		mov	r3, #11	@ tmp138,
 647 0058 4A46     		mov	r2, r9	@, D.6364
 648              	.LVL78:
ARM GAS  /var/folders/f9/8bk2lnw15zn4cbgn6wrnb4lm0000gn/T//ccaQ4clJ.s 			page 22


 649 005a 9B1A     		sub	r3, r3, r2	@ tmp140, tmp138,
 650              	.LBB45:
 651              	.LBB42:
  70:../../lpc_chip_11cxx_lib/src/adc_11xx.c **** 		fullAdcRate = adcRate * clks;
 652              		.loc 1 70 0
 653 005c DBB2     		uxtb	r3, r3	@ D.6362, tmp140
 654 005e 5D43     		mul	r5, r3	@ fullAdcRate, D.6362
 655              	.LVL79:
 656 0060 E6E7     		b	.L36	@
 657              	.L39:
 658 0062 C046     		.align	2
 659              	.L38:
 660 0064 FF00F1FF 		.word	-982785
 661              	.LBE42:
 662              	.LBE45:
 663              		.cfi_endproc
 664              	.LFE208:
 665              		.size	Chip_ADC_SetSampleRate, .-Chip_ADC_SetSampleRate
 666              		.section	.text.Chip_ADC_SetResolution,"ax",%progbits
 667              		.align	2
 668              		.global	Chip_ADC_SetResolution
 669              		.code	16
 670              		.thumb_func
 671              		.type	Chip_ADC_SetResolution, %function
 672              	Chip_ADC_SetResolution:
 673              	.LFB209:
 206:../../lpc_chip_11cxx_lib/src/adc_11xx.c **** 
 207:../../lpc_chip_11cxx_lib/src/adc_11xx.c **** /* Set the ADC accuracy bits */
 208:../../lpc_chip_11cxx_lib/src/adc_11xx.c **** void Chip_ADC_SetResolution(LPC_ADC_T *pADC, ADC_CLOCK_SETUP_T *ADCSetup, ADC_RESOLUTION_T resoluti
 209:../../lpc_chip_11cxx_lib/src/adc_11xx.c **** {
 674              		.loc 1 209 0
 675              		.cfi_startproc
 676              	.LVL80:
 677 0000 08B5     		push	{r3, lr}	@
 678              		.cfi_def_cfa_offset 8
 679              		.cfi_offset 3, -8
 680              		.cfi_offset 14, -4
 210:../../lpc_chip_11cxx_lib/src/adc_11xx.c **** 	ADCSetup->bitsAccuracy = resolution;
 681              		.loc 1 210 0
 682 0002 0A71     		strb	r2, [r1, #4]	@ resolution, ADCSetup_2(D)->bitsAccuracy
 211:../../lpc_chip_11cxx_lib/src/adc_11xx.c **** 	Chip_ADC_SetSampleRate(pADC, ADCSetup, ADCSetup->adcRate);
 683              		.loc 1 211 0
 684 0004 0A68     		ldr	r2, [r1]	@ ADCSetup_2(D)->adcRate, ADCSetup_2(D)->adcRate
 685              	.LVL81:
 686 0006 FFF7FEFF 		bl	Chip_ADC_SetSampleRate	@
 687              	.LVL82:
 212:../../lpc_chip_11cxx_lib/src/adc_11xx.c **** }
 688              		.loc 1 212 0
 689              		@ sp needed	@
 690 000a 08BD     		pop	{r3, pc}
 691              		.cfi_endproc
 692              	.LFE209:
 693              		.size	Chip_ADC_SetResolution, .-Chip_ADC_SetResolution
 694              		.section	.text.Chip_ADC_EnableChannel,"ax",%progbits
 695              		.align	2
 696              		.global	Chip_ADC_EnableChannel
 697              		.code	16
ARM GAS  /var/folders/f9/8bk2lnw15zn4cbgn6wrnb4lm0000gn/T//ccaQ4clJ.s 			page 23


 698              		.thumb_func
 699              		.type	Chip_ADC_EnableChannel, %function
 700              	Chip_ADC_EnableChannel:
 701              	.LFB210:
 213:../../lpc_chip_11cxx_lib/src/adc_11xx.c **** 
 214:../../lpc_chip_11cxx_lib/src/adc_11xx.c **** /* Enable or disable the ADC channel on ADC peripheral */
 215:../../lpc_chip_11cxx_lib/src/adc_11xx.c **** void Chip_ADC_EnableChannel(LPC_ADC_T *pADC, ADC_CHANNEL_T channel, FunctionalState NewState)
 216:../../lpc_chip_11cxx_lib/src/adc_11xx.c **** {
 702              		.loc 1 216 0
 703              		.cfi_startproc
 704              	.LVL83:
 217:../../lpc_chip_11cxx_lib/src/adc_11xx.c **** 	if (NewState == ENABLE) {
 705              		.loc 1 217 0
 706 0000 012A     		cmp	r2, #1	@ NewState,
 707 0002 09D0     		beq	.L44	@,
 218:../../lpc_chip_11cxx_lib/src/adc_11xx.c **** 		pADC->CR |= ADC_CR_CH_SEL(channel);
 219:../../lpc_chip_11cxx_lib/src/adc_11xx.c **** 	}
 220:../../lpc_chip_11cxx_lib/src/adc_11xx.c **** 	else {
 221:../../lpc_chip_11cxx_lib/src/adc_11xx.c **** 		pADC->CR &= ~ADC_CR_START_MASK;
 708              		.loc 1 221 0
 709 0004 0268     		ldr	r2, [r0]	@ D.6371, pADC_4(D)->CR
 710              	.LVL84:
 711 0006 074B     		ldr	r3, .L45	@ tmp126,
 712 0008 1340     		and	r3, r2	@ D.6371, D.6371
 713 000a 0360     		str	r3, [r0]	@ D.6371, pADC_4(D)->CR
 222:../../lpc_chip_11cxx_lib/src/adc_11xx.c **** 		pADC->CR &= ~ADC_CR_CH_SEL(channel);
 714              		.loc 1 222 0
 715 000c 0368     		ldr	r3, [r0]	@ D.6371, pADC_4(D)->CR
 716 000e 0122     		mov	r2, #1	@ tmp128,
 717 0010 8A40     		lsl	r2, r2, r1	@ tmp128, tmp128, channel
 718 0012 9343     		bic	r3, r2	@ D.6371, D.6371
 719 0014 0360     		str	r3, [r0]	@ D.6371, pADC_4(D)->CR
 720              	.L41:
 223:../../lpc_chip_11cxx_lib/src/adc_11xx.c **** 	}
 224:../../lpc_chip_11cxx_lib/src/adc_11xx.c **** }
 721              		.loc 1 224 0
 722              		@ sp needed	@
 723 0016 7047     		bx	lr
 724              	.LVL85:
 725              	.L44:
 218:../../lpc_chip_11cxx_lib/src/adc_11xx.c **** 		pADC->CR |= ADC_CR_CH_SEL(channel);
 726              		.loc 1 218 0
 727 0018 0368     		ldr	r3, [r0]	@ D.6371, pADC_4(D)->CR
 728 001a 8A40     		lsl	r2, r2, r1	@ D.6371, NewState, channel
 729              	.LVL86:
 730 001c 1A43     		orr	r2, r3	@ D.6371, D.6371
 731 001e 0260     		str	r2, [r0]	@ D.6371, pADC_4(D)->CR
 732 0020 F9E7     		b	.L41	@
 733              	.L46:
 734 0022 C046     		.align	2
 735              	.L45:
 736 0024 FFFFFFF8 		.word	-117440513
 737              		.cfi_endproc
 738              	.LFE210:
 739              		.size	Chip_ADC_EnableChannel, .-Chip_ADC_EnableChannel
 740              		.section	.text.Chip_ADC_SetBurstCmd,"ax",%progbits
 741              		.align	2
ARM GAS  /var/folders/f9/8bk2lnw15zn4cbgn6wrnb4lm0000gn/T//ccaQ4clJ.s 			page 24


 742              		.global	Chip_ADC_SetBurstCmd
 743              		.code	16
 744              		.thumb_func
 745              		.type	Chip_ADC_SetBurstCmd, %function
 746              	Chip_ADC_SetBurstCmd:
 747              	.LFB211:
 225:../../lpc_chip_11cxx_lib/src/adc_11xx.c **** 
 226:../../lpc_chip_11cxx_lib/src/adc_11xx.c **** /* Enable burst mode */
 227:../../lpc_chip_11cxx_lib/src/adc_11xx.c **** void Chip_ADC_SetBurstCmd(LPC_ADC_T *pADC, FunctionalState NewState)
 228:../../lpc_chip_11cxx_lib/src/adc_11xx.c **** {
 748              		.loc 1 228 0
 749              		.cfi_startproc
 750              	.LVL87:
 751              	.LBB46:
 752              	.LBB47:
  85:../../lpc_chip_11cxx_lib/src/adc_11xx.c **** 	temp = pADC->CR & (~ADC_CR_START_MASK);
 753              		.loc 1 85 0
 754 0000 0268     		ldr	r2, [r0]	@ D.6375, pADC_3(D)->CR
 755 0002 074B     		ldr	r3, .L51	@ tmp118,
 756 0004 1340     		and	r3, r2	@ temp, D.6375
 757              	.LVL88:
  86:../../lpc_chip_11cxx_lib/src/adc_11xx.c **** 	pADC->CR = temp | (ADC_CR_START_MODE_SEL((uint32_t) start_mode));
 758              		.loc 1 86 0
 759 0006 0360     		str	r3, [r0]	@ temp, pADC_3(D)->CR
 760              	.LBE47:
 761              	.LBE46:
 229:../../lpc_chip_11cxx_lib/src/adc_11xx.c **** 	setStartMode(pADC, ADC_NO_START);
 230:../../lpc_chip_11cxx_lib/src/adc_11xx.c **** 
 231:../../lpc_chip_11cxx_lib/src/adc_11xx.c **** 	if (NewState == DISABLE) {
 232:../../lpc_chip_11cxx_lib/src/adc_11xx.c **** 		pADC->CR &= ~ADC_CR_BURST;
 762              		.loc 1 232 0
 763 0008 0268     		ldr	r2, [r0]	@ D.6375,* pADC
 231:../../lpc_chip_11cxx_lib/src/adc_11xx.c **** 	if (NewState == DISABLE) {
 764              		.loc 1 231 0
 765 000a 0029     		cmp	r1, #0	@ NewState,
 766 000c 04D0     		beq	.L50	@,
 233:../../lpc_chip_11cxx_lib/src/adc_11xx.c **** 	}
 234:../../lpc_chip_11cxx_lib/src/adc_11xx.c **** 	else {
 235:../../lpc_chip_11cxx_lib/src/adc_11xx.c **** 		pADC->CR |= ADC_CR_BURST;
 767              		.loc 1 235 0
 768 000e 8023     		mov	r3, #128	@ tmp121,
 769              	.LVL89:
 770 0010 5B02     		lsl	r3, r3, #9	@ tmp120, tmp121,
 771 0012 1343     		orr	r3, r2	@ D.6375, D.6375
 772 0014 0360     		str	r3, [r0]	@ D.6375,* pADC
 773              	.LVL90:
 774              	.L47:
 236:../../lpc_chip_11cxx_lib/src/adc_11xx.c **** 	}
 237:../../lpc_chip_11cxx_lib/src/adc_11xx.c **** }
 775              		.loc 1 237 0
 776              		@ sp needed	@
 777 0016 7047     		bx	lr
 778              	.LVL91:
 779              	.L50:
 232:../../lpc_chip_11cxx_lib/src/adc_11xx.c **** 		pADC->CR &= ~ADC_CR_BURST;
 780              		.loc 1 232 0
 781 0018 024B     		ldr	r3, .L51+4	@ tmp119,
ARM GAS  /var/folders/f9/8bk2lnw15zn4cbgn6wrnb4lm0000gn/T//ccaQ4clJ.s 			page 25


 782              	.LVL92:
 783 001a 1340     		and	r3, r2	@ D.6375, D.6375
 784 001c 0360     		str	r3, [r0]	@ D.6375,* pADC
 785              	.LVL93:
 786 001e FAE7     		b	.L47	@
 787              	.L52:
 788              		.align	2
 789              	.L51:
 790 0020 FFFFFFF8 		.word	-117440513
 791 0024 FFFFFEFF 		.word	-65537
 792              		.cfi_endproc
 793              	.LFE211:
 794              		.size	Chip_ADC_SetBurstCmd, .-Chip_ADC_SetBurstCmd
 795              		.section	.text.Chip_ADC_ReadByte,"ax",%progbits
 796              		.align	2
 797              		.global	Chip_ADC_ReadByte
 798              		.code	16
 799              		.thumb_func
 800              		.type	Chip_ADC_ReadByte, %function
 801              	Chip_ADC_ReadByte:
 802              	.LFB212:
 238:../../lpc_chip_11cxx_lib/src/adc_11xx.c **** 
 239:../../lpc_chip_11cxx_lib/src/adc_11xx.c **** /* Read the ADC value and convert it to 8bits value */
 240:../../lpc_chip_11cxx_lib/src/adc_11xx.c **** Status Chip_ADC_ReadByte(LPC_ADC_T *pADC, ADC_CHANNEL_T channel, uint8_t *data)
 241:../../lpc_chip_11cxx_lib/src/adc_11xx.c **** {
 803              		.loc 1 241 0
 804              		.cfi_startproc
 805              	.LVL94:
 806              	.LBB48:
 807              	.LBB49:
  93:../../lpc_chip_11cxx_lib/src/adc_11xx.c **** 	temp = pADC->DR[channel];
 808              		.loc 1 93 0
 809 0000 0431     		add	r1, r1, #4	@ tmp122,
 810              	.LVL95:
 811 0002 8900     		lsl	r1, r1, #2	@ tmp123, tmp122,
 812              	.LVL96:
 813 0004 0B58     		ldr	r3, [r1, r0]	@ temp, pADC_2(D)->DR
 814              	.LVL97:
  94:../../lpc_chip_11cxx_lib/src/adc_11xx.c **** 	if (!ADC_DR_DONE(temp)) {
 815              		.loc 1 94 0
 816 0006 002B     		cmp	r3, #0	@ temp,
 817 0008 03DB     		blt	.L56	@,
 818 000a 0023     		mov	r3, #0	@ D.6382,
 819              	.LVL98:
  95:../../lpc_chip_11cxx_lib/src/adc_11xx.c **** 		return ERROR;
 820              		.loc 1 95 0
 821 000c 0020     		mov	r0, #0	@ D.6381,
 822              	.LVL99:
 823              	.L54:
 824              	.LBE49:
 825              	.LBE48:
 242:../../lpc_chip_11cxx_lib/src/adc_11xx.c **** 	uint16_t temp = 0;
 243:../../lpc_chip_11cxx_lib/src/adc_11xx.c **** 	Status rt;
 244:../../lpc_chip_11cxx_lib/src/adc_11xx.c **** 
 245:../../lpc_chip_11cxx_lib/src/adc_11xx.c **** 	rt = readAdcVal(pADC, channel, &temp);
 246:../../lpc_chip_11cxx_lib/src/adc_11xx.c **** 	*data = (uint8_t) temp;
 826              		.loc 1 246 0
ARM GAS  /var/folders/f9/8bk2lnw15zn4cbgn6wrnb4lm0000gn/T//ccaQ4clJ.s 			page 26


 827 000e 1370     		strb	r3, [r2]	@ D.6382, *data_6(D)
 247:../../lpc_chip_11cxx_lib/src/adc_11xx.c **** 
 248:../../lpc_chip_11cxx_lib/src/adc_11xx.c **** 	return rt;
 249:../../lpc_chip_11cxx_lib/src/adc_11xx.c **** }
 828              		.loc 1 249 0
 829              		@ sp needed	@
 830 0010 7047     		bx	lr
 831              	.LVL100:
 832              	.L56:
 833              	.LBB51:
 834              	.LBB50:
  99:../../lpc_chip_11cxx_lib/src/adc_11xx.c **** 	*data = (uint16_t) ADC_DR_RESULT(temp);
 835              		.loc 1 99 0
 836 0012 9B04     		lsl	r3, r3, #18	@ tmp126, temp,
 837              	.LVL101:
 838 0014 1B0E     		lsr	r3, r3, #24	@ D.6382, tmp126,
 100:../../lpc_chip_11cxx_lib/src/adc_11xx.c **** 	return SUCCESS;
 839              		.loc 1 100 0
 840 0016 0120     		mov	r0, #1	@ D.6381,
 841              	.LVL102:
 842 0018 F9E7     		b	.L54	@
 843              	.LBE50:
 844              	.LBE51:
 845              		.cfi_endproc
 846              	.LFE212:
 847              		.size	Chip_ADC_ReadByte, .-Chip_ADC_ReadByte
 848              		.text
 849              	.Letext0:
 850              		.file 3 "/usr/local/Cellar/gcc-arm-none-eabi/20140805/arm-none-eabi/include/machine/_default_types
 851              		.file 4 "/usr/local/Cellar/gcc-arm-none-eabi/20140805/arm-none-eabi/include/stdint.h"
 852              		.file 5 "../../lpc_chip_11cxx_lib/inc/lpc_types.h"
 853              		.file 6 "../../lpc_chip_11cxx_lib/inc/sysctl_11xx.h"
 854              		.file 7 "../../lpc_chip_11cxx_lib/inc/adc_11xx.h"
 855              		.file 8 "../../lpc_chip_11cxx_lib/inc/chip.h"