ARM GAS  /var/folders/f9/8bk2lnw15zn4cbgn6wrnb4lm0000gn/T//cctM4ZjJ.s 			page 1


   1              		.cpu cortex-m0
   2              		.fpu softvfp
   3              		.eabi_attribute 20, 1	@ Tag_ABI_FP_denormal
   4              		.eabi_attribute 21, 1	@ Tag_ABI_FP_exceptions
   5              		.eabi_attribute 23, 3	@ Tag_ABI_FP_number_model
   6              		.eabi_attribute 24, 1	@ Tag_ABI_align8_needed
   7              		.eabi_attribute 25, 1	@ Tag_ABI_align8_preserved
   8              		.eabi_attribute 26, 1	@ Tag_ABI_enum_size
   9              		.eabi_attribute 30, 2	@ Tag_ABI_optimization_goals
  10              		.eabi_attribute 34, 0	@ Tag_CPU_unaligned_access
  11              		.eabi_attribute 18, 4	@ Tag_ABI_PCS_wchar_t
  12              		.file	"brusa.c"
  13              	@ GNU C (GNU Tools for ARM Embedded Processors) version 4.8.4 20140725 (release) [ARM/embedded-4_8-
  14              	@	compiled by GNU C version 4.2.1 (Based on Apple Inc. build 5658) (LLVM build 2336.9.00), GMP vers
  15              	@ GGC heuristics: --param ggc-min-expand=100 --param ggc-min-heapsize=131072
  16              	@ options passed:  -I . -I ../../lpc_chip_11cxx_lib/inc
  17              	@ -I ../../evt_lib/inc -imultilib armv6-m
  18              	@ -iprefix /usr/local/Cellar/gcc-arm-none-eabi/20140805/bin/../lib/gcc/arm-none-eabi/4.8.4/
  19              	@ -isysroot /usr/local/Cellar/gcc-arm-none-eabi/20140805/bin/../arm-none-eabi
  20              	@ -MD bin/brusa.d -MF bin/brusa.d -MP -MQ bin/brusa.o -D__USES_INITFINI__
  21              	@ -D CORE_M0 ../../evt_lib/src/brusa.c -mcpu=cortex-m0 -mthumb
  22              	@ -auxbase-strip bin/brusa.o -g -ggdb3 -O2 -Wall -Wstrict-prototypes
  23              	@ -Wextra -std=gnu90 -ffunction-sections -fdata-sections -fverbose-asm
  24              	@ options enabled:  -faggressive-loop-optimizations -fauto-inc-dec
  25              	@ -fbranch-count-reg -fcaller-saves -fcombine-stack-adjustments -fcommon
  26              	@ -fcompare-elim -fcprop-registers -fcrossjumping -fcse-follow-jumps
  27              	@ -fdata-sections -fdefer-pop -fdelete-null-pointer-checks -fdevirtualize
  28              	@ -fdwarf2-cfi-asm -fearly-inlining -feliminate-unused-debug-types
  29              	@ -fexpensive-optimizations -fforward-propagate -ffunction-cse
  30              	@ -ffunction-sections -fgcse -fgcse-lm -fgnu-runtime -fgnu-unique
  31              	@ -fguess-branch-probability -fhoist-adjacent-loads -fident -fif-conversion
  32              	@ -fif-conversion2 -findirect-inlining -finline -finline-atomics
  33              	@ -finline-functions-called-once -finline-small-functions -fipa-cp
  34              	@ -fipa-profile -fipa-pure-const -fipa-reference -fipa-sra
  35              	@ -fira-hoist-pressure -fira-share-save-slots -fira-share-spill-slots
  36              	@ -fivopts -fkeep-static-consts -fleading-underscore -fmath-errno
  37              	@ -fmerge-constants -fmerge-debug-strings -fmove-loop-invariants
  38              	@ -fomit-frame-pointer -foptimize-register-move -foptimize-sibling-calls
  39              	@ -foptimize-strlen -fpartial-inlining -fpeephole -fpeephole2
  40              	@ -fprefetch-loop-arrays -freg-struct-return -fregmove -freorder-blocks
  41              	@ -freorder-functions -frerun-cse-after-loop
  42              	@ -fsched-critical-path-heuristic -fsched-dep-count-heuristic
  43              	@ -fsched-group-heuristic -fsched-interblock -fsched-last-insn-heuristic
  44              	@ -fsched-pressure -fsched-rank-heuristic -fsched-spec
  45              	@ -fsched-spec-insn-heuristic -fsched-stalled-insns-dep -fschedule-insns2
  46              	@ -fsection-anchors -fshow-column -fshrink-wrap -fsigned-zeros
  47              	@ -fsplit-ivs-in-unroller -fsplit-wide-types -fstrict-aliasing
  48              	@ -fstrict-overflow -fstrict-volatile-bitfields -fsync-libcalls
  49              	@ -fthread-jumps -ftoplevel-reorder -ftrapping-math -ftree-bit-ccp
  50              	@ -ftree-builtin-call-dce -ftree-ccp -ftree-ch -ftree-coalesce-vars
  51              	@ -ftree-copy-prop -ftree-copyrename -ftree-cselim -ftree-dce
  52              	@ -ftree-dominator-opts -ftree-dse -ftree-forwprop -ftree-fre
  53              	@ -ftree-loop-if-convert -ftree-loop-im -ftree-loop-ivcanon
  54              	@ -ftree-loop-optimize -ftree-parallelize-loops= -ftree-phiprop -ftree-pre
  55              	@ -ftree-pta -ftree-reassoc -ftree-scev-cprop -ftree-sink
  56              	@ -ftree-slp-vectorize -ftree-slsr -ftree-sra -ftree-switch-conversion
  57              	@ -ftree-tail-merge -ftree-ter -ftree-vect-loop-version -ftree-vrp
ARM GAS  /var/folders/f9/8bk2lnw15zn4cbgn6wrnb4lm0000gn/T//cctM4ZjJ.s 			page 2


  58              	@ -funit-at-a-time -fvar-tracking -fvar-tracking-assignments -fverbose-asm
  59              	@ -fzero-initialized-in-bss -mlittle-endian -mpic-data-is-text-relative
  60              	@ -msched-prolog -mthumb -mvectorize-with-neon-quad
  61              	
  62              		.text
  63              	.Ltext0:
  64              		.cfi_sections	.debug_frame
  65              		.global	__aeabi_uidiv
  66              		.section	.text.Brusa_MakeCTL,"ax",%progbits
  67              		.align	2
  68              		.global	Brusa_MakeCTL
  69              		.code	16
  70              		.thumb_func
  71              		.type	Brusa_MakeCTL, %function
  72              	Brusa_MakeCTL:
  73              	.LFB198:
  74              		.file 1 "../../evt_lib/src/brusa.c"
   1:../../evt_lib/src/brusa.c **** #include "brusa.h"
   2:../../evt_lib/src/brusa.c **** 
   3:../../evt_lib/src/brusa.c **** void Brusa_MakeCTL(NLG5_CTL_T *contents, CCAN_MSG_OBJ_T *msg_obj) {
  75              		.loc 1 3 0
  76              		.cfi_startproc
  77              	.LVL0:
  78 0000 38B5     		push	{r3, r4, r5, lr}	@
  79              		.cfi_def_cfa_offset 16
  80              		.cfi_offset 3, -16
  81              		.cfi_offset 4, -12
  82              		.cfi_offset 5, -8
  83              		.cfi_offset 14, -4
   4:../../evt_lib/src/brusa.c **** 	msg_obj->mode_id = NLG5_CTL;
  84              		.loc 1 4 0
  85 0002 C323     		mov	r3, #195	@ tmp197,
  86 0004 DB00     		lsl	r3, r3, #3	@ tmp145, tmp197,
  87 0006 0B60     		str	r3, [r1]	@ tmp145, msg_obj_2(D)->mode_id
   5:../../evt_lib/src/brusa.c **** 	msg_obj->dlc = NLG5_CTL_DLC;
  88              		.loc 1 5 0
  89 0008 0723     		mov	r3, #7	@ tmp146,
  90 000a 0B74     		strb	r3, [r1, #16]	@ tmp146, msg_obj_2(D)->dlc
   6:../../evt_lib/src/brusa.c **** 	msg_obj->data[0] = ((contents->enable & 1) << 7) | 
   7:../../evt_lib/src/brusa.c **** 				  ((contents->clear_error & 1) << 6) | 
  91              		.loc 1 7 0
  92 000c 4278     		ldrb	r2, [r0, #1]	@ tmp151,
   3:../../evt_lib/src/brusa.c **** void Brusa_MakeCTL(NLG5_CTL_T *contents, CCAN_MSG_OBJ_T *msg_obj) {
  93              		.loc 1 3 0
  94 000e 0C1C     		mov	r4, r1	@ msg_obj, msg_obj
   8:../../evt_lib/src/brusa.c **** 				  ((contents->ventilation_request & 1) << 5);
  95              		.loc 1 8 0
  96 0010 8178     		ldrb	r1, [r0, #2]	@ tmp159,
  97              	.LVL1:
   7:../../evt_lib/src/brusa.c **** 				  ((contents->clear_error & 1) << 6) | 
  98              		.loc 1 7 0
  99 0012 0123     		mov	r3, #1	@ tmp153,
 100 0014 1A40     		and	r2, r3	@ D.6368, tmp153
 101              		.loc 1 8 0
 102 0016 0B40     		and	r3, r1	@ D.6368, tmp159
   7:../../evt_lib/src/brusa.c **** 				  ((contents->clear_error & 1) << 6) | 
 103              		.loc 1 7 0
ARM GAS  /var/folders/f9/8bk2lnw15zn4cbgn6wrnb4lm0000gn/T//cctM4ZjJ.s 			page 3


 104 0018 9201     		lsl	r2, r2, #6	@ D.6368, D.6368,
 105              		.loc 1 8 0
 106 001a 5B01     		lsl	r3, r3, #5	@ D.6368, D.6368,
   6:../../evt_lib/src/brusa.c **** 	msg_obj->data[0] = ((contents->enable & 1) << 7) | 
 107              		.loc 1 6 0
 108 001c 1343     		orr	r3, r2	@ tmp166, D.6368
 109 001e 0278     		ldrb	r2, [r0]	@ D.6368, *contents_5(D)
   3:../../evt_lib/src/brusa.c **** void Brusa_MakeCTL(NLG5_CTL_T *contents, CCAN_MSG_OBJ_T *msg_obj) {
 110              		.loc 1 3 0
 111 0020 051C     		mov	r5, r0	@ contents, contents
   6:../../evt_lib/src/brusa.c **** 	msg_obj->data[0] = ((contents->enable & 1) << 7) | 
 112              		.loc 1 6 0
 113 0022 D201     		lsl	r2, r2, #7	@ D.6368, D.6368,
 114 0024 1343     		orr	r3, r2	@ tmp171, D.6368
 115 0026 2372     		strb	r3, [r4, #8]	@ tmp171, msg_obj_2(D)->D.5958.data
   9:../../evt_lib/src/brusa.c **** 	uint16_t mains_dAmps = contents->max_mains_cAmps / 10;
 116              		.loc 1 9 0
 117 0028 8088     		ldrh	r0, [r0, #4]	@ tmp174,
 118              	.LVL2:
 119 002a 0A21     		mov	r1, #10	@,
 120 002c FFF7FEFF 		bl	__aeabi_uidiv	@
 121              	.LVL3:
 122 0030 80B2     		uxth	r0, r0	@ mains_dAmps, tmp177
 123              	.LVL4:
  10:../../evt_lib/src/brusa.c **** 	msg_obj->data[1] = mains_dAmps >> 8;
 124              		.loc 1 10 0
 125 0032 030A     		lsr	r3, r0, #8	@ tmp178, mains_dAmps,
 126 0034 6372     		strb	r3, [r4, #9]	@ tmp178, msg_obj_2(D)->D.5958.data
  11:../../evt_lib/src/brusa.c **** 	msg_obj->data[2] = mains_dAmps & 0xFF;
 127              		.loc 1 11 0
 128 0036 A072     		strb	r0, [r4, #10]	@ mains_dAmps, msg_obj_2(D)->D.5958.data
  12:../../evt_lib/src/brusa.c **** 	uint16_t out_dVolts = contents->output_mVolts / 100;
 129              		.loc 1 12 0
 130 0038 A868     		ldr	r0, [r5, #8]	@, contents_5(D)->output_mVolts
 131              	.LVL5:
 132 003a 6421     		mov	r1, #100	@,
 133 003c FFF7FEFF 		bl	__aeabi_uidiv	@
 134              	.LVL6:
  13:../../evt_lib/src/brusa.c **** 	msg_obj->data[3] = out_dVolts >> 8;
 135              		.loc 1 13 0
 136 0040 030A     		lsr	r3, r0, #8	@ tmp186, tmp184,
 137 0042 E372     		strb	r3, [r4, #11]	@ tmp186, msg_obj_2(D)->D.5958.data
  14:../../evt_lib/src/brusa.c **** 	msg_obj->data[4] = out_dVolts & 0xFF;
 138              		.loc 1 14 0
 139 0044 2073     		strb	r0, [r4, #12]	@ tmp184, msg_obj_2(D)->D.5958.data
  15:../../evt_lib/src/brusa.c **** 	uint16_t out_dAmps = contents->output_cAmps / 10;
 140              		.loc 1 15 0
 141 0046 A889     		ldrh	r0, [r5, #12]	@ tmp190,
 142              	.LVL7:
 143 0048 0A21     		mov	r1, #10	@,
 144 004a FFF7FEFF 		bl	__aeabi_uidiv	@
 145              	.LVL8:
 146 004e 80B2     		uxth	r0, r0	@ out_dAmps, tmp193
 147              	.LVL9:
  16:../../evt_lib/src/brusa.c **** 	msg_obj->data[5] = out_dAmps >> 8;
 148              		.loc 1 16 0
 149 0050 030A     		lsr	r3, r0, #8	@ tmp194, out_dAmps,
ARM GAS  /var/folders/f9/8bk2lnw15zn4cbgn6wrnb4lm0000gn/T//cctM4ZjJ.s 			page 4


 150 0052 6373     		strb	r3, [r4, #13]	@ tmp194, msg_obj_2(D)->D.5958.data
  17:../../evt_lib/src/brusa.c **** 	msg_obj->data[6] = out_dAmps & 0xFF;
 151              		.loc 1 17 0
 152 0054 A073     		strb	r0, [r4, #14]	@ out_dAmps, msg_obj_2(D)->D.5958.data
  18:../../evt_lib/src/brusa.c **** }
 153              		.loc 1 18 0
 154              		@ sp needed	@
 155              	.LVL10:
 156              	.LVL11:
 157 0056 38BD     		pop	{r3, r4, r5, pc}
 158              		.cfi_endproc
 159              	.LFE198:
 160              		.size	Brusa_MakeCTL, .-Brusa_MakeCTL
 161              		.section	.text.Brusa_DecodeStatus,"ax",%progbits
 162              		.align	2
 163              		.global	Brusa_DecodeStatus
 164              		.code	16
 165              		.thumb_func
 166              		.type	Brusa_DecodeStatus, %function
 167              	Brusa_DecodeStatus:
 168              	.LFB199:
  19:../../evt_lib/src/brusa.c **** 
  20:../../evt_lib/src/brusa.c **** int Brusa_DecodeStatus(NLG5_STATUS_T *contents, CCAN_MSG_OBJ_T *msg_obj) {
 169              		.loc 1 20 0
 170              		.cfi_startproc
 171              	.LVL12:
  21:../../evt_lib/src/brusa.c **** 	if (msg_obj->dlc != NLG5_STATUS_DLC) {
 172              		.loc 1 21 0
 173 0000 0B7C     		ldrb	r3, [r1, #16]	@ tmp142,
 174 0002 042B     		cmp	r3, #4	@ tmp142,
 175 0004 22D1     		bne	.L4	@,
  22:../../evt_lib/src/brusa.c **** 		return -1;
  23:../../evt_lib/src/brusa.c **** 	}
  24:../../evt_lib/src/brusa.c **** 
  25:../../evt_lib/src/brusa.c **** 	contents->power_enabled = msg_obj->data[0] >> 7;
 176              		.loc 1 25 0
 177 0006 0B7A     		ldrb	r3, [r1, #8]	@ tmp143,
 178 0008 DB09     		lsr	r3, r3, #7	@ tmp144, tmp143,
 179 000a 0370     		strb	r3, [r0]	@ tmp144, contents_8(D)->power_enabled
  26:../../evt_lib/src/brusa.c **** 	contents->general_error_latch = (msg_obj->data[0] >> 6) & 1;
 180              		.loc 1 26 0
 181 000c 0A7A     		ldrb	r2, [r1, #8]	@ tmp146,
 182 000e 0123     		mov	r3, #1	@ tmp152,
 183 0010 9209     		lsr	r2, r2, #6	@ tmp147, tmp146,
 184 0012 1A40     		and	r2, r3	@ tmp151, tmp152
 185 0014 4270     		strb	r2, [r0, #1]	@ tmp151, contents_8(D)->general_error_latch
  27:../../evt_lib/src/brusa.c **** 	contents->general_limit_warning = (msg_obj->data[0] >> 5) & 1;
 186              		.loc 1 27 0
 187 0016 0A7A     		ldrb	r2, [r1, #8]	@ tmp154,
 188 0018 5209     		lsr	r2, r2, #5	@ tmp155, tmp154,
 189 001a 1A40     		and	r2, r3	@ tmp159, tmp152
 190 001c 8270     		strb	r2, [r0, #2]	@ tmp159, contents_8(D)->general_limit_warning
  28:../../evt_lib/src/brusa.c **** 	contents->fan_active = (msg_obj->data[0] >> 4) & 1;
 191              		.loc 1 28 0
 192 001e 0A7A     		ldrb	r2, [r1, #8]	@ tmp162,
 193 0020 1209     		lsr	r2, r2, #4	@ tmp163, tmp162,
 194 0022 1A40     		and	r2, r3	@ tmp167, tmp152
ARM GAS  /var/folders/f9/8bk2lnw15zn4cbgn6wrnb4lm0000gn/T//cctM4ZjJ.s 			page 5


 195 0024 C270     		strb	r2, [r0, #3]	@ tmp167, contents_8(D)->fan_active
  29:../../evt_lib/src/brusa.c **** 	contents->mains_type = (msg_obj->data[0] >> 1) & 0x7;
 196              		.loc 1 29 0
 197 0026 0A7A     		ldrb	r2, [r1, #8]	@ tmp170,
 198 0028 1207     		lsl	r2, r2, #28	@ tmp176, tmp170,
 199 002a 520F     		lsr	r2, r2, #29	@ tmp175, tmp176,
 200 002c 0271     		strb	r2, [r0, #4]	@ tmp175, contents_8(D)->mains_type
  30:../../evt_lib/src/brusa.c **** 	contents->control_pilot_detected = msg_obj->data[0] & 1;
 201              		.loc 1 30 0
 202 002e 0A7A     		ldrb	r2, [r1, #8]	@ tmp181,
 203 0030 1340     		and	r3, r2	@ tmp182, tmp181
 204 0032 4371     		strb	r3, [r0, #5]	@ tmp182, contents_8(D)->control_pilot_detected
  31:../../evt_lib/src/brusa.c **** 
  32:../../evt_lib/src/brusa.c **** 	contents->bypass_detection = (msg_obj->data[1] >> 6) & 0x3;
 205              		.loc 1 32 0
 206 0034 4B7A     		ldrb	r3, [r1, #9]	@ tmp185,
  33:../../evt_lib/src/brusa.c **** 	contents->limitation = ((msg_obj->data[1] & 0x1F) << 8) | msg_obj->data[2];
 207              		.loc 1 33 0
 208 0036 1F22     		mov	r2, #31	@ tmp193,
  32:../../evt_lib/src/brusa.c **** 	contents->bypass_detection = (msg_obj->data[1] >> 6) & 0x3;
 209              		.loc 1 32 0
 210 0038 9B09     		lsr	r3, r3, #6	@ tmp186, tmp185,
 211 003a 8371     		strb	r3, [r0, #6]	@ tmp186, contents_8(D)->bypass_detection
 212              		.loc 1 33 0
 213 003c 4B7A     		ldrb	r3, [r1, #9]	@ tmp191,
 214 003e 1340     		and	r3, r2	@ D.6374, tmp193
 215 0040 8A7A     		ldrb	r2, [r1, #10]	@ tmp197,
 216 0042 1B02     		lsl	r3, r3, #8	@ D.6374, D.6374,
 217 0044 1343     		orr	r3, r2	@ tmp199, tmp197
 218 0046 0381     		strh	r3, [r0, #8]	@ tmp199, contents_8(D)->limitation
  34:../../evt_lib/src/brusa.c **** 
  35:../../evt_lib/src/brusa.c **** 	return 0;
 219              		.loc 1 35 0
 220 0048 0020     		mov	r0, #0	@ D.6374,
 221              	.LVL13:
 222              	.L3:
  36:../../evt_lib/src/brusa.c **** }
 223              		.loc 1 36 0
 224              		@ sp needed	@
 225 004a 7047     		bx	lr
 226              	.LVL14:
 227              	.L4:
  22:../../evt_lib/src/brusa.c **** 		return -1;
 228              		.loc 1 22 0
 229 004c 0120     		mov	r0, #1	@ tmp202,
 230              	.LVL15:
 231 004e 4042     		neg	r0, r0	@ D.6374, tmp202
 232 0050 FBE7     		b	.L3	@
 233              		.cfi_endproc
 234              	.LFE199:
 235              		.size	Brusa_DecodeStatus, .-Brusa_DecodeStatus
 236 0052 C046     		.section	.text.Brusa_DecodeActI,"ax",%progbits
 237              		.align	2
 238              		.global	Brusa_DecodeActI
 239              		.code	16
 240              		.thumb_func
 241              		.type	Brusa_DecodeActI, %function
ARM GAS  /var/folders/f9/8bk2lnw15zn4cbgn6wrnb4lm0000gn/T//cctM4ZjJ.s 			page 6


 242              	Brusa_DecodeActI:
 243              	.LFB200:
  37:../../evt_lib/src/brusa.c **** 
  38:../../evt_lib/src/brusa.c **** int Brusa_DecodeActI(NLG5_ACT_I_T *contents, CCAN_MSG_OBJ_T *msg_obj) {
 244              		.loc 1 38 0
 245              		.cfi_startproc
 246              	.LVL16:
  39:../../evt_lib/src/brusa.c **** 	if (msg_obj->dlc != NLG5_ACT_I_DLC) {
 247              		.loc 1 39 0
 248 0000 0B7C     		ldrb	r3, [r1, #16]	@ tmp147,
  38:../../evt_lib/src/brusa.c **** int Brusa_DecodeActI(NLG5_ACT_I_T *contents, CCAN_MSG_OBJ_T *msg_obj) {
 249              		.loc 1 38 0
 250 0002 10B5     		push	{r4, lr}	@
 251              		.cfi_def_cfa_offset 8
 252              		.cfi_offset 4, -8
 253              		.cfi_offset 14, -4
 254              		.loc 1 39 0
 255 0004 082B     		cmp	r3, #8	@ tmp147,
 256 0006 18D1     		bne	.L8	@,
  40:../../evt_lib/src/brusa.c **** 		return -1;
  41:../../evt_lib/src/brusa.c **** 	}
  42:../../evt_lib/src/brusa.c **** 
  43:../../evt_lib/src/brusa.c **** 	contents->mains_cAmps = (msg_obj->data[0] << 8) | msg_obj->data[1];
 257              		.loc 1 43 0
 258 0008 0B7A     		ldrb	r3, [r1, #8]	@ D.6380,
 259 000a 4A7A     		ldrb	r2, [r1, #9]	@ tmp151,
 260 000c 1B02     		lsl	r3, r3, #8	@ D.6380, D.6380,
 261 000e 1343     		orr	r3, r2	@ tmp153, tmp151
 262 0010 0380     		strh	r3, [r0]	@ tmp153, contents_14(D)->mains_cAmps
  44:../../evt_lib/src/brusa.c **** 	// Value originally in deciVolts
  45:../../evt_lib/src/brusa.c **** 	contents->mains_mVolts = ((msg_obj->data[2] << 8) | msg_obj->data[3]) * 100; 
 263              		.loc 1 45 0
 264 0012 8A7A     		ldrb	r2, [r1, #10]	@ D.6380,
 265 0014 CB7A     		ldrb	r3, [r1, #11]	@ D.6380,
 266 0016 1202     		lsl	r2, r2, #8	@ D.6380, D.6380,
 267 0018 1A43     		orr	r2, r3	@ D.6380, D.6380
 268 001a 6423     		mov	r3, #100	@ tmp159,
 269 001c 5A43     		mul	r2, r3	@ D.6380, tmp159
 270 001e 4260     		str	r2, [r0, #4]	@ D.6380, contents_14(D)->mains_mVolts
  46:../../evt_lib/src/brusa.c **** 	// Value originally in deciVolts
  47:../../evt_lib/src/brusa.c **** 	contents->output_mVolts = ((msg_obj->data[4] << 8) | msg_obj->data[5]) * 100; 
 271              		.loc 1 47 0
 272 0020 0A7B     		ldrb	r2, [r1, #12]	@ D.6380,
 273 0022 4C7B     		ldrb	r4, [r1, #13]	@ D.6380,
 274 0024 1202     		lsl	r2, r2, #8	@ D.6380, D.6380,
 275 0026 2243     		orr	r2, r4	@ D.6380, D.6380
 276 0028 5343     		mul	r3, r2	@ D.6380, D.6380
 277 002a 8360     		str	r3, [r0, #8]	@ D.6380, contents_14(D)->output_mVolts
  48:../../evt_lib/src/brusa.c **** 	contents->output_cAmps = (msg_obj->data[6] << 8) | msg_obj->data[7];
 278              		.loc 1 48 0
 279 002c 8B7B     		ldrb	r3, [r1, #14]	@ D.6380,
 280 002e CA7B     		ldrb	r2, [r1, #15]	@ tmp170,
 281 0030 1B02     		lsl	r3, r3, #8	@ D.6380, D.6380,
 282 0032 1343     		orr	r3, r2	@ tmp172, tmp170
 283 0034 8381     		strh	r3, [r0, #12]	@ tmp172, contents_14(D)->output_cAmps
  49:../../evt_lib/src/brusa.c **** 
  50:../../evt_lib/src/brusa.c **** 	return 0;
ARM GAS  /var/folders/f9/8bk2lnw15zn4cbgn6wrnb4lm0000gn/T//cctM4ZjJ.s 			page 7


 284              		.loc 1 50 0
 285 0036 0020     		mov	r0, #0	@ D.6380,
 286              	.LVL17:
 287              	.L7:
  51:../../evt_lib/src/brusa.c **** }
 288              		.loc 1 51 0
 289              		@ sp needed	@
 290 0038 10BD     		pop	{r4, pc}
 291              	.LVL18:
 292              	.L8:
  40:../../evt_lib/src/brusa.c **** 		return -1;
 293              		.loc 1 40 0
 294 003a 0120     		mov	r0, #1	@ tmp175,
 295              	.LVL19:
 296 003c 4042     		neg	r0, r0	@ D.6380, tmp175
 297 003e FBE7     		b	.L7	@
 298              		.cfi_endproc
 299              	.LFE200:
 300              		.size	Brusa_DecodeActI, .-Brusa_DecodeActI
 301              		.section	.text.Brusa_DecodeActII,"ax",%progbits
 302              		.align	2
 303              		.global	Brusa_DecodeActII
 304              		.code	16
 305              		.thumb_func
 306              		.type	Brusa_DecodeActII, %function
 307              	Brusa_DecodeActII:
 308              	.LFB201:
  52:../../evt_lib/src/brusa.c **** 
  53:../../evt_lib/src/brusa.c **** int Brusa_DecodeActII(NLG5_ACT_II_T *contents, CCAN_MSG_OBJ_T *msg_obj) {
 309              		.loc 1 53 0
 310              		.cfi_startproc
 311              	.LVL20:
  54:../../evt_lib/src/brusa.c **** 	if (msg_obj->dlc != NLG5_ACT_II_DLC) {
 312              		.loc 1 54 0
 313 0000 0B7C     		ldrb	r3, [r1, #16]	@ tmp141,
 314 0002 082B     		cmp	r3, #8	@ tmp141,
 315 0004 14D1     		bne	.L11	@,
  55:../../evt_lib/src/brusa.c **** 		return -1;
  56:../../evt_lib/src/brusa.c **** 	}
  57:../../evt_lib/src/brusa.c **** 
  58:../../evt_lib/src/brusa.c **** 	contents->mains_current_max_pilot = (msg_obj->data[0] << 8) | msg_obj->data[1];
 316              		.loc 1 58 0
 317 0006 0B7A     		ldrb	r3, [r1, #8]	@ D.6387,
 318 0008 4A7A     		ldrb	r2, [r1, #9]	@ tmp145,
 319 000a 1B02     		lsl	r3, r3, #8	@ D.6387, D.6387,
 320 000c 1343     		orr	r3, r2	@ tmp147, tmp145
 321 000e 0380     		strh	r3, [r0]	@ tmp147, contents_14(D)->mains_current_max_pilot
  59:../../evt_lib/src/brusa.c **** 	contents->mains_current_max_power_ind = msg_obj->data[2];
 322              		.loc 1 59 0
 323 0010 8B7A     		ldrb	r3, [r1, #10]	@ D.6388,
 324 0012 8370     		strb	r3, [r0, #2]	@ D.6388, contents_14(D)->mains_current_max_power_ind
  60:../../evt_lib/src/brusa.c **** 	contents->aux_battery_voltage = msg_obj->data[3];
 325              		.loc 1 60 0
 326 0014 CB7A     		ldrb	r3, [r1, #11]	@ D.6388,
 327 0016 C370     		strb	r3, [r0, #3]	@ D.6388, contents_14(D)->aux_battery_voltage
  61:../../evt_lib/src/brusa.c **** 	contents->amp_hours_ext_shunt = (msg_obj->data[4] << 8) | msg_obj->data[5];
 328              		.loc 1 61 0
ARM GAS  /var/folders/f9/8bk2lnw15zn4cbgn6wrnb4lm0000gn/T//cctM4ZjJ.s 			page 8


 329 0018 0B7B     		ldrb	r3, [r1, #12]	@ D.6387,
 330 001a 4A7B     		ldrb	r2, [r1, #13]	@ tmp154,
 331 001c 1B02     		lsl	r3, r3, #8	@ D.6387, D.6387,
 332 001e 1343     		orr	r3, r2	@ tmp156, tmp154
 333 0020 8380     		strh	r3, [r0, #4]	@ tmp156, contents_14(D)->amp_hours_ext_shunt
  62:../../evt_lib/src/brusa.c **** 	contents->booster_output_current = (msg_obj->data[6] << 8) | msg_obj->data[7];
 334              		.loc 1 62 0
 335 0022 8B7B     		ldrb	r3, [r1, #14]	@ D.6387,
 336 0024 CA7B     		ldrb	r2, [r1, #15]	@ tmp161,
 337 0026 1B02     		lsl	r3, r3, #8	@ D.6387, D.6387,
 338 0028 1343     		orr	r3, r2	@ tmp163, tmp161
 339 002a C380     		strh	r3, [r0, #6]	@ tmp163, contents_14(D)->booster_output_current
  63:../../evt_lib/src/brusa.c **** 
  64:../../evt_lib/src/brusa.c **** 	return 0;
 340              		.loc 1 64 0
 341 002c 0020     		mov	r0, #0	@ D.6387,
 342              	.LVL21:
 343              	.L10:
  65:../../evt_lib/src/brusa.c **** }
 344              		.loc 1 65 0
 345              		@ sp needed	@
 346 002e 7047     		bx	lr
 347              	.LVL22:
 348              	.L11:
  55:../../evt_lib/src/brusa.c **** 		return -1;
 349              		.loc 1 55 0
 350 0030 0120     		mov	r0, #1	@ tmp166,
 351              	.LVL23:
 352 0032 4042     		neg	r0, r0	@ D.6387, tmp166
 353 0034 FBE7     		b	.L10	@
 354              		.cfi_endproc
 355              	.LFE201:
 356              		.size	Brusa_DecodeActII, .-Brusa_DecodeActII
 357 0036 C046     		.section	.text.Brusa_DecodeTemp,"ax",%progbits
 358              		.align	2
 359              		.global	Brusa_DecodeTemp
 360              		.code	16
 361              		.thumb_func
 362              		.type	Brusa_DecodeTemp, %function
 363              	Brusa_DecodeTemp:
 364              	.LFB202:
  66:../../evt_lib/src/brusa.c **** 
  67:../../evt_lib/src/brusa.c **** int Brusa_DecodeTemp(NLG5_TEMP_T *contents, CCAN_MSG_OBJ_T *msg_obj)  {
 365              		.loc 1 67 0
 366              		.cfi_startproc
 367              	.LVL24:
  68:../../evt_lib/src/brusa.c **** 	if (msg_obj->dlc != NLG5_TEMP_DLC) {
 368              		.loc 1 68 0
 369 0000 0B7C     		ldrb	r3, [r1, #16]	@ tmp147,
 370 0002 082B     		cmp	r3, #8	@ tmp147,
 371 0004 15D1     		bne	.L14	@,
  69:../../evt_lib/src/brusa.c **** 		return -1;
  70:../../evt_lib/src/brusa.c **** 	}
  71:../../evt_lib/src/brusa.c **** 
  72:../../evt_lib/src/brusa.c **** 	contents->power_temp = (msg_obj->data[0] << 8) | msg_obj->data[1];
 372              		.loc 1 72 0
 373 0006 0B7A     		ldrb	r3, [r1, #8]	@ D.6393,
ARM GAS  /var/folders/f9/8bk2lnw15zn4cbgn6wrnb4lm0000gn/T//cctM4ZjJ.s 			page 9


 374 0008 4A7A     		ldrb	r2, [r1, #9]	@ tmp151,
 375 000a 1B02     		lsl	r3, r3, #8	@ D.6393, D.6393,
 376 000c 1343     		orr	r3, r2	@ tmp153, tmp151
 377 000e 0380     		strh	r3, [r0]	@ tmp153, contents_14(D)->power_temp
  73:../../evt_lib/src/brusa.c **** 	contents->temp_1 = (msg_obj->data[2] << 8) | msg_obj->data[3];
 378              		.loc 1 73 0
 379 0010 8B7A     		ldrb	r3, [r1, #10]	@ D.6393,
 380 0012 CA7A     		ldrb	r2, [r1, #11]	@ tmp158,
 381 0014 1B02     		lsl	r3, r3, #8	@ D.6393, D.6393,
 382 0016 1343     		orr	r3, r2	@ tmp160, tmp158
 383 0018 4380     		strh	r3, [r0, #2]	@ tmp160, contents_14(D)->temp_1
  74:../../evt_lib/src/brusa.c **** 	contents->temp_2 = (msg_obj->data[4] << 8) | msg_obj->data[5];
 384              		.loc 1 74 0
 385 001a 0B7B     		ldrb	r3, [r1, #12]	@ D.6393,
 386 001c 4A7B     		ldrb	r2, [r1, #13]	@ tmp165,
 387 001e 1B02     		lsl	r3, r3, #8	@ D.6393, D.6393,
 388 0020 1343     		orr	r3, r2	@ tmp167, tmp165
 389 0022 8380     		strh	r3, [r0, #4]	@ tmp167, contents_14(D)->temp_2
  75:../../evt_lib/src/brusa.c **** 	contents->temp_3 = (msg_obj->data[6] << 8) | msg_obj->data[7];
 390              		.loc 1 75 0
 391 0024 8B7B     		ldrb	r3, [r1, #14]	@ D.6393,
 392 0026 CA7B     		ldrb	r2, [r1, #15]	@ tmp172,
 393 0028 1B02     		lsl	r3, r3, #8	@ D.6393, D.6393,
 394 002a 1343     		orr	r3, r2	@ tmp174, tmp172
 395 002c C380     		strh	r3, [r0, #6]	@ tmp174, contents_14(D)->temp_3
  76:../../evt_lib/src/brusa.c **** 
  77:../../evt_lib/src/brusa.c **** 	return 0;
 396              		.loc 1 77 0
 397 002e 0020     		mov	r0, #0	@ D.6393,
 398              	.LVL25:
 399              	.L13:
  78:../../evt_lib/src/brusa.c **** }
 400              		.loc 1 78 0
 401              		@ sp needed	@
 402 0030 7047     		bx	lr
 403              	.LVL26:
 404              	.L14:
  69:../../evt_lib/src/brusa.c **** 		return -1;
 405              		.loc 1 69 0
 406 0032 0120     		mov	r0, #1	@ tmp177,
 407              	.LVL27:
 408 0034 4042     		neg	r0, r0	@ D.6393, tmp177
 409 0036 FBE7     		b	.L13	@
 410              		.cfi_endproc
 411              	.LFE202:
 412              		.size	Brusa_DecodeTemp, .-Brusa_DecodeTemp
 413              		.section	.text.Brusa_DecodeErr,"ax",%progbits
 414              		.align	2
 415              		.global	Brusa_DecodeErr
 416              		.code	16
 417              		.thumb_func
 418              		.type	Brusa_DecodeErr, %function
 419              	Brusa_DecodeErr:
 420              	.LFB203:
  79:../../evt_lib/src/brusa.c **** 
  80:../../evt_lib/src/brusa.c **** int Brusa_DecodeErr(NLG5_ERR_T *contents, CCAN_MSG_OBJ_T *msg_obj) {
 421              		.loc 1 80 0
ARM GAS  /var/folders/f9/8bk2lnw15zn4cbgn6wrnb4lm0000gn/T//cctM4ZjJ.s 			page 10


 422              		.cfi_startproc
 423              	.LVL28:
  81:../../evt_lib/src/brusa.c **** 	if (msg_obj->dlc != NLG5_ERR_DLC) {
 424              		.loc 1 81 0
 425 0000 0B7C     		ldrb	r3, [r1, #16]	@ tmp163,
  80:../../evt_lib/src/brusa.c **** int Brusa_DecodeErr(NLG5_ERR_T *contents, CCAN_MSG_OBJ_T *msg_obj) {
 426              		.loc 1 80 0
 427 0002 30B5     		push	{r4, r5, lr}	@
 428              		.cfi_def_cfa_offset 12
 429              		.cfi_offset 4, -12
 430              		.cfi_offset 5, -8
 431              		.cfi_offset 14, -4
 432              		.loc 1 81 0
 433 0004 052B     		cmp	r3, #5	@ tmp163,
 434 0006 0DD1     		bne	.L18	@,
  82:../../evt_lib/src/brusa.c **** 		return -1;
  83:../../evt_lib/src/brusa.c **** 	}
  84:../../evt_lib/src/brusa.c **** 
  85:../../evt_lib/src/brusa.c **** 	// msg_obj->data[4] &= 0xF0;
  86:../../evt_lib/src/brusa.c **** 	*(contents) = 0;
 435              		.loc 1 86 0
 436 0008 0023     		mov	r3, #0	@ tmp164,
 437 000a 0360     		str	r3, [r0]	@ tmp164, *contents_8(D)
 438              	.LVL29:
 439 000c 0022     		mov	r2, #0	@ D.6413,
 440              	.LVL30:
 441              	.L17:
 442 000e CC18     		add	r4, r1, r3	@ D.6415, msg_obj, ivtmp.20
  87:../../evt_lib/src/brusa.c **** 	uint8_t i;
  88:../../evt_lib/src/brusa.c **** 	for (i = 0; i < NLG5_ERR_DLC - 1; i++) {
  89:../../evt_lib/src/brusa.c **** 		*(contents) |= (msg_obj->data[i] << (8 * i));
 443              		.loc 1 89 0 discriminator 2
 444 0010 257A     		ldrb	r5, [r4, #8]	@ D.6411, MEM[base: _25, offset: 8B]
 445 0012 DC00     		lsl	r4, r3, #3	@ D.6414, ivtmp.20,
 446 0014 A540     		lsl	r5, r5, r4	@ D.6411, D.6411, D.6414
 447 0016 2A43     		orr	r2, r5	@ D.6413, D.6411
 448 0018 0133     		add	r3, r3, #1	@ ivtmp.20,
 449              	.LVL31:
 450 001a 0260     		str	r2, [r0]	@ D.6413, *contents_8(D)
 451              	.LVL32:
  88:../../evt_lib/src/brusa.c **** 	for (i = 0; i < NLG5_ERR_DLC - 1; i++) {
 452              		.loc 1 88 0 discriminator 2
 453 001c 042B     		cmp	r3, #4	@ ivtmp.20,
 454 001e F6D1     		bne	.L17	@,
  90:../../evt_lib/src/brusa.c **** 	}
  91:../../evt_lib/src/brusa.c **** 
  92:../../evt_lib/src/brusa.c **** 	return 0;
 455              		.loc 1 92 0
 456 0020 0020     		mov	r0, #0	@ D.6411,
 457              	.LVL33:
 458              	.L16:
  93:../../evt_lib/src/brusa.c **** }
 459              		.loc 1 93 0
 460              		@ sp needed	@
 461 0022 30BD     		pop	{r4, r5, pc}
 462              	.LVL34:
 463              	.L18:
ARM GAS  /var/folders/f9/8bk2lnw15zn4cbgn6wrnb4lm0000gn/T//cctM4ZjJ.s 			page 11


  82:../../evt_lib/src/brusa.c **** 		return -1;
 464              		.loc 1 82 0
 465 0024 0120     		mov	r0, #1	@ tmp170,
 466              	.LVL35:
 467 0026 4042     		neg	r0, r0	@ D.6411, tmp170
 468 0028 FBE7     		b	.L16	@
 469              		.cfi_endproc
 470              	.LFE203:
 471              		.size	Brusa_DecodeErr, .-Brusa_DecodeErr
 472 002a C046     		.section	.text.Brusa_Decode,"ax",%progbits
 473              		.align	2
 474              		.global	Brusa_Decode
 475              		.code	16
 476              		.thumb_func
 477              		.type	Brusa_Decode, %function
 478              	Brusa_Decode:
 479              	.LFB204:
  94:../../evt_lib/src/brusa.c **** 
  95:../../evt_lib/src/brusa.c **** /**
  96:../../evt_lib/src/brusa.c ****  * @details Takes a CAN messege object and determines if it is a valid Brusa message.
  97:../../evt_lib/src/brusa.c ****  * If so, it stuffs it into the appropriate static struct
  98:../../evt_lib/src/brusa.c ****  * 
  99:../../evt_lib/src/brusa.c ****  * @param msg CAN message object to decode
 100:../../evt_lib/src/brusa.c ****  * @return 0 if properly decodes, -1 otherwise
 101:../../evt_lib/src/brusa.c ****  */
 102:../../evt_lib/src/brusa.c **** int8_t Brusa_Decode(NLG5_MESSAGES_T *state, CCAN_MSG_OBJ_T *msg) {
 480              		.loc 1 102 0
 481              		.cfi_startproc
 482              	.LVL36:
 483 0000 38B5     		push	{r3, r4, r5, lr}	@
 484              		.cfi_def_cfa_offset 16
 485              		.cfi_offset 3, -16
 486              		.cfi_offset 4, -12
 487              		.cfi_offset 5, -8
 488              		.cfi_offset 14, -4
 103:../../evt_lib/src/brusa.c **** 	if (msg->mode_id == NLG5_STATUS) {
 489              		.loc 1 103 0
 490 0002 0B68     		ldr	r3, [r1]	@ D.6428, msg_4(D)->mode_id
 491 0004 C222     		mov	r2, #194	@ tmp215,
 492 0006 D200     		lsl	r2, r2, #3	@ tmp175, tmp215,
 493 0008 9342     		cmp	r3, r2	@ D.6428, tmp175
 494 000a 3CD0     		beq	.L33	@,
 104:../../evt_lib/src/brusa.c **** 		return Brusa_DecodeStatus(state->stat, msg);
 105:../../evt_lib/src/brusa.c **** 	} else if (msg->mode_id == NLG5_TEMP) {
 495              		.loc 1 105 0
 496 000c 254A     		ldr	r2, .L38	@ tmp177,
 497 000e 9342     		cmp	r3, r2	@ D.6428, tmp177
 498 0010 3ED0     		beq	.L34	@,
 106:../../evt_lib/src/brusa.c **** 		return Brusa_DecodeTemp(state->temp, msg);
 107:../../evt_lib/src/brusa.c **** 	} else if (msg->mode_id == NLG5_ACT_I) {
 499              		.loc 1 107 0
 500 0012 254A     		ldr	r2, .L38+4	@ tmp179,
 501 0014 9342     		cmp	r3, r2	@ D.6428, tmp179
 502 0016 40D0     		beq	.L35	@,
 108:../../evt_lib/src/brusa.c **** 		return Brusa_DecodeActI(state->act_i, msg);
 109:../../evt_lib/src/brusa.c **** 	} else if (msg->mode_id == NLG5_ACT_II) {
 503              		.loc 1 109 0
ARM GAS  /var/folders/f9/8bk2lnw15zn4cbgn6wrnb4lm0000gn/T//cctM4ZjJ.s 			page 12


 504 0018 244A     		ldr	r2, .L38+8	@ tmp181,
 505 001a 9342     		cmp	r3, r2	@ D.6428, tmp181
 506 001c 09D0     		beq	.L36	@,
 110:../../evt_lib/src/brusa.c **** 		return Brusa_DecodeActII(state->act_ii, msg);
 111:../../evt_lib/src/brusa.c **** 	} else if (msg->mode_id == NLG5_ERR) {
 507              		.loc 1 111 0
 508 001e 244A     		ldr	r2, .L38+12	@ tmp206,
 509 0020 9342     		cmp	r3, r2	@ D.6428, tmp206
 510 0022 20D1     		bne	.L30	@,
 511              	.LBB6:
 512              	.LBB7:
  81:../../evt_lib/src/brusa.c **** 	if (msg_obj->dlc != NLG5_ERR_DLC) {
 513              		.loc 1 81 0
 514 0024 0B7C     		ldrb	r3, [r1, #16]	@ tmp207,
 515              	.LBE7:
 516              	.LBE6:
 112:../../evt_lib/src/brusa.c **** 		return Brusa_DecodeErr(state->err, msg);
 517              		.loc 1 112 0
 518 0026 0469     		ldr	r4, [r0, #16]	@ D.6434, state_6(D)->err
 519              	.LVL37:
 520              	.LBB10:
 521              	.LBB8:
  81:../../evt_lib/src/brusa.c **** 	if (msg_obj->dlc != NLG5_ERR_DLC) {
 522              		.loc 1 81 0
 523 0028 FF20     		mov	r0, #255	@ D.6427,
 524              	.LVL38:
 525 002a 052B     		cmp	r3, #5	@ tmp207,
 526 002c 1DD0     		beq	.L37	@,
 527              	.LVL39:
 528              	.L22:
 529 002e 40B2     		sxtb	r0, r0	@ D.6427, D.6427
 530              	.LBE8:
 531              	.LBE10:
 113:../../evt_lib/src/brusa.c **** 	} else {
 114:../../evt_lib/src/brusa.c **** 		return -1;
 115:../../evt_lib/src/brusa.c **** 	}
 116:../../evt_lib/src/brusa.c **** 
 117:../../evt_lib/src/brusa.c **** 	return 0;
 118:../../evt_lib/src/brusa.c **** }
 532              		.loc 1 118 0
 533              		@ sp needed	@
 534 0030 38BD     		pop	{r3, r4, r5, pc}
 535              	.LVL40:
 536              	.L36:
 537              	.LBB11:
 538              	.LBB12:
  54:../../evt_lib/src/brusa.c **** 	if (msg_obj->dlc != NLG5_ACT_II_DLC) {
 539              		.loc 1 54 0
 540 0032 0A7C     		ldrb	r2, [r1, #16]	@ tmp182,
 541              	.LBE12:
 542              	.LBE11:
 110:../../evt_lib/src/brusa.c **** 		return Brusa_DecodeActII(state->act_ii, msg);
 543              		.loc 1 110 0
 544 0034 8368     		ldr	r3, [r0, #8]	@ D.6433, state_6(D)->act_ii
 545              	.LVL41:
 546              	.LBB14:
 547              	.LBB13:
ARM GAS  /var/folders/f9/8bk2lnw15zn4cbgn6wrnb4lm0000gn/T//cctM4ZjJ.s 			page 13


  54:../../evt_lib/src/brusa.c **** 	if (msg_obj->dlc != NLG5_ACT_II_DLC) {
 548              		.loc 1 54 0
 549 0036 FF20     		mov	r0, #255	@ D.6427,
 550              	.LVL42:
 551 0038 082A     		cmp	r2, #8	@ tmp182,
 552 003a F8D1     		bne	.L22	@,
  58:../../evt_lib/src/brusa.c **** 	contents->mains_current_max_pilot = (msg_obj->data[0] << 8) | msg_obj->data[1];
 553              		.loc 1 58 0
 554 003c 0A7A     		ldrb	r2, [r1, #8]	@ D.6430,
 555 003e 487A     		ldrb	r0, [r1, #9]	@ tmp186,
 556 0040 1202     		lsl	r2, r2, #8	@ D.6430, D.6430,
 557 0042 0243     		orr	r2, r0	@ tmp188, tmp186
 558 0044 1A80     		strh	r2, [r3]	@ tmp188, _19->mains_current_max_pilot
  59:../../evt_lib/src/brusa.c **** 	contents->mains_current_max_power_ind = msg_obj->data[2];
 559              		.loc 1 59 0
 560 0046 8A7A     		ldrb	r2, [r1, #10]	@ D.6435,
 561 0048 9A70     		strb	r2, [r3, #2]	@ D.6435, _19->mains_current_max_power_ind
  60:../../evt_lib/src/brusa.c **** 	contents->aux_battery_voltage = msg_obj->data[3];
 562              		.loc 1 60 0
 563 004a CA7A     		ldrb	r2, [r1, #11]	@ D.6435,
 564 004c DA70     		strb	r2, [r3, #3]	@ D.6435, _19->aux_battery_voltage
  61:../../evt_lib/src/brusa.c **** 	contents->amp_hours_ext_shunt = (msg_obj->data[4] << 8) | msg_obj->data[5];
 565              		.loc 1 61 0
 566 004e 0A7B     		ldrb	r2, [r1, #12]	@ D.6430,
 567 0050 487B     		ldrb	r0, [r1, #13]	@ tmp195,
 568 0052 1202     		lsl	r2, r2, #8	@ D.6430, D.6430,
 569 0054 0243     		orr	r2, r0	@ tmp197, tmp195
 570 0056 9A80     		strh	r2, [r3, #4]	@ tmp197, _19->amp_hours_ext_shunt
  62:../../evt_lib/src/brusa.c **** 	contents->booster_output_current = (msg_obj->data[6] << 8) | msg_obj->data[7];
 571              		.loc 1 62 0
 572 0058 8A7B     		ldrb	r2, [r1, #14]	@ D.6430,
 573 005a C97B     		ldrb	r1, [r1, #15]	@ tmp202,
 574              	.LVL43:
 575 005c 1202     		lsl	r2, r2, #8	@ D.6430, D.6430,
 576 005e 0A43     		orr	r2, r1	@ tmp204, tmp202
 577 0060 DA80     		strh	r2, [r3, #6]	@ tmp204, _19->booster_output_current
 578 0062 0020     		mov	r0, #0	@ D.6427,
 579 0064 E3E7     		b	.L22	@
 580              	.LVL44:
 581              	.L30:
 582              	.LBE13:
 583              	.LBE14:
 114:../../evt_lib/src/brusa.c **** 		return -1;
 584              		.loc 1 114 0
 585 0066 FF20     		mov	r0, #255	@ D.6427,
 586              	.LVL45:
 587 0068 E1E7     		b	.L22	@
 588              	.LVL46:
 589              	.L37:
 590              	.LBB15:
 591              	.LBB9:
  86:../../evt_lib/src/brusa.c **** 	*(contents) = 0;
 592              		.loc 1 86 0
 593 006a 0023     		mov	r3, #0	@ tmp208,
 594 006c 2360     		str	r3, [r4]	@ tmp208, *_22
 595              	.LVL47:
 596 006e 0022     		mov	r2, #0	@ D.6428,
ARM GAS  /var/folders/f9/8bk2lnw15zn4cbgn6wrnb4lm0000gn/T//cctM4ZjJ.s 			page 14


 597              	.LVL48:
 598              	.L28:
 599 0070 C818     		add	r0, r1, r3	@ D.6439, msg, ivtmp.32
  89:../../evt_lib/src/brusa.c **** 		*(contents) |= (msg_obj->data[i] << (8 * i));
 600              		.loc 1 89 0
 601 0072 057A     		ldrb	r5, [r0, #8]	@ D.6430, MEM[base: _84, offset: 8B]
 602 0074 D800     		lsl	r0, r3, #3	@ D.6438, ivtmp.32,
 603 0076 8540     		lsl	r5, r5, r0	@ D.6430, D.6430, D.6438
 604 0078 2A43     		orr	r2, r5	@ D.6428, D.6430
 605 007a 0133     		add	r3, r3, #1	@ ivtmp.32,
 606              	.LVL49:
 607 007c 2260     		str	r2, [r4]	@ D.6428, *_22
 608              	.LVL50:
  88:../../evt_lib/src/brusa.c **** 	for (i = 0; i < NLG5_ERR_DLC - 1; i++) {
 609              		.loc 1 88 0
 610 007e 042B     		cmp	r3, #4	@ ivtmp.32,
 611 0080 F6D1     		bne	.L28	@,
 612 0082 0020     		mov	r0, #0	@ D.6427,
 613              	.LBE9:
 614              	.LBE15:
 112:../../evt_lib/src/brusa.c **** 		return Brusa_DecodeErr(state->err, msg);
 615              		.loc 1 112 0
 616 0084 D3E7     		b	.L22	@
 617              	.LVL51:
 618              	.L33:
 104:../../evt_lib/src/brusa.c **** 		return Brusa_DecodeStatus(state->stat, msg);
 619              		.loc 1 104 0
 620 0086 0068     		ldr	r0, [r0]	@ state_6(D)->stat, state_6(D)->stat
 621              	.LVL52:
 622 0088 FFF7FEFF 		bl	Brusa_DecodeStatus	@
 623              	.LVL53:
 624 008c C0B2     		uxtb	r0, r0	@ D.6427, D.6430
 625 008e CEE7     		b	.L22	@
 626              	.LVL54:
 627              	.L34:
 106:../../evt_lib/src/brusa.c **** 		return Brusa_DecodeTemp(state->temp, msg);
 628              		.loc 1 106 0
 629 0090 C068     		ldr	r0, [r0, #12]	@ state_6(D)->temp, state_6(D)->temp
 630              	.LVL55:
 631 0092 FFF7FEFF 		bl	Brusa_DecodeTemp	@
 632              	.LVL56:
 633 0096 C0B2     		uxtb	r0, r0	@ D.6427, D.6430
 634 0098 C9E7     		b	.L22	@
 635              	.LVL57:
 636              	.L35:
 108:../../evt_lib/src/brusa.c **** 		return Brusa_DecodeActI(state->act_i, msg);
 637              		.loc 1 108 0
 638 009a 4068     		ldr	r0, [r0, #4]	@ state_6(D)->act_i, state_6(D)->act_i
 639              	.LVL58:
 640 009c FFF7FEFF 		bl	Brusa_DecodeActI	@
 641              	.LVL59:
 642 00a0 C0B2     		uxtb	r0, r0	@ D.6427, D.6430
 643 00a2 C4E7     		b	.L22	@
 644              	.L39:
 645              		.align	2
 646              	.L38:
 647 00a4 13060000 		.word	1555
ARM GAS  /var/folders/f9/8bk2lnw15zn4cbgn6wrnb4lm0000gn/T//cctM4ZjJ.s 			page 15


 648 00a8 11060000 		.word	1553
 649 00ac 12060000 		.word	1554
 650 00b0 14060000 		.word	1556
 651              		.cfi_endproc
 652              	.LFE204:
 653              		.size	Brusa_Decode, .-Brusa_Decode
 654              		.text
 655              	.Letext0:
 656              		.file 2 "/usr/local/Cellar/gcc-arm-none-eabi/20140805/arm-none-eabi/include/machine/_default_types
 657              		.file 3 "/usr/local/Cellar/gcc-arm-none-eabi/20140805/arm-none-eabi/include/stdint.h"
 658              		.file 4 "../../lpc_chip_11cxx_lib/inc/ccand_11xx.h"
 659              		.file 5 "../../evt_lib/inc/brusa.h"
 660              		.file 6 "../../lpc_chip_11cxx_lib/inc/chip.h"