ARM GAS  /var/folders/f9/8bk2lnw15zn4cbgn6wrnb4lm0000gn/T//cctFUD59.s 			page 1


   1              		.cpu cortex-m0
   2              		.fpu softvfp
   3              		.eabi_attribute 20, 1	@ Tag_ABI_FP_denormal
   4              		.eabi_attribute 21, 1	@ Tag_ABI_FP_exceptions
   5              		.eabi_attribute 23, 3	@ Tag_ABI_FP_number_model
   6              		.eabi_attribute 24, 1	@ Tag_ABI_align8_needed
   7              		.eabi_attribute 25, 1	@ Tag_ABI_align8_preserved
   8              		.eabi_attribute 26, 1	@ Tag_ABI_enum_size
   9              		.eabi_attribute 30, 2	@ Tag_ABI_optimization_goals
  10              		.eabi_attribute 34, 0	@ Tag_CPU_unaligned_access
  11              		.eabi_attribute 18, 4	@ Tag_ABI_PCS_wchar_t
  12              		.file	"clock_11xx.c"
  13              	@ GNU C (GNU Tools for ARM Embedded Processors) version 4.8.4 20140725 (release) [ARM/embedded-4_8-
  14              	@	compiled by GNU C version 4.2.1 (Based on Apple Inc. build 5658) (LLVM build 2336.9.00), GMP vers
  15              	@ GGC heuristics: --param ggc-min-expand=100 --param ggc-min-heapsize=131072
  16              	@ options passed:  -I . -I ../../lpc_chip_11cxx_lib/inc
  17              	@ -I ../../evt_lib/inc -imultilib armv6-m
  18              	@ -iprefix /usr/local/Cellar/gcc-arm-none-eabi/20140805/bin/../lib/gcc/arm-none-eabi/4.8.4/
  19              	@ -isysroot /usr/local/Cellar/gcc-arm-none-eabi/20140805/bin/../arm-none-eabi
  20              	@ -MD bin/clock_11xx.d -MF bin/clock_11xx.d -MP -MQ bin/clock_11xx.o
  21              	@ -D__USES_INITFINI__ -D CORE_M0 ../../lpc_chip_11cxx_lib/src/clock_11xx.c
  22              	@ -mcpu=cortex-m0 -mthumb -auxbase-strip bin/clock_11xx.o -g -ggdb3 -O2
  23              	@ -Wall -Wstrict-prototypes -Wextra -std=gnu90 -ffunction-sections
  24              	@ -fdata-sections -fverbose-asm
  25              	@ options enabled:  -faggressive-loop-optimizations -fauto-inc-dec
  26              	@ -fbranch-count-reg -fcaller-saves -fcombine-stack-adjustments -fcommon
  27              	@ -fcompare-elim -fcprop-registers -fcrossjumping -fcse-follow-jumps
  28              	@ -fdata-sections -fdefer-pop -fdelete-null-pointer-checks -fdevirtualize
  29              	@ -fdwarf2-cfi-asm -fearly-inlining -feliminate-unused-debug-types
  30              	@ -fexpensive-optimizations -fforward-propagate -ffunction-cse
  31              	@ -ffunction-sections -fgcse -fgcse-lm -fgnu-runtime -fgnu-unique
  32              	@ -fguess-branch-probability -fhoist-adjacent-loads -fident -fif-conversion
  33              	@ -fif-conversion2 -findirect-inlining -finline -finline-atomics
  34              	@ -finline-functions-called-once -finline-small-functions -fipa-cp
  35              	@ -fipa-profile -fipa-pure-const -fipa-reference -fipa-sra
  36              	@ -fira-hoist-pressure -fira-share-save-slots -fira-share-spill-slots
  37              	@ -fivopts -fkeep-static-consts -fleading-underscore -fmath-errno
  38              	@ -fmerge-constants -fmerge-debug-strings -fmove-loop-invariants
  39              	@ -fomit-frame-pointer -foptimize-register-move -foptimize-sibling-calls
  40              	@ -foptimize-strlen -fpartial-inlining -fpeephole -fpeephole2
  41              	@ -fprefetch-loop-arrays -freg-struct-return -fregmove -freorder-blocks
  42              	@ -freorder-functions -frerun-cse-after-loop
  43              	@ -fsched-critical-path-heuristic -fsched-dep-count-heuristic
  44              	@ -fsched-group-heuristic -fsched-interblock -fsched-last-insn-heuristic
  45              	@ -fsched-pressure -fsched-rank-heuristic -fsched-spec
  46              	@ -fsched-spec-insn-heuristic -fsched-stalled-insns-dep -fschedule-insns2
  47              	@ -fsection-anchors -fshow-column -fshrink-wrap -fsigned-zeros
  48              	@ -fsplit-ivs-in-unroller -fsplit-wide-types -fstrict-aliasing
  49              	@ -fstrict-overflow -fstrict-volatile-bitfields -fsync-libcalls
  50              	@ -fthread-jumps -ftoplevel-reorder -ftrapping-math -ftree-bit-ccp
  51              	@ -ftree-builtin-call-dce -ftree-ccp -ftree-ch -ftree-coalesce-vars
  52              	@ -ftree-copy-prop -ftree-copyrename -ftree-cselim -ftree-dce
  53              	@ -ftree-dominator-opts -ftree-dse -ftree-forwprop -ftree-fre
  54              	@ -ftree-loop-if-convert -ftree-loop-im -ftree-loop-ivcanon
  55              	@ -ftree-loop-optimize -ftree-parallelize-loops= -ftree-phiprop -ftree-pre
  56              	@ -ftree-pta -ftree-reassoc -ftree-scev-cprop -ftree-sink
  57              	@ -ftree-slp-vectorize -ftree-slsr -ftree-sra -ftree-switch-conversion
ARM GAS  /var/folders/f9/8bk2lnw15zn4cbgn6wrnb4lm0000gn/T//cctFUD59.s 			page 2


  58              	@ -ftree-tail-merge -ftree-ter -ftree-vect-loop-version -ftree-vrp
  59              	@ -funit-at-a-time -fvar-tracking -fvar-tracking-assignments -fverbose-asm
  60              	@ -fzero-initialized-in-bss -mlittle-endian -mpic-data-is-text-relative
  61              	@ -msched-prolog -mthumb -mvectorize-with-neon-quad
  62              	
  63              		.text
  64              	.Ltext0:
  65              		.cfi_sections	.debug_frame
  66              		.section	.text.Chip_Clock_SetSystemPLLSource,"ax",%progbits
  67              		.align	2
  68              		.global	Chip_Clock_SetSystemPLLSource
  69              		.code	16
  70              		.thumb_func
  71              		.type	Chip_Clock_SetSystemPLLSource, %function
  72              	Chip_Clock_SetSystemPLLSource:
  73              	.LFB200:
  74              		.file 1 "../../lpc_chip_11cxx_lib/src/clock_11xx.c"
   1:../../lpc_chip_11cxx_lib/src/clock_11xx.c **** /*
   2:../../lpc_chip_11cxx_lib/src/clock_11xx.c ****  * @brief LPC11XX System clock control functions
   3:../../lpc_chip_11cxx_lib/src/clock_11xx.c ****  *
   4:../../lpc_chip_11cxx_lib/src/clock_11xx.c ****  * Copyright(C) NXP Semiconductors, 2012
   5:../../lpc_chip_11cxx_lib/src/clock_11xx.c ****  * All rights reserved.
   6:../../lpc_chip_11cxx_lib/src/clock_11xx.c ****  *
   7:../../lpc_chip_11cxx_lib/src/clock_11xx.c ****  * Software that is described herein is for illustrative purposes only
   8:../../lpc_chip_11cxx_lib/src/clock_11xx.c ****  * which provides customers with programming information regarding the
   9:../../lpc_chip_11cxx_lib/src/clock_11xx.c ****  * LPC products.  This software is supplied "AS IS" without any warranties of
  10:../../lpc_chip_11cxx_lib/src/clock_11xx.c ****  * any kind, and NXP Semiconductors and its licensor disclaim any and
  11:../../lpc_chip_11cxx_lib/src/clock_11xx.c ****  * all warranties, express or implied, including all implied warranties of
  12:../../lpc_chip_11cxx_lib/src/clock_11xx.c ****  * merchantability, fitness for a particular purpose and non-infringement of
  13:../../lpc_chip_11cxx_lib/src/clock_11xx.c ****  * intellectual property rights.  NXP Semiconductors assumes no responsibility
  14:../../lpc_chip_11cxx_lib/src/clock_11xx.c ****  * or liability for the use of the software, conveys no license or rights under any
  15:../../lpc_chip_11cxx_lib/src/clock_11xx.c ****  * patent, copyright, mask work right, or any other intellectual property rights in
  16:../../lpc_chip_11cxx_lib/src/clock_11xx.c ****  * or to any products. NXP Semiconductors reserves the right to make changes
  17:../../lpc_chip_11cxx_lib/src/clock_11xx.c ****  * in the software without notification. NXP Semiconductors also makes no
  18:../../lpc_chip_11cxx_lib/src/clock_11xx.c ****  * representation or warranty that such application will be suitable for the
  19:../../lpc_chip_11cxx_lib/src/clock_11xx.c ****  * specified use without further testing or modification.
  20:../../lpc_chip_11cxx_lib/src/clock_11xx.c ****  *
  21:../../lpc_chip_11cxx_lib/src/clock_11xx.c ****  * Permission to use, copy, modify, and distribute this software and its
  22:../../lpc_chip_11cxx_lib/src/clock_11xx.c ****  * documentation is hereby granted, under NXP Semiconductors' and its
  23:../../lpc_chip_11cxx_lib/src/clock_11xx.c ****  * licensor's relevant copyrights in the software, without fee, provided that it
  24:../../lpc_chip_11cxx_lib/src/clock_11xx.c ****  * is used in conjunction with NXP Semiconductors microcontrollers.  This
  25:../../lpc_chip_11cxx_lib/src/clock_11xx.c ****  * copyright, permission, and disclaimer notice must appear in all copies of
  26:../../lpc_chip_11cxx_lib/src/clock_11xx.c ****  * this code.
  27:../../lpc_chip_11cxx_lib/src/clock_11xx.c ****  */
  28:../../lpc_chip_11cxx_lib/src/clock_11xx.c **** 
  29:../../lpc_chip_11cxx_lib/src/clock_11xx.c **** #include "chip.h"
  30:../../lpc_chip_11cxx_lib/src/clock_11xx.c **** 
  31:../../lpc_chip_11cxx_lib/src/clock_11xx.c **** /*****************************************************************************
  32:../../lpc_chip_11cxx_lib/src/clock_11xx.c ****  * Private types/enumerations/variables
  33:../../lpc_chip_11cxx_lib/src/clock_11xx.c ****  ****************************************************************************/
  34:../../lpc_chip_11cxx_lib/src/clock_11xx.c **** 
  35:../../lpc_chip_11cxx_lib/src/clock_11xx.c **** /* Inprecise clock rates for the watchdog oscillator */
  36:../../lpc_chip_11cxx_lib/src/clock_11xx.c **** STATIC const uint32_t wdtOSCRate[WDTLFO_OSC_4_60 + 1] = {
  37:../../lpc_chip_11cxx_lib/src/clock_11xx.c **** 	0,					/* WDT_OSC_ILLEGAL */
  38:../../lpc_chip_11cxx_lib/src/clock_11xx.c **** 	600000,				/* WDT_OSC_0_60 */
  39:../../lpc_chip_11cxx_lib/src/clock_11xx.c **** 	1050000,			/* WDT_OSC_1_05 */
  40:../../lpc_chip_11cxx_lib/src/clock_11xx.c **** 	1400000,			/* WDT_OSC_1_40 */
ARM GAS  /var/folders/f9/8bk2lnw15zn4cbgn6wrnb4lm0000gn/T//cctFUD59.s 			page 3


  41:../../lpc_chip_11cxx_lib/src/clock_11xx.c **** 	1750000,			/* WDT_OSC_1_75 */
  42:../../lpc_chip_11cxx_lib/src/clock_11xx.c **** 	2100000,			/* WDT_OSC_2_10 */
  43:../../lpc_chip_11cxx_lib/src/clock_11xx.c **** 	2400000,			/* WDT_OSC_2_40 */
  44:../../lpc_chip_11cxx_lib/src/clock_11xx.c **** 	2700000,			/* WDT_OSC_2_70 */
  45:../../lpc_chip_11cxx_lib/src/clock_11xx.c **** 	3000000,			/* WDT_OSC_3_00 */
  46:../../lpc_chip_11cxx_lib/src/clock_11xx.c **** 	3250000,			/* WDT_OSC_3_25 */
  47:../../lpc_chip_11cxx_lib/src/clock_11xx.c **** 	3500000,			/* WDT_OSC_3_50 */
  48:../../lpc_chip_11cxx_lib/src/clock_11xx.c **** 	3750000,			/* WDT_OSC_3_75 */
  49:../../lpc_chip_11cxx_lib/src/clock_11xx.c **** 	4000000,			/* WDT_OSC_4_00 */
  50:../../lpc_chip_11cxx_lib/src/clock_11xx.c **** 	4200000,			/* WDT_OSC_4_20 */
  51:../../lpc_chip_11cxx_lib/src/clock_11xx.c **** 	4400000,			/* WDT_OSC_4_40 */
  52:../../lpc_chip_11cxx_lib/src/clock_11xx.c **** 	4600000				/* WDT_OSC_4_60 */
  53:../../lpc_chip_11cxx_lib/src/clock_11xx.c **** };
  54:../../lpc_chip_11cxx_lib/src/clock_11xx.c **** 
  55:../../lpc_chip_11cxx_lib/src/clock_11xx.c **** /*****************************************************************************
  56:../../lpc_chip_11cxx_lib/src/clock_11xx.c ****  * Public types/enumerations/variables
  57:../../lpc_chip_11cxx_lib/src/clock_11xx.c ****  ****************************************************************************/
  58:../../lpc_chip_11cxx_lib/src/clock_11xx.c **** 
  59:../../lpc_chip_11cxx_lib/src/clock_11xx.c **** /*****************************************************************************
  60:../../lpc_chip_11cxx_lib/src/clock_11xx.c ****  * Private functions
  61:../../lpc_chip_11cxx_lib/src/clock_11xx.c ****  ****************************************************************************/
  62:../../lpc_chip_11cxx_lib/src/clock_11xx.c **** 
  63:../../lpc_chip_11cxx_lib/src/clock_11xx.c **** /* Compute a WDT or LFO rate */
  64:../../lpc_chip_11cxx_lib/src/clock_11xx.c **** STATIC uint32_t Chip_Clock_GetWDTLFORate(uint32_t reg)
  65:../../lpc_chip_11cxx_lib/src/clock_11xx.c **** {
  66:../../lpc_chip_11cxx_lib/src/clock_11xx.c **** 	uint32_t div;
  67:../../lpc_chip_11cxx_lib/src/clock_11xx.c **** 	CHIP_WDTLFO_OSC_T clk;
  68:../../lpc_chip_11cxx_lib/src/clock_11xx.c **** 
  69:../../lpc_chip_11cxx_lib/src/clock_11xx.c **** 	/* Get WDT oscillator settings */
  70:../../lpc_chip_11cxx_lib/src/clock_11xx.c **** 	clk = (CHIP_WDTLFO_OSC_T) ((reg >> 5) & 0xF);
  71:../../lpc_chip_11cxx_lib/src/clock_11xx.c **** 	div = reg & 0x1F;
  72:../../lpc_chip_11cxx_lib/src/clock_11xx.c **** 
  73:../../lpc_chip_11cxx_lib/src/clock_11xx.c **** 	/* Compute clock rate and divided by divde value */
  74:../../lpc_chip_11cxx_lib/src/clock_11xx.c **** 	return wdtOSCRate[clk] / ((div + 1) << 1);
  75:../../lpc_chip_11cxx_lib/src/clock_11xx.c **** }
  76:../../lpc_chip_11cxx_lib/src/clock_11xx.c **** 
  77:../../lpc_chip_11cxx_lib/src/clock_11xx.c **** /* Compute a PLL frequency */
  78:../../lpc_chip_11cxx_lib/src/clock_11xx.c **** STATIC uint32_t Chip_Clock_GetPLLFreq(uint32_t PLLReg, uint32_t inputRate)
  79:../../lpc_chip_11cxx_lib/src/clock_11xx.c **** {
  80:../../lpc_chip_11cxx_lib/src/clock_11xx.c **** 	uint32_t msel = ((PLLReg & 0x1F) + 1);
  81:../../lpc_chip_11cxx_lib/src/clock_11xx.c **** 
  82:../../lpc_chip_11cxx_lib/src/clock_11xx.c **** 	return inputRate * msel;
  83:../../lpc_chip_11cxx_lib/src/clock_11xx.c **** }
  84:../../lpc_chip_11cxx_lib/src/clock_11xx.c **** 
  85:../../lpc_chip_11cxx_lib/src/clock_11xx.c **** /*****************************************************************************
  86:../../lpc_chip_11cxx_lib/src/clock_11xx.c ****  * Public functions
  87:../../lpc_chip_11cxx_lib/src/clock_11xx.c ****  ****************************************************************************/
  88:../../lpc_chip_11cxx_lib/src/clock_11xx.c **** 
  89:../../lpc_chip_11cxx_lib/src/clock_11xx.c **** /* Set System PLL clock source */
  90:../../lpc_chip_11cxx_lib/src/clock_11xx.c **** void Chip_Clock_SetSystemPLLSource(CHIP_SYSCTL_PLLCLKSRC_T src)
  91:../../lpc_chip_11cxx_lib/src/clock_11xx.c **** {
  75              		.loc 1 91 0
  76              		.cfi_startproc
  77              	.LVL0:
  92:../../lpc_chip_11cxx_lib/src/clock_11xx.c **** 	LPC_SYSCTL->SYSPLLCLKSEL  = (uint32_t) src;
  78              		.loc 1 92 0
  79 0000 034B     		ldr	r3, .L2	@ tmp112,
ARM GAS  /var/folders/f9/8bk2lnw15zn4cbgn6wrnb4lm0000gn/T//cctFUD59.s 			page 4


  93:../../lpc_chip_11cxx_lib/src/clock_11xx.c **** 	LPC_SYSCTL->SYSPLLCLKUEN  = 0;
  80              		.loc 1 93 0
  81 0002 0022     		mov	r2, #0	@ tmp114,
  92:../../lpc_chip_11cxx_lib/src/clock_11xx.c **** 	LPC_SYSCTL->SYSPLLCLKSEL  = (uint32_t) src;
  82              		.loc 1 92 0
  83 0004 1864     		str	r0, [r3, #64]	@ src, MEM[(struct LPC_SYSCTL_T *)1074036736B].SYSPLLCLKSEL
  84              		.loc 1 93 0
  85 0006 5A64     		str	r2, [r3, #68]	@ tmp114, MEM[(struct LPC_SYSCTL_T *)1074036736B].SYSPLLCLKUEN
  94:../../lpc_chip_11cxx_lib/src/clock_11xx.c **** 	LPC_SYSCTL->SYSPLLCLKUEN  = 1;
  86              		.loc 1 94 0
  87 0008 0122     		mov	r2, #1	@ tmp116,
  88 000a 5A64     		str	r2, [r3, #68]	@ tmp116, MEM[(struct LPC_SYSCTL_T *)1074036736B].SYSPLLCLKUEN
  95:../../lpc_chip_11cxx_lib/src/clock_11xx.c **** }
  89              		.loc 1 95 0
  90              		@ sp needed	@
  91 000c 7047     		bx	lr
  92              	.L3:
  93 000e C046     		.align	2
  94              	.L2:
  95 0010 00800440 		.word	1074036736
  96              		.cfi_endproc
  97              	.LFE200:
  98              		.size	Chip_Clock_SetSystemPLLSource, .-Chip_Clock_SetSystemPLLSource
  99              		.section	.text.Chip_Clock_SetPLLBypass,"ax",%progbits
 100              		.align	2
 101              		.global	Chip_Clock_SetPLLBypass
 102              		.code	16
 103              		.thumb_func
 104              		.type	Chip_Clock_SetPLLBypass, %function
 105              	Chip_Clock_SetPLLBypass:
 106              	.LFB201:
  96:../../lpc_chip_11cxx_lib/src/clock_11xx.c **** 
  97:../../lpc_chip_11cxx_lib/src/clock_11xx.c **** /* Bypass System Oscillator and set oscillator frequency range */
  98:../../lpc_chip_11cxx_lib/src/clock_11xx.c **** void Chip_Clock_SetPLLBypass(bool bypass, bool highfr)
  99:../../lpc_chip_11cxx_lib/src/clock_11xx.c **** {
 107              		.loc 1 99 0
 108              		.cfi_startproc
 109              	.LVL1:
 100:../../lpc_chip_11cxx_lib/src/clock_11xx.c **** 	uint32_t ctrl = 0;
 101:../../lpc_chip_11cxx_lib/src/clock_11xx.c **** 
 102:../../lpc_chip_11cxx_lib/src/clock_11xx.c **** 	if (bypass) {
 103:../../lpc_chip_11cxx_lib/src/clock_11xx.c **** 		ctrl |= (1 << 0);
 104:../../lpc_chip_11cxx_lib/src/clock_11xx.c **** 	}
 105:../../lpc_chip_11cxx_lib/src/clock_11xx.c **** 	if (highfr) {
 110              		.loc 1 105 0
 111 0000 0029     		cmp	r1, #0	@ highfr,
 112 0002 01D0     		beq	.L5	@,
 106:../../lpc_chip_11cxx_lib/src/clock_11xx.c **** 		ctrl |= (1 << 1);
 113              		.loc 1 106 0
 114 0004 0223     		mov	r3, #2	@ tmp113,
 115 0006 1843     		orr	r0, r3	@ ctrl, tmp113
 116              	.LVL2:
 117              	.L5:
 107:../../lpc_chip_11cxx_lib/src/clock_11xx.c **** 	}
 108:../../lpc_chip_11cxx_lib/src/clock_11xx.c **** 
 109:../../lpc_chip_11cxx_lib/src/clock_11xx.c **** 	LPC_SYSCTL->SYSOSCCTRL = ctrl;
 118              		.loc 1 109 0
ARM GAS  /var/folders/f9/8bk2lnw15zn4cbgn6wrnb4lm0000gn/T//cctFUD59.s 			page 5


 119 0008 014B     		ldr	r3, .L10	@ tmp114,
 110:../../lpc_chip_11cxx_lib/src/clock_11xx.c **** }
 120              		.loc 1 110 0
 121              		@ sp needed	@
 109:../../lpc_chip_11cxx_lib/src/clock_11xx.c **** 	LPC_SYSCTL->SYSOSCCTRL = ctrl;
 122              		.loc 1 109 0
 123 000a 1862     		str	r0, [r3, #32]	@ ctrl, MEM[(struct LPC_SYSCTL_T *)1074036736B].SYSOSCCTRL
 124              		.loc 1 110 0
 125 000c 7047     		bx	lr
 126              	.L11:
 127 000e C046     		.align	2
 128              	.L10:
 129 0010 00800440 		.word	1074036736
 130              		.cfi_endproc
 131              	.LFE201:
 132              		.size	Chip_Clock_SetPLLBypass, .-Chip_Clock_SetPLLBypass
 133              		.section	.text.Chip_Clock_SetMainClockSource,"ax",%progbits
 134              		.align	2
 135              		.global	Chip_Clock_SetMainClockSource
 136              		.code	16
 137              		.thumb_func
 138              		.type	Chip_Clock_SetMainClockSource, %function
 139              	Chip_Clock_SetMainClockSource:
 140              	.LFB202:
 111:../../lpc_chip_11cxx_lib/src/clock_11xx.c **** 
 112:../../lpc_chip_11cxx_lib/src/clock_11xx.c **** #if defined(CHIP_LPC11UXX)
 113:../../lpc_chip_11cxx_lib/src/clock_11xx.c **** /* Set USB PLL clock source */
 114:../../lpc_chip_11cxx_lib/src/clock_11xx.c **** void Chip_Clock_SetUSBPLLSource(CHIP_SYSCTL_PLLCLKSRC_T src)
 115:../../lpc_chip_11cxx_lib/src/clock_11xx.c **** {
 116:../../lpc_chip_11cxx_lib/src/clock_11xx.c **** 	LPC_SYSCTL->USBPLLCLKSEL  = (uint32_t) src;
 117:../../lpc_chip_11cxx_lib/src/clock_11xx.c **** 	LPC_SYSCTL->USBPLLCLKUEN  = 0;
 118:../../lpc_chip_11cxx_lib/src/clock_11xx.c **** 	LPC_SYSCTL->USBPLLCLKUEN  = 1;
 119:../../lpc_chip_11cxx_lib/src/clock_11xx.c **** }
 120:../../lpc_chip_11cxx_lib/src/clock_11xx.c **** 
 121:../../lpc_chip_11cxx_lib/src/clock_11xx.c **** #endif
 122:../../lpc_chip_11cxx_lib/src/clock_11xx.c **** 
 123:../../lpc_chip_11cxx_lib/src/clock_11xx.c **** /* Set main system clock source */
 124:../../lpc_chip_11cxx_lib/src/clock_11xx.c **** void Chip_Clock_SetMainClockSource(CHIP_SYSCTL_MAINCLKSRC_T src)
 125:../../lpc_chip_11cxx_lib/src/clock_11xx.c **** {
 141              		.loc 1 125 0
 142              		.cfi_startproc
 143              	.LVL3:
 126:../../lpc_chip_11cxx_lib/src/clock_11xx.c **** 	LPC_SYSCTL->MAINCLKSEL  = (uint32_t) src;
 144              		.loc 1 126 0
 145 0000 034B     		ldr	r3, .L13	@ tmp112,
 127:../../lpc_chip_11cxx_lib/src/clock_11xx.c **** 	LPC_SYSCTL->MAINCLKUEN  = 0;
 146              		.loc 1 127 0
 147 0002 0022     		mov	r2, #0	@ tmp114,
 126:../../lpc_chip_11cxx_lib/src/clock_11xx.c **** 	LPC_SYSCTL->MAINCLKSEL  = (uint32_t) src;
 148              		.loc 1 126 0
 149 0004 1867     		str	r0, [r3, #112]	@ src, MEM[(struct LPC_SYSCTL_T *)1074036736B].MAINCLKSEL
 150              		.loc 1 127 0
 151 0006 5A67     		str	r2, [r3, #116]	@ tmp114, MEM[(struct LPC_SYSCTL_T *)1074036736B].MAINCLKUEN
 128:../../lpc_chip_11cxx_lib/src/clock_11xx.c **** 	LPC_SYSCTL->MAINCLKUEN  = 1;
 152              		.loc 1 128 0
 153 0008 0122     		mov	r2, #1	@ tmp116,
 154 000a 5A67     		str	r2, [r3, #116]	@ tmp116, MEM[(struct LPC_SYSCTL_T *)1074036736B].MAINCLKUEN
ARM GAS  /var/folders/f9/8bk2lnw15zn4cbgn6wrnb4lm0000gn/T//cctFUD59.s 			page 6


 129:../../lpc_chip_11cxx_lib/src/clock_11xx.c **** }
 155              		.loc 1 129 0
 156              		@ sp needed	@
 157 000c 7047     		bx	lr
 158              	.L14:
 159 000e C046     		.align	2
 160              	.L13:
 161 0010 00800440 		.word	1074036736
 162              		.cfi_endproc
 163              	.LFE202:
 164              		.size	Chip_Clock_SetMainClockSource, .-Chip_Clock_SetMainClockSource
 165              		.section	.text.Chip_Clock_SetWDTClockSource,"ax",%progbits
 166              		.align	2
 167              		.global	Chip_Clock_SetWDTClockSource
 168              		.code	16
 169              		.thumb_func
 170              		.type	Chip_Clock_SetWDTClockSource, %function
 171              	Chip_Clock_SetWDTClockSource:
 172              	.LFB203:
 130:../../lpc_chip_11cxx_lib/src/clock_11xx.c **** 
 131:../../lpc_chip_11cxx_lib/src/clock_11xx.c **** #if defined(CHIP_LPC11UXX)
 132:../../lpc_chip_11cxx_lib/src/clock_11xx.c **** /* Set USB clock source and divider */
 133:../../lpc_chip_11cxx_lib/src/clock_11xx.c **** void Chip_Clock_SetUSBClockSource(CHIP_SYSCTL_USBCLKSRC_T src, uint32_t div)
 134:../../lpc_chip_11cxx_lib/src/clock_11xx.c **** {
 135:../../lpc_chip_11cxx_lib/src/clock_11xx.c **** 	LPC_SYSCTL->USBCLKSEL = (uint32_t) src;
 136:../../lpc_chip_11cxx_lib/src/clock_11xx.c **** 	LPC_SYSCTL->USBCLKUEN = 0;
 137:../../lpc_chip_11cxx_lib/src/clock_11xx.c **** 	LPC_SYSCTL->USBCLKUEN = 1;
 138:../../lpc_chip_11cxx_lib/src/clock_11xx.c **** 	LPC_SYSCTL->USBCLKDIV = div;
 139:../../lpc_chip_11cxx_lib/src/clock_11xx.c **** }
 140:../../lpc_chip_11cxx_lib/src/clock_11xx.c **** 
 141:../../lpc_chip_11cxx_lib/src/clock_11xx.c **** #endif /*CHIP_LPC11UXX*/
 142:../../lpc_chip_11cxx_lib/src/clock_11xx.c **** 
 143:../../lpc_chip_11cxx_lib/src/clock_11xx.c **** #if defined(CHIP_LPC110X) || defined(CHIP_LPC11XXLV) || defined(CHIP_LPC11CXX) || defined(CHIP_LPC1
 144:../../lpc_chip_11cxx_lib/src/clock_11xx.c **** /* Set WDT clock source and divider */
 145:../../lpc_chip_11cxx_lib/src/clock_11xx.c **** void Chip_Clock_SetWDTClockSource(CHIP_SYSCTL_WDTCLKSRC_T src, uint32_t div)
 146:../../lpc_chip_11cxx_lib/src/clock_11xx.c **** {
 173              		.loc 1 146 0
 174              		.cfi_startproc
 175              	.LVL4:
 147:../../lpc_chip_11cxx_lib/src/clock_11xx.c **** 	LPC_SYSCTL->WDTCLKSEL = (uint32_t) src;
 176              		.loc 1 147 0
 177 0000 054B     		ldr	r3, .L16	@ tmp113,
 178 0002 D022     		mov	r2, #208	@ tmp114,
 179 0004 9850     		str	r0, [r3, r2]	@ src, MEM[(struct LPC_SYSCTL_T *)1074036736B].WDTCLKSEL
 148:../../lpc_chip_11cxx_lib/src/clock_11xx.c **** 	LPC_SYSCTL->WDTCLKUEN = 0;
 180              		.loc 1 148 0
 181 0006 D422     		mov	r2, #212	@ tmp116,
 182 0008 0020     		mov	r0, #0	@ tmp117,
 183              	.LVL5:
 184 000a 9850     		str	r0, [r3, r2]	@ tmp117, MEM[(struct LPC_SYSCTL_T *)1074036736B].WDTCLKUEN
 149:../../lpc_chip_11cxx_lib/src/clock_11xx.c **** 	LPC_SYSCTL->WDTCLKUEN = 1;
 185              		.loc 1 149 0
 186 000c 0120     		mov	r0, #1	@ tmp120,
 187 000e 9850     		str	r0, [r3, r2]	@ tmp120, MEM[(struct LPC_SYSCTL_T *)1074036736B].WDTCLKUEN
 150:../../lpc_chip_11cxx_lib/src/clock_11xx.c **** 	LPC_SYSCTL->WDTCLKDIV = div;
 188              		.loc 1 150 0
 189 0010 D822     		mov	r2, #216	@ tmp122,
ARM GAS  /var/folders/f9/8bk2lnw15zn4cbgn6wrnb4lm0000gn/T//cctFUD59.s 			page 7


 190 0012 9950     		str	r1, [r3, r2]	@ div, MEM[(struct LPC_SYSCTL_T *)1074036736B].WDTCLKDIV
 151:../../lpc_chip_11cxx_lib/src/clock_11xx.c **** }
 191              		.loc 1 151 0
 192              		@ sp needed	@
 193 0014 7047     		bx	lr
 194              	.L17:
 195 0016 C046     		.align	2
 196              	.L16:
 197 0018 00800440 		.word	1074036736
 198              		.cfi_endproc
 199              	.LFE203:
 200              		.size	Chip_Clock_SetWDTClockSource, .-Chip_Clock_SetWDTClockSource
 201              		.section	.text.Chip_Clock_SetCLKOUTSource,"ax",%progbits
 202              		.align	2
 203              		.global	Chip_Clock_SetCLKOUTSource
 204              		.code	16
 205              		.thumb_func
 206              		.type	Chip_Clock_SetCLKOUTSource, %function
 207              	Chip_Clock_SetCLKOUTSource:
 208              	.LFB204:
 152:../../lpc_chip_11cxx_lib/src/clock_11xx.c **** 
 153:../../lpc_chip_11cxx_lib/src/clock_11xx.c **** #endif
 154:../../lpc_chip_11cxx_lib/src/clock_11xx.c **** 
 155:../../lpc_chip_11cxx_lib/src/clock_11xx.c **** #if !defined(CHIP_LPC110X)
 156:../../lpc_chip_11cxx_lib/src/clock_11xx.c **** /* Set CLKOUT clock source and divider */
 157:../../lpc_chip_11cxx_lib/src/clock_11xx.c **** void Chip_Clock_SetCLKOUTSource(CHIP_SYSCTL_CLKOUTSRC_T src, uint32_t div)
 158:../../lpc_chip_11cxx_lib/src/clock_11xx.c **** {
 209              		.loc 1 158 0
 210              		.cfi_startproc
 211              	.LVL6:
 159:../../lpc_chip_11cxx_lib/src/clock_11xx.c **** 	LPC_SYSCTL->CLKOUTSEL = (uint32_t) src;
 212              		.loc 1 159 0
 213 0000 054B     		ldr	r3, .L19	@ tmp113,
 214 0002 E022     		mov	r2, #224	@ tmp114,
 215 0004 9850     		str	r0, [r3, r2]	@ src, MEM[(struct LPC_SYSCTL_T *)1074036736B].CLKOUTSEL
 160:../../lpc_chip_11cxx_lib/src/clock_11xx.c **** 	LPC_SYSCTL->CLKOUTUEN = 0;
 216              		.loc 1 160 0
 217 0006 E422     		mov	r2, #228	@ tmp116,
 218 0008 0020     		mov	r0, #0	@ tmp117,
 219              	.LVL7:
 220 000a 9850     		str	r0, [r3, r2]	@ tmp117, MEM[(struct LPC_SYSCTL_T *)1074036736B].CLKOUTUEN
 161:../../lpc_chip_11cxx_lib/src/clock_11xx.c **** 	LPC_SYSCTL->CLKOUTUEN = 1;
 221              		.loc 1 161 0
 222 000c 0120     		mov	r0, #1	@ tmp120,
 223 000e 9850     		str	r0, [r3, r2]	@ tmp120, MEM[(struct LPC_SYSCTL_T *)1074036736B].CLKOUTUEN
 162:../../lpc_chip_11cxx_lib/src/clock_11xx.c **** 	LPC_SYSCTL->CLKOUTDIV = div;
 224              		.loc 1 162 0
 225 0010 E822     		mov	r2, #232	@ tmp122,
 226 0012 9950     		str	r1, [r3, r2]	@ div, MEM[(struct LPC_SYSCTL_T *)1074036736B].CLKOUTDIV
 163:../../lpc_chip_11cxx_lib/src/clock_11xx.c **** }
 227              		.loc 1 163 0
 228              		@ sp needed	@
 229 0014 7047     		bx	lr
 230              	.L20:
 231 0016 C046     		.align	2
 232              	.L19:
 233 0018 00800440 		.word	1074036736
ARM GAS  /var/folders/f9/8bk2lnw15zn4cbgn6wrnb4lm0000gn/T//cctFUD59.s 			page 8


 234              		.cfi_endproc
 235              	.LFE204:
 236              		.size	Chip_Clock_SetCLKOUTSource, .-Chip_Clock_SetCLKOUTSource
 237              		.global	__aeabi_uidiv
 238              		.section	.text.Chip_Clock_GetWDTOSCRate,"ax",%progbits
 239              		.align	2
 240              		.global	Chip_Clock_GetWDTOSCRate
 241              		.code	16
 242              		.thumb_func
 243              		.type	Chip_Clock_GetWDTOSCRate, %function
 244              	Chip_Clock_GetWDTOSCRate:
 245              	.LFB205:
 164:../../lpc_chip_11cxx_lib/src/clock_11xx.c **** 
 165:../../lpc_chip_11cxx_lib/src/clock_11xx.c **** #endif
 166:../../lpc_chip_11cxx_lib/src/clock_11xx.c **** 
 167:../../lpc_chip_11cxx_lib/src/clock_11xx.c **** /* Return estimated watchdog oscillator rate */
 168:../../lpc_chip_11cxx_lib/src/clock_11xx.c **** uint32_t Chip_Clock_GetWDTOSCRate(void)
 169:../../lpc_chip_11cxx_lib/src/clock_11xx.c **** {
 246              		.loc 1 169 0
 247              		.cfi_startproc
 248 0000 08B5     		push	{r3, lr}	@
 249              		.cfi_def_cfa_offset 8
 250              		.cfi_offset 3, -8
 251              		.cfi_offset 14, -4
 170:../../lpc_chip_11cxx_lib/src/clock_11xx.c **** 	return Chip_Clock_GetWDTLFORate(LPC_SYSCTL->WDTOSCCTRL);
 252              		.loc 1 170 0
 253 0002 074B     		ldr	r3, .L22	@ tmp121,
 254              	.LBB24:
 255              	.LBB25:
  71:../../lpc_chip_11cxx_lib/src/clock_11xx.c **** 	div = reg & 0x1F;
 256              		.loc 1 71 0
 257 0004 1F21     		mov	r1, #31	@ tmp132,
 258              	.LBE25:
 259              	.LBE24:
 260              		.loc 1 170 0
 261 0006 5B6A     		ldr	r3, [r3, #36]	@ D.6233, MEM[(struct LPC_SYSCTL_T *)1074036736B].WDTOSCCTRL
 262              	.LVL8:
 171:../../lpc_chip_11cxx_lib/src/clock_11xx.c **** }
 263              		.loc 1 171 0
 264              		@ sp needed	@
 265              	.LBB27:
 266              	.LBB26:
  70:../../lpc_chip_11cxx_lib/src/clock_11xx.c **** 	clk = (CHIP_WDTLFO_OSC_T) ((reg >> 5) & 0xF);
 267              		.loc 1 70 0
 268 0008 DA05     		lsl	r2, r3, #23	@ tmp129, D.6233,
  71:../../lpc_chip_11cxx_lib/src/clock_11xx.c **** 	div = reg & 0x1F;
 269              		.loc 1 71 0
 270 000a 0B40     		and	r3, r1	@ div, tmp132
 271              	.LVL9:
  74:../../lpc_chip_11cxx_lib/src/clock_11xx.c **** 	return wdtOSCRate[clk] / ((div + 1) << 1);
 272              		.loc 1 74 0
 273 000c 591C     		add	r1, r3, #1	@ D.6233, div,
 274 000e 120F     		lsr	r2, r2, #28	@ D.6235, tmp129,
 275 0010 044B     		ldr	r3, .L22+4	@ tmp123,
 276              	.LVL10:
 277 0012 9200     		lsl	r2, r2, #2	@ tmp131, D.6235,
 278 0014 4900     		lsl	r1, r1, #1	@ D.6233, D.6233,
ARM GAS  /var/folders/f9/8bk2lnw15zn4cbgn6wrnb4lm0000gn/T//cctFUD59.s 			page 9


 279              	.LVL11:
 280 0016 D058     		ldr	r0, [r2, r3]	@, wdtOSCRate
 281 0018 FFF7FEFF 		bl	__aeabi_uidiv	@
 282              	.LVL12:
 283              	.LBE26:
 284              	.LBE27:
 285              		.loc 1 171 0
 286 001c 08BD     		pop	{r3, pc}
 287              	.L23:
 288 001e C046     		.align	2
 289              	.L22:
 290 0020 00800440 		.word	1074036736
 291 0024 00000000 		.word	.LANCHOR0
 292              		.cfi_endproc
 293              	.LFE205:
 294              		.size	Chip_Clock_GetWDTOSCRate, .-Chip_Clock_GetWDTOSCRate
 295              		.section	.text.Chip_Clock_GetSystemPLLInClockRate,"ax",%progbits
 296              		.align	2
 297              		.global	Chip_Clock_GetSystemPLLInClockRate
 298              		.code	16
 299              		.thumb_func
 300              		.type	Chip_Clock_GetSystemPLLInClockRate, %function
 301              	Chip_Clock_GetSystemPLLInClockRate:
 302              	.LFB206:
 172:../../lpc_chip_11cxx_lib/src/clock_11xx.c **** 
 173:../../lpc_chip_11cxx_lib/src/clock_11xx.c **** #if defined(CHIP_LPC11AXX)
 174:../../lpc_chip_11cxx_lib/src/clock_11xx.c **** /* Return estimated low frequency oscillator rate */
 175:../../lpc_chip_11cxx_lib/src/clock_11xx.c **** uint32_t Chip_Clock_GetLFOOSCRate(void)
 176:../../lpc_chip_11cxx_lib/src/clock_11xx.c **** {
 177:../../lpc_chip_11cxx_lib/src/clock_11xx.c **** 	return Chip_Clock_GetWDTLFORate(LPC_SYSCTL->LFOSCCTRL);
 178:../../lpc_chip_11cxx_lib/src/clock_11xx.c **** }
 179:../../lpc_chip_11cxx_lib/src/clock_11xx.c **** 
 180:../../lpc_chip_11cxx_lib/src/clock_11xx.c **** #endif
 181:../../lpc_chip_11cxx_lib/src/clock_11xx.c **** 
 182:../../lpc_chip_11cxx_lib/src/clock_11xx.c **** /* Return System PLL input clock rate */
 183:../../lpc_chip_11cxx_lib/src/clock_11xx.c **** uint32_t Chip_Clock_GetSystemPLLInClockRate(void)
 184:../../lpc_chip_11cxx_lib/src/clock_11xx.c **** {
 303              		.loc 1 184 0
 304              		.cfi_startproc
 185:../../lpc_chip_11cxx_lib/src/clock_11xx.c **** 	uint32_t clkRate;
 186:../../lpc_chip_11cxx_lib/src/clock_11xx.c **** 
 187:../../lpc_chip_11cxx_lib/src/clock_11xx.c **** 	switch ((CHIP_SYSCTL_PLLCLKSRC_T) (LPC_SYSCTL->SYSPLLCLKSEL & 0x3)) {
 305              		.loc 1 187 0
 306 0000 064B     		ldr	r3, .L30	@ tmp116,
 307 0002 1A6C     		ldr	r2, [r3, #64]	@ D.6241, MEM[(struct LPC_SYSCTL_T *)1074036736B].SYSPLLCLKSEL
 308 0004 0323     		mov	r3, #3	@ tmp119,
 309 0006 1340     		and	r3, r2	@ D.6242, D.6241
 310 0008 06D0     		beq	.L26	@,
 311 000a 012B     		cmp	r3, #1	@ D.6242,
 312 000c 01D0     		beq	.L27	@,
 188:../../lpc_chip_11cxx_lib/src/clock_11xx.c **** 	case SYSCTL_PLLCLKSRC_IRC:
 189:../../lpc_chip_11cxx_lib/src/clock_11xx.c **** 		clkRate = Chip_Clock_GetIntOscRate();
 190:../../lpc_chip_11cxx_lib/src/clock_11xx.c **** 		break;
 191:../../lpc_chip_11cxx_lib/src/clock_11xx.c **** 
 192:../../lpc_chip_11cxx_lib/src/clock_11xx.c **** 	case SYSCTL_PLLCLKSRC_MAINOSC:
 193:../../lpc_chip_11cxx_lib/src/clock_11xx.c **** 		clkRate = Chip_Clock_GetMainOscRate();
 194:../../lpc_chip_11cxx_lib/src/clock_11xx.c **** 		break;
ARM GAS  /var/folders/f9/8bk2lnw15zn4cbgn6wrnb4lm0000gn/T//cctFUD59.s 			page 10


 195:../../lpc_chip_11cxx_lib/src/clock_11xx.c **** 
 196:../../lpc_chip_11cxx_lib/src/clock_11xx.c **** #if defined(CHIP_LPC11AXX)
 197:../../lpc_chip_11cxx_lib/src/clock_11xx.c **** 	case SYSCTL_PLLCLKSRC_EXT_CLKIN:
 198:../../lpc_chip_11cxx_lib/src/clock_11xx.c **** 		clkRate = Chip_Clock_GetExtClockInRate();
 199:../../lpc_chip_11cxx_lib/src/clock_11xx.c **** 		break;
 200:../../lpc_chip_11cxx_lib/src/clock_11xx.c **** #endif
 201:../../lpc_chip_11cxx_lib/src/clock_11xx.c **** 
 202:../../lpc_chip_11cxx_lib/src/clock_11xx.c **** 	default:
 203:../../lpc_chip_11cxx_lib/src/clock_11xx.c **** 		clkRate = 0;
 313              		.loc 1 203 0
 314 000e 0020     		mov	r0, #0	@ clkRate,
 315              	.L25:
 316              	.LVL13:
 204:../../lpc_chip_11cxx_lib/src/clock_11xx.c **** 	}
 205:../../lpc_chip_11cxx_lib/src/clock_11xx.c **** 
 206:../../lpc_chip_11cxx_lib/src/clock_11xx.c **** 	return clkRate;
 207:../../lpc_chip_11cxx_lib/src/clock_11xx.c **** }
 317              		.loc 1 207 0
 318              		@ sp needed	@
 319 0010 7047     		bx	lr
 320              	.LVL14:
 321              	.L27:
 322              	.LBB28:
 323              	.LBB29:
 324              		.file 2 "../../lpc_chip_11cxx_lib/inc/clock_11xx.h"
   1:../../lpc_chip_11cxx_lib/inc/clock_11xx.h **** /*
   2:../../lpc_chip_11cxx_lib/inc/clock_11xx.h ****  * @brief LPC11XX Clock control functions
   3:../../lpc_chip_11cxx_lib/inc/clock_11xx.h ****  *
   4:../../lpc_chip_11cxx_lib/inc/clock_11xx.h ****  * @note
   5:../../lpc_chip_11cxx_lib/inc/clock_11xx.h ****  * Copyright(C) NXP Semiconductors, 2012
   6:../../lpc_chip_11cxx_lib/inc/clock_11xx.h ****  * All rights reserved.
   7:../../lpc_chip_11cxx_lib/inc/clock_11xx.h ****  *
   8:../../lpc_chip_11cxx_lib/inc/clock_11xx.h ****  * @par
   9:../../lpc_chip_11cxx_lib/inc/clock_11xx.h ****  * Software that is described herein is for illustrative purposes only
  10:../../lpc_chip_11cxx_lib/inc/clock_11xx.h ****  * which provides customers with programming information regarding the
  11:../../lpc_chip_11cxx_lib/inc/clock_11xx.h ****  * LPC products.  This software is supplied "AS IS" without any warranties of
  12:../../lpc_chip_11cxx_lib/inc/clock_11xx.h ****  * any kind, and NXP Semiconductors and its licensor disclaim any and
  13:../../lpc_chip_11cxx_lib/inc/clock_11xx.h ****  * all warranties, express or implied, including all implied warranties of
  14:../../lpc_chip_11cxx_lib/inc/clock_11xx.h ****  * merchantability, fitness for a particular purpose and non-infringement of
  15:../../lpc_chip_11cxx_lib/inc/clock_11xx.h ****  * intellectual property rights.  NXP Semiconductors assumes no responsibility
  16:../../lpc_chip_11cxx_lib/inc/clock_11xx.h ****  * or liability for the use of the software, conveys no license or rights under any
  17:../../lpc_chip_11cxx_lib/inc/clock_11xx.h ****  * patent, copyright, mask work right, or any other intellectual property rights in
  18:../../lpc_chip_11cxx_lib/inc/clock_11xx.h ****  * or to any products. NXP Semiconductors reserves the right to make changes
  19:../../lpc_chip_11cxx_lib/inc/clock_11xx.h ****  * in the software without notification. NXP Semiconductors also makes no
  20:../../lpc_chip_11cxx_lib/inc/clock_11xx.h ****  * representation or warranty that such application will be suitable for the
  21:../../lpc_chip_11cxx_lib/inc/clock_11xx.h ****  * specified use without further testing or modification.
  22:../../lpc_chip_11cxx_lib/inc/clock_11xx.h ****  *
  23:../../lpc_chip_11cxx_lib/inc/clock_11xx.h ****  * @par
  24:../../lpc_chip_11cxx_lib/inc/clock_11xx.h ****  * Permission to use, copy, modify, and distribute this software and its
  25:../../lpc_chip_11cxx_lib/inc/clock_11xx.h ****  * documentation is hereby granted, under NXP Semiconductors' and its
  26:../../lpc_chip_11cxx_lib/inc/clock_11xx.h ****  * licensor's relevant copyrights in the software, without fee, provided that it
  27:../../lpc_chip_11cxx_lib/inc/clock_11xx.h ****  * is used in conjunction with NXP Semiconductors microcontrollers.  This
  28:../../lpc_chip_11cxx_lib/inc/clock_11xx.h ****  * copyright, permission, and disclaimer notice must appear in all copies of
  29:../../lpc_chip_11cxx_lib/inc/clock_11xx.h ****  * this code.
  30:../../lpc_chip_11cxx_lib/inc/clock_11xx.h ****  */
  31:../../lpc_chip_11cxx_lib/inc/clock_11xx.h **** 
  32:../../lpc_chip_11cxx_lib/inc/clock_11xx.h **** #ifndef __CLOCK_11XX_H_
ARM GAS  /var/folders/f9/8bk2lnw15zn4cbgn6wrnb4lm0000gn/T//cctFUD59.s 			page 11


  33:../../lpc_chip_11cxx_lib/inc/clock_11xx.h **** #define __CLOCK_11XX_H_
  34:../../lpc_chip_11cxx_lib/inc/clock_11xx.h **** 
  35:../../lpc_chip_11cxx_lib/inc/clock_11xx.h **** #ifdef __cplusplus
  36:../../lpc_chip_11cxx_lib/inc/clock_11xx.h **** extern "C" {
  37:../../lpc_chip_11cxx_lib/inc/clock_11xx.h **** #endif
  38:../../lpc_chip_11cxx_lib/inc/clock_11xx.h **** 
  39:../../lpc_chip_11cxx_lib/inc/clock_11xx.h **** /** @defgroup CLOCK_11XX CHIP: LPC11xx Clock Control block driver
  40:../../lpc_chip_11cxx_lib/inc/clock_11xx.h ****  * @ingroup CHIP_11XX_Drivers
  41:../../lpc_chip_11cxx_lib/inc/clock_11xx.h ****  * @{
  42:../../lpc_chip_11cxx_lib/inc/clock_11xx.h ****  */
  43:../../lpc_chip_11cxx_lib/inc/clock_11xx.h **** 
  44:../../lpc_chip_11cxx_lib/inc/clock_11xx.h **** /** Internal oscillator frequency */
  45:../../lpc_chip_11cxx_lib/inc/clock_11xx.h **** #define SYSCTL_IRC_FREQ (12000000)
  46:../../lpc_chip_11cxx_lib/inc/clock_11xx.h **** 
  47:../../lpc_chip_11cxx_lib/inc/clock_11xx.h **** /**
  48:../../lpc_chip_11cxx_lib/inc/clock_11xx.h ****  * @brief	Set System PLL divider values
  49:../../lpc_chip_11cxx_lib/inc/clock_11xx.h ****  * @param	msel    : PLL feedback divider value. M = msel + 1.
  50:../../lpc_chip_11cxx_lib/inc/clock_11xx.h ****  * @param	psel    : PLL post divider value. P =  (1<<psel).
  51:../../lpc_chip_11cxx_lib/inc/clock_11xx.h ****  * @return	Nothing
  52:../../lpc_chip_11cxx_lib/inc/clock_11xx.h ****  * @note	See the user manual for how to setup the PLL.
  53:../../lpc_chip_11cxx_lib/inc/clock_11xx.h ****  */
  54:../../lpc_chip_11cxx_lib/inc/clock_11xx.h **** STATIC INLINE void Chip_Clock_SetupSystemPLL(uint8_t msel, uint8_t psel)
  55:../../lpc_chip_11cxx_lib/inc/clock_11xx.h **** {
  56:../../lpc_chip_11cxx_lib/inc/clock_11xx.h **** 	LPC_SYSCTL->SYSPLLCTRL = (msel & 0x1F) | ((psel & 0x3) << 5);
  57:../../lpc_chip_11cxx_lib/inc/clock_11xx.h **** }
  58:../../lpc_chip_11cxx_lib/inc/clock_11xx.h **** 
  59:../../lpc_chip_11cxx_lib/inc/clock_11xx.h **** /**
  60:../../lpc_chip_11cxx_lib/inc/clock_11xx.h ****  * @brief	Read System PLL lock status
  61:../../lpc_chip_11cxx_lib/inc/clock_11xx.h ****  * @return	true of the PLL is locked. false if not locked
  62:../../lpc_chip_11cxx_lib/inc/clock_11xx.h ****  */
  63:../../lpc_chip_11cxx_lib/inc/clock_11xx.h **** STATIC INLINE bool Chip_Clock_IsSystemPLLLocked(void)
  64:../../lpc_chip_11cxx_lib/inc/clock_11xx.h **** {
  65:../../lpc_chip_11cxx_lib/inc/clock_11xx.h **** 	return (bool) ((LPC_SYSCTL->SYSPLLSTAT & 1) != 0);
  66:../../lpc_chip_11cxx_lib/inc/clock_11xx.h **** }
  67:../../lpc_chip_11cxx_lib/inc/clock_11xx.h **** 
  68:../../lpc_chip_11cxx_lib/inc/clock_11xx.h **** /**
  69:../../lpc_chip_11cxx_lib/inc/clock_11xx.h ****  * Clock sources for system and USB PLLs
  70:../../lpc_chip_11cxx_lib/inc/clock_11xx.h ****  */
  71:../../lpc_chip_11cxx_lib/inc/clock_11xx.h **** typedef enum CHIP_SYSCTL_PLLCLKSRC {
  72:../../lpc_chip_11cxx_lib/inc/clock_11xx.h **** 	SYSCTL_PLLCLKSRC_IRC = 0,		/*!< Internal oscillator in */
  73:../../lpc_chip_11cxx_lib/inc/clock_11xx.h **** 	SYSCTL_PLLCLKSRC_MAINOSC,		/*!< Crystal (main) oscillator in */
  74:../../lpc_chip_11cxx_lib/inc/clock_11xx.h **** #if defined(CHIP_LPC11AXX)
  75:../../lpc_chip_11cxx_lib/inc/clock_11xx.h **** 	SYSCTL_PLLCLKSRC_EXT_CLKIN,	/*!< External clock in (11Axx only) */
  76:../../lpc_chip_11cxx_lib/inc/clock_11xx.h **** #else
  77:../../lpc_chip_11cxx_lib/inc/clock_11xx.h **** 	SYSCTL_PLLCLKSRC_RESERVED1,	/*!< Reserved */
  78:../../lpc_chip_11cxx_lib/inc/clock_11xx.h **** #endif
  79:../../lpc_chip_11cxx_lib/inc/clock_11xx.h **** 	SYSCTL_PLLCLKSRC_RESERVED2,	/*!< Reserved */
  80:../../lpc_chip_11cxx_lib/inc/clock_11xx.h **** } CHIP_SYSCTL_PLLCLKSRC_T;
  81:../../lpc_chip_11cxx_lib/inc/clock_11xx.h **** 
  82:../../lpc_chip_11cxx_lib/inc/clock_11xx.h **** /**
  83:../../lpc_chip_11cxx_lib/inc/clock_11xx.h ****  * @brief	Set System PLL clock source
  84:../../lpc_chip_11cxx_lib/inc/clock_11xx.h ****  * @param	src	: Clock source for system PLL
  85:../../lpc_chip_11cxx_lib/inc/clock_11xx.h ****  * @return	Nothing
  86:../../lpc_chip_11cxx_lib/inc/clock_11xx.h ****  * @note	This function will also toggle the clock source update register
  87:../../lpc_chip_11cxx_lib/inc/clock_11xx.h ****  * to update the clock source.
  88:../../lpc_chip_11cxx_lib/inc/clock_11xx.h ****  */
  89:../../lpc_chip_11cxx_lib/inc/clock_11xx.h **** void Chip_Clock_SetSystemPLLSource(CHIP_SYSCTL_PLLCLKSRC_T src);
ARM GAS  /var/folders/f9/8bk2lnw15zn4cbgn6wrnb4lm0000gn/T//cctFUD59.s 			page 12


  90:../../lpc_chip_11cxx_lib/inc/clock_11xx.h **** 
  91:../../lpc_chip_11cxx_lib/inc/clock_11xx.h **** #if defined(CHIP_LPC11UXX)
  92:../../lpc_chip_11cxx_lib/inc/clock_11xx.h **** /**
  93:../../lpc_chip_11cxx_lib/inc/clock_11xx.h ****  * @brief	Set USB PLL divider values
  94:../../lpc_chip_11cxx_lib/inc/clock_11xx.h ****  * @param	msel    : PLL feedback divider value. M = msel + 1.
  95:../../lpc_chip_11cxx_lib/inc/clock_11xx.h ****  * @param	psel    : PLL post divider value. P = (1<<psel).
  96:../../lpc_chip_11cxx_lib/inc/clock_11xx.h ****  * @return	Nothing
  97:../../lpc_chip_11cxx_lib/inc/clock_11xx.h ****  * @note	See the user manual for how to setup the PLL.
  98:../../lpc_chip_11cxx_lib/inc/clock_11xx.h ****  */
  99:../../lpc_chip_11cxx_lib/inc/clock_11xx.h **** STATIC INLINE void Chip_Clock_SetupUSBPLL(uint8_t msel, uint8_t psel)
 100:../../lpc_chip_11cxx_lib/inc/clock_11xx.h **** {
 101:../../lpc_chip_11cxx_lib/inc/clock_11xx.h **** 	LPC_SYSCTL->USBPLLCTRL = (msel & 0x1F) | ((psel & 0x3) << 5);
 102:../../lpc_chip_11cxx_lib/inc/clock_11xx.h **** }
 103:../../lpc_chip_11cxx_lib/inc/clock_11xx.h **** 
 104:../../lpc_chip_11cxx_lib/inc/clock_11xx.h **** /**
 105:../../lpc_chip_11cxx_lib/inc/clock_11xx.h ****  * @brief	Read USB PLL lock status
 106:../../lpc_chip_11cxx_lib/inc/clock_11xx.h ****  * @return	true of the PLL is locked. false if not locked
 107:../../lpc_chip_11cxx_lib/inc/clock_11xx.h ****  */
 108:../../lpc_chip_11cxx_lib/inc/clock_11xx.h **** STATIC INLINE bool Chip_Clock_IsUSBPLLLocked(void)
 109:../../lpc_chip_11cxx_lib/inc/clock_11xx.h **** {
 110:../../lpc_chip_11cxx_lib/inc/clock_11xx.h **** 	return (bool) ((LPC_SYSCTL->USBPLLSTAT & 1) != 0);
 111:../../lpc_chip_11cxx_lib/inc/clock_11xx.h **** }
 112:../../lpc_chip_11cxx_lib/inc/clock_11xx.h **** 
 113:../../lpc_chip_11cxx_lib/inc/clock_11xx.h **** /**
 114:../../lpc_chip_11cxx_lib/inc/clock_11xx.h ****  * @brief	Set USB PLL clock source
 115:../../lpc_chip_11cxx_lib/inc/clock_11xx.h ****  * @param	src	: Clock source for USB PLL
 116:../../lpc_chip_11cxx_lib/inc/clock_11xx.h ****  * @return	Nothing
 117:../../lpc_chip_11cxx_lib/inc/clock_11xx.h ****  * @note	This function will also toggle the clock source update register
 118:../../lpc_chip_11cxx_lib/inc/clock_11xx.h ****  * to update the clock source.
 119:../../lpc_chip_11cxx_lib/inc/clock_11xx.h ****  */
 120:../../lpc_chip_11cxx_lib/inc/clock_11xx.h **** void Chip_Clock_SetUSBPLLSource(CHIP_SYSCTL_PLLCLKSRC_T src);
 121:../../lpc_chip_11cxx_lib/inc/clock_11xx.h **** 
 122:../../lpc_chip_11cxx_lib/inc/clock_11xx.h **** #endif /*defined(CHIP_LPC11UXX)*/
 123:../../lpc_chip_11cxx_lib/inc/clock_11xx.h **** 
 124:../../lpc_chip_11cxx_lib/inc/clock_11xx.h **** /**
 125:../../lpc_chip_11cxx_lib/inc/clock_11xx.h ****  * @brief	Bypass System Oscillator and set oscillator frequency range
 126:../../lpc_chip_11cxx_lib/inc/clock_11xx.h ****  * @param	bypass	: Flag to bypass oscillator
 127:../../lpc_chip_11cxx_lib/inc/clock_11xx.h ****  * @param	highfr	: Flag to set oscillator range from 15-25 MHz
 128:../../lpc_chip_11cxx_lib/inc/clock_11xx.h ****  * @return	Nothing
 129:../../lpc_chip_11cxx_lib/inc/clock_11xx.h ****  * @note	Sets the PLL input to bypass the oscillator. This would be
 130:../../lpc_chip_11cxx_lib/inc/clock_11xx.h ****  * used if an external clock that is not an oscillator is attached
 131:../../lpc_chip_11cxx_lib/inc/clock_11xx.h ****  * to the XTALIN pin.
 132:../../lpc_chip_11cxx_lib/inc/clock_11xx.h ****  */
 133:../../lpc_chip_11cxx_lib/inc/clock_11xx.h **** void Chip_Clock_SetPLLBypass(bool bypass, bool highfr);
 134:../../lpc_chip_11cxx_lib/inc/clock_11xx.h **** 
 135:../../lpc_chip_11cxx_lib/inc/clock_11xx.h **** /**
 136:../../lpc_chip_11cxx_lib/inc/clock_11xx.h ****  * Watchdog and low frequency oscillator frequencies plus or minus 40%
 137:../../lpc_chip_11cxx_lib/inc/clock_11xx.h ****  */
 138:../../lpc_chip_11cxx_lib/inc/clock_11xx.h **** typedef enum CHIP_WDTLFO_OSC {
 139:../../lpc_chip_11cxx_lib/inc/clock_11xx.h **** 	WDTLFO_OSC_ILLEGAL,
 140:../../lpc_chip_11cxx_lib/inc/clock_11xx.h **** 	WDTLFO_OSC_0_60,	/*!< 0.6 MHz watchdog/LFO rate */
 141:../../lpc_chip_11cxx_lib/inc/clock_11xx.h **** 	WDTLFO_OSC_1_05,	/*!< 1.05 MHz watchdog/LFO rate */
 142:../../lpc_chip_11cxx_lib/inc/clock_11xx.h **** 	WDTLFO_OSC_1_40,	/*!< 1.4 MHz watchdog/LFO rate */
 143:../../lpc_chip_11cxx_lib/inc/clock_11xx.h **** 	WDTLFO_OSC_1_75,	/*!< 1.75 MHz watchdog/LFO rate */
 144:../../lpc_chip_11cxx_lib/inc/clock_11xx.h **** 	WDTLFO_OSC_2_10,	/*!< 2.1 MHz watchdog/LFO rate */
 145:../../lpc_chip_11cxx_lib/inc/clock_11xx.h **** 	WDTLFO_OSC_2_40,	/*!< 2.4 MHz watchdog/LFO rate */
 146:../../lpc_chip_11cxx_lib/inc/clock_11xx.h **** 	WDTLFO_OSC_2_70,	/*!< 2.7 MHz watchdog/LFO rate */
ARM GAS  /var/folders/f9/8bk2lnw15zn4cbgn6wrnb4lm0000gn/T//cctFUD59.s 			page 13


 147:../../lpc_chip_11cxx_lib/inc/clock_11xx.h **** 	WDTLFO_OSC_3_00,	/*!< 3.0 MHz watchdog/LFO rate */
 148:../../lpc_chip_11cxx_lib/inc/clock_11xx.h **** 	WDTLFO_OSC_3_25,	/*!< 3.25 MHz watchdog/LFO rate */
 149:../../lpc_chip_11cxx_lib/inc/clock_11xx.h **** 	WDTLFO_OSC_3_50,	/*!< 3.5 MHz watchdog/LFO rate */
 150:../../lpc_chip_11cxx_lib/inc/clock_11xx.h **** 	WDTLFO_OSC_3_75,	/*!< 3.75 MHz watchdog/LFO rate */
 151:../../lpc_chip_11cxx_lib/inc/clock_11xx.h **** 	WDTLFO_OSC_4_00,	/*!< 4.0 MHz watchdog/LFO rate */
 152:../../lpc_chip_11cxx_lib/inc/clock_11xx.h **** 	WDTLFO_OSC_4_20,	/*!< 4.2 MHz watchdog/LFO rate */
 153:../../lpc_chip_11cxx_lib/inc/clock_11xx.h **** 	WDTLFO_OSC_4_40,	/*!< 4.4 MHz watchdog/LFO rate */
 154:../../lpc_chip_11cxx_lib/inc/clock_11xx.h **** 	WDTLFO_OSC_4_60		/*!< 4.6 MHz watchdog/LFO rate */
 155:../../lpc_chip_11cxx_lib/inc/clock_11xx.h **** } CHIP_WDTLFO_OSC_T;
 156:../../lpc_chip_11cxx_lib/inc/clock_11xx.h **** 
 157:../../lpc_chip_11cxx_lib/inc/clock_11xx.h **** /**
 158:../../lpc_chip_11cxx_lib/inc/clock_11xx.h ****  * @brief	Setup Watchdog oscillator rate and divider
 159:../../lpc_chip_11cxx_lib/inc/clock_11xx.h ****  * @param	wdtclk	: Selected watchdog clock rate
 160:../../lpc_chip_11cxx_lib/inc/clock_11xx.h ****  * @param	div		: Watchdog divider value, even value between 2 and 64
 161:../../lpc_chip_11cxx_lib/inc/clock_11xx.h ****  * @return	Nothing
 162:../../lpc_chip_11cxx_lib/inc/clock_11xx.h ****  * @note	Watchdog rate = selected rate divided by divider rate
 163:../../lpc_chip_11cxx_lib/inc/clock_11xx.h ****  */
 164:../../lpc_chip_11cxx_lib/inc/clock_11xx.h **** STATIC INLINE void Chip_Clock_SetWDTOSC(CHIP_WDTLFO_OSC_T wdtclk, uint8_t div)
 165:../../lpc_chip_11cxx_lib/inc/clock_11xx.h **** {
 166:../../lpc_chip_11cxx_lib/inc/clock_11xx.h **** 	LPC_SYSCTL->WDTOSCCTRL  = (((uint32_t) wdtclk) << 5) | ((div >> 1) - 1);
 167:../../lpc_chip_11cxx_lib/inc/clock_11xx.h **** }
 168:../../lpc_chip_11cxx_lib/inc/clock_11xx.h **** 
 169:../../lpc_chip_11cxx_lib/inc/clock_11xx.h **** #if defined(CHIP_LPC11AXX)
 170:../../lpc_chip_11cxx_lib/inc/clock_11xx.h **** /**
 171:../../lpc_chip_11cxx_lib/inc/clock_11xx.h ****  * @brief	Setup low frequency oscillator rate and divider
 172:../../lpc_chip_11cxx_lib/inc/clock_11xx.h ****  * @param	lfoclk	: Selected low frequency clock rate
 173:../../lpc_chip_11cxx_lib/inc/clock_11xx.h ****  * @param	div		: Low frequency divider value, even value between 2 and 64
 174:../../lpc_chip_11cxx_lib/inc/clock_11xx.h ****  * @return	Nothing
 175:../../lpc_chip_11cxx_lib/inc/clock_11xx.h ****  * @note	Low frequency oscillator rate = selected rate divided by divider rate
 176:../../lpc_chip_11cxx_lib/inc/clock_11xx.h ****  */
 177:../../lpc_chip_11cxx_lib/inc/clock_11xx.h **** STATIC INLINE void Chip_Clock_SetLFOSC(CHIP_WDTLFO_OSC_T lfoclk, uint8_t div)
 178:../../lpc_chip_11cxx_lib/inc/clock_11xx.h **** {
 179:../../lpc_chip_11cxx_lib/inc/clock_11xx.h **** 	LPC_SYSCTL->LFOSCCTRL  = (((uint32_t) lfoclk) << 5) | ((div >> 1) - 1);
 180:../../lpc_chip_11cxx_lib/inc/clock_11xx.h **** }
 181:../../lpc_chip_11cxx_lib/inc/clock_11xx.h **** 
 182:../../lpc_chip_11cxx_lib/inc/clock_11xx.h **** #endif /*CHIP_LPC11AXX*/
 183:../../lpc_chip_11cxx_lib/inc/clock_11xx.h **** 
 184:../../lpc_chip_11cxx_lib/inc/clock_11xx.h **** /**
 185:../../lpc_chip_11cxx_lib/inc/clock_11xx.h ****  * Clock sources for main system clock
 186:../../lpc_chip_11cxx_lib/inc/clock_11xx.h ****  */
 187:../../lpc_chip_11cxx_lib/inc/clock_11xx.h **** typedef enum CHIP_SYSCTL_MAINCLKSRC {
 188:../../lpc_chip_11cxx_lib/inc/clock_11xx.h **** 	SYSCTL_MAINCLKSRC_IRC = 0,		/*!< Internal oscillator */
 189:../../lpc_chip_11cxx_lib/inc/clock_11xx.h **** 	SYSCTL_MAINCLKSRC_PLLIN,		/*!< System PLL input */
 190:../../lpc_chip_11cxx_lib/inc/clock_11xx.h **** 	SYSCTL_MAINCLKSRC_LFOSC,		/*!< LF oscillator rate (11Axx only) */
 191:../../lpc_chip_11cxx_lib/inc/clock_11xx.h **** 	SYSCTL_MAINCLKSRC_WDTOSC = SYSCTL_MAINCLKSRC_LFOSC,	/*!< Watchdog oscillator rate */
 192:../../lpc_chip_11cxx_lib/inc/clock_11xx.h **** 	SYSCTL_MAINCLKSRC_PLLOUT,		/*!< System PLL output */
 193:../../lpc_chip_11cxx_lib/inc/clock_11xx.h **** } CHIP_SYSCTL_MAINCLKSRC_T;
 194:../../lpc_chip_11cxx_lib/inc/clock_11xx.h **** 
 195:../../lpc_chip_11cxx_lib/inc/clock_11xx.h **** /**
 196:../../lpc_chip_11cxx_lib/inc/clock_11xx.h ****  * @brief	Set main system clock source
 197:../../lpc_chip_11cxx_lib/inc/clock_11xx.h ****  * @param	src	: Clock source for main system
 198:../../lpc_chip_11cxx_lib/inc/clock_11xx.h ****  * @return	Nothing
 199:../../lpc_chip_11cxx_lib/inc/clock_11xx.h ****  * @note	This function will also toggle the clock source update register
 200:../../lpc_chip_11cxx_lib/inc/clock_11xx.h ****  * to update the clock source.
 201:../../lpc_chip_11cxx_lib/inc/clock_11xx.h ****  */
 202:../../lpc_chip_11cxx_lib/inc/clock_11xx.h **** void Chip_Clock_SetMainClockSource(CHIP_SYSCTL_MAINCLKSRC_T src);
 203:../../lpc_chip_11cxx_lib/inc/clock_11xx.h **** 
ARM GAS  /var/folders/f9/8bk2lnw15zn4cbgn6wrnb4lm0000gn/T//cctFUD59.s 			page 14


 204:../../lpc_chip_11cxx_lib/inc/clock_11xx.h **** /**
 205:../../lpc_chip_11cxx_lib/inc/clock_11xx.h ****  * @brief   Returns the main clock source
 206:../../lpc_chip_11cxx_lib/inc/clock_11xx.h ****  * @return	Which clock is used for the core clock source?
 207:../../lpc_chip_11cxx_lib/inc/clock_11xx.h ****  */
 208:../../lpc_chip_11cxx_lib/inc/clock_11xx.h **** STATIC INLINE CHIP_SYSCTL_MAINCLKSRC_T Chip_Clock_GetMainClockSource(void)
 209:../../lpc_chip_11cxx_lib/inc/clock_11xx.h **** {
 210:../../lpc_chip_11cxx_lib/inc/clock_11xx.h **** 	return (CHIP_SYSCTL_MAINCLKSRC_T) (LPC_SYSCTL->MAINCLKSEL);
 211:../../lpc_chip_11cxx_lib/inc/clock_11xx.h **** }
 212:../../lpc_chip_11cxx_lib/inc/clock_11xx.h **** 
 213:../../lpc_chip_11cxx_lib/inc/clock_11xx.h **** /**
 214:../../lpc_chip_11cxx_lib/inc/clock_11xx.h ****  * @brief	Set system clock divider
 215:../../lpc_chip_11cxx_lib/inc/clock_11xx.h ****  * @param	div	: divider for system clock
 216:../../lpc_chip_11cxx_lib/inc/clock_11xx.h ****  * @return	Nothing
 217:../../lpc_chip_11cxx_lib/inc/clock_11xx.h ****  * @note	Use 0 to disable, or a divider value of 1 to 255. The system clock
 218:../../lpc_chip_11cxx_lib/inc/clock_11xx.h ****  * rate is the main system clock divided by this value.
 219:../../lpc_chip_11cxx_lib/inc/clock_11xx.h ****  */
 220:../../lpc_chip_11cxx_lib/inc/clock_11xx.h **** STATIC INLINE void Chip_Clock_SetSysClockDiv(uint32_t div)
 221:../../lpc_chip_11cxx_lib/inc/clock_11xx.h **** {
 222:../../lpc_chip_11cxx_lib/inc/clock_11xx.h **** 	LPC_SYSCTL->SYSAHBCLKDIV  = div;
 223:../../lpc_chip_11cxx_lib/inc/clock_11xx.h **** }
 224:../../lpc_chip_11cxx_lib/inc/clock_11xx.h **** 
 225:../../lpc_chip_11cxx_lib/inc/clock_11xx.h **** /**
 226:../../lpc_chip_11cxx_lib/inc/clock_11xx.h ****  * System and peripheral clocks
 227:../../lpc_chip_11cxx_lib/inc/clock_11xx.h ****  */
 228:../../lpc_chip_11cxx_lib/inc/clock_11xx.h **** typedef enum CHIP_SYSCTL_CLOCK {
 229:../../lpc_chip_11cxx_lib/inc/clock_11xx.h **** 	SYSCTL_CLOCK_SYS = 0,				/*!< 0: System clock */
 230:../../lpc_chip_11cxx_lib/inc/clock_11xx.h **** 	SYSCTL_CLOCK_ROM,					/*!<1:  ROM clock */
 231:../../lpc_chip_11cxx_lib/inc/clock_11xx.h **** 	SYSCTL_CLOCK_RAM,					/*!< 2: RAM clock */
 232:../../lpc_chip_11cxx_lib/inc/clock_11xx.h **** 	SYSCTL_CLOCK_FLASHREG,				/*!< 3: FLASH register interface clock */
 233:../../lpc_chip_11cxx_lib/inc/clock_11xx.h **** 	SYSCTL_CLOCK_FLASHARRAY,			/*!< 4: FLASH array access clock */
 234:../../lpc_chip_11cxx_lib/inc/clock_11xx.h **** #if defined(CHIP_LPC110X)
 235:../../lpc_chip_11cxx_lib/inc/clock_11xx.h **** 	SYSCTL_CLOCK_RESERVED5,				/*!< 5: Reserved */
 236:../../lpc_chip_11cxx_lib/inc/clock_11xx.h **** #else
 237:../../lpc_chip_11cxx_lib/inc/clock_11xx.h **** 	SYSCTL_CLOCK_I2C,					/*!< 5: I2C clock, not on LPC110x */
 238:../../lpc_chip_11cxx_lib/inc/clock_11xx.h **** #endif
 239:../../lpc_chip_11cxx_lib/inc/clock_11xx.h **** 	SYSCTL_CLOCK_GPIO,					/*!< 6: GPIO clock */
 240:../../lpc_chip_11cxx_lib/inc/clock_11xx.h **** 	SYSCTL_CLOCK_CT16B0,				/*!< 7: 16-bit Counter/timer 0 clock */
 241:../../lpc_chip_11cxx_lib/inc/clock_11xx.h **** 	SYSCTL_CLOCK_CT16B1,				/*!< 8: 16-bit Counter/timer 1 clock */
 242:../../lpc_chip_11cxx_lib/inc/clock_11xx.h **** 	SYSCTL_CLOCK_CT32B0,				/*!< 9: 32-bit Counter/timer 0 clock */
 243:../../lpc_chip_11cxx_lib/inc/clock_11xx.h **** 	SYSCTL_CLOCK_CT32B1,				/*!< 10: 32-bit Counter/timer 1 clock */
 244:../../lpc_chip_11cxx_lib/inc/clock_11xx.h **** 	SYSCTL_CLOCK_SSP0,					/*!< 11: SSP0 clock */
 245:../../lpc_chip_11cxx_lib/inc/clock_11xx.h **** 	SYSCTL_CLOCK_UART0,					/*!< 12: UART0 clock */
 246:../../lpc_chip_11cxx_lib/inc/clock_11xx.h **** 	SYSCTL_CLOCK_ADC,					/*!< 13: ADC clock */
 247:../../lpc_chip_11cxx_lib/inc/clock_11xx.h **** #if defined(CHIP_LPC11UXX)
 248:../../lpc_chip_11cxx_lib/inc/clock_11xx.h **** 	SYSCTL_CLOCK_USB,					/*!< 14: USB clock, LPC11Uxx only */
 249:../../lpc_chip_11cxx_lib/inc/clock_11xx.h **** #else
 250:../../lpc_chip_11cxx_lib/inc/clock_11xx.h **** 	SYSCTL_CLOCK_RESERVED14,			/*!< 14: Reserved */
 251:../../lpc_chip_11cxx_lib/inc/clock_11xx.h **** #endif
 252:../../lpc_chip_11cxx_lib/inc/clock_11xx.h **** 	SYSCTL_CLOCK_WDT,					/*!< 15: Watchdog timer clock */
 253:../../lpc_chip_11cxx_lib/inc/clock_11xx.h **** 	SYSCTL_CLOCK_IOCON,					/*!< 16: IOCON block clock */
 254:../../lpc_chip_11cxx_lib/inc/clock_11xx.h **** #if defined(CHIP_LPC11CXX)
 255:../../lpc_chip_11cxx_lib/inc/clock_11xx.h **** 	SYSCTL_CLOCK_CAN,					/*!< 17: CAN clock, LPC11Cxx only */
 256:../../lpc_chip_11cxx_lib/inc/clock_11xx.h **** #else
 257:../../lpc_chip_11cxx_lib/inc/clock_11xx.h **** 	SYSCTL_CLOCK_RESERVED17,			/*!< 17: Reserved */
 258:../../lpc_chip_11cxx_lib/inc/clock_11xx.h **** #endif
 259:../../lpc_chip_11cxx_lib/inc/clock_11xx.h **** #if !(defined(CHIP_LPC110X) || defined(CHIP_LPC11XXLV))  
 260:../../lpc_chip_11cxx_lib/inc/clock_11xx.h **** 	SYSCTL_CLOCK_SSP1,					/*!< 18: SSP1 clock, LPC11A/C/E/Uxx//1125 only */
ARM GAS  /var/folders/f9/8bk2lnw15zn4cbgn6wrnb4lm0000gn/T//cctFUD59.s 			page 15


 261:../../lpc_chip_11cxx_lib/inc/clock_11xx.h **** #if !defined(CHIP_LPC11CXX)
 262:../../lpc_chip_11cxx_lib/inc/clock_11xx.h **** 	SYSCTL_CLOCK_PINT,					/*!< 19: GPIO Pin int register interface clock, LPC11A/E/Uxx only */
 263:../../lpc_chip_11cxx_lib/inc/clock_11xx.h **** #if defined(CHIP_LPC11AXX)
 264:../../lpc_chip_11cxx_lib/inc/clock_11xx.h **** 	SYSCTL_CLOCK_ACOMP,					/*!< 20: Analog comparator clock, LPC11Axx only */
 265:../../lpc_chip_11cxx_lib/inc/clock_11xx.h **** 	SYSCTL_CLOCK_DAC,					/*!< 21: DAC clock, LPC11Axx only */
 266:../../lpc_chip_11cxx_lib/inc/clock_11xx.h **** #else
 267:../../lpc_chip_11cxx_lib/inc/clock_11xx.h **** 	SYSCTL_CLOCK_RESERVED20,			/*!< 20: Reserved */
 268:../../lpc_chip_11cxx_lib/inc/clock_11xx.h **** 	SYSCTL_CLOCK_RESERVED21,			/*!< 21: Reserved */
 269:../../lpc_chip_11cxx_lib/inc/clock_11xx.h **** #endif
 270:../../lpc_chip_11cxx_lib/inc/clock_11xx.h **** 	SYSCTL_CLOCK_RESERVED22,			/*!< 22: Reserved */
 271:../../lpc_chip_11cxx_lib/inc/clock_11xx.h **** 	SYSCTL_CLOCK_P0INT,					/*!< 23: GPIO GROUP1 interrupt register clock, LPC11Axx only */
 272:../../lpc_chip_11cxx_lib/inc/clock_11xx.h **** 	SYSCTL_CLOCK_GROUP0INT = SYSCTL_CLOCK_P0INT,/*!< 23: GPIO GROUP0 interrupt register interface cloc
 273:../../lpc_chip_11cxx_lib/inc/clock_11xx.h **** 	SYSCTL_CLOCK_P1INT,					/*!< 24: GPIO GROUP1 interrupt register clock, LPC11Axx only */
 274:../../lpc_chip_11cxx_lib/inc/clock_11xx.h **** 	SYSCTL_CLOCK_GROUP1INT = SYSCTL_CLOCK_P1INT,/*!< 24: GPIO GROUP1 interrupt register interface cloc
 275:../../lpc_chip_11cxx_lib/inc/clock_11xx.h **** 	SYSCTL_CLOCK_RESERVED25,			/*!< 25: Reserved */
 276:../../lpc_chip_11cxx_lib/inc/clock_11xx.h **** #if defined(CHIP_LPC11EXX)  || defined(CHIP_LPC11UXX)
 277:../../lpc_chip_11cxx_lib/inc/clock_11xx.h **** 	SYSCTL_CLOCK_RAM1,					/*!< 26: SRAM block (0x20000000) clock, LPC11E/Uxx only */
 278:../../lpc_chip_11cxx_lib/inc/clock_11xx.h **** #else
 279:../../lpc_chip_11cxx_lib/inc/clock_11xx.h **** 	SYSCTL_CLOCK_RESERVED26,			/*!< 26: Reserved */
 280:../../lpc_chip_11cxx_lib/inc/clock_11xx.h **** #endif
 281:../../lpc_chip_11cxx_lib/inc/clock_11xx.h **** #if defined(CHIP_LPC11UXX)
 282:../../lpc_chip_11cxx_lib/inc/clock_11xx.h **** 	SYSCTL_CLOCK_USBRAM,				/*!< 27: USB SRAM block clock, LPC11Uxx only */
 283:../../lpc_chip_11cxx_lib/inc/clock_11xx.h **** #else
 284:../../lpc_chip_11cxx_lib/inc/clock_11xx.h **** 	SYSCTL_CLOCK_RESERVED27,			/*!< 27: Reserved */
 285:../../lpc_chip_11cxx_lib/inc/clock_11xx.h **** #endif
 286:../../lpc_chip_11cxx_lib/inc/clock_11xx.h **** #endif /* !defined(CHIP_LPC11CXX) */
 287:../../lpc_chip_11cxx_lib/inc/clock_11xx.h **** #endif /* !(defined(CHIP_LPC110X) || defined(CHIP_LPC11XXLV)) */
 288:../../lpc_chip_11cxx_lib/inc/clock_11xx.h **** } CHIP_SYSCTL_CLOCK_T;
 289:../../lpc_chip_11cxx_lib/inc/clock_11xx.h **** 
 290:../../lpc_chip_11cxx_lib/inc/clock_11xx.h **** /**
 291:../../lpc_chip_11cxx_lib/inc/clock_11xx.h ****  * @brief	Enable a system or peripheral clock
 292:../../lpc_chip_11cxx_lib/inc/clock_11xx.h ****  * @param	clk	: Clock to enable
 293:../../lpc_chip_11cxx_lib/inc/clock_11xx.h ****  * @return	Nothing
 294:../../lpc_chip_11cxx_lib/inc/clock_11xx.h ****  */
 295:../../lpc_chip_11cxx_lib/inc/clock_11xx.h **** STATIC INLINE void Chip_Clock_EnablePeriphClock(CHIP_SYSCTL_CLOCK_T clk)
 296:../../lpc_chip_11cxx_lib/inc/clock_11xx.h **** {
 297:../../lpc_chip_11cxx_lib/inc/clock_11xx.h **** 	LPC_SYSCTL->SYSAHBCLKCTRL |= (1 << clk);
 298:../../lpc_chip_11cxx_lib/inc/clock_11xx.h **** }
 299:../../lpc_chip_11cxx_lib/inc/clock_11xx.h **** 
 300:../../lpc_chip_11cxx_lib/inc/clock_11xx.h **** /**
 301:../../lpc_chip_11cxx_lib/inc/clock_11xx.h ****  * @brief	Disable a system or peripheral clock
 302:../../lpc_chip_11cxx_lib/inc/clock_11xx.h ****  * @param	clk	: Clock to disable
 303:../../lpc_chip_11cxx_lib/inc/clock_11xx.h ****  * @return	Nothing
 304:../../lpc_chip_11cxx_lib/inc/clock_11xx.h ****  */
 305:../../lpc_chip_11cxx_lib/inc/clock_11xx.h **** STATIC INLINE void Chip_Clock_DisablePeriphClock(CHIP_SYSCTL_CLOCK_T clk)
 306:../../lpc_chip_11cxx_lib/inc/clock_11xx.h **** {
 307:../../lpc_chip_11cxx_lib/inc/clock_11xx.h **** 	LPC_SYSCTL->SYSAHBCLKCTRL &= ~(1 << clk);
 308:../../lpc_chip_11cxx_lib/inc/clock_11xx.h **** }
 309:../../lpc_chip_11cxx_lib/inc/clock_11xx.h **** 
 310:../../lpc_chip_11cxx_lib/inc/clock_11xx.h **** /**
 311:../../lpc_chip_11cxx_lib/inc/clock_11xx.h ****  * @brief	Set SSP0 divider
 312:../../lpc_chip_11cxx_lib/inc/clock_11xx.h ****  * @param	div	: divider for SSP0 clock
 313:../../lpc_chip_11cxx_lib/inc/clock_11xx.h ****  * @return	Nothing
 314:../../lpc_chip_11cxx_lib/inc/clock_11xx.h ****  * @note	Use 0 to disable, or a divider value of 1 to 255. The SSP0 clock
 315:../../lpc_chip_11cxx_lib/inc/clock_11xx.h ****  * rate is the main system clock divided by this value.
 316:../../lpc_chip_11cxx_lib/inc/clock_11xx.h ****  */
 317:../../lpc_chip_11cxx_lib/inc/clock_11xx.h **** STATIC INLINE void Chip_Clock_SetSSP0ClockDiv(uint32_t div)
ARM GAS  /var/folders/f9/8bk2lnw15zn4cbgn6wrnb4lm0000gn/T//cctFUD59.s 			page 16


 318:../../lpc_chip_11cxx_lib/inc/clock_11xx.h **** {
 319:../../lpc_chip_11cxx_lib/inc/clock_11xx.h **** 	LPC_SYSCTL->SSP0CLKDIV  = div;
 320:../../lpc_chip_11cxx_lib/inc/clock_11xx.h **** }
 321:../../lpc_chip_11cxx_lib/inc/clock_11xx.h **** 
 322:../../lpc_chip_11cxx_lib/inc/clock_11xx.h **** /**
 323:../../lpc_chip_11cxx_lib/inc/clock_11xx.h ****  * @brief	Return SSP0 divider
 324:../../lpc_chip_11cxx_lib/inc/clock_11xx.h ****  * @return	divider for SSP0 clock
 325:../../lpc_chip_11cxx_lib/inc/clock_11xx.h ****  * @note	A value of 0 means the clock is disabled.
 326:../../lpc_chip_11cxx_lib/inc/clock_11xx.h ****  */
 327:../../lpc_chip_11cxx_lib/inc/clock_11xx.h **** STATIC INLINE uint32_t Chip_Clock_GetSSP0ClockDiv(void)
 328:../../lpc_chip_11cxx_lib/inc/clock_11xx.h **** {
 329:../../lpc_chip_11cxx_lib/inc/clock_11xx.h **** 	return LPC_SYSCTL->SSP0CLKDIV;
 330:../../lpc_chip_11cxx_lib/inc/clock_11xx.h **** }
 331:../../lpc_chip_11cxx_lib/inc/clock_11xx.h **** 
 332:../../lpc_chip_11cxx_lib/inc/clock_11xx.h **** /**
 333:../../lpc_chip_11cxx_lib/inc/clock_11xx.h ****  * @brief	Set UART divider clock
 334:../../lpc_chip_11cxx_lib/inc/clock_11xx.h ****  * @param	div	: divider for UART clock
 335:../../lpc_chip_11cxx_lib/inc/clock_11xx.h ****  * @return	Nothing
 336:../../lpc_chip_11cxx_lib/inc/clock_11xx.h ****  * @note	Use 0 to disable, or a divider value of 1 to 255. The UART clock
 337:../../lpc_chip_11cxx_lib/inc/clock_11xx.h ****  * rate is the main system clock divided by this value.
 338:../../lpc_chip_11cxx_lib/inc/clock_11xx.h ****  */
 339:../../lpc_chip_11cxx_lib/inc/clock_11xx.h **** STATIC INLINE void Chip_Clock_SetUARTClockDiv(uint32_t div)
 340:../../lpc_chip_11cxx_lib/inc/clock_11xx.h **** {
 341:../../lpc_chip_11cxx_lib/inc/clock_11xx.h **** 	LPC_SYSCTL->USARTCLKDIV  = div;
 342:../../lpc_chip_11cxx_lib/inc/clock_11xx.h **** }
 343:../../lpc_chip_11cxx_lib/inc/clock_11xx.h **** 
 344:../../lpc_chip_11cxx_lib/inc/clock_11xx.h **** /**
 345:../../lpc_chip_11cxx_lib/inc/clock_11xx.h ****  * @brief	Return UART divider
 346:../../lpc_chip_11cxx_lib/inc/clock_11xx.h ****  * @return	divider for UART clock
 347:../../lpc_chip_11cxx_lib/inc/clock_11xx.h ****  * @note	A value of 0 means the clock is disabled.
 348:../../lpc_chip_11cxx_lib/inc/clock_11xx.h ****  */
 349:../../lpc_chip_11cxx_lib/inc/clock_11xx.h **** STATIC INLINE uint32_t Chip_Clock_GetUARTClockDiv(void)
 350:../../lpc_chip_11cxx_lib/inc/clock_11xx.h **** {
 351:../../lpc_chip_11cxx_lib/inc/clock_11xx.h **** 	return LPC_SYSCTL->USARTCLKDIV;
 352:../../lpc_chip_11cxx_lib/inc/clock_11xx.h **** }
 353:../../lpc_chip_11cxx_lib/inc/clock_11xx.h **** 
 354:../../lpc_chip_11cxx_lib/inc/clock_11xx.h **** #if defined(CHIP_LPC11CXX) || defined(CHIP_LPC11EXX) || defined(CHIP_LPC11AXX) || defined(CHIP_LPC1
 355:../../lpc_chip_11cxx_lib/inc/clock_11xx.h **** /**
 356:../../lpc_chip_11cxx_lib/inc/clock_11xx.h ****  * @brief	Set SSP1 divider clock
 357:../../lpc_chip_11cxx_lib/inc/clock_11xx.h ****  * @param	div	: divider for SSP1 clock
 358:../../lpc_chip_11cxx_lib/inc/clock_11xx.h ****  * @return	Nothing
 359:../../lpc_chip_11cxx_lib/inc/clock_11xx.h ****  * @note	Use 0 to disable, or a divider value of 1 to 255. The SSP1 clock
 360:../../lpc_chip_11cxx_lib/inc/clock_11xx.h ****  * rate is the main system clock divided by this value.
 361:../../lpc_chip_11cxx_lib/inc/clock_11xx.h ****  */
 362:../../lpc_chip_11cxx_lib/inc/clock_11xx.h **** STATIC INLINE void Chip_Clock_SetSSP1ClockDiv(uint32_t div)
 363:../../lpc_chip_11cxx_lib/inc/clock_11xx.h **** {
 364:../../lpc_chip_11cxx_lib/inc/clock_11xx.h **** 	LPC_SYSCTL->SSP1CLKDIV  = div;
 365:../../lpc_chip_11cxx_lib/inc/clock_11xx.h **** }
 366:../../lpc_chip_11cxx_lib/inc/clock_11xx.h **** 
 367:../../lpc_chip_11cxx_lib/inc/clock_11xx.h **** /**
 368:../../lpc_chip_11cxx_lib/inc/clock_11xx.h ****  * @brief	Return SSP1 divider
 369:../../lpc_chip_11cxx_lib/inc/clock_11xx.h ****  * @return	divider for SSP1 clock
 370:../../lpc_chip_11cxx_lib/inc/clock_11xx.h ****  * @note	A value of 0 means the clock is disabled.
 371:../../lpc_chip_11cxx_lib/inc/clock_11xx.h ****  */
 372:../../lpc_chip_11cxx_lib/inc/clock_11xx.h **** STATIC INLINE uint32_t Chip_Clock_GetSSP1ClockDiv(void)
 373:../../lpc_chip_11cxx_lib/inc/clock_11xx.h **** {
 374:../../lpc_chip_11cxx_lib/inc/clock_11xx.h **** 	return LPC_SYSCTL->SSP1CLKDIV;
ARM GAS  /var/folders/f9/8bk2lnw15zn4cbgn6wrnb4lm0000gn/T//cctFUD59.s 			page 17


 375:../../lpc_chip_11cxx_lib/inc/clock_11xx.h **** }
 376:../../lpc_chip_11cxx_lib/inc/clock_11xx.h **** 
 377:../../lpc_chip_11cxx_lib/inc/clock_11xx.h **** #endif /*defined(CHIP_LPC11CXX) || defined(CHIP_LPC11EXX) || defined(CHIP_LPC11AXX) || defined(CHIP
 378:../../lpc_chip_11cxx_lib/inc/clock_11xx.h **** 
 379:../../lpc_chip_11cxx_lib/inc/clock_11xx.h **** #if defined(CHIP_LPC11UXX)
 380:../../lpc_chip_11cxx_lib/inc/clock_11xx.h **** /**
 381:../../lpc_chip_11cxx_lib/inc/clock_11xx.h ****  * Clock sources for USB
 382:../../lpc_chip_11cxx_lib/inc/clock_11xx.h ****  */
 383:../../lpc_chip_11cxx_lib/inc/clock_11xx.h **** typedef enum CHIP_SYSCTL_USBCLKSRC {
 384:../../lpc_chip_11cxx_lib/inc/clock_11xx.h **** 	SYSCTL_USBCLKSRC_PLLOUT = 0,	/*!< USB PLL out */
 385:../../lpc_chip_11cxx_lib/inc/clock_11xx.h **** 	SYSCTL_USBCLKSRC_MAINSYSCLK,	/*!< Main system clock */
 386:../../lpc_chip_11cxx_lib/inc/clock_11xx.h **** } CHIP_SYSCTL_USBCLKSRC_T;
 387:../../lpc_chip_11cxx_lib/inc/clock_11xx.h **** 
 388:../../lpc_chip_11cxx_lib/inc/clock_11xx.h **** /**
 389:../../lpc_chip_11cxx_lib/inc/clock_11xx.h ****  * @brief	Set USB clock source and divider
 390:../../lpc_chip_11cxx_lib/inc/clock_11xx.h ****  * @param	src	: Clock source for USB
 391:../../lpc_chip_11cxx_lib/inc/clock_11xx.h ****  * @param	div	: divider for USB clock
 392:../../lpc_chip_11cxx_lib/inc/clock_11xx.h ****  * @return	Nothing
 393:../../lpc_chip_11cxx_lib/inc/clock_11xx.h ****  * @note	Use 0 to disable, or a divider value of 1 to 255. The USB clock
 394:../../lpc_chip_11cxx_lib/inc/clock_11xx.h ****  * rate is either the main system clock or USB PLL output clock divided
 395:../../lpc_chip_11cxx_lib/inc/clock_11xx.h ****  * by this value. This function will also toggle the clock source
 396:../../lpc_chip_11cxx_lib/inc/clock_11xx.h ****  * update register to update the clock source.
 397:../../lpc_chip_11cxx_lib/inc/clock_11xx.h ****  */
 398:../../lpc_chip_11cxx_lib/inc/clock_11xx.h **** void Chip_Clock_SetUSBClockSource(CHIP_SYSCTL_USBCLKSRC_T src, uint32_t div);
 399:../../lpc_chip_11cxx_lib/inc/clock_11xx.h **** 
 400:../../lpc_chip_11cxx_lib/inc/clock_11xx.h **** #endif /*CHIP_LPC11UXX*/
 401:../../lpc_chip_11cxx_lib/inc/clock_11xx.h **** 
 402:../../lpc_chip_11cxx_lib/inc/clock_11xx.h **** #if defined(CHIP_LPC110X) || defined(CHIP_LPC11XXLV) || defined(CHIP_LPC11CXX) || defined(CHIP_LPC1
 403:../../lpc_chip_11cxx_lib/inc/clock_11xx.h **** /**
 404:../../lpc_chip_11cxx_lib/inc/clock_11xx.h ****  * Clock sources for WDT
 405:../../lpc_chip_11cxx_lib/inc/clock_11xx.h ****  */
 406:../../lpc_chip_11cxx_lib/inc/clock_11xx.h **** typedef enum CHIP_SYSCTL_WDTCLKSRC {
 407:../../lpc_chip_11cxx_lib/inc/clock_11xx.h **** 	SYSCTL_WDTCLKSRC_IRC = 0,		/*!< Internal oscillator for watchdog clock */
 408:../../lpc_chip_11cxx_lib/inc/clock_11xx.h **** 	SYSCTL_WDTCLKSRC_MAINSYSCLK,	/*!< Main system clock for watchdog clock */
 409:../../lpc_chip_11cxx_lib/inc/clock_11xx.h **** 	SYSCTL_WDTCLKSRC_WDTOSC,		/*!< Watchdog oscillator for watchdog clock */
 410:../../lpc_chip_11cxx_lib/inc/clock_11xx.h **** } CHIP_SYSCTL_WDTCLKSRC_T;
 411:../../lpc_chip_11cxx_lib/inc/clock_11xx.h **** 
 412:../../lpc_chip_11cxx_lib/inc/clock_11xx.h **** /**
 413:../../lpc_chip_11cxx_lib/inc/clock_11xx.h ****  * @brief	Set WDT clock source and divider
 414:../../lpc_chip_11cxx_lib/inc/clock_11xx.h ****  * @param	src	: Clock source for WDT
 415:../../lpc_chip_11cxx_lib/inc/clock_11xx.h ****  * @param	div	: divider for WDT clock
 416:../../lpc_chip_11cxx_lib/inc/clock_11xx.h ****  * @return	Nothing
 417:../../lpc_chip_11cxx_lib/inc/clock_11xx.h ****  * @note	Use 0 to disable, or a divider value of 1 to 255. The WDT clock
 418:../../lpc_chip_11cxx_lib/inc/clock_11xx.h ****  * rate is the clock source divided by the divider. This function will
 419:../../lpc_chip_11cxx_lib/inc/clock_11xx.h ****  * also toggle the clock source update register to update the clock
 420:../../lpc_chip_11cxx_lib/inc/clock_11xx.h ****  * source.
 421:../../lpc_chip_11cxx_lib/inc/clock_11xx.h ****  */
 422:../../lpc_chip_11cxx_lib/inc/clock_11xx.h **** void Chip_Clock_SetWDTClockSource(CHIP_SYSCTL_WDTCLKSRC_T src, uint32_t div);
 423:../../lpc_chip_11cxx_lib/inc/clock_11xx.h **** 
 424:../../lpc_chip_11cxx_lib/inc/clock_11xx.h **** #endif
 425:../../lpc_chip_11cxx_lib/inc/clock_11xx.h **** 
 426:../../lpc_chip_11cxx_lib/inc/clock_11xx.h **** #if !defined(CHIP_LPC110X)
 427:../../lpc_chip_11cxx_lib/inc/clock_11xx.h **** /**
 428:../../lpc_chip_11cxx_lib/inc/clock_11xx.h ****  * Clock sources for CLKOUT
 429:../../lpc_chip_11cxx_lib/inc/clock_11xx.h ****  */
 430:../../lpc_chip_11cxx_lib/inc/clock_11xx.h **** typedef enum CHIP_SYSCTL_CLKOUTSRC {
 431:../../lpc_chip_11cxx_lib/inc/clock_11xx.h **** 	SYSCTL_CLKOUTSRC_IRC = 0,		/*!< Internal oscillator for CLKOUT */
ARM GAS  /var/folders/f9/8bk2lnw15zn4cbgn6wrnb4lm0000gn/T//cctFUD59.s 			page 18


 432:../../lpc_chip_11cxx_lib/inc/clock_11xx.h **** 	SYSCTL_CLKOUTSRC_MAINOSC,		/*!< Main oscillator for CLKOUT */
 433:../../lpc_chip_11cxx_lib/inc/clock_11xx.h **** 	SYSCTL_CLKOUTSRC_WDTOSC,		/*!< Watchdog oscillator for CLKOUT */
 434:../../lpc_chip_11cxx_lib/inc/clock_11xx.h **** 	SYSCTL_CLKOUTSRC_LFOSC = SYSCTL_CLKOUTSRC_WDTOSC,	/*!< LF oscillator rate (LPC11A/Exx only) for CL
 435:../../lpc_chip_11cxx_lib/inc/clock_11xx.h **** 	SYSCTL_CLKOUTSRC_MAINSYSCLK,	/*!< Main system clock for CLKOUT */
 436:../../lpc_chip_11cxx_lib/inc/clock_11xx.h **** } CHIP_SYSCTL_CLKOUTSRC_T;
 437:../../lpc_chip_11cxx_lib/inc/clock_11xx.h **** 
 438:../../lpc_chip_11cxx_lib/inc/clock_11xx.h **** /**
 439:../../lpc_chip_11cxx_lib/inc/clock_11xx.h ****  * @brief	Set CLKOUT clock source and divider
 440:../../lpc_chip_11cxx_lib/inc/clock_11xx.h ****  * @param	src	: Clock source for CLKOUT
 441:../../lpc_chip_11cxx_lib/inc/clock_11xx.h ****  * @param	div	: divider for CLKOUT clock
 442:../../lpc_chip_11cxx_lib/inc/clock_11xx.h ****  * @return	Nothing
 443:../../lpc_chip_11cxx_lib/inc/clock_11xx.h ****  * @note	Use 0 to disable, or a divider value of 1 to 255. The CLKOUT clock
 444:../../lpc_chip_11cxx_lib/inc/clock_11xx.h ****  * rate is the clock source divided by the divider. This function will
 445:../../lpc_chip_11cxx_lib/inc/clock_11xx.h ****  * also toggle the clock source update register to update the clock
 446:../../lpc_chip_11cxx_lib/inc/clock_11xx.h ****  * source.
 447:../../lpc_chip_11cxx_lib/inc/clock_11xx.h ****  */
 448:../../lpc_chip_11cxx_lib/inc/clock_11xx.h **** void Chip_Clock_SetCLKOUTSource(CHIP_SYSCTL_CLKOUTSRC_T src, uint32_t div);
 449:../../lpc_chip_11cxx_lib/inc/clock_11xx.h **** 
 450:../../lpc_chip_11cxx_lib/inc/clock_11xx.h **** #endif
 451:../../lpc_chip_11cxx_lib/inc/clock_11xx.h **** 
 452:../../lpc_chip_11cxx_lib/inc/clock_11xx.h **** /**
 453:../../lpc_chip_11cxx_lib/inc/clock_11xx.h ****  * @brief	Returns the main oscillator clock rate
 454:../../lpc_chip_11cxx_lib/inc/clock_11xx.h ****  * @return	main oscillator clock rate
 455:../../lpc_chip_11cxx_lib/inc/clock_11xx.h ****  */
 456:../../lpc_chip_11cxx_lib/inc/clock_11xx.h **** STATIC INLINE uint32_t Chip_Clock_GetMainOscRate(void)
 457:../../lpc_chip_11cxx_lib/inc/clock_11xx.h **** {
 458:../../lpc_chip_11cxx_lib/inc/clock_11xx.h **** 	return OscRateIn;
 325              		.loc 2 458 0
 326 0012 034B     		ldr	r3, .L30+4	@ tmp121,
 327 0014 1868     		ldr	r0, [r3]	@ clkRate, OscRateIn
 328              	.LBE29:
 329              	.LBE28:
 194:../../lpc_chip_11cxx_lib/src/clock_11xx.c **** 		break;
 330              		.loc 1 194 0
 331 0016 FBE7     		b	.L25	@
 332              	.L26:
 189:../../lpc_chip_11cxx_lib/src/clock_11xx.c **** 		clkRate = Chip_Clock_GetIntOscRate();
 333              		.loc 1 189 0
 334 0018 0248     		ldr	r0, .L30+8	@ clkRate,
 335 001a F9E7     		b	.L25	@
 336              	.L31:
 337              		.align	2
 338              	.L30:
 339 001c 00800440 		.word	1074036736
 340 0020 00000000 		.word	OscRateIn
 341 0024 001BB700 		.word	12000000
 342              		.cfi_endproc
 343              	.LFE206:
 344              		.size	Chip_Clock_GetSystemPLLInClockRate, .-Chip_Clock_GetSystemPLLInClockRate
 345              		.section	.text.Chip_Clock_GetSystemPLLOutClockRate,"ax",%progbits
 346              		.align	2
 347              		.global	Chip_Clock_GetSystemPLLOutClockRate
 348              		.code	16
 349              		.thumb_func
 350              		.type	Chip_Clock_GetSystemPLLOutClockRate, %function
 351              	Chip_Clock_GetSystemPLLOutClockRate:
 352              	.LFB207:
ARM GAS  /var/folders/f9/8bk2lnw15zn4cbgn6wrnb4lm0000gn/T//cctFUD59.s 			page 19


 208:../../lpc_chip_11cxx_lib/src/clock_11xx.c **** 
 209:../../lpc_chip_11cxx_lib/src/clock_11xx.c **** /* Return System PLL output clock rate */
 210:../../lpc_chip_11cxx_lib/src/clock_11xx.c **** uint32_t Chip_Clock_GetSystemPLLOutClockRate(void)
 211:../../lpc_chip_11cxx_lib/src/clock_11xx.c **** {
 353              		.loc 1 211 0
 354              		.cfi_startproc
 212:../../lpc_chip_11cxx_lib/src/clock_11xx.c **** 	return Chip_Clock_GetPLLFreq(LPC_SYSCTL->SYSPLLCTRL,
 355              		.loc 1 212 0
 356 0000 0C4B     		ldr	r3, .L38	@ tmp122,
 211:../../lpc_chip_11cxx_lib/src/clock_11xx.c **** {
 357              		.loc 1 211 0
 358 0002 82B0     		sub	sp, sp, #8	@,,
 359              		.cfi_def_cfa_offset 8
 360              		.loc 1 212 0
 361 0004 9968     		ldr	r1, [r3, #8]	@ D.6246, MEM[(struct LPC_SYSCTL_T *)1074036736B].SYSPLLCTRL
 362              	.LBB30:
 363              	.LBB31:
 187:../../lpc_chip_11cxx_lib/src/clock_11xx.c **** 	switch ((CHIP_SYSCTL_PLLCLKSRC_T) (LPC_SYSCTL->SYSPLLCLKSEL & 0x3)) {
 364              		.loc 1 187 0
 365 0006 1A6C     		ldr	r2, [r3, #64]	@ D.6246, MEM[(struct LPC_SYSCTL_T *)1074036736B].SYSPLLCLKSEL
 366 0008 0323     		mov	r3, #3	@ tmp126,
 367 000a 1340     		and	r3, r2	@ D.6247, D.6246
 368 000c 0BD0     		beq	.L34	@,
 369 000e 012B     		cmp	r3, #1	@ D.6247,
 370 0010 02D0     		beq	.L35	@,
 371 0012 0020     		mov	r0, #0	@ D.6248,
 372              	.L33:
 373              	.LVL15:
 374              	.LBE31:
 375              	.LBE30:
 213:../../lpc_chip_11cxx_lib/src/clock_11xx.c **** 								 Chip_Clock_GetSystemPLLInClockRate());
 214:../../lpc_chip_11cxx_lib/src/clock_11xx.c **** }
 376              		.loc 1 214 0
 377 0014 02B0     		add	sp, sp, #8	@,,
 378              		@ sp needed	@
 379 0016 7047     		bx	lr
 380              	.L35:
 381              	.LBB35:
 382              	.LBB34:
 383              	.LBB32:
 384              	.LBB33:
 385              		.loc 2 458 0
 386 0018 074B     		ldr	r3, .L38+4	@ tmp135,
 387 001a 1F20     		mov	r0, #31	@ tmp132,
 388 001c 0140     		and	r1, r0	@ D.6246, tmp132
 389 001e 1B68     		ldr	r3, [r3]	@, OscRateIn
 390 0020 481C     		add	r0, r1, #1	@ D.6248, D.6246,
 391 0022 5843     		mul	r0, r3	@ D.6248,
 392 0024 F6E7     		b	.L33	@
 393              	.L34:
 394 0026 1F20     		mov	r0, #31	@ tmp128,
 395 0028 0140     		and	r1, r0	@ D.6246, tmp128
 396 002a 0448     		ldr	r0, .L38+8	@ tmp131,
 397 002c 0131     		add	r1, r1, #1	@ D.6248,
 398 002e 4843     		mul	r0, r1	@ D.6248, D.6248
 399 0030 F0E7     		b	.L33	@
 400              	.L39:
ARM GAS  /var/folders/f9/8bk2lnw15zn4cbgn6wrnb4lm0000gn/T//cctFUD59.s 			page 20


 401 0032 C046     		.align	2
 402              	.L38:
 403 0034 00800440 		.word	1074036736
 404 0038 00000000 		.word	OscRateIn
 405 003c 001BB700 		.word	12000000
 406              	.LBE33:
 407              	.LBE32:
 408              	.LBE34:
 409              	.LBE35:
 410              		.cfi_endproc
 411              	.LFE207:
 412              		.size	Chip_Clock_GetSystemPLLOutClockRate, .-Chip_Clock_GetSystemPLLOutClockRate
 413              		.section	.text.Chip_Clock_GetMainClockRate,"ax",%progbits
 414              		.align	2
 415              		.global	Chip_Clock_GetMainClockRate
 416              		.code	16
 417              		.thumb_func
 418              		.type	Chip_Clock_GetMainClockRate, %function
 419              	Chip_Clock_GetMainClockRate:
 420              	.LFB208:
 215:../../lpc_chip_11cxx_lib/src/clock_11xx.c **** 
 216:../../lpc_chip_11cxx_lib/src/clock_11xx.c **** #if defined(CHIP_LPC11UXX)
 217:../../lpc_chip_11cxx_lib/src/clock_11xx.c **** /* Return USB PLL input clock rate */
 218:../../lpc_chip_11cxx_lib/src/clock_11xx.c **** uint32_t Chip_Clock_GetUSBPLLInClockRate(void)
 219:../../lpc_chip_11cxx_lib/src/clock_11xx.c **** {
 220:../../lpc_chip_11cxx_lib/src/clock_11xx.c **** 	uint32_t clkRate;
 221:../../lpc_chip_11cxx_lib/src/clock_11xx.c **** 
 222:../../lpc_chip_11cxx_lib/src/clock_11xx.c **** 	switch ((CHIP_SYSCTL_PLLCLKSRC_T) (LPC_SYSCTL->USBPLLCLKSEL & 0x3)) {
 223:../../lpc_chip_11cxx_lib/src/clock_11xx.c **** 	case SYSCTL_PLLCLKSRC_IRC:
 224:../../lpc_chip_11cxx_lib/src/clock_11xx.c **** 		clkRate = Chip_Clock_GetIntOscRate();
 225:../../lpc_chip_11cxx_lib/src/clock_11xx.c **** 		break;
 226:../../lpc_chip_11cxx_lib/src/clock_11xx.c **** 
 227:../../lpc_chip_11cxx_lib/src/clock_11xx.c **** 	case SYSCTL_PLLCLKSRC_MAINOSC:
 228:../../lpc_chip_11cxx_lib/src/clock_11xx.c **** 		clkRate = Chip_Clock_GetMainOscRate();
 229:../../lpc_chip_11cxx_lib/src/clock_11xx.c **** 		break;
 230:../../lpc_chip_11cxx_lib/src/clock_11xx.c **** 
 231:../../lpc_chip_11cxx_lib/src/clock_11xx.c **** 	default:
 232:../../lpc_chip_11cxx_lib/src/clock_11xx.c **** 		clkRate = 0;
 233:../../lpc_chip_11cxx_lib/src/clock_11xx.c **** 	}
 234:../../lpc_chip_11cxx_lib/src/clock_11xx.c **** 
 235:../../lpc_chip_11cxx_lib/src/clock_11xx.c **** 	return clkRate;
 236:../../lpc_chip_11cxx_lib/src/clock_11xx.c **** }
 237:../../lpc_chip_11cxx_lib/src/clock_11xx.c **** 
 238:../../lpc_chip_11cxx_lib/src/clock_11xx.c **** /* Return USB PLL output clock rate */
 239:../../lpc_chip_11cxx_lib/src/clock_11xx.c **** uint32_t Chip_Clock_GetUSBPLLOutClockRate(void)
 240:../../lpc_chip_11cxx_lib/src/clock_11xx.c **** {
 241:../../lpc_chip_11cxx_lib/src/clock_11xx.c **** 	return Chip_Clock_GetPLLFreq(LPC_SYSCTL->USBPLLCTRL,
 242:../../lpc_chip_11cxx_lib/src/clock_11xx.c **** 								 Chip_Clock_GetUSBPLLInClockRate());
 243:../../lpc_chip_11cxx_lib/src/clock_11xx.c **** }
 244:../../lpc_chip_11cxx_lib/src/clock_11xx.c **** 
 245:../../lpc_chip_11cxx_lib/src/clock_11xx.c **** #endif
 246:../../lpc_chip_11cxx_lib/src/clock_11xx.c **** 
 247:../../lpc_chip_11cxx_lib/src/clock_11xx.c **** /* Return main clock rate */
 248:../../lpc_chip_11cxx_lib/src/clock_11xx.c **** uint32_t Chip_Clock_GetMainClockRate(void)
 249:../../lpc_chip_11cxx_lib/src/clock_11xx.c **** {
 421              		.loc 1 249 0
 422              		.cfi_startproc
ARM GAS  /var/folders/f9/8bk2lnw15zn4cbgn6wrnb4lm0000gn/T//cctFUD59.s 			page 21


 423              	.LVL16:
 250:../../lpc_chip_11cxx_lib/src/clock_11xx.c **** 	uint32_t clkRate = 0;
 251:../../lpc_chip_11cxx_lib/src/clock_11xx.c **** 
 252:../../lpc_chip_11cxx_lib/src/clock_11xx.c **** 	switch ((CHIP_SYSCTL_MAINCLKSRC_T) (LPC_SYSCTL->MAINCLKSEL & 0x3)) {
 424              		.loc 1 252 0
 425 0000 134A     		ldr	r2, .L53	@ tmp129,
 249:../../lpc_chip_11cxx_lib/src/clock_11xx.c **** {
 426              		.loc 1 249 0
 427 0002 08B5     		push	{r3, lr}	@
 428              		.cfi_def_cfa_offset 8
 429              		.cfi_offset 3, -8
 430              		.cfi_offset 14, -4
 431              		.loc 1 252 0
 432 0004 136F     		ldr	r3, [r2, #112]	@ D.6254, MEM[(struct LPC_SYSCTL_T *)1074036736B].MAINCLKSEL
 433 0006 0321     		mov	r1, #3	@ tmp132,
 434 0008 0B40     		and	r3, r1	@ D.6255, tmp132
 435 000a 022B     		cmp	r3, #2	@ D.6255,
 436 000c 10D0     		beq	.L42	@,
 437 000e 032B     		cmp	r3, #3	@ D.6255,
 438 0010 0BD0     		beq	.L43	@,
 439 0012 012B     		cmp	r3, #1	@ D.6255,
 440 0014 01D0     		beq	.L51	@,
 441              	.L49:
 253:../../lpc_chip_11cxx_lib/src/clock_11xx.c **** 	case SYSCTL_MAINCLKSRC_IRC:
 254:../../lpc_chip_11cxx_lib/src/clock_11xx.c **** 		clkRate = Chip_Clock_GetIntOscRate();
 442              		.loc 1 254 0
 443 0016 0F48     		ldr	r0, .L53+4	@ clkRate,
 444              	.LVL17:
 445              	.L41:
 255:../../lpc_chip_11cxx_lib/src/clock_11xx.c **** 		break;
 256:../../lpc_chip_11cxx_lib/src/clock_11xx.c **** 
 257:../../lpc_chip_11cxx_lib/src/clock_11xx.c **** 	case SYSCTL_MAINCLKSRC_PLLIN:
 258:../../lpc_chip_11cxx_lib/src/clock_11xx.c **** 		clkRate = Chip_Clock_GetSystemPLLInClockRate();
 259:../../lpc_chip_11cxx_lib/src/clock_11xx.c **** 		break;
 260:../../lpc_chip_11cxx_lib/src/clock_11xx.c **** 
 261:../../lpc_chip_11cxx_lib/src/clock_11xx.c **** #if defined(CHIP_LPC11AXX)
 262:../../lpc_chip_11cxx_lib/src/clock_11xx.c **** 	case SYSCTL_MAINCLKSRC_LFOSC:
 263:../../lpc_chip_11cxx_lib/src/clock_11xx.c **** 		clkRate = Chip_Clock_GetLFOOSCRate();
 264:../../lpc_chip_11cxx_lib/src/clock_11xx.c **** 		break;
 265:../../lpc_chip_11cxx_lib/src/clock_11xx.c **** 
 266:../../lpc_chip_11cxx_lib/src/clock_11xx.c **** #else
 267:../../lpc_chip_11cxx_lib/src/clock_11xx.c **** 	case SYSCTL_MAINCLKSRC_WDTOSC:
 268:../../lpc_chip_11cxx_lib/src/clock_11xx.c **** 		clkRate = Chip_Clock_GetWDTOSCRate();
 269:../../lpc_chip_11cxx_lib/src/clock_11xx.c **** 		break;
 270:../../lpc_chip_11cxx_lib/src/clock_11xx.c **** #endif
 271:../../lpc_chip_11cxx_lib/src/clock_11xx.c **** 
 272:../../lpc_chip_11cxx_lib/src/clock_11xx.c **** 	case SYSCTL_MAINCLKSRC_PLLOUT:
 273:../../lpc_chip_11cxx_lib/src/clock_11xx.c **** 		clkRate = Chip_Clock_GetSystemPLLOutClockRate();
 274:../../lpc_chip_11cxx_lib/src/clock_11xx.c **** 		break;
 275:../../lpc_chip_11cxx_lib/src/clock_11xx.c **** 	}
 276:../../lpc_chip_11cxx_lib/src/clock_11xx.c **** 
 277:../../lpc_chip_11cxx_lib/src/clock_11xx.c **** 	return clkRate;
 278:../../lpc_chip_11cxx_lib/src/clock_11xx.c **** }
 446              		.loc 1 278 0
 447              		@ sp needed	@
 448 0018 08BD     		pop	{r3, pc}
 449              	.LVL18:
ARM GAS  /var/folders/f9/8bk2lnw15zn4cbgn6wrnb4lm0000gn/T//cctFUD59.s 			page 22


 450              	.L51:
 451              	.LBB36:
 452              	.LBB37:
 187:../../lpc_chip_11cxx_lib/src/clock_11xx.c **** 	switch ((CHIP_SYSCTL_PLLCLKSRC_T) (LPC_SYSCTL->SYSPLLCLKSEL & 0x3)) {
 453              		.loc 1 187 0
 454 001a 136C     		ldr	r3, [r2, #64]	@ D.6254, MEM[(struct LPC_SYSCTL_T *)1074036736B].SYSPLLCLKSEL
 455 001c 1940     		and	r1, r3	@ D.6255, D.6254
 456 001e FAD0     		beq	.L49	@,
 457 0020 0129     		cmp	r1, #1	@ D.6255,
 458 0022 12D1     		bne	.L52	@,
 459              	.LBB38:
 460              	.LBB39:
 461              		.loc 2 458 0
 462 0024 0C4B     		ldr	r3, .L53+8	@ tmp139,
 463 0026 1868     		ldr	r0, [r3]	@ clkRate, OscRateIn
 464 0028 F6E7     		b	.L41	@
 465              	.L43:
 466              	.LBE39:
 467              	.LBE38:
 468              	.LBE37:
 469              	.LBE36:
 273:../../lpc_chip_11cxx_lib/src/clock_11xx.c **** 		clkRate = Chip_Clock_GetSystemPLLOutClockRate();
 470              		.loc 1 273 0
 471 002a FFF7FEFF 		bl	Chip_Clock_GetSystemPLLOutClockRate	@
 472              	.LVL19:
 274:../../lpc_chip_11cxx_lib/src/clock_11xx.c **** 		break;
 473              		.loc 1 274 0
 474 002e F3E7     		b	.L41	@
 475              	.LVL20:
 476              	.L42:
 477              	.LBB41:
 478              	.LBB42:
 170:../../lpc_chip_11cxx_lib/src/clock_11xx.c **** 	return Chip_Clock_GetWDTLFORate(LPC_SYSCTL->WDTOSCCTRL);
 479              		.loc 1 170 0
 480 0030 536A     		ldr	r3, [r2, #36]	@ D.6254, MEM[(struct LPC_SYSCTL_T *)1074036736B].WDTOSCCTRL
 481              	.LVL21:
 482              	.LBB43:
 483              	.LBB44:
  71:../../lpc_chip_11cxx_lib/src/clock_11xx.c **** 	div = reg & 0x1F;
 484              		.loc 1 71 0
 485 0032 1F21     		mov	r1, #31	@ tmp150,
  70:../../lpc_chip_11cxx_lib/src/clock_11xx.c **** 	clk = (CHIP_WDTLFO_OSC_T) ((reg >> 5) & 0xF);
 486              		.loc 1 70 0
 487 0034 DA05     		lsl	r2, r3, #23	@ tmp147, D.6254,
  71:../../lpc_chip_11cxx_lib/src/clock_11xx.c **** 	div = reg & 0x1F;
 488              		.loc 1 71 0
 489 0036 0B40     		and	r3, r1	@ div, tmp150
 490              	.LVL22:
  74:../../lpc_chip_11cxx_lib/src/clock_11xx.c **** 	return wdtOSCRate[clk] / ((div + 1) << 1);
 491              		.loc 1 74 0
 492 0038 591C     		add	r1, r3, #1	@ D.6254, div,
 493 003a 120F     		lsr	r2, r2, #28	@ D.6255, tmp147,
 494 003c 074B     		ldr	r3, .L53+12	@ tmp141,
 495              	.LVL23:
 496 003e 9200     		lsl	r2, r2, #2	@ tmp149, D.6255,
 497 0040 4900     		lsl	r1, r1, #1	@ D.6254, D.6254,
 498              	.LVL24:
ARM GAS  /var/folders/f9/8bk2lnw15zn4cbgn6wrnb4lm0000gn/T//cctFUD59.s 			page 23


 499 0042 D058     		ldr	r0, [r2, r3]	@, wdtOSCRate
 500 0044 FFF7FEFF 		bl	__aeabi_uidiv	@
 501              	.LVL25:
 502              	.LBE44:
 503              	.LBE43:
 504              	.LBE42:
 505              	.LBE41:
 269:../../lpc_chip_11cxx_lib/src/clock_11xx.c **** 		break;
 506              		.loc 1 269 0
 507 0048 E6E7     		b	.L41	@
 508              	.LVL26:
 509              	.L52:
 510              	.LBB45:
 511              	.LBB40:
 203:../../lpc_chip_11cxx_lib/src/clock_11xx.c **** 		clkRate = 0;
 512              		.loc 1 203 0
 513 004a 0020     		mov	r0, #0	@ clkRate,
 514 004c E4E7     		b	.L41	@
 515              	.L54:
 516 004e C046     		.align	2
 517              	.L53:
 518 0050 00800440 		.word	1074036736
 519 0054 001BB700 		.word	12000000
 520 0058 00000000 		.word	OscRateIn
 521 005c 00000000 		.word	.LANCHOR0
 522              	.LBE40:
 523              	.LBE45:
 524              		.cfi_endproc
 525              	.LFE208:
 526              		.size	Chip_Clock_GetMainClockRate, .-Chip_Clock_GetMainClockRate
 527              		.section	.text.Chip_Clock_GetSystemClockRate,"ax",%progbits
 528              		.align	2
 529              		.global	Chip_Clock_GetSystemClockRate
 530              		.code	16
 531              		.thumb_func
 532              		.type	Chip_Clock_GetSystemClockRate, %function
 533              	Chip_Clock_GetSystemClockRate:
 534              	.LFB209:
 279:../../lpc_chip_11cxx_lib/src/clock_11xx.c **** 
 280:../../lpc_chip_11cxx_lib/src/clock_11xx.c **** /* Return system clock rate */
 281:../../lpc_chip_11cxx_lib/src/clock_11xx.c **** uint32_t Chip_Clock_GetSystemClockRate(void)
 282:../../lpc_chip_11cxx_lib/src/clock_11xx.c **** {
 535              		.loc 1 282 0
 536              		.cfi_startproc
 537 0000 08B5     		push	{r3, lr}	@
 538              		.cfi_def_cfa_offset 8
 539              		.cfi_offset 3, -8
 540              		.cfi_offset 14, -4
 283:../../lpc_chip_11cxx_lib/src/clock_11xx.c **** 	/* No point in checking for divide by 0 */
 284:../../lpc_chip_11cxx_lib/src/clock_11xx.c **** 	return Chip_Clock_GetMainClockRate() / LPC_SYSCTL->SYSAHBCLKDIV;
 541              		.loc 1 284 0
 542 0002 FFF7FEFF 		bl	Chip_Clock_GetMainClockRate	@
 543              	.LVL27:
 544 0006 024B     		ldr	r3, .L56	@ tmp114,
 285:../../lpc_chip_11cxx_lib/src/clock_11xx.c **** }
 545              		.loc 1 285 0
 546              		@ sp needed	@
ARM GAS  /var/folders/f9/8bk2lnw15zn4cbgn6wrnb4lm0000gn/T//cctFUD59.s 			page 24


 284:../../lpc_chip_11cxx_lib/src/clock_11xx.c **** 	return Chip_Clock_GetMainClockRate() / LPC_SYSCTL->SYSAHBCLKDIV;
 547              		.loc 1 284 0
 548 0008 996F     		ldr	r1, [r3, #120]	@ D.6260, MEM[(struct LPC_SYSCTL_T *)1074036736B].SYSAHBCLKDIV
 549 000a FFF7FEFF 		bl	__aeabi_uidiv	@
 550              	.LVL28:
 551              		.loc 1 285 0
 552 000e 08BD     		pop	{r3, pc}
 553              	.L57:
 554              		.align	2
 555              	.L56:
 556 0010 00800440 		.word	1074036736
 557              		.cfi_endproc
 558              	.LFE209:
 559              		.size	Chip_Clock_GetSystemClockRate, .-Chip_Clock_GetSystemClockRate
 560              		.section	.rodata.wdtOSCRate,"a",%progbits
 561              		.align	2
 562              		.set	.LANCHOR0,. + 0
 563              		.type	wdtOSCRate, %object
 564              		.size	wdtOSCRate, 64
 565              	wdtOSCRate:
 566 0000 00000000 		.word	0
 567 0004 C0270900 		.word	600000
 568 0008 90051000 		.word	1050000
 569 000c C05C1500 		.word	1400000
 570 0010 F0B31A00 		.word	1750000
 571 0014 200B2000 		.word	2100000
 572 0018 009F2400 		.word	2400000
 573 001c E0322900 		.word	2700000
 574 0020 C0C62D00 		.word	3000000
 575 0024 50973100 		.word	3250000
 576 0028 E0673500 		.word	3500000
 577 002c 70383900 		.word	3750000
 578 0030 00093D00 		.word	4000000
 579 0034 40164000 		.word	4200000
 580 0038 80234300 		.word	4400000
 581 003c C0304600 		.word	4600000
 582              		.text
 583              	.Letext0:
 584              		.file 3 "/usr/local/Cellar/gcc-arm-none-eabi/20140805/arm-none-eabi/include/machine/_default_types
 585              		.file 4 "/usr/local/Cellar/gcc-arm-none-eabi/20140805/arm-none-eabi/include/stdint.h"
 586              		.file 5 "../../lpc_chip_11cxx_lib/inc/sysctl_11xx.h"
 587              		.file 6 "../../lpc_chip_11cxx_lib/inc/chip.h"