ARM GAS  /var/folders/f9/8bk2lnw15zn4cbgn6wrnb4lm0000gn/T//cc47W8rL.s 			page 1


   1              		.cpu cortex-m0
   2              		.fpu softvfp
   3              		.eabi_attribute 20, 1	@ Tag_ABI_FP_denormal
   4              		.eabi_attribute 21, 1	@ Tag_ABI_FP_exceptions
   5              		.eabi_attribute 23, 3	@ Tag_ABI_FP_number_model
   6              		.eabi_attribute 24, 1	@ Tag_ABI_align8_needed
   7              		.eabi_attribute 25, 1	@ Tag_ABI_align8_preserved
   8              		.eabi_attribute 26, 1	@ Tag_ABI_enum_size
   9              		.eabi_attribute 30, 2	@ Tag_ABI_optimization_goals
  10              		.eabi_attribute 34, 0	@ Tag_CPU_unaligned_access
  11              		.eabi_attribute 18, 4	@ Tag_ABI_PCS_wchar_t
  12              		.file	"i2c_11xx.c"
  13              	@ GNU C (GNU Tools for ARM Embedded Processors) version 4.8.4 20140725 (release) [ARM/embedded-4_8-
  14              	@	compiled by GNU C version 4.2.1 (Based on Apple Inc. build 5658) (LLVM build 2336.9.00), GMP vers
  15              	@ GGC heuristics: --param ggc-min-expand=100 --param ggc-min-heapsize=131072
  16              	@ options passed:  -I . -I ../../lpc_chip_11cxx_lib/inc
  17              	@ -I ../../evt_lib/inc -imultilib armv6-m
  18              	@ -iprefix /usr/local/Cellar/gcc-arm-none-eabi/20140805/bin/../lib/gcc/arm-none-eabi/4.8.4/
  19              	@ -isysroot /usr/local/Cellar/gcc-arm-none-eabi/20140805/bin/../arm-none-eabi
  20              	@ -MD bin/i2c_11xx.d -MF bin/i2c_11xx.d -MP -MQ bin/i2c_11xx.o
  21              	@ -D__USES_INITFINI__ -D CORE_M0 ../../lpc_chip_11cxx_lib/src/i2c_11xx.c
  22              	@ -mcpu=cortex-m0 -mthumb -auxbase-strip bin/i2c_11xx.o -g -ggdb3 -O2 -Wall
  23              	@ -Wstrict-prototypes -Wextra -std=gnu90 -ffunction-sections
  24              	@ -fdata-sections -fverbose-asm
  25              	@ options enabled:  -faggressive-loop-optimizations -fauto-inc-dec
  26              	@ -fbranch-count-reg -fcaller-saves -fcombine-stack-adjustments -fcommon
  27              	@ -fcompare-elim -fcprop-registers -fcrossjumping -fcse-follow-jumps
  28              	@ -fdata-sections -fdefer-pop -fdelete-null-pointer-checks -fdevirtualize
  29              	@ -fdwarf2-cfi-asm -fearly-inlining -feliminate-unused-debug-types
  30              	@ -fexpensive-optimizations -fforward-propagate -ffunction-cse
  31              	@ -ffunction-sections -fgcse -fgcse-lm -fgnu-runtime -fgnu-unique
  32              	@ -fguess-branch-probability -fhoist-adjacent-loads -fident -fif-conversion
  33              	@ -fif-conversion2 -findirect-inlining -finline -finline-atomics
  34              	@ -finline-functions-called-once -finline-small-functions -fipa-cp
  35              	@ -fipa-profile -fipa-pure-const -fipa-reference -fipa-sra
  36              	@ -fira-hoist-pressure -fira-share-save-slots -fira-share-spill-slots
  37              	@ -fivopts -fkeep-static-consts -fleading-underscore -fmath-errno
  38              	@ -fmerge-constants -fmerge-debug-strings -fmove-loop-invariants
  39              	@ -fomit-frame-pointer -foptimize-register-move -foptimize-sibling-calls
  40              	@ -foptimize-strlen -fpartial-inlining -fpeephole -fpeephole2
  41              	@ -fprefetch-loop-arrays -freg-struct-return -fregmove -freorder-blocks
  42              	@ -freorder-functions -frerun-cse-after-loop
  43              	@ -fsched-critical-path-heuristic -fsched-dep-count-heuristic
  44              	@ -fsched-group-heuristic -fsched-interblock -fsched-last-insn-heuristic
  45              	@ -fsched-pressure -fsched-rank-heuristic -fsched-spec
  46              	@ -fsched-spec-insn-heuristic -fsched-stalled-insns-dep -fschedule-insns2
  47              	@ -fsection-anchors -fshow-column -fshrink-wrap -fsigned-zeros
  48              	@ -fsplit-ivs-in-unroller -fsplit-wide-types -fstrict-aliasing
  49              	@ -fstrict-overflow -fstrict-volatile-bitfields -fsync-libcalls
  50              	@ -fthread-jumps -ftoplevel-reorder -ftrapping-math -ftree-bit-ccp
  51              	@ -ftree-builtin-call-dce -ftree-ccp -ftree-ch -ftree-coalesce-vars
  52              	@ -ftree-copy-prop -ftree-copyrename -ftree-cselim -ftree-dce
  53              	@ -ftree-dominator-opts -ftree-dse -ftree-forwprop -ftree-fre
  54              	@ -ftree-loop-if-convert -ftree-loop-im -ftree-loop-ivcanon
  55              	@ -ftree-loop-optimize -ftree-parallelize-loops= -ftree-phiprop -ftree-pre
  56              	@ -ftree-pta -ftree-reassoc -ftree-scev-cprop -ftree-sink
  57              	@ -ftree-slp-vectorize -ftree-slsr -ftree-sra -ftree-switch-conversion
ARM GAS  /var/folders/f9/8bk2lnw15zn4cbgn6wrnb4lm0000gn/T//cc47W8rL.s 			page 2


  58              	@ -ftree-tail-merge -ftree-ter -ftree-vect-loop-version -ftree-vrp
  59              	@ -funit-at-a-time -fvar-tracking -fvar-tracking-assignments -fverbose-asm
  60              	@ -fzero-initialized-in-bss -mlittle-endian -mpic-data-is-text-relative
  61              	@ -msched-prolog -mthumb -mvectorize-with-neon-quad
  62              	
  63              		.text
  64              	.Ltext0:
  65              		.cfi_sections	.debug_frame
  66              		.section	.text.Chip_I2C_EventHandler,"ax",%progbits
  67              		.align	2
  68              		.global	Chip_I2C_EventHandler
  69              		.code	16
  70              		.thumb_func
  71              		.type	Chip_I2C_EventHandler, %function
  72              	Chip_I2C_EventHandler:
  73              	.LFB212:
  74              		.file 1 "../../lpc_chip_11cxx_lib/src/i2c_11xx.c"
   1:../../lpc_chip_11cxx_lib/src/i2c_11xx.c **** /*
   2:../../lpc_chip_11cxx_lib/src/i2c_11xx.c ****  * @brief LPC11xx I2C driver
   3:../../lpc_chip_11cxx_lib/src/i2c_11xx.c ****  *
   4:../../lpc_chip_11cxx_lib/src/i2c_11xx.c ****  * @note
   5:../../lpc_chip_11cxx_lib/src/i2c_11xx.c ****  * Copyright(C) NXP Semiconductors, 2012
   6:../../lpc_chip_11cxx_lib/src/i2c_11xx.c ****  * All rights reserved.
   7:../../lpc_chip_11cxx_lib/src/i2c_11xx.c ****  *
   8:../../lpc_chip_11cxx_lib/src/i2c_11xx.c ****  * @par
   9:../../lpc_chip_11cxx_lib/src/i2c_11xx.c ****  * Software that is described herein is for illustrative purposes only
  10:../../lpc_chip_11cxx_lib/src/i2c_11xx.c ****  * which provides customers with programming information regarding the
  11:../../lpc_chip_11cxx_lib/src/i2c_11xx.c ****  * LPC products.  This software is supplied "AS IS" without any warranties of
  12:../../lpc_chip_11cxx_lib/src/i2c_11xx.c ****  * any kind, and NXP Semiconductors and its licensor disclaim any and
  13:../../lpc_chip_11cxx_lib/src/i2c_11xx.c ****  * all warranties, express or implied, including all implied warranties of
  14:../../lpc_chip_11cxx_lib/src/i2c_11xx.c ****  * merchantability, fitness for a particular purpose and non-infringement of
  15:../../lpc_chip_11cxx_lib/src/i2c_11xx.c ****  * intellectual property rights.  NXP Semiconductors assumes no responsibility
  16:../../lpc_chip_11cxx_lib/src/i2c_11xx.c ****  * or liability for the use of the software, conveys no license or rights under any
  17:../../lpc_chip_11cxx_lib/src/i2c_11xx.c ****  * patent, copyright, mask work right, or any other intellectual property rights in
  18:../../lpc_chip_11cxx_lib/src/i2c_11xx.c ****  * or to any products. NXP Semiconductors reserves the right to make changes
  19:../../lpc_chip_11cxx_lib/src/i2c_11xx.c ****  * in the software without notification. NXP Semiconductors also makes no
  20:../../lpc_chip_11cxx_lib/src/i2c_11xx.c ****  * representation or warranty that such application will be suitable for the
  21:../../lpc_chip_11cxx_lib/src/i2c_11xx.c ****  * specified use without further testing or modification.
  22:../../lpc_chip_11cxx_lib/src/i2c_11xx.c ****  *
  23:../../lpc_chip_11cxx_lib/src/i2c_11xx.c ****  * @par
  24:../../lpc_chip_11cxx_lib/src/i2c_11xx.c ****  * Permission to use, copy, modify, and distribute this software and its
  25:../../lpc_chip_11cxx_lib/src/i2c_11xx.c ****  * documentation is hereby granted, under NXP Semiconductors' and its
  26:../../lpc_chip_11cxx_lib/src/i2c_11xx.c ****  * licensor's relevant copyrights in the software, without fee, provided that it
  27:../../lpc_chip_11cxx_lib/src/i2c_11xx.c ****  * is used in conjunction with NXP Semiconductors microcontrollers.  This
  28:../../lpc_chip_11cxx_lib/src/i2c_11xx.c ****  * copyright, permission, and disclaimer notice must appear in all copies of
  29:../../lpc_chip_11cxx_lib/src/i2c_11xx.c ****  * this code.
  30:../../lpc_chip_11cxx_lib/src/i2c_11xx.c ****  */
  31:../../lpc_chip_11cxx_lib/src/i2c_11xx.c **** 
  32:../../lpc_chip_11cxx_lib/src/i2c_11xx.c **** #include "chip.h"
  33:../../lpc_chip_11cxx_lib/src/i2c_11xx.c **** 
  34:../../lpc_chip_11cxx_lib/src/i2c_11xx.c **** #if !defined(CHIP_LPC110X)
  35:../../lpc_chip_11cxx_lib/src/i2c_11xx.c **** 
  36:../../lpc_chip_11cxx_lib/src/i2c_11xx.c **** /*****************************************************************************
  37:../../lpc_chip_11cxx_lib/src/i2c_11xx.c ****  * Private types/enumerations/variables
  38:../../lpc_chip_11cxx_lib/src/i2c_11xx.c ****  ****************************************************************************/
  39:../../lpc_chip_11cxx_lib/src/i2c_11xx.c **** 
  40:../../lpc_chip_11cxx_lib/src/i2c_11xx.c **** /* Control flags */
ARM GAS  /var/folders/f9/8bk2lnw15zn4cbgn6wrnb4lm0000gn/T//cc47W8rL.s 			page 3


  41:../../lpc_chip_11cxx_lib/src/i2c_11xx.c **** #define I2C_CON_FLAGS (I2C_CON_AA | I2C_CON_SI | I2C_CON_STO | I2C_CON_STA)
  42:../../lpc_chip_11cxx_lib/src/i2c_11xx.c **** #define LPC_I2Cx(id)      ((i2c[id].ip))
  43:../../lpc_chip_11cxx_lib/src/i2c_11xx.c **** #define SLAVE_ACTIVE(iic) (((iic)->flags & 0xFF00) != 0)
  44:../../lpc_chip_11cxx_lib/src/i2c_11xx.c **** 
  45:../../lpc_chip_11cxx_lib/src/i2c_11xx.c **** /* I2C common interface structure */
  46:../../lpc_chip_11cxx_lib/src/i2c_11xx.c **** struct i2c_interface {
  47:../../lpc_chip_11cxx_lib/src/i2c_11xx.c **** 	LPC_I2C_T *ip;		/* IP base address of the I2C device */
  48:../../lpc_chip_11cxx_lib/src/i2c_11xx.c **** 	CHIP_SYSCTL_CLOCK_T clk;	/* Clock used by I2C */
  49:../../lpc_chip_11cxx_lib/src/i2c_11xx.c **** 	I2C_EVENTHANDLER_T mEvent;	/* Current active Master event handler */
  50:../../lpc_chip_11cxx_lib/src/i2c_11xx.c **** 	I2C_EVENTHANDLER_T sEvent;	/* Slave transfer events */
  51:../../lpc_chip_11cxx_lib/src/i2c_11xx.c **** 	I2C_XFER_T *mXfer;	/* Current active xfer pointer */
  52:../../lpc_chip_11cxx_lib/src/i2c_11xx.c **** 	I2C_XFER_T *sXfer;	/* Pointer to store xfer when bus is busy */
  53:../../lpc_chip_11cxx_lib/src/i2c_11xx.c **** 	uint32_t flags;		/* Flags used by I2C master and slave */
  54:../../lpc_chip_11cxx_lib/src/i2c_11xx.c **** };
  55:../../lpc_chip_11cxx_lib/src/i2c_11xx.c **** 
  56:../../lpc_chip_11cxx_lib/src/i2c_11xx.c **** /* Slave interface structure */
  57:../../lpc_chip_11cxx_lib/src/i2c_11xx.c **** struct i2c_slave_interface {
  58:../../lpc_chip_11cxx_lib/src/i2c_11xx.c **** 	I2C_XFER_T *xfer;
  59:../../lpc_chip_11cxx_lib/src/i2c_11xx.c **** 	I2C_EVENTHANDLER_T event;
  60:../../lpc_chip_11cxx_lib/src/i2c_11xx.c **** };
  61:../../lpc_chip_11cxx_lib/src/i2c_11xx.c **** 
  62:../../lpc_chip_11cxx_lib/src/i2c_11xx.c **** /* I2C interfaces */
  63:../../lpc_chip_11cxx_lib/src/i2c_11xx.c **** static struct i2c_interface i2c[I2C_NUM_INTERFACE] = {
  64:../../lpc_chip_11cxx_lib/src/i2c_11xx.c **** 	{LPC_I2C, SYSCTL_CLOCK_I2C, Chip_I2C_EventHandler, NULL, NULL, NULL, 0}
  65:../../lpc_chip_11cxx_lib/src/i2c_11xx.c **** };
  66:../../lpc_chip_11cxx_lib/src/i2c_11xx.c **** 
  67:../../lpc_chip_11cxx_lib/src/i2c_11xx.c **** static struct i2c_slave_interface i2c_slave[I2C_NUM_INTERFACE][I2C_SLAVE_NUM_INTERFACE];
  68:../../lpc_chip_11cxx_lib/src/i2c_11xx.c **** 
  69:../../lpc_chip_11cxx_lib/src/i2c_11xx.c **** /*****************************************************************************
  70:../../lpc_chip_11cxx_lib/src/i2c_11xx.c ****  * Public types/enumerations/variables
  71:../../lpc_chip_11cxx_lib/src/i2c_11xx.c ****  ****************************************************************************/
  72:../../lpc_chip_11cxx_lib/src/i2c_11xx.c **** 
  73:../../lpc_chip_11cxx_lib/src/i2c_11xx.c **** /*****************************************************************************
  74:../../lpc_chip_11cxx_lib/src/i2c_11xx.c ****  * Private functions
  75:../../lpc_chip_11cxx_lib/src/i2c_11xx.c ****  ****************************************************************************/
  76:../../lpc_chip_11cxx_lib/src/i2c_11xx.c ****  
  77:../../lpc_chip_11cxx_lib/src/i2c_11xx.c **** STATIC INLINE void enableClk(I2C_ID_T id)
  78:../../lpc_chip_11cxx_lib/src/i2c_11xx.c **** {
  79:../../lpc_chip_11cxx_lib/src/i2c_11xx.c **** 	Chip_Clock_EnablePeriphClock(i2c[id].clk);
  80:../../lpc_chip_11cxx_lib/src/i2c_11xx.c **** }
  81:../../lpc_chip_11cxx_lib/src/i2c_11xx.c **** 
  82:../../lpc_chip_11cxx_lib/src/i2c_11xx.c **** STATIC INLINE void disableClk(I2C_ID_T id)
  83:../../lpc_chip_11cxx_lib/src/i2c_11xx.c **** {
  84:../../lpc_chip_11cxx_lib/src/i2c_11xx.c **** 	Chip_Clock_DisablePeriphClock(i2c[id].clk);
  85:../../lpc_chip_11cxx_lib/src/i2c_11xx.c **** }
  86:../../lpc_chip_11cxx_lib/src/i2c_11xx.c **** 
  87:../../lpc_chip_11cxx_lib/src/i2c_11xx.c **** /* Get the ADC Clock Rate */
  88:../../lpc_chip_11cxx_lib/src/i2c_11xx.c **** STATIC INLINE uint32_t getClkRate(void)
  89:../../lpc_chip_11cxx_lib/src/i2c_11xx.c **** {
  90:../../lpc_chip_11cxx_lib/src/i2c_11xx.c **** 	return Chip_Clock_GetMainClockRate();
  91:../../lpc_chip_11cxx_lib/src/i2c_11xx.c **** }
  92:../../lpc_chip_11cxx_lib/src/i2c_11xx.c **** 
  93:../../lpc_chip_11cxx_lib/src/i2c_11xx.c **** /* Enable I2C and start master transfer */
  94:../../lpc_chip_11cxx_lib/src/i2c_11xx.c **** STATIC INLINE void startMasterXfer(LPC_I2C_T *pI2C)
  95:../../lpc_chip_11cxx_lib/src/i2c_11xx.c **** {
  96:../../lpc_chip_11cxx_lib/src/i2c_11xx.c **** 	/* Reset STA, STO, SI */
  97:../../lpc_chip_11cxx_lib/src/i2c_11xx.c **** 	pI2C->CONCLR = I2C_CON_SI | I2C_CON_STO | I2C_CON_STA | I2C_CON_AA;
ARM GAS  /var/folders/f9/8bk2lnw15zn4cbgn6wrnb4lm0000gn/T//cc47W8rL.s 			page 4


  98:../../lpc_chip_11cxx_lib/src/i2c_11xx.c **** 
  99:../../lpc_chip_11cxx_lib/src/i2c_11xx.c **** 	/* Enter to Master Transmitter mode */
 100:../../lpc_chip_11cxx_lib/src/i2c_11xx.c **** 	pI2C->CONSET = I2C_CON_I2EN | I2C_CON_STA;
 101:../../lpc_chip_11cxx_lib/src/i2c_11xx.c **** }
 102:../../lpc_chip_11cxx_lib/src/i2c_11xx.c **** 
 103:../../lpc_chip_11cxx_lib/src/i2c_11xx.c **** /* Enable I2C and enable slave transfers */
 104:../../lpc_chip_11cxx_lib/src/i2c_11xx.c **** STATIC INLINE void startSlaverXfer(LPC_I2C_T *pI2C)
 105:../../lpc_chip_11cxx_lib/src/i2c_11xx.c **** {
 106:../../lpc_chip_11cxx_lib/src/i2c_11xx.c **** 	/* Reset STA, STO, SI */
 107:../../lpc_chip_11cxx_lib/src/i2c_11xx.c **** 	pI2C->CONCLR = I2C_CON_SI | I2C_CON_STO | I2C_CON_STA;
 108:../../lpc_chip_11cxx_lib/src/i2c_11xx.c **** 
 109:../../lpc_chip_11cxx_lib/src/i2c_11xx.c **** 	/* Enter to Master Transmitter mode */
 110:../../lpc_chip_11cxx_lib/src/i2c_11xx.c **** 	pI2C->CONSET = I2C_CON_I2EN | I2C_CON_AA;
 111:../../lpc_chip_11cxx_lib/src/i2c_11xx.c **** }
 112:../../lpc_chip_11cxx_lib/src/i2c_11xx.c **** 
 113:../../lpc_chip_11cxx_lib/src/i2c_11xx.c **** /* Check if I2C bus is free */
 114:../../lpc_chip_11cxx_lib/src/i2c_11xx.c **** STATIC INLINE int isI2CBusFree(LPC_I2C_T *pI2C)
 115:../../lpc_chip_11cxx_lib/src/i2c_11xx.c **** {
 116:../../lpc_chip_11cxx_lib/src/i2c_11xx.c **** 	return !(pI2C->CONSET & I2C_CON_STO);
 117:../../lpc_chip_11cxx_lib/src/i2c_11xx.c **** }
 118:../../lpc_chip_11cxx_lib/src/i2c_11xx.c **** 
 119:../../lpc_chip_11cxx_lib/src/i2c_11xx.c **** /* Get current state of the I2C peripheral */
 120:../../lpc_chip_11cxx_lib/src/i2c_11xx.c **** STATIC INLINE int getCurState(LPC_I2C_T *pI2C)
 121:../../lpc_chip_11cxx_lib/src/i2c_11xx.c **** {
 122:../../lpc_chip_11cxx_lib/src/i2c_11xx.c **** 	return (int) (pI2C->STAT & I2C_STAT_CODE_BITMASK);
 123:../../lpc_chip_11cxx_lib/src/i2c_11xx.c **** }
 124:../../lpc_chip_11cxx_lib/src/i2c_11xx.c **** 
 125:../../lpc_chip_11cxx_lib/src/i2c_11xx.c **** /* Check if the active state belongs to master mode*/
 126:../../lpc_chip_11cxx_lib/src/i2c_11xx.c **** STATIC INLINE int isMasterState(LPC_I2C_T *pI2C)
 127:../../lpc_chip_11cxx_lib/src/i2c_11xx.c **** {
 128:../../lpc_chip_11cxx_lib/src/i2c_11xx.c **** 	return getCurState(pI2C) < 0x60;
 129:../../lpc_chip_11cxx_lib/src/i2c_11xx.c **** }
 130:../../lpc_chip_11cxx_lib/src/i2c_11xx.c **** 
 131:../../lpc_chip_11cxx_lib/src/i2c_11xx.c **** /* Set OWN slave address for specific slave ID */
 132:../../lpc_chip_11cxx_lib/src/i2c_11xx.c **** STATIC void setSlaveAddr(LPC_I2C_T *pI2C, I2C_SLAVE_ID sid, uint8_t addr, uint8_t mask)
 133:../../lpc_chip_11cxx_lib/src/i2c_11xx.c **** {
 134:../../lpc_chip_11cxx_lib/src/i2c_11xx.c **** 	uint32_t index = (uint32_t) sid - 1;
 135:../../lpc_chip_11cxx_lib/src/i2c_11xx.c **** 	pI2C->MASK[index] = mask;
 136:../../lpc_chip_11cxx_lib/src/i2c_11xx.c **** 	if (sid == I2C_SLAVE_0) {
 137:../../lpc_chip_11cxx_lib/src/i2c_11xx.c **** 		pI2C->ADR0 = addr;
 138:../../lpc_chip_11cxx_lib/src/i2c_11xx.c **** 	}
 139:../../lpc_chip_11cxx_lib/src/i2c_11xx.c **** 	else {
 140:../../lpc_chip_11cxx_lib/src/i2c_11xx.c **** 		volatile uint32_t *abase = &pI2C->ADR1;
 141:../../lpc_chip_11cxx_lib/src/i2c_11xx.c **** 		abase[index - 1] = addr;
 142:../../lpc_chip_11cxx_lib/src/i2c_11xx.c **** 	}
 143:../../lpc_chip_11cxx_lib/src/i2c_11xx.c **** }
 144:../../lpc_chip_11cxx_lib/src/i2c_11xx.c **** 
 145:../../lpc_chip_11cxx_lib/src/i2c_11xx.c **** /* Match the slave address */
 146:../../lpc_chip_11cxx_lib/src/i2c_11xx.c **** STATIC int isSlaveAddrMatching(uint8_t addr1, uint8_t addr2, uint8_t mask)
 147:../../lpc_chip_11cxx_lib/src/i2c_11xx.c **** {
 148:../../lpc_chip_11cxx_lib/src/i2c_11xx.c **** 	mask |= 1;
 149:../../lpc_chip_11cxx_lib/src/i2c_11xx.c **** 	return (addr1 & ~mask) == (addr2 & ~mask);
 150:../../lpc_chip_11cxx_lib/src/i2c_11xx.c **** }
 151:../../lpc_chip_11cxx_lib/src/i2c_11xx.c **** 
 152:../../lpc_chip_11cxx_lib/src/i2c_11xx.c **** /* Get the index of the active slave */
 153:../../lpc_chip_11cxx_lib/src/i2c_11xx.c **** STATIC I2C_SLAVE_ID lookupSlaveIndex(LPC_I2C_T *pI2C, uint8_t slaveAddr)
 154:../../lpc_chip_11cxx_lib/src/i2c_11xx.c **** {
ARM GAS  /var/folders/f9/8bk2lnw15zn4cbgn6wrnb4lm0000gn/T//cc47W8rL.s 			page 5


 155:../../lpc_chip_11cxx_lib/src/i2c_11xx.c **** 	if (!(slaveAddr >> 1)) {
 156:../../lpc_chip_11cxx_lib/src/i2c_11xx.c **** 		return I2C_SLAVE_GENERAL;					/* General call address */
 157:../../lpc_chip_11cxx_lib/src/i2c_11xx.c **** 	}
 158:../../lpc_chip_11cxx_lib/src/i2c_11xx.c **** 	if (isSlaveAddrMatching(pI2C->ADR0, slaveAddr, pI2C->MASK[0])) {
 159:../../lpc_chip_11cxx_lib/src/i2c_11xx.c **** 		return I2C_SLAVE_0;
 160:../../lpc_chip_11cxx_lib/src/i2c_11xx.c **** 	}
 161:../../lpc_chip_11cxx_lib/src/i2c_11xx.c **** 	if (isSlaveAddrMatching(pI2C->ADR1, slaveAddr, pI2C->MASK[1])) {
 162:../../lpc_chip_11cxx_lib/src/i2c_11xx.c **** 		return I2C_SLAVE_1;
 163:../../lpc_chip_11cxx_lib/src/i2c_11xx.c **** 	}
 164:../../lpc_chip_11cxx_lib/src/i2c_11xx.c **** 	if (isSlaveAddrMatching(pI2C->ADR2, slaveAddr, pI2C->MASK[2])) {
 165:../../lpc_chip_11cxx_lib/src/i2c_11xx.c **** 		return I2C_SLAVE_2;
 166:../../lpc_chip_11cxx_lib/src/i2c_11xx.c **** 	}
 167:../../lpc_chip_11cxx_lib/src/i2c_11xx.c **** 	if (isSlaveAddrMatching(pI2C->ADR3, slaveAddr, pI2C->MASK[3])) {
 168:../../lpc_chip_11cxx_lib/src/i2c_11xx.c **** 		return I2C_SLAVE_3;
 169:../../lpc_chip_11cxx_lib/src/i2c_11xx.c **** 	}
 170:../../lpc_chip_11cxx_lib/src/i2c_11xx.c **** 
 171:../../lpc_chip_11cxx_lib/src/i2c_11xx.c **** 	/* If everything is fine the code should never come here */
 172:../../lpc_chip_11cxx_lib/src/i2c_11xx.c **** 	return I2C_SLAVE_GENERAL;
 173:../../lpc_chip_11cxx_lib/src/i2c_11xx.c **** }
 174:../../lpc_chip_11cxx_lib/src/i2c_11xx.c **** 
 175:../../lpc_chip_11cxx_lib/src/i2c_11xx.c **** /* Master transfer state change handler handler */
 176:../../lpc_chip_11cxx_lib/src/i2c_11xx.c **** int handleMasterXferState(LPC_I2C_T *pI2C, I2C_XFER_T  *xfer)
 177:../../lpc_chip_11cxx_lib/src/i2c_11xx.c **** {
 178:../../lpc_chip_11cxx_lib/src/i2c_11xx.c **** 	uint32_t cclr = I2C_CON_FLAGS;
 179:../../lpc_chip_11cxx_lib/src/i2c_11xx.c **** 
 180:../../lpc_chip_11cxx_lib/src/i2c_11xx.c **** 	switch (getCurState(pI2C)) {
 181:../../lpc_chip_11cxx_lib/src/i2c_11xx.c **** 	case 0x08:		/* Start condition on bus */
 182:../../lpc_chip_11cxx_lib/src/i2c_11xx.c **** 	case 0x10:		/* Repeated start condition */
 183:../../lpc_chip_11cxx_lib/src/i2c_11xx.c **** 		pI2C->DAT = (xfer->slaveAddr << 1) | (xfer->txSz == 0);
 184:../../lpc_chip_11cxx_lib/src/i2c_11xx.c **** 		break;
 185:../../lpc_chip_11cxx_lib/src/i2c_11xx.c **** 
 186:../../lpc_chip_11cxx_lib/src/i2c_11xx.c **** 	/* Tx handling */
 187:../../lpc_chip_11cxx_lib/src/i2c_11xx.c **** 	case 0x18:		/* SLA+W sent and ACK received */
 188:../../lpc_chip_11cxx_lib/src/i2c_11xx.c **** 	case 0x28:		/* DATA sent and ACK received */
 189:../../lpc_chip_11cxx_lib/src/i2c_11xx.c **** 		if (!xfer->txSz) {
 190:../../lpc_chip_11cxx_lib/src/i2c_11xx.c **** 			cclr &= ~(xfer->rxSz ? I2C_CON_STA : I2C_CON_STO);
 191:../../lpc_chip_11cxx_lib/src/i2c_11xx.c **** 		}
 192:../../lpc_chip_11cxx_lib/src/i2c_11xx.c **** 		else {
 193:../../lpc_chip_11cxx_lib/src/i2c_11xx.c **** 			pI2C->DAT = *xfer->txBuff++;
 194:../../lpc_chip_11cxx_lib/src/i2c_11xx.c **** 			xfer->txSz--;
 195:../../lpc_chip_11cxx_lib/src/i2c_11xx.c **** 		}
 196:../../lpc_chip_11cxx_lib/src/i2c_11xx.c **** 		break;
 197:../../lpc_chip_11cxx_lib/src/i2c_11xx.c **** 
 198:../../lpc_chip_11cxx_lib/src/i2c_11xx.c **** 	/* Rx handling */
 199:../../lpc_chip_11cxx_lib/src/i2c_11xx.c **** 	case 0x58:		/* Data Received and NACK sent */
 200:../../lpc_chip_11cxx_lib/src/i2c_11xx.c **** 		cclr &= ~I2C_CON_STO;
 201:../../lpc_chip_11cxx_lib/src/i2c_11xx.c **** 
 202:../../lpc_chip_11cxx_lib/src/i2c_11xx.c **** 	case 0x50:		/* Data Received and ACK sent */
 203:../../lpc_chip_11cxx_lib/src/i2c_11xx.c **** 		*xfer->rxBuff++ = pI2C->DAT;
 204:../../lpc_chip_11cxx_lib/src/i2c_11xx.c **** 		xfer->rxSz--;
 205:../../lpc_chip_11cxx_lib/src/i2c_11xx.c **** 
 206:../../lpc_chip_11cxx_lib/src/i2c_11xx.c **** 	case 0x40:		/* SLA+R sent and ACK received */
 207:../../lpc_chip_11cxx_lib/src/i2c_11xx.c **** 		if (xfer->rxSz > 1) {
 208:../../lpc_chip_11cxx_lib/src/i2c_11xx.c **** 			cclr &= ~I2C_CON_AA;
 209:../../lpc_chip_11cxx_lib/src/i2c_11xx.c **** 		}
 210:../../lpc_chip_11cxx_lib/src/i2c_11xx.c **** 		break;
 211:../../lpc_chip_11cxx_lib/src/i2c_11xx.c **** 
ARM GAS  /var/folders/f9/8bk2lnw15zn4cbgn6wrnb4lm0000gn/T//cc47W8rL.s 			page 6


 212:../../lpc_chip_11cxx_lib/src/i2c_11xx.c **** 	/* NAK Handling */
 213:../../lpc_chip_11cxx_lib/src/i2c_11xx.c **** 	case 0x20:		/* SLA+W sent NAK received */
 214:../../lpc_chip_11cxx_lib/src/i2c_11xx.c **** 	case 0x30:		/* DATA sent NAK received */
 215:../../lpc_chip_11cxx_lib/src/i2c_11xx.c **** 	case 0x48:		/* SLA+R sent NAK received */
 216:../../lpc_chip_11cxx_lib/src/i2c_11xx.c **** 		xfer->status = I2C_STATUS_NAK;
 217:../../lpc_chip_11cxx_lib/src/i2c_11xx.c **** 		cclr &= ~I2C_CON_STO;
 218:../../lpc_chip_11cxx_lib/src/i2c_11xx.c **** 		break;
 219:../../lpc_chip_11cxx_lib/src/i2c_11xx.c **** 
 220:../../lpc_chip_11cxx_lib/src/i2c_11xx.c **** 	case 0x38:		/* Arbitration lost */
 221:../../lpc_chip_11cxx_lib/src/i2c_11xx.c **** 		xfer->status = I2C_STATUS_ARBLOST;
 222:../../lpc_chip_11cxx_lib/src/i2c_11xx.c **** 		break;
 223:../../lpc_chip_11cxx_lib/src/i2c_11xx.c **** 
 224:../../lpc_chip_11cxx_lib/src/i2c_11xx.c **** 	/* Bus Error */
 225:../../lpc_chip_11cxx_lib/src/i2c_11xx.c **** 	case 0x00:
 226:../../lpc_chip_11cxx_lib/src/i2c_11xx.c **** 		xfer->status = I2C_STATUS_BUSERR;
 227:../../lpc_chip_11cxx_lib/src/i2c_11xx.c **** 		cclr &= ~I2C_CON_STO;
 228:../../lpc_chip_11cxx_lib/src/i2c_11xx.c **** 	}
 229:../../lpc_chip_11cxx_lib/src/i2c_11xx.c **** 
 230:../../lpc_chip_11cxx_lib/src/i2c_11xx.c **** 	/* Set clear control flags */
 231:../../lpc_chip_11cxx_lib/src/i2c_11xx.c **** 	pI2C->CONSET = cclr ^ I2C_CON_FLAGS;
 232:../../lpc_chip_11cxx_lib/src/i2c_11xx.c **** 	pI2C->CONCLR = cclr;
 233:../../lpc_chip_11cxx_lib/src/i2c_11xx.c **** 
 234:../../lpc_chip_11cxx_lib/src/i2c_11xx.c **** 	/* If stopped return 0 */
 235:../../lpc_chip_11cxx_lib/src/i2c_11xx.c **** 	if (!(cclr & I2C_CON_STO) || (xfer->status == I2C_STATUS_ARBLOST)) {
 236:../../lpc_chip_11cxx_lib/src/i2c_11xx.c **** 		if (xfer->status == I2C_STATUS_BUSY) {
 237:../../lpc_chip_11cxx_lib/src/i2c_11xx.c **** 			xfer->status = I2C_STATUS_DONE;
 238:../../lpc_chip_11cxx_lib/src/i2c_11xx.c **** 		}
 239:../../lpc_chip_11cxx_lib/src/i2c_11xx.c **** 		return 0;
 240:../../lpc_chip_11cxx_lib/src/i2c_11xx.c **** 	}
 241:../../lpc_chip_11cxx_lib/src/i2c_11xx.c **** 	return 1;
 242:../../lpc_chip_11cxx_lib/src/i2c_11xx.c **** }
 243:../../lpc_chip_11cxx_lib/src/i2c_11xx.c **** 
 244:../../lpc_chip_11cxx_lib/src/i2c_11xx.c **** /* Find the slave address of SLA+W or SLA+R */
 245:../../lpc_chip_11cxx_lib/src/i2c_11xx.c **** I2C_SLAVE_ID getSlaveIndex(LPC_I2C_T *pI2C)
 246:../../lpc_chip_11cxx_lib/src/i2c_11xx.c **** {
 247:../../lpc_chip_11cxx_lib/src/i2c_11xx.c **** 	switch (getCurState(pI2C)) {
 248:../../lpc_chip_11cxx_lib/src/i2c_11xx.c **** 	case 0x60:
 249:../../lpc_chip_11cxx_lib/src/i2c_11xx.c **** 	case 0x68:
 250:../../lpc_chip_11cxx_lib/src/i2c_11xx.c **** 	case 0x70:
 251:../../lpc_chip_11cxx_lib/src/i2c_11xx.c **** 	case 0x78:
 252:../../lpc_chip_11cxx_lib/src/i2c_11xx.c **** 	case 0xA8:
 253:../../lpc_chip_11cxx_lib/src/i2c_11xx.c **** 	case 0xB0:
 254:../../lpc_chip_11cxx_lib/src/i2c_11xx.c **** 		return lookupSlaveIndex(pI2C, pI2C->DAT);
 255:../../lpc_chip_11cxx_lib/src/i2c_11xx.c **** 	}
 256:../../lpc_chip_11cxx_lib/src/i2c_11xx.c **** 
 257:../../lpc_chip_11cxx_lib/src/i2c_11xx.c **** 	/* If everything is fine code should never come here */
 258:../../lpc_chip_11cxx_lib/src/i2c_11xx.c **** 	return I2C_SLAVE_GENERAL;
 259:../../lpc_chip_11cxx_lib/src/i2c_11xx.c **** }
 260:../../lpc_chip_11cxx_lib/src/i2c_11xx.c **** 
 261:../../lpc_chip_11cxx_lib/src/i2c_11xx.c **** /* Slave state machine handler */
 262:../../lpc_chip_11cxx_lib/src/i2c_11xx.c **** int handleSlaveXferState(LPC_I2C_T *pI2C, I2C_XFER_T *xfer)
 263:../../lpc_chip_11cxx_lib/src/i2c_11xx.c **** {
 264:../../lpc_chip_11cxx_lib/src/i2c_11xx.c **** 	uint32_t cclr = I2C_CON_FLAGS;
 265:../../lpc_chip_11cxx_lib/src/i2c_11xx.c **** 	int ret = RET_SLAVE_BUSY;
 266:../../lpc_chip_11cxx_lib/src/i2c_11xx.c **** 
 267:../../lpc_chip_11cxx_lib/src/i2c_11xx.c **** 	xfer->status = I2C_STATUS_BUSY;
 268:../../lpc_chip_11cxx_lib/src/i2c_11xx.c **** 	switch (getCurState(pI2C)) {
ARM GAS  /var/folders/f9/8bk2lnw15zn4cbgn6wrnb4lm0000gn/T//cc47W8rL.s 			page 7


 269:../../lpc_chip_11cxx_lib/src/i2c_11xx.c **** 	case 0x80:		/* SLA: Data received + ACK sent */
 270:../../lpc_chip_11cxx_lib/src/i2c_11xx.c **** 	case 0x90:		/* GC: Data received + ACK sent */
 271:../../lpc_chip_11cxx_lib/src/i2c_11xx.c **** 		*xfer->rxBuff++ = pI2C->DAT;
 272:../../lpc_chip_11cxx_lib/src/i2c_11xx.c **** 		xfer->rxSz--;
 273:../../lpc_chip_11cxx_lib/src/i2c_11xx.c **** 		ret = RET_SLAVE_RX;
 274:../../lpc_chip_11cxx_lib/src/i2c_11xx.c **** 		if (xfer->rxSz > 1) {
 275:../../lpc_chip_11cxx_lib/src/i2c_11xx.c **** 			cclr &= ~I2C_CON_AA;
 276:../../lpc_chip_11cxx_lib/src/i2c_11xx.c **** 		}
 277:../../lpc_chip_11cxx_lib/src/i2c_11xx.c **** 		break;
 278:../../lpc_chip_11cxx_lib/src/i2c_11xx.c **** 
 279:../../lpc_chip_11cxx_lib/src/i2c_11xx.c **** 	case 0x60:		/* Own SLA+W received */
 280:../../lpc_chip_11cxx_lib/src/i2c_11xx.c **** 	case 0x68:		/* Own SLA+W received after losing arbitration */
 281:../../lpc_chip_11cxx_lib/src/i2c_11xx.c **** 	case 0x70:		/* GC+W received */
 282:../../lpc_chip_11cxx_lib/src/i2c_11xx.c **** 	case 0x78:		/* GC+W received after losing arbitration */
 283:../../lpc_chip_11cxx_lib/src/i2c_11xx.c **** 		xfer->slaveAddr = pI2C->DAT & ~1;
 284:../../lpc_chip_11cxx_lib/src/i2c_11xx.c **** 		if (xfer->rxSz > 1) {
 285:../../lpc_chip_11cxx_lib/src/i2c_11xx.c **** 			cclr &= ~I2C_CON_AA;
 286:../../lpc_chip_11cxx_lib/src/i2c_11xx.c **** 		}
 287:../../lpc_chip_11cxx_lib/src/i2c_11xx.c **** 		break;
 288:../../lpc_chip_11cxx_lib/src/i2c_11xx.c **** 
 289:../../lpc_chip_11cxx_lib/src/i2c_11xx.c **** 	case 0xA8:		/* SLA+R received */
 290:../../lpc_chip_11cxx_lib/src/i2c_11xx.c **** 	case 0xB0:		/* SLA+R received after losing arbitration */
 291:../../lpc_chip_11cxx_lib/src/i2c_11xx.c **** 		xfer->slaveAddr = pI2C->DAT & ~1;
 292:../../lpc_chip_11cxx_lib/src/i2c_11xx.c **** 
 293:../../lpc_chip_11cxx_lib/src/i2c_11xx.c **** 	case 0xB8:		/* DATA sent and ACK received */
 294:../../lpc_chip_11cxx_lib/src/i2c_11xx.c **** 		pI2C->DAT = *xfer->txBuff++;
 295:../../lpc_chip_11cxx_lib/src/i2c_11xx.c **** 		xfer->txSz--;
 296:../../lpc_chip_11cxx_lib/src/i2c_11xx.c **** 		if (xfer->txSz > 0) {
 297:../../lpc_chip_11cxx_lib/src/i2c_11xx.c **** 			cclr &= ~I2C_CON_AA;
 298:../../lpc_chip_11cxx_lib/src/i2c_11xx.c **** 		}
 299:../../lpc_chip_11cxx_lib/src/i2c_11xx.c **** 		ret = RET_SLAVE_TX;
 300:../../lpc_chip_11cxx_lib/src/i2c_11xx.c **** 		break;
 301:../../lpc_chip_11cxx_lib/src/i2c_11xx.c **** 
 302:../../lpc_chip_11cxx_lib/src/i2c_11xx.c **** 	case 0xC0:		/* Data transmitted and NAK received */
 303:../../lpc_chip_11cxx_lib/src/i2c_11xx.c **** 	case 0xC8:		/* Last data transmitted and ACK received */
 304:../../lpc_chip_11cxx_lib/src/i2c_11xx.c **** 	case 0x88:		/* SLA: Data received + NAK sent */
 305:../../lpc_chip_11cxx_lib/src/i2c_11xx.c **** 	case 0x98:		/* GC: Data received + NAK sent */
 306:../../lpc_chip_11cxx_lib/src/i2c_11xx.c **** 	case 0xA0:		/* STOP/Repeated START condition received */
 307:../../lpc_chip_11cxx_lib/src/i2c_11xx.c **** 		ret = RET_SLAVE_IDLE;
 308:../../lpc_chip_11cxx_lib/src/i2c_11xx.c **** 		cclr &= ~I2C_CON_AA;
 309:../../lpc_chip_11cxx_lib/src/i2c_11xx.c **** 		xfer->status = I2C_STATUS_DONE;
 310:../../lpc_chip_11cxx_lib/src/i2c_11xx.c **** 		if (xfer->slaveAddr & 1) {
 311:../../lpc_chip_11cxx_lib/src/i2c_11xx.c **** 			cclr &= ~I2C_CON_STA;
 312:../../lpc_chip_11cxx_lib/src/i2c_11xx.c **** 		}
 313:../../lpc_chip_11cxx_lib/src/i2c_11xx.c **** 		break;
 314:../../lpc_chip_11cxx_lib/src/i2c_11xx.c **** 	}
 315:../../lpc_chip_11cxx_lib/src/i2c_11xx.c **** 
 316:../../lpc_chip_11cxx_lib/src/i2c_11xx.c **** 	/* Set clear control flags */
 317:../../lpc_chip_11cxx_lib/src/i2c_11xx.c **** 	pI2C->CONSET = cclr ^ I2C_CON_FLAGS;
 318:../../lpc_chip_11cxx_lib/src/i2c_11xx.c **** 	pI2C->CONCLR = cclr;
 319:../../lpc_chip_11cxx_lib/src/i2c_11xx.c **** 
 320:../../lpc_chip_11cxx_lib/src/i2c_11xx.c **** 	return ret;
 321:../../lpc_chip_11cxx_lib/src/i2c_11xx.c **** }
 322:../../lpc_chip_11cxx_lib/src/i2c_11xx.c **** 
 323:../../lpc_chip_11cxx_lib/src/i2c_11xx.c **** /*****************************************************************************
 324:../../lpc_chip_11cxx_lib/src/i2c_11xx.c ****  * Public functions
 325:../../lpc_chip_11cxx_lib/src/i2c_11xx.c ****  ****************************************************************************/
ARM GAS  /var/folders/f9/8bk2lnw15zn4cbgn6wrnb4lm0000gn/T//cc47W8rL.s 			page 8


 326:../../lpc_chip_11cxx_lib/src/i2c_11xx.c **** 
 327:../../lpc_chip_11cxx_lib/src/i2c_11xx.c **** /* Chip event handler interrupt based */
 328:../../lpc_chip_11cxx_lib/src/i2c_11xx.c **** void Chip_I2C_EventHandler(I2C_ID_T id, I2C_EVENT_T event)
 329:../../lpc_chip_11cxx_lib/src/i2c_11xx.c **** {
  75              		.loc 1 329 0
  76              		.cfi_startproc
  77              	.LVL0:
 330:../../lpc_chip_11cxx_lib/src/i2c_11xx.c **** 	struct i2c_interface *iic = &i2c[id];
 331:../../lpc_chip_11cxx_lib/src/i2c_11xx.c **** 	volatile I2C_STATUS_T *stat;
 332:../../lpc_chip_11cxx_lib/src/i2c_11xx.c **** 
 333:../../lpc_chip_11cxx_lib/src/i2c_11xx.c **** 	/* Only WAIT event needs to be handled */
 334:../../lpc_chip_11cxx_lib/src/i2c_11xx.c **** 	if (event != I2C_EVENT_WAIT) {
  78              		.loc 1 334 0
  79 0000 0129     		cmp	r1, #1	@ event,
  80 0002 00D0     		beq	.L5	@,
  81              	.LVL1:
  82              	.L1:
 335:../../lpc_chip_11cxx_lib/src/i2c_11xx.c **** 		return;
 336:../../lpc_chip_11cxx_lib/src/i2c_11xx.c **** 	}
 337:../../lpc_chip_11cxx_lib/src/i2c_11xx.c **** 
 338:../../lpc_chip_11cxx_lib/src/i2c_11xx.c **** 	stat = &iic->mXfer->status;
 339:../../lpc_chip_11cxx_lib/src/i2c_11xx.c **** 	/* Wait for the status to change */
 340:../../lpc_chip_11cxx_lib/src/i2c_11xx.c **** 	while (*stat == I2C_STATUS_BUSY) {}
 341:../../lpc_chip_11cxx_lib/src/i2c_11xx.c **** }
  83              		.loc 1 341 0
  84              		@ sp needed	@
  85 0004 7047     		bx	lr
  86              	.LVL2:
  87              	.L5:
 330:../../lpc_chip_11cxx_lib/src/i2c_11xx.c **** 	struct i2c_interface *iic = &i2c[id];
  88              		.loc 1 330 0
  89 0006 C300     		lsl	r3, r0, #3	@ tmp118, id,
  90 0008 181A     		sub	r0, r3, r0	@ tmp119, tmp118, id
  91              	.LVL3:
 338:../../lpc_chip_11cxx_lib/src/i2c_11xx.c **** 	stat = &iic->mXfer->status;
  92              		.loc 1 338 0
  93 000a 044B     		ldr	r3, .L6	@ tmp116,
 330:../../lpc_chip_11cxx_lib/src/i2c_11xx.c **** 	struct i2c_interface *iic = &i2c[id];
  94              		.loc 1 330 0
  95 000c 8000     		lsl	r0, r0, #2	@ tmp120, tmp119,
 338:../../lpc_chip_11cxx_lib/src/i2c_11xx.c **** 	stat = &iic->mXfer->status;
  96              		.loc 1 338 0
  97 000e 1818     		add	r0, r3, r0	@ tmp121, tmp116, tmp120
  98 0010 0269     		ldr	r2, [r0, #16]	@ D.6674, iic_3->mXfer
  99              	.LVL4:
 100              	.L3:
 340:../../lpc_chip_11cxx_lib/src/i2c_11xx.c **** 	while (*stat == I2C_STATUS_BUSY) {}
 101              		.loc 1 340 0 discriminator 1
 102 0012 137D     		ldrb	r3, [r2, #20]	@ MEM[(volatile I2C_STATUS_T *)_6 + 20B], MEM[(volatile I2C_STATUS_T *)_6 + 20B
 103 0014 042B     		cmp	r3, #4	@ MEM[(volatile I2C_STATUS_T *)_6 + 20B],
 104 0016 FCD0     		beq	.L3	@,
 105 0018 F4E7     		b	.L1	@
 106              	.L7:
 107 001a C046     		.align	2
 108              	.L6:
 109 001c 00000000 		.word	.LANCHOR0
 110              		.cfi_endproc
ARM GAS  /var/folders/f9/8bk2lnw15zn4cbgn6wrnb4lm0000gn/T//cc47W8rL.s 			page 9


 111              	.LFE212:
 112              		.size	Chip_I2C_EventHandler, .-Chip_I2C_EventHandler
 113              		.section	.text.handleMasterXferState,"ax",%progbits
 114              		.align	2
 115              		.global	handleMasterXferState
 116              		.code	16
 117              		.thumb_func
 118              		.type	handleMasterXferState, %function
 119              	handleMasterXferState:
 120              	.LFB209:
 177:../../lpc_chip_11cxx_lib/src/i2c_11xx.c **** {
 121              		.loc 1 177 0
 122              		.cfi_startproc
 123              	.LVL5:
 124              	.LBB51:
 125              	.LBB52:
 122:../../lpc_chip_11cxx_lib/src/i2c_11xx.c **** 	return (int) (pI2C->STAT & I2C_STAT_CODE_BITMASK);
 126              		.loc 1 122 0
 127 0000 4268     		ldr	r2, [r0, #4]	@ D.6686, pI2C_10(D)->STAT
 128              	.LBE52:
 129              	.LBE51:
 177:../../lpc_chip_11cxx_lib/src/i2c_11xx.c **** {
 130              		.loc 1 177 0
 131 0002 031C     		mov	r3, r0	@ pI2C, pI2C
 132              	.LBB55:
 133              	.LBB53:
 122:../../lpc_chip_11cxx_lib/src/i2c_11xx.c **** 	return (int) (pI2C->STAT & I2C_STAT_CODE_BITMASK);
 134              		.loc 1 122 0
 135 0004 F820     		mov	r0, #248	@ tmp151,
 136              	.LVL6:
 137              	.LBE53:
 138              	.LBE55:
 177:../../lpc_chip_11cxx_lib/src/i2c_11xx.c **** {
 139              		.loc 1 177 0
 140 0006 30B5     		push	{r4, r5, lr}	@
 141              		.cfi_def_cfa_offset 12
 142              		.cfi_offset 4, -12
 143              		.cfi_offset 5, -8
 144              		.cfi_offset 14, -4
 145              	.LBB56:
 146              	.LBB54:
 122:../../lpc_chip_11cxx_lib/src/i2c_11xx.c **** 	return (int) (pI2C->STAT & I2C_STAT_CODE_BITMASK);
 147              		.loc 1 122 0
 148 0008 0240     		and	r2, r0	@ D.6683, tmp151
 149              	.LBE54:
 150              	.LBE56:
 180:../../lpc_chip_11cxx_lib/src/i2c_11xx.c **** 	switch (getCurState(pI2C)) {
 151              		.loc 1 180 0
 152 000a 582A     		cmp	r2, #88	@ D.6683,
 153 000c 4DD8     		bhi	.L9	@,
 154 000e 3748     		ldr	r0, .L35	@ tmp155,
 155 0010 9200     		lsl	r2, r2, #2	@ tmp153, D.6683,
 156 0012 8258     		ldr	r2, [r0, r2]	@ tmp156,
 157 0014 9746     		mov	pc, r2	@ tmp156
 158              		.section	.rodata.handleMasterXferState,"a",%progbits
 159              		.align	2
 160              	.L11:
ARM GAS  /var/folders/f9/8bk2lnw15zn4cbgn6wrnb4lm0000gn/T//cc47W8rL.s 			page 10


 161 0000 4E000000 		.word	.L10
 162 0004 AA000000 		.word	.L9
 163 0008 AA000000 		.word	.L9
 164 000c AA000000 		.word	.L9
 165 0010 AA000000 		.word	.L9
 166 0014 AA000000 		.word	.L9
 167 0018 AA000000 		.word	.L9
 168 001c AA000000 		.word	.L9
 169 0020 5E000000 		.word	.L12
 170 0024 AA000000 		.word	.L9
 171 0028 AA000000 		.word	.L9
 172 002c AA000000 		.word	.L9
 173 0030 AA000000 		.word	.L9
 174 0034 AA000000 		.word	.L9
 175 0038 AA000000 		.word	.L9
 176 003c AA000000 		.word	.L9
 177 0040 5E000000 		.word	.L12
 178 0044 AA000000 		.word	.L9
 179 0048 AA000000 		.word	.L9
 180 004c AA000000 		.word	.L9
 181 0050 AA000000 		.word	.L9
 182 0054 AA000000 		.word	.L9
 183 0058 AA000000 		.word	.L9
 184 005c AA000000 		.word	.L9
 185 0060 7E000000 		.word	.L13
 186 0064 AA000000 		.word	.L9
 187 0068 AA000000 		.word	.L9
 188 006c AA000000 		.word	.L9
 189 0070 AA000000 		.word	.L9
 190 0074 AA000000 		.word	.L9
 191 0078 AA000000 		.word	.L9
 192 007c AA000000 		.word	.L9
 193 0080 92000000 		.word	.L14
 194 0084 AA000000 		.word	.L9
 195 0088 AA000000 		.word	.L9
 196 008c AA000000 		.word	.L9
 197 0090 AA000000 		.word	.L9
 198 0094 AA000000 		.word	.L9
 199 0098 AA000000 		.word	.L9
 200 009c AA000000 		.word	.L9
 201 00a0 7E000000 		.word	.L13
 202 00a4 AA000000 		.word	.L9
 203 00a8 AA000000 		.word	.L9
 204 00ac AA000000 		.word	.L9
 205 00b0 AA000000 		.word	.L9
 206 00b4 AA000000 		.word	.L9
 207 00b8 AA000000 		.word	.L9
 208 00bc AA000000 		.word	.L9
 209 00c0 92000000 		.word	.L14
 210 00c4 AA000000 		.word	.L9
 211 00c8 AA000000 		.word	.L9
 212 00cc AA000000 		.word	.L9
 213 00d0 AA000000 		.word	.L9
 214 00d4 AA000000 		.word	.L9
 215 00d8 AA000000 		.word	.L9
 216 00dc AA000000 		.word	.L9
 217 00e0 A2000000 		.word	.L15
ARM GAS  /var/folders/f9/8bk2lnw15zn4cbgn6wrnb4lm0000gn/T//cc47W8rL.s 			page 11


 218 00e4 AA000000 		.word	.L9
 219 00e8 AA000000 		.word	.L9
 220 00ec AA000000 		.word	.L9
 221 00f0 AA000000 		.word	.L9
 222 00f4 AA000000 		.word	.L9
 223 00f8 AA000000 		.word	.L9
 224 00fc AA000000 		.word	.L9
 225 0100 98000000 		.word	.L16
 226 0104 AA000000 		.word	.L9
 227 0108 AA000000 		.word	.L9
 228 010c AA000000 		.word	.L9
 229 0110 AA000000 		.word	.L9
 230 0114 AA000000 		.word	.L9
 231 0118 AA000000 		.word	.L9
 232 011c AA000000 		.word	.L9
 233 0120 92000000 		.word	.L14
 234 0124 AA000000 		.word	.L9
 235 0128 AA000000 		.word	.L9
 236 012c AA000000 		.word	.L9
 237 0130 AA000000 		.word	.L9
 238 0134 AA000000 		.word	.L9
 239 0138 AA000000 		.word	.L9
 240 013c AA000000 		.word	.L9
 241 0140 9E000000 		.word	.L17
 242 0144 AA000000 		.word	.L9
 243 0148 AA000000 		.word	.L9
 244 014c AA000000 		.word	.L9
 245 0150 AA000000 		.word	.L9
 246 0154 AA000000 		.word	.L9
 247 0158 AA000000 		.word	.L9
 248 015c AA000000 		.word	.L9
 249 0160 16000000 		.word	.L29
 250              		.section	.text.handleMasterXferState
 251              	.L29:
 200:../../lpc_chip_11cxx_lib/src/i2c_11xx.c **** 		cclr &= ~I2C_CON_STO;
 252              		.loc 1 200 0
 253 0016 2C22     		mov	r2, #44	@ cclr,
 254              	.L18:
 255              	.LVL7:
 203:../../lpc_chip_11cxx_lib/src/i2c_11xx.c **** 		*xfer->rxBuff++ = pI2C->DAT;
 256              		.loc 1 203 0
 257 0018 C868     		ldr	r0, [r1, #12]	@ D.6688, xfer_12(D)->rxBuff
 258 001a 441C     		add	r4, r0, #1	@ D.6688, D.6688,
 259 001c CC60     		str	r4, [r1, #12]	@ D.6688, xfer_12(D)->rxBuff
 260 001e 9C68     		ldr	r4, [r3, #8]	@ D.6686, pI2C_10(D)->DAT
 261 0020 0470     		strb	r4, [r0]	@ D.6686, *_33
 204:../../lpc_chip_11cxx_lib/src/i2c_11xx.c **** 		xfer->rxSz--;
 262              		.loc 1 204 0
 263 0022 0869     		ldr	r0, [r1, #16]	@ D.6683, xfer_12(D)->rxSz
 264 0024 0138     		sub	r0, r0, #1	@ D.6683,
 265 0026 0861     		str	r0, [r1, #16]	@ D.6683, xfer_12(D)->rxSz
 266              	.LVL8:
 267              	.L19:
 207:../../lpc_chip_11cxx_lib/src/i2c_11xx.c **** 		if (xfer->rxSz > 1) {
 268              		.loc 1 207 0
 269 0028 0128     		cmp	r0, #1	@ D.6683,
 270 002a 48DD     		ble	.L24	@,
ARM GAS  /var/folders/f9/8bk2lnw15zn4cbgn6wrnb4lm0000gn/T//cc47W8rL.s 			page 12


 208:../../lpc_chip_11cxx_lib/src/i2c_11xx.c **** 			cclr &= ~I2C_CON_AA;
 271              		.loc 1 208 0
 272 002c 0420     		mov	r0, #4	@ tmp179,
 273 002e 141C     		mov	r4, r2	@ cclr, cclr
 274 0030 8443     		bic	r4, r0	@ cclr, tmp179
 275              	.LVL9:
 276 0032 3C25     		mov	r5, #60	@ tmp180,
 277 0034 1020     		mov	r0, #16	@ tmp181,
 278 0036 6540     		eor	r5, r4	@ D.6686, cclr
 279 0038 1040     		and	r0, r2	@ D.6686, cclr
 280              	.LVL10:
 281              	.L23:
 231:../../lpc_chip_11cxx_lib/src/i2c_11xx.c **** 	pI2C->CONSET = cclr ^ I2C_CON_FLAGS;
 282              		.loc 1 231 0
 283 003a 1D60     		str	r5, [r3]	@ D.6686, pI2C_10(D)->CONSET
 232:../../lpc_chip_11cxx_lib/src/i2c_11xx.c **** 	pI2C->CONCLR = cclr;
 284              		.loc 1 232 0
 285 003c 9C61     		str	r4, [r3, #24]	@ cclr, pI2C_10(D)->CONCLR
 235:../../lpc_chip_11cxx_lib/src/i2c_11xx.c **** 	if (!(cclr & I2C_CON_STO) || (xfer->status == I2C_STATUS_ARBLOST)) {
 286              		.loc 1 235 0
 287 003e 0028     		cmp	r0, #0	@ D.6686,
 288 0040 38D1     		bne	.L34	@,
 236:../../lpc_chip_11cxx_lib/src/i2c_11xx.c **** 		if (xfer->status == I2C_STATUS_BUSY) {
 289              		.loc 1 236 0
 290 0042 0B7D     		ldrb	r3, [r1, #20]	@ tmp195,
 291              	.LVL11:
 292 0044 042B     		cmp	r3, #4	@ tmp195,
 293 0046 08D1     		bne	.L33	@,
 237:../../lpc_chip_11cxx_lib/src/i2c_11xx.c **** 			xfer->status = I2C_STATUS_DONE;
 294              		.loc 1 237 0
 295 0048 0875     		strb	r0, [r1, #20]	@ D.6686, xfer_12(D)->status
 239:../../lpc_chip_11cxx_lib/src/i2c_11xx.c **** 		return 0;
 296              		.loc 1 239 0
 297 004a 0020     		mov	r0, #0	@ D.6683,
 298              	.LVL12:
 299              	.L32:
 242:../../lpc_chip_11cxx_lib/src/i2c_11xx.c **** }
 300              		.loc 1 242 0
 301              		@ sp needed	@
 302 004c 30BD     		pop	{r4, r5, pc}
 303              	.LVL13:
 304              	.L10:
 226:../../lpc_chip_11cxx_lib/src/i2c_11xx.c **** 		xfer->status = I2C_STATUS_BUSERR;
 305              		.loc 1 226 0
 306 004e 0322     		mov	r2, #3	@ tmp186,
 307 0050 0A75     		strb	r2, [r1, #20]	@ tmp186, xfer_12(D)->status
 308              	.LVL14:
 309              	.L25:
 231:../../lpc_chip_11cxx_lib/src/i2c_11xx.c **** 	pI2C->CONSET = cclr ^ I2C_CON_FLAGS;
 310              		.loc 1 231 0
 311 0052 1022     		mov	r2, #16	@ tmp206,
 312 0054 1A60     		str	r2, [r3]	@ tmp206, pI2C_10(D)->CONSET
 232:../../lpc_chip_11cxx_lib/src/i2c_11xx.c **** 	pI2C->CONCLR = cclr;
 313              		.loc 1 232 0
 314 0056 2C22     		mov	r2, #44	@ tmp207,
 315 0058 9A61     		str	r2, [r3, #24]	@ tmp207, pI2C_10(D)->CONCLR
 316              	.LVL15:
ARM GAS  /var/folders/f9/8bk2lnw15zn4cbgn6wrnb4lm0000gn/T//cc47W8rL.s 			page 13


 317              	.L33:
 239:../../lpc_chip_11cxx_lib/src/i2c_11xx.c **** 		return 0;
 318              		.loc 1 239 0
 319 005a 0020     		mov	r0, #0	@ D.6683,
 320 005c F6E7     		b	.L32	@
 321              	.LVL16:
 322              	.L12:
 183:../../lpc_chip_11cxx_lib/src/i2c_11xx.c **** 		pI2C->DAT = (xfer->slaveAddr << 1) | (xfer->txSz == 0);
 323              		.loc 1 183 0
 324 005e 8C68     		ldr	r4, [r1, #8]	@, xfer_12(D)->txSz
 325 0060 6042     		neg	r0, r4	@ D.6685,
 326 0062 6041     		adc	r0, r0, r4	@ D.6685,
 327 0064 0A78     		ldrb	r2, [r1]	@ D.6683, *xfer_12(D)
 328 0066 5200     		lsl	r2, r2, #1	@ D.6683, D.6683,
 329 0068 0243     		orr	r2, r0	@ D.6686, D.6685
 330 006a 9A60     		str	r2, [r3, #8]	@ D.6686, pI2C_10(D)->DAT
 331 006c 087D     		ldrb	r0, [r1, #20]	@ tmp164,
 332 006e 0238     		sub	r0, r0, #2	@ tmp166,
 333 0070 421E     		sub	r2, r0, #1	@ tmp167, tmp166
 334 0072 9041     		sbc	r0, r0, r2	@ D.6683, tmp166, tmp167
 335              	.L20:
 231:../../lpc_chip_11cxx_lib/src/i2c_11xx.c **** 	pI2C->CONSET = cclr ^ I2C_CON_FLAGS;
 336              		.loc 1 231 0
 337 0074 0022     		mov	r2, #0	@ tmp204,
 338 0076 1A60     		str	r2, [r3]	@ tmp204, pI2C_10(D)->CONSET
 232:../../lpc_chip_11cxx_lib/src/i2c_11xx.c **** 	pI2C->CONCLR = cclr;
 339              		.loc 1 232 0
 340 0078 3C22     		mov	r2, #60	@ tmp205,
 341 007a 9A61     		str	r2, [r3, #24]	@ tmp205, pI2C_10(D)->CONCLR
 342 007c E6E7     		b	.L32	@
 343              	.L13:
 189:../../lpc_chip_11cxx_lib/src/i2c_11xx.c **** 		if (!xfer->txSz) {
 344              		.loc 1 189 0
 345 007e 8A68     		ldr	r2, [r1, #8]	@ D.6683, xfer_12(D)->txSz
 346 0080 002A     		cmp	r2, #0	@ D.6683,
 347 0082 22D1     		bne	.L21	@,
 190:../../lpc_chip_11cxx_lib/src/i2c_11xx.c **** 			cclr &= ~(xfer->rxSz ? I2C_CON_STA : I2C_CON_STO);
 348              		.loc 1 190 0
 349 0084 0869     		ldr	r0, [r1, #16]	@, xfer_12(D)->rxSz
 350 0086 0028     		cmp	r0, #0	@,
 351 0088 2BD0     		beq	.L30	@,
 352 008a 1020     		mov	r0, #16	@ D.6686,
 353 008c 2025     		mov	r5, #32	@ D.6686,
 354 008e 1C24     		mov	r4, #28	@ cclr,
 355 0090 D3E7     		b	.L23	@
 356              	.L14:
 216:../../lpc_chip_11cxx_lib/src/i2c_11xx.c **** 		xfer->status = I2C_STATUS_NAK;
 357              		.loc 1 216 0
 358 0092 0122     		mov	r2, #1	@ tmp182,
 359 0094 0A75     		strb	r2, [r1, #20]	@ tmp182, xfer_12(D)->status
 360              	.LVL17:
 218:../../lpc_chip_11cxx_lib/src/i2c_11xx.c **** 		break;
 361              		.loc 1 218 0
 362 0096 DCE7     		b	.L25	@
 363              	.LVL18:
 364              	.L16:
 365 0098 0869     		ldr	r0, [r1, #16]	@ D.6683, xfer_12(D)->rxSz
ARM GAS  /var/folders/f9/8bk2lnw15zn4cbgn6wrnb4lm0000gn/T//cc47W8rL.s 			page 14


 178:../../lpc_chip_11cxx_lib/src/i2c_11xx.c **** 	uint32_t cclr = I2C_CON_FLAGS;
 366              		.loc 1 178 0
 367 009a 3C22     		mov	r2, #60	@ cclr,
 368 009c C4E7     		b	.L19	@
 369              	.L17:
 370 009e 3C22     		mov	r2, #60	@ cclr,
 371 00a0 BAE7     		b	.L18	@
 372              	.L15:
 221:../../lpc_chip_11cxx_lib/src/i2c_11xx.c **** 		xfer->status = I2C_STATUS_ARBLOST;
 373              		.loc 1 221 0
 374 00a2 0222     		mov	r2, #2	@ tmp184,
 375 00a4 0A75     		strb	r2, [r1, #20]	@ tmp184, xfer_12(D)->status
 222:../../lpc_chip_11cxx_lib/src/i2c_11xx.c **** 		break;
 376              		.loc 1 222 0
 377 00a6 0020     		mov	r0, #0	@ D.6683,
 378 00a8 E4E7     		b	.L20	@
 379              	.L9:
 380 00aa 087D     		ldrb	r0, [r1, #20]	@ tmp200,
 381 00ac 0238     		sub	r0, r0, #2	@ tmp202,
 382 00ae 421E     		sub	r2, r0, #1	@ tmp203, tmp202
 383 00b0 9041     		sbc	r0, r0, r2	@ D.6683, tmp202, tmp203
 384 00b2 DFE7     		b	.L20	@
 385              	.LVL19:
 386              	.L34:
 387 00b4 087D     		ldrb	r0, [r1, #20]	@ tmp191,
 388 00b6 0238     		sub	r0, r0, #2	@ tmp193,
 389 00b8 431E     		sub	r3, r0, #1	@ tmp194, tmp193
 390 00ba 9841     		sbc	r0, r0, r3	@ D.6683, tmp193, tmp194
 391              	.LVL20:
 392 00bc C6E7     		b	.L32	@
 393              	.LVL21:
 394              	.L24:
 395 00be 3C25     		mov	r5, #60	@ tmp188,
 396 00c0 1020     		mov	r0, #16	@ tmp189,
 397 00c2 5540     		eor	r5, r2	@ D.6686, cclr
 398 00c4 1040     		and	r0, r2	@ D.6686, cclr
 207:../../lpc_chip_11cxx_lib/src/i2c_11xx.c **** 		if (xfer->rxSz > 1) {
 399              		.loc 1 207 0
 400 00c6 141C     		mov	r4, r2	@ cclr, cclr
 401 00c8 B7E7     		b	.L23	@
 402              	.LVL22:
 403              	.L21:
 193:../../lpc_chip_11cxx_lib/src/i2c_11xx.c **** 			pI2C->DAT = *xfer->txBuff++;
 404              		.loc 1 193 0
 405 00ca 4868     		ldr	r0, [r1, #4]	@ D.6687, xfer_12(D)->txBuff
 194:../../lpc_chip_11cxx_lib/src/i2c_11xx.c **** 			xfer->txSz--;
 406              		.loc 1 194 0
 407 00cc 013A     		sub	r2, r2, #1	@ D.6683,
 193:../../lpc_chip_11cxx_lib/src/i2c_11xx.c **** 			pI2C->DAT = *xfer->txBuff++;
 408              		.loc 1 193 0
 409 00ce 441C     		add	r4, r0, #1	@ D.6687, D.6687,
 410 00d0 4C60     		str	r4, [r1, #4]	@ D.6687, xfer_12(D)->txBuff
 411 00d2 0078     		ldrb	r0, [r0]	@ D.6686, *_25
 412 00d4 9860     		str	r0, [r3, #8]	@ D.6686, pI2C_10(D)->DAT
 413 00d6 087D     		ldrb	r0, [r1, #20]	@ tmp172,
 194:../../lpc_chip_11cxx_lib/src/i2c_11xx.c **** 			xfer->txSz--;
 414              		.loc 1 194 0
ARM GAS  /var/folders/f9/8bk2lnw15zn4cbgn6wrnb4lm0000gn/T//cc47W8rL.s 			page 15


 415 00d8 8A60     		str	r2, [r1, #8]	@ D.6683, xfer_12(D)->txSz
 416 00da 0238     		sub	r0, r0, #2	@ tmp174,
 417 00dc 421E     		sub	r2, r0, #1	@ tmp175, tmp174
 418 00de 9041     		sbc	r0, r0, r2	@ D.6683, tmp174, tmp175
 419 00e0 C8E7     		b	.L20	@
 420              	.L30:
 421 00e2 0020     		mov	r0, #0	@ D.6686,
 422 00e4 1025     		mov	r5, #16	@ D.6686,
 423 00e6 2C24     		mov	r4, #44	@ cclr,
 424              	.LVL23:
 425 00e8 A7E7     		b	.L23	@
 426              	.L36:
 427 00ea C046     		.align	2
 428              	.L35:
 429 00ec 00000000 		.word	.L11
 430              		.cfi_endproc
 431              	.LFE209:
 432              		.size	handleMasterXferState, .-handleMasterXferState
 433              		.section	.text.getSlaveIndex,"ax",%progbits
 434              		.align	2
 435              		.global	getSlaveIndex
 436              		.code	16
 437              		.thumb_func
 438              		.type	getSlaveIndex, %function
 439              	getSlaveIndex:
 440              	.LFB210:
 246:../../lpc_chip_11cxx_lib/src/i2c_11xx.c **** {
 441              		.loc 1 246 0
 442              		.cfi_startproc
 443              	.LVL24:
 444              	.LBB69:
 445              	.LBB70:
 122:../../lpc_chip_11cxx_lib/src/i2c_11xx.c **** 	return (int) (pI2C->STAT & I2C_STAT_CODE_BITMASK);
 446              		.loc 1 122 0
 447 0000 4368     		ldr	r3, [r0, #4]	@ D.6710, pI2C_4(D)->STAT
 448 0002 F821     		mov	r1, #248	@ tmp159,
 449              	.LBE70:
 450              	.LBE69:
 246:../../lpc_chip_11cxx_lib/src/i2c_11xx.c **** {
 451              		.loc 1 246 0
 452 0004 10B5     		push	{r4, lr}	@
 453              		.cfi_def_cfa_offset 8
 454              		.cfi_offset 4, -8
 455              		.cfi_offset 14, -4
 246:../../lpc_chip_11cxx_lib/src/i2c_11xx.c **** {
 456              		.loc 1 246 0
 457 0006 021C     		mov	r2, r0	@ pI2C, pI2C
 458              	.LBB72:
 459              	.LBB71:
 122:../../lpc_chip_11cxx_lib/src/i2c_11xx.c **** 	return (int) (pI2C->STAT & I2C_STAT_CODE_BITMASK);
 460              		.loc 1 122 0
 461 0008 0B40     		and	r3, r1	@ D.6712, tmp159
 462              	.LBE71:
 463              	.LBE72:
 247:../../lpc_chip_11cxx_lib/src/i2c_11xx.c **** 	switch (getCurState(pI2C)) {
 464              		.loc 1 247 0
 465 000a 702B     		cmp	r3, #112	@ D.6712,
ARM GAS  /var/folders/f9/8bk2lnw15zn4cbgn6wrnb4lm0000gn/T//cc47W8rL.s 			page 16


 466 000c 0CD0     		beq	.L39	@,
 467 000e 07DD     		ble	.L70	@,
 468 0010 A82B     		cmp	r3, #168	@ D.6712,
 469 0012 09D0     		beq	.L39	@,
 470 0014 B02B     		cmp	r3, #176	@ D.6712,
 471 0016 07D0     		beq	.L39	@,
 472 0018 782B     		cmp	r3, #120	@ D.6712,
 473 001a 05D0     		beq	.L39	@,
 474              	.L42:
 258:../../lpc_chip_11cxx_lib/src/i2c_11xx.c **** 	return I2C_SLAVE_GENERAL;
 475              		.loc 1 258 0
 476 001c 0020     		mov	r0, #0	@ D.6709,
 477              	.LVL25:
 478              	.L38:
 259:../../lpc_chip_11cxx_lib/src/i2c_11xx.c **** }
 479              		.loc 1 259 0
 480              		@ sp needed	@
 481 001e 10BD     		pop	{r4, pc}
 482              	.LVL26:
 483              	.L70:
 247:../../lpc_chip_11cxx_lib/src/i2c_11xx.c **** 	switch (getCurState(pI2C)) {
 484              		.loc 1 247 0
 485 0020 602B     		cmp	r3, #96	@ D.6712,
 486 0022 01D0     		beq	.L39	@,
 487 0024 682B     		cmp	r3, #104	@ D.6712,
 488 0026 F9D1     		bne	.L42	@,
 489              	.L39:
 254:../../lpc_chip_11cxx_lib/src/i2c_11xx.c **** 		return lookupSlaveIndex(pI2C, pI2C->DAT);
 490              		.loc 1 254 0
 491 0028 9368     		ldr	r3, [r2, #8]	@ D.6710, pI2C_4(D)->DAT
 492              	.LBB73:
 493              	.LBB74:
 156:../../lpc_chip_11cxx_lib/src/i2c_11xx.c **** 		return I2C_SLAVE_GENERAL;					/* General call address */
 494              		.loc 1 156 0
 495 002a 0020     		mov	r0, #0	@ D.6709,
 496              	.LVL27:
 497              	.LBE74:
 498              	.LBE73:
 254:../../lpc_chip_11cxx_lib/src/i2c_11xx.c **** 		return lookupSlaveIndex(pI2C, pI2C->DAT);
 499              		.loc 1 254 0
 500 002c DBB2     		uxtb	r3, r3	@ D.6711, D.6710
 501              	.LVL28:
 502              	.LBB84:
 503              	.LBB83:
 155:../../lpc_chip_11cxx_lib/src/i2c_11xx.c **** 	if (!(slaveAddr >> 1)) {
 504              		.loc 1 155 0
 505 002e 5908     		lsr	r1, r3, #1	@ tmp163, D.6711,
 506 0030 F5D0     		beq	.L38	@,
 158:../../lpc_chip_11cxx_lib/src/i2c_11xx.c **** 	if (isSlaveAddrMatching(pI2C->ADR0, slaveAddr, pI2C->MASK[0])) {
 507              		.loc 1 158 0
 508 0032 D468     		ldr	r4, [r2, #12]	@ D.6710, pI2C_4(D)->ADR0
 509 0034 106B     		ldr	r0, [r2, #48]	@ D.6710, pI2C_4(D)->MASK
 510              	.LVL29:
 511              	.LBB75:
 512              	.LBB76:
 148:../../lpc_chip_11cxx_lib/src/i2c_11xx.c **** 	mask |= 1;
 513              		.loc 1 148 0
ARM GAS  /var/folders/f9/8bk2lnw15zn4cbgn6wrnb4lm0000gn/T//cc47W8rL.s 			page 17


 514 0036 0121     		mov	r1, #1	@ tmp164,
 515 0038 0843     		orr	r0, r1	@ tmp167, tmp164
 516              	.LVL30:
 149:../../lpc_chip_11cxx_lib/src/i2c_11xx.c **** 	return (addr1 & ~mask) == (addr2 & ~mask);
 517              		.loc 1 149 0
 518 003a 5C40     		eor	r4, r3	@ tmp171, D.6711
 519              	.LVL31:
 520 003c C0B2     		uxtb	r0, r0	@ D.6712, tmp167
 521 003e E4B2     		uxtb	r4, r4	@ D.6712, tmp171
 522 0040 8443     		bic	r4, r0	@ D.6712, D.6712
 523              	.LBE76:
 524              	.LBE75:
 159:../../lpc_chip_11cxx_lib/src/i2c_11xx.c **** 		return I2C_SLAVE_0;
 525              		.loc 1 159 0
 526 0042 0120     		mov	r0, #1	@ D.6709,
 158:../../lpc_chip_11cxx_lib/src/i2c_11xx.c **** 	if (isSlaveAddrMatching(pI2C->ADR0, slaveAddr, pI2C->MASK[0])) {
 527              		.loc 1 158 0
 528 0044 002C     		cmp	r4, #0	@ D.6712,
 529 0046 EAD0     		beq	.L38	@,
 161:../../lpc_chip_11cxx_lib/src/i2c_11xx.c **** 	if (isSlaveAddrMatching(pI2C->ADR1, slaveAddr, pI2C->MASK[1])) {
 530              		.loc 1 161 0
 531 0048 146A     		ldr	r4, [r2, #32]	@ D.6710, pI2C_4(D)->ADR1
 532 004a 506B     		ldr	r0, [r2, #52]	@ D.6710, pI2C_4(D)->MASK
 533              	.LVL32:
 534              	.LBB77:
 535              	.LBB78:
 149:../../lpc_chip_11cxx_lib/src/i2c_11xx.c **** 	return (addr1 & ~mask) == (addr2 & ~mask);
 536              		.loc 1 149 0
 537 004c 5C40     		eor	r4, r3	@ tmp181, D.6711
 538              	.LVL33:
 148:../../lpc_chip_11cxx_lib/src/i2c_11xx.c **** 	mask |= 1;
 539              		.loc 1 148 0
 540 004e 0843     		orr	r0, r1	@ tmp177, tmp164
 541              	.LVL34:
 149:../../lpc_chip_11cxx_lib/src/i2c_11xx.c **** 	return (addr1 & ~mask) == (addr2 & ~mask);
 542              		.loc 1 149 0
 543 0050 C0B2     		uxtb	r0, r0	@ D.6712, tmp177
 544 0052 E4B2     		uxtb	r4, r4	@ D.6712, tmp181
 545 0054 8443     		bic	r4, r0	@ D.6712, D.6712
 546              	.LBE78:
 547              	.LBE77:
 162:../../lpc_chip_11cxx_lib/src/i2c_11xx.c **** 		return I2C_SLAVE_1;
 548              		.loc 1 162 0
 549 0056 0220     		mov	r0, #2	@ D.6709,
 161:../../lpc_chip_11cxx_lib/src/i2c_11xx.c **** 	if (isSlaveAddrMatching(pI2C->ADR1, slaveAddr, pI2C->MASK[1])) {
 550              		.loc 1 161 0
 551 0058 002C     		cmp	r4, #0	@ D.6712,
 552 005a E0D0     		beq	.L38	@,
 164:../../lpc_chip_11cxx_lib/src/i2c_11xx.c **** 	if (isSlaveAddrMatching(pI2C->ADR2, slaveAddr, pI2C->MASK[2])) {
 553              		.loc 1 164 0
 554 005c 546A     		ldr	r4, [r2, #36]	@ D.6710, pI2C_4(D)->ADR2
 555 005e 906B     		ldr	r0, [r2, #56]	@ D.6710, pI2C_4(D)->MASK
 556              	.LVL35:
 557              	.LBB79:
 558              	.LBB80:
 149:../../lpc_chip_11cxx_lib/src/i2c_11xx.c **** 	return (addr1 & ~mask) == (addr2 & ~mask);
 559              		.loc 1 149 0
ARM GAS  /var/folders/f9/8bk2lnw15zn4cbgn6wrnb4lm0000gn/T//cc47W8rL.s 			page 18


 560 0060 5C40     		eor	r4, r3	@ tmp191, D.6711
 561              	.LVL36:
 148:../../lpc_chip_11cxx_lib/src/i2c_11xx.c **** 	mask |= 1;
 562              		.loc 1 148 0
 563 0062 0843     		orr	r0, r1	@ tmp187, tmp164
 564              	.LVL37:
 149:../../lpc_chip_11cxx_lib/src/i2c_11xx.c **** 	return (addr1 & ~mask) == (addr2 & ~mask);
 565              		.loc 1 149 0
 566 0064 C0B2     		uxtb	r0, r0	@ D.6712, tmp187
 567 0066 E4B2     		uxtb	r4, r4	@ D.6712, tmp191
 568 0068 8443     		bic	r4, r0	@ D.6712, D.6712
 569              	.LBE80:
 570              	.LBE79:
 165:../../lpc_chip_11cxx_lib/src/i2c_11xx.c **** 		return I2C_SLAVE_2;
 571              		.loc 1 165 0
 572 006a 0320     		mov	r0, #3	@ D.6709,
 164:../../lpc_chip_11cxx_lib/src/i2c_11xx.c **** 	if (isSlaveAddrMatching(pI2C->ADR2, slaveAddr, pI2C->MASK[2])) {
 573              		.loc 1 164 0
 574 006c 002C     		cmp	r4, #0	@ D.6712,
 575 006e D6D0     		beq	.L38	@,
 167:../../lpc_chip_11cxx_lib/src/i2c_11xx.c **** 	if (isSlaveAddrMatching(pI2C->ADR3, slaveAddr, pI2C->MASK[3])) {
 576              		.loc 1 167 0
 577 0070 906A     		ldr	r0, [r2, #40]	@ D.6710, pI2C_4(D)->ADR3
 578 0072 D26B     		ldr	r2, [r2, #60]	@ D.6710, pI2C_4(D)->MASK
 579              	.LVL38:
 580              	.LBB81:
 581              	.LBB82:
 149:../../lpc_chip_11cxx_lib/src/i2c_11xx.c **** 	return (addr1 & ~mask) == (addr2 & ~mask);
 582              		.loc 1 149 0
 583 0074 4340     		eor	r3, r0	@ tmp201, D.6710
 584              	.LVL39:
 148:../../lpc_chip_11cxx_lib/src/i2c_11xx.c **** 	mask |= 1;
 585              		.loc 1 148 0
 586 0076 1143     		orr	r1, r2	@ tmp197, D.6710
 149:../../lpc_chip_11cxx_lib/src/i2c_11xx.c **** 	return (addr1 & ~mask) == (addr2 & ~mask);
 587              		.loc 1 149 0
 588 0078 D8B2     		uxtb	r0, r3	@ D.6712, tmp201
 589              	.LVL40:
 590 007a C9B2     		uxtb	r1, r1	@ D.6712, tmp197
 591 007c 8843     		bic	r0, r1	@ D.6712, D.6712
 592              	.LBE82:
 593              	.LBE81:
 168:../../lpc_chip_11cxx_lib/src/i2c_11xx.c **** 		return I2C_SLAVE_3;
 594              		.loc 1 168 0
 595 007e 4342     		neg	r3, r0	@ tmp206, D.6712
 596 0080 5841     		adc	r0, r0, r3	@ tmp205, D.6712, tmp206
 597 0082 8000     		lsl	r0, r0, #2	@ D.6709, tmp205,
 598 0084 CBE7     		b	.L38	@
 599              	.LBE83:
 600              	.LBE84:
 601              		.cfi_endproc
 602              	.LFE210:
 603              		.size	getSlaveIndex, .-getSlaveIndex
 604 0086 C046     		.section	.text.handleSlaveXferState,"ax",%progbits
 605              		.align	2
 606              		.global	handleSlaveXferState
 607              		.code	16
ARM GAS  /var/folders/f9/8bk2lnw15zn4cbgn6wrnb4lm0000gn/T//cc47W8rL.s 			page 19


 608              		.thumb_func
 609              		.type	handleSlaveXferState, %function
 610              	handleSlaveXferState:
 611              	.LFB211:
 263:../../lpc_chip_11cxx_lib/src/i2c_11xx.c **** {
 612              		.loc 1 263 0
 613              		.cfi_startproc
 614              	.LVL41:
 267:../../lpc_chip_11cxx_lib/src/i2c_11xx.c **** 	xfer->status = I2C_STATUS_BUSY;
 615              		.loc 1 267 0
 616 0000 0422     		mov	r2, #4	@ tmp140,
 617 0002 0A75     		strb	r2, [r1, #20]	@ tmp140, xfer_6(D)->status
 618              	.LVL42:
 619              	.LBB85:
 620              	.LBB86:
 122:../../lpc_chip_11cxx_lib/src/i2c_11xx.c **** 	return (int) (pI2C->STAT & I2C_STAT_CODE_BITMASK);
 621              		.loc 1 122 0
 622 0004 4268     		ldr	r2, [r0, #4]	@ D.6720, pI2C_8(D)->STAT
 623              	.LBE86:
 624              	.LBE85:
 263:../../lpc_chip_11cxx_lib/src/i2c_11xx.c **** {
 625              		.loc 1 263 0
 626 0006 031C     		mov	r3, r0	@ pI2C, pI2C
 627              	.LBB88:
 628              	.LBB87:
 122:../../lpc_chip_11cxx_lib/src/i2c_11xx.c **** 	return (int) (pI2C->STAT & I2C_STAT_CODE_BITMASK);
 629              		.loc 1 122 0
 630 0008 F820     		mov	r0, #248	@ tmp142,
 631              	.LVL43:
 632 000a 0240     		and	r2, r0	@ D.6722, tmp142
 633              	.LBE87:
 634              	.LBE88:
 268:../../lpc_chip_11cxx_lib/src/i2c_11xx.c **** 	switch (getCurState(pI2C)) {
 635              		.loc 1 268 0
 636 000c 603A     		sub	r2, r2, #96	@ tmp144,
 637 000e 682A     		cmp	r2, #104	@ tmp144,
 638 0010 39D8     		bhi	.L79	@,
 639 0012 2548     		ldr	r0, .L86	@ tmp147,
 640 0014 9200     		lsl	r2, r2, #2	@ tmp145, tmp144,
 641 0016 8258     		ldr	r2, [r0, r2]	@ tmp148,
 642 0018 9746     		mov	pc, r2	@ tmp148
 643              		.section	.rodata.handleSlaveXferState,"a",%progbits
 644              		.align	2
 645              	.L74:
 646 0000 42000000 		.word	.L73
 647 0004 86000000 		.word	.L79
 648 0008 86000000 		.word	.L79
 649 000c 86000000 		.word	.L79
 650 0010 86000000 		.word	.L79
 651 0014 86000000 		.word	.L79
 652 0018 86000000 		.word	.L79
 653 001c 86000000 		.word	.L79
 654 0020 42000000 		.word	.L73
 655 0024 86000000 		.word	.L79
 656 0028 86000000 		.word	.L79
 657 002c 86000000 		.word	.L79
 658 0030 86000000 		.word	.L79
ARM GAS  /var/folders/f9/8bk2lnw15zn4cbgn6wrnb4lm0000gn/T//cc47W8rL.s 			page 20


 659 0034 86000000 		.word	.L79
 660 0038 86000000 		.word	.L79
 661 003c 86000000 		.word	.L79
 662 0040 42000000 		.word	.L73
 663 0044 86000000 		.word	.L79
 664 0048 86000000 		.word	.L79
 665 004c 86000000 		.word	.L79
 666 0050 86000000 		.word	.L79
 667 0054 86000000 		.word	.L79
 668 0058 86000000 		.word	.L79
 669 005c 86000000 		.word	.L79
 670 0060 42000000 		.word	.L73
 671 0064 86000000 		.word	.L79
 672 0068 86000000 		.word	.L79
 673 006c 86000000 		.word	.L79
 674 0070 86000000 		.word	.L79
 675 0074 86000000 		.word	.L79
 676 0078 86000000 		.word	.L79
 677 007c 86000000 		.word	.L79
 678 0080 58000000 		.word	.L75
 679 0084 86000000 		.word	.L79
 680 0088 86000000 		.word	.L79
 681 008c 86000000 		.word	.L79
 682 0090 86000000 		.word	.L79
 683 0094 86000000 		.word	.L79
 684 0098 86000000 		.word	.L79
 685 009c 86000000 		.word	.L79
 686 00a0 74000000 		.word	.L76
 687 00a4 86000000 		.word	.L79
 688 00a8 86000000 		.word	.L79
 689 00ac 86000000 		.word	.L79
 690 00b0 86000000 		.word	.L79
 691 00b4 86000000 		.word	.L79
 692 00b8 86000000 		.word	.L79
 693 00bc 86000000 		.word	.L79
 694 00c0 58000000 		.word	.L75
 695 00c4 86000000 		.word	.L79
 696 00c8 86000000 		.word	.L79
 697 00cc 86000000 		.word	.L79
 698 00d0 86000000 		.word	.L79
 699 00d4 86000000 		.word	.L79
 700 00d8 86000000 		.word	.L79
 701 00dc 86000000 		.word	.L79
 702 00e0 74000000 		.word	.L76
 703 00e4 86000000 		.word	.L79
 704 00e8 86000000 		.word	.L79
 705 00ec 86000000 		.word	.L79
 706 00f0 86000000 		.word	.L79
 707 00f4 86000000 		.word	.L79
 708 00f8 86000000 		.word	.L79
 709 00fc 86000000 		.word	.L79
 710 0100 74000000 		.word	.L76
 711 0104 86000000 		.word	.L79
 712 0108 86000000 		.word	.L79
 713 010c 86000000 		.word	.L79
 714 0110 86000000 		.word	.L79
 715 0114 86000000 		.word	.L79
ARM GAS  /var/folders/f9/8bk2lnw15zn4cbgn6wrnb4lm0000gn/T//cc47W8rL.s 			page 21


 716 0118 86000000 		.word	.L79
 717 011c 86000000 		.word	.L79
 718 0120 1A000000 		.word	.L77
 719 0124 86000000 		.word	.L79
 720 0128 86000000 		.word	.L79
 721 012c 86000000 		.word	.L79
 722 0130 86000000 		.word	.L79
 723 0134 86000000 		.word	.L79
 724 0138 86000000 		.word	.L79
 725 013c 86000000 		.word	.L79
 726 0140 1A000000 		.word	.L77
 727 0144 86000000 		.word	.L79
 728 0148 86000000 		.word	.L79
 729 014c 86000000 		.word	.L79
 730 0150 86000000 		.word	.L79
 731 0154 86000000 		.word	.L79
 732 0158 86000000 		.word	.L79
 733 015c 86000000 		.word	.L79
 734 0160 22000000 		.word	.L78
 735 0164 86000000 		.word	.L79
 736 0168 86000000 		.word	.L79
 737 016c 86000000 		.word	.L79
 738 0170 86000000 		.word	.L79
 739 0174 86000000 		.word	.L79
 740 0178 86000000 		.word	.L79
 741 017c 86000000 		.word	.L79
 742 0180 74000000 		.word	.L76
 743 0184 86000000 		.word	.L79
 744 0188 86000000 		.word	.L79
 745 018c 86000000 		.word	.L79
 746 0190 86000000 		.word	.L79
 747 0194 86000000 		.word	.L79
 748 0198 86000000 		.word	.L79
 749 019c 86000000 		.word	.L79
 750 01a0 74000000 		.word	.L76
 751              		.section	.text.handleSlaveXferState
 752              	.L77:
 291:../../lpc_chip_11cxx_lib/src/i2c_11xx.c **** 		xfer->slaveAddr = pI2C->DAT & ~1;
 753              		.loc 1 291 0
 754 001a 9A68     		ldr	r2, [r3, #8]	@ D.6720, pI2C_8(D)->DAT
 755 001c 0120     		mov	r0, #1	@ tmp159,
 756 001e 8243     		bic	r2, r0	@ tmp158, tmp159
 757 0020 0A70     		strb	r2, [r1]	@ tmp158, xfer_6(D)->slaveAddr
 758              	.L78:
 294:../../lpc_chip_11cxx_lib/src/i2c_11xx.c **** 		pI2C->DAT = *xfer->txBuff++;
 759              		.loc 1 294 0
 760 0022 4A68     		ldr	r2, [r1, #4]	@ D.6723, xfer_6(D)->txBuff
 761 0024 501C     		add	r0, r2, #1	@ D.6723, D.6723,
 762 0026 4860     		str	r0, [r1, #4]	@ D.6723, xfer_6(D)->txBuff
 763 0028 1278     		ldrb	r2, [r2]	@ D.6720, *_28
 764 002a 9A60     		str	r2, [r3, #8]	@ D.6720, pI2C_8(D)->DAT
 295:../../lpc_chip_11cxx_lib/src/i2c_11xx.c **** 		xfer->txSz--;
 765              		.loc 1 295 0
 766 002c 8A68     		ldr	r2, [r1, #8]	@ D.6722, xfer_6(D)->txSz
 767 002e 013A     		sub	r2, r2, #1	@ D.6722,
 768 0030 8A60     		str	r2, [r1, #8]	@ D.6722, xfer_6(D)->txSz
 296:../../lpc_chip_11cxx_lib/src/i2c_11xx.c **** 		if (xfer->txSz > 0) {
ARM GAS  /var/folders/f9/8bk2lnw15zn4cbgn6wrnb4lm0000gn/T//cc47W8rL.s 			page 22


 769              		.loc 1 296 0
 770 0032 002A     		cmp	r2, #0	@ D.6722,
 771 0034 2BDD     		ble	.L84	@,
 772 0036 0421     		mov	r1, #4	@ D.6720,
 773              	.LVL44:
 299:../../lpc_chip_11cxx_lib/src/i2c_11xx.c **** 		ret = RET_SLAVE_TX;
 774              		.loc 1 299 0
 775 0038 0620     		mov	r0, #6	@ ret,
 297:../../lpc_chip_11cxx_lib/src/i2c_11xx.c **** 			cclr &= ~I2C_CON_AA;
 776              		.loc 1 297 0
 777 003a 3822     		mov	r2, #56	@ cclr,
 778              	.LVL45:
 779              	.L72:
 317:../../lpc_chip_11cxx_lib/src/i2c_11xx.c **** 	pI2C->CONSET = cclr ^ I2C_CON_FLAGS;
 780              		.loc 1 317 0
 781 003c 1960     		str	r1, [r3]	@ D.6720, pI2C_8(D)->CONSET
 318:../../lpc_chip_11cxx_lib/src/i2c_11xx.c **** 	pI2C->CONCLR = cclr;
 782              		.loc 1 318 0
 783 003e 9A61     		str	r2, [r3, #24]	@ cclr, pI2C_8(D)->CONCLR
 321:../../lpc_chip_11cxx_lib/src/i2c_11xx.c **** }
 784              		.loc 1 321 0
 785              		@ sp needed	@
 786 0040 7047     		bx	lr
 787              	.LVL46:
 788              	.L73:
 283:../../lpc_chip_11cxx_lib/src/i2c_11xx.c **** 		xfer->slaveAddr = pI2C->DAT & ~1;
 789              		.loc 1 283 0
 790 0042 9A68     		ldr	r2, [r3, #8]	@ D.6720, pI2C_8(D)->DAT
 791 0044 0120     		mov	r0, #1	@ tmp154,
 792 0046 8243     		bic	r2, r0	@ tmp153, tmp154
 793 0048 0A70     		strb	r2, [r1]	@ tmp153, xfer_6(D)->slaveAddr
 284:../../lpc_chip_11cxx_lib/src/i2c_11xx.c **** 		if (xfer->rxSz > 1) {
 794              		.loc 1 284 0
 795 004a 0A69     		ldr	r2, [r1, #16]	@ xfer_6(D)->rxSz, xfer_6(D)->rxSz
 796 004c 012A     		cmp	r2, #1	@ xfer_6(D)->rxSz,
 797 004e 1ADD     		ble	.L79	@,
 798 0050 0421     		mov	r1, #4	@ D.6720,
 799              	.LVL47:
 265:../../lpc_chip_11cxx_lib/src/i2c_11xx.c **** 	int ret = RET_SLAVE_BUSY;
 800              		.loc 1 265 0
 801 0052 0020     		mov	r0, #0	@ ret,
 285:../../lpc_chip_11cxx_lib/src/i2c_11xx.c **** 			cclr &= ~I2C_CON_AA;
 802              		.loc 1 285 0
 803 0054 3822     		mov	r2, #56	@ cclr,
 804 0056 F1E7     		b	.L72	@
 805              	.LVL48:
 806              	.L75:
 271:../../lpc_chip_11cxx_lib/src/i2c_11xx.c **** 		*xfer->rxBuff++ = pI2C->DAT;
 807              		.loc 1 271 0
 808 0058 CA68     		ldr	r2, [r1, #12]	@ D.6719, xfer_6(D)->rxBuff
 809 005a 501C     		add	r0, r2, #1	@ D.6719, D.6719,
 810 005c C860     		str	r0, [r1, #12]	@ D.6719, xfer_6(D)->rxBuff
 811 005e 9868     		ldr	r0, [r3, #8]	@ D.6720, pI2C_8(D)->DAT
 812 0060 1070     		strb	r0, [r2]	@ D.6720, *_10
 272:../../lpc_chip_11cxx_lib/src/i2c_11xx.c **** 		xfer->rxSz--;
 813              		.loc 1 272 0
 814 0062 0A69     		ldr	r2, [r1, #16]	@ D.6722, xfer_6(D)->rxSz
ARM GAS  /var/folders/f9/8bk2lnw15zn4cbgn6wrnb4lm0000gn/T//cc47W8rL.s 			page 23


 815 0064 013A     		sub	r2, r2, #1	@ D.6722,
 816 0066 0A61     		str	r2, [r1, #16]	@ D.6722, xfer_6(D)->rxSz
 817              	.LVL49:
 274:../../lpc_chip_11cxx_lib/src/i2c_11xx.c **** 		if (xfer->rxSz > 1) {
 818              		.loc 1 274 0
 819 0068 012A     		cmp	r2, #1	@ D.6722,
 820 006a 18DD     		ble	.L85	@,
 821 006c 0421     		mov	r1, #4	@ D.6720,
 822              	.LVL50:
 273:../../lpc_chip_11cxx_lib/src/i2c_11xx.c **** 		ret = RET_SLAVE_RX;
 823              		.loc 1 273 0
 824 006e 0520     		mov	r0, #5	@ ret,
 275:../../lpc_chip_11cxx_lib/src/i2c_11xx.c **** 			cclr &= ~I2C_CON_AA;
 825              		.loc 1 275 0
 826 0070 3822     		mov	r2, #56	@ cclr,
 827 0072 E3E7     		b	.L72	@
 828              	.LVL51:
 829              	.L76:
 309:../../lpc_chip_11cxx_lib/src/i2c_11xx.c **** 		xfer->status = I2C_STATUS_DONE;
 830              		.loc 1 309 0
 831 0074 0022     		mov	r2, #0	@ tmp163,
 832 0076 0A75     		strb	r2, [r1, #20]	@ tmp163, xfer_6(D)->status
 310:../../lpc_chip_11cxx_lib/src/i2c_11xx.c **** 		if (xfer->slaveAddr & 1) {
 833              		.loc 1 310 0
 834 0078 0A78     		ldrb	r2, [r1]	@ *xfer_6(D), *xfer_6(D)
 835 007a D107     		lsl	r1, r2, #31	@, *xfer_6(D),
 836 007c 0BD4     		bmi	.L83	@,
 837              	.LVL52:
 838 007e 0421     		mov	r1, #4	@ D.6720,
 307:../../lpc_chip_11cxx_lib/src/i2c_11xx.c **** 		ret = RET_SLAVE_IDLE;
 839              		.loc 1 307 0
 840 0080 0220     		mov	r0, #2	@ ret,
 308:../../lpc_chip_11cxx_lib/src/i2c_11xx.c **** 		cclr &= ~I2C_CON_AA;
 841              		.loc 1 308 0
 842 0082 3822     		mov	r2, #56	@ cclr,
 843 0084 DAE7     		b	.L72	@
 844              	.LVL53:
 845              	.L79:
 268:../../lpc_chip_11cxx_lib/src/i2c_11xx.c **** 	switch (getCurState(pI2C)) {
 846              		.loc 1 268 0
 847 0086 0021     		mov	r1, #0	@ D.6720,
 848              	.LVL54:
 265:../../lpc_chip_11cxx_lib/src/i2c_11xx.c **** 	int ret = RET_SLAVE_BUSY;
 849              		.loc 1 265 0
 850 0088 0020     		mov	r0, #0	@ ret,
 264:../../lpc_chip_11cxx_lib/src/i2c_11xx.c **** 	uint32_t cclr = I2C_CON_FLAGS;
 851              		.loc 1 264 0
 852 008a 3C22     		mov	r2, #60	@ cclr,
 853 008c D6E7     		b	.L72	@
 854              	.LVL55:
 855              	.L84:
 296:../../lpc_chip_11cxx_lib/src/i2c_11xx.c **** 		if (xfer->txSz > 0) {
 856              		.loc 1 296 0
 857 008e 0021     		mov	r1, #0	@ D.6720,
 858              	.LVL56:
 299:../../lpc_chip_11cxx_lib/src/i2c_11xx.c **** 		ret = RET_SLAVE_TX;
 859              		.loc 1 299 0
ARM GAS  /var/folders/f9/8bk2lnw15zn4cbgn6wrnb4lm0000gn/T//cc47W8rL.s 			page 24


 860 0090 0620     		mov	r0, #6	@ ret,
 264:../../lpc_chip_11cxx_lib/src/i2c_11xx.c **** 	uint32_t cclr = I2C_CON_FLAGS;
 861              		.loc 1 264 0
 862 0092 3C22     		mov	r2, #60	@ cclr,
 863 0094 D2E7     		b	.L72	@
 864              	.LVL57:
 865              	.L83:
 866 0096 2421     		mov	r1, #36	@ D.6720,
 307:../../lpc_chip_11cxx_lib/src/i2c_11xx.c **** 		ret = RET_SLAVE_IDLE;
 867              		.loc 1 307 0
 868 0098 0220     		mov	r0, #2	@ ret,
 311:../../lpc_chip_11cxx_lib/src/i2c_11xx.c **** 			cclr &= ~I2C_CON_STA;
 869              		.loc 1 311 0
 870 009a 1822     		mov	r2, #24	@ cclr,
 871 009c CEE7     		b	.L72	@
 872              	.LVL58:
 873              	.L85:
 274:../../lpc_chip_11cxx_lib/src/i2c_11xx.c **** 		if (xfer->rxSz > 1) {
 874              		.loc 1 274 0
 875 009e 0021     		mov	r1, #0	@ D.6720,
 876              	.LVL59:
 273:../../lpc_chip_11cxx_lib/src/i2c_11xx.c **** 		ret = RET_SLAVE_RX;
 877              		.loc 1 273 0
 878 00a0 0520     		mov	r0, #5	@ ret,
 264:../../lpc_chip_11cxx_lib/src/i2c_11xx.c **** 	uint32_t cclr = I2C_CON_FLAGS;
 879              		.loc 1 264 0
 880 00a2 3C22     		mov	r2, #60	@ cclr,
 881 00a4 CAE7     		b	.L72	@
 882              	.L87:
 883 00a6 C046     		.align	2
 884              	.L86:
 885 00a8 00000000 		.word	.L74
 886              		.cfi_endproc
 887              	.LFE211:
 888              		.size	handleSlaveXferState, .-handleSlaveXferState
 889              		.section	.text.Chip_I2C_Init,"ax",%progbits
 890              		.align	2
 891              		.global	Chip_I2C_Init
 892              		.code	16
 893              		.thumb_func
 894              		.type	Chip_I2C_Init, %function
 895              	Chip_I2C_Init:
 896              	.LFB214:
 342:../../lpc_chip_11cxx_lib/src/i2c_11xx.c **** 
 343:../../lpc_chip_11cxx_lib/src/i2c_11xx.c **** /* Chip polling event handler */
 344:../../lpc_chip_11cxx_lib/src/i2c_11xx.c **** void Chip_I2C_EventHandlerPolling(I2C_ID_T id, I2C_EVENT_T event)
 345:../../lpc_chip_11cxx_lib/src/i2c_11xx.c **** {
 346:../../lpc_chip_11cxx_lib/src/i2c_11xx.c **** 	struct i2c_interface *iic = &i2c[id];
 347:../../lpc_chip_11cxx_lib/src/i2c_11xx.c **** 	volatile I2C_STATUS_T *stat;
 348:../../lpc_chip_11cxx_lib/src/i2c_11xx.c **** 
 349:../../lpc_chip_11cxx_lib/src/i2c_11xx.c **** 	/* Only WAIT event needs to be handled */
 350:../../lpc_chip_11cxx_lib/src/i2c_11xx.c **** 	if (event != I2C_EVENT_WAIT) {
 351:../../lpc_chip_11cxx_lib/src/i2c_11xx.c **** 		return;
 352:../../lpc_chip_11cxx_lib/src/i2c_11xx.c **** 	}
 353:../../lpc_chip_11cxx_lib/src/i2c_11xx.c **** 
 354:../../lpc_chip_11cxx_lib/src/i2c_11xx.c **** 	stat = &iic->mXfer->status;
 355:../../lpc_chip_11cxx_lib/src/i2c_11xx.c **** 	/* Call the state change handler till xfer is done */
ARM GAS  /var/folders/f9/8bk2lnw15zn4cbgn6wrnb4lm0000gn/T//cc47W8rL.s 			page 25


 356:../../lpc_chip_11cxx_lib/src/i2c_11xx.c **** 	while (*stat == I2C_STATUS_BUSY) {
 357:../../lpc_chip_11cxx_lib/src/i2c_11xx.c **** 		if (Chip_I2C_IsStateChanged(id)) {
 358:../../lpc_chip_11cxx_lib/src/i2c_11xx.c **** 			Chip_I2C_MasterStateHandler(id);
 359:../../lpc_chip_11cxx_lib/src/i2c_11xx.c **** 		}
 360:../../lpc_chip_11cxx_lib/src/i2c_11xx.c **** 	}
 361:../../lpc_chip_11cxx_lib/src/i2c_11xx.c **** }
 362:../../lpc_chip_11cxx_lib/src/i2c_11xx.c **** 
 363:../../lpc_chip_11cxx_lib/src/i2c_11xx.c **** /* Initializes the LPC_I2C peripheral with specified parameter */
 364:../../lpc_chip_11cxx_lib/src/i2c_11xx.c **** void Chip_I2C_Init(I2C_ID_T id)
 365:../../lpc_chip_11cxx_lib/src/i2c_11xx.c **** {
 897              		.loc 1 365 0
 898              		.cfi_startproc
 899              	.LVL60:
 900 0000 70B5     		push	{r4, r5, r6, lr}	@
 901              		.cfi_def_cfa_offset 16
 902              		.cfi_offset 4, -16
 903              		.cfi_offset 5, -12
 904              		.cfi_offset 6, -8
 905              		.cfi_offset 14, -4
 906              	.LBB89:
 907              	.LBB90:
  79:../../lpc_chip_11cxx_lib/src/i2c_11xx.c **** 	Chip_Clock_EnablePeriphClock(i2c[id].clk);
 908              		.loc 1 79 0
 909 0002 C400     		lsl	r4, r0, #3	@ tmp123, id,
 910 0004 084B     		ldr	r3, .L89	@ tmp121,
 911 0006 201A     		sub	r0, r4, r0	@ tmp124, tmp123, id
 912              	.LVL61:
 913 0008 8000     		lsl	r0, r0, #2	@ tmp125, tmp124,
 914 000a 1C18     		add	r4, r3, r0	@ tmp126, tmp121, tmp125
 915              	.LBB91:
 916              	.LBB92:
 917              		.file 2 "../../lpc_chip_11cxx_lib/inc/clock_11xx.h"
   1:../../lpc_chip_11cxx_lib/inc/clock_11xx.h **** /*
   2:../../lpc_chip_11cxx_lib/inc/clock_11xx.h ****  * @brief LPC11XX Clock control functions
   3:../../lpc_chip_11cxx_lib/inc/clock_11xx.h ****  *
   4:../../lpc_chip_11cxx_lib/inc/clock_11xx.h ****  * @note
   5:../../lpc_chip_11cxx_lib/inc/clock_11xx.h ****  * Copyright(C) NXP Semiconductors, 2012
   6:../../lpc_chip_11cxx_lib/inc/clock_11xx.h ****  * All rights reserved.
   7:../../lpc_chip_11cxx_lib/inc/clock_11xx.h ****  *
   8:../../lpc_chip_11cxx_lib/inc/clock_11xx.h ****  * @par
   9:../../lpc_chip_11cxx_lib/inc/clock_11xx.h ****  * Software that is described herein is for illustrative purposes only
  10:../../lpc_chip_11cxx_lib/inc/clock_11xx.h ****  * which provides customers with programming information regarding the
  11:../../lpc_chip_11cxx_lib/inc/clock_11xx.h ****  * LPC products.  This software is supplied "AS IS" without any warranties of
  12:../../lpc_chip_11cxx_lib/inc/clock_11xx.h ****  * any kind, and NXP Semiconductors and its licensor disclaim any and
  13:../../lpc_chip_11cxx_lib/inc/clock_11xx.h ****  * all warranties, express or implied, including all implied warranties of
  14:../../lpc_chip_11cxx_lib/inc/clock_11xx.h ****  * merchantability, fitness for a particular purpose and non-infringement of
  15:../../lpc_chip_11cxx_lib/inc/clock_11xx.h ****  * intellectual property rights.  NXP Semiconductors assumes no responsibility
  16:../../lpc_chip_11cxx_lib/inc/clock_11xx.h ****  * or liability for the use of the software, conveys no license or rights under any
  17:../../lpc_chip_11cxx_lib/inc/clock_11xx.h ****  * patent, copyright, mask work right, or any other intellectual property rights in
  18:../../lpc_chip_11cxx_lib/inc/clock_11xx.h ****  * or to any products. NXP Semiconductors reserves the right to make changes
  19:../../lpc_chip_11cxx_lib/inc/clock_11xx.h ****  * in the software without notification. NXP Semiconductors also makes no
  20:../../lpc_chip_11cxx_lib/inc/clock_11xx.h ****  * representation or warranty that such application will be suitable for the
  21:../../lpc_chip_11cxx_lib/inc/clock_11xx.h ****  * specified use without further testing or modification.
  22:../../lpc_chip_11cxx_lib/inc/clock_11xx.h ****  *
  23:../../lpc_chip_11cxx_lib/inc/clock_11xx.h ****  * @par
  24:../../lpc_chip_11cxx_lib/inc/clock_11xx.h ****  * Permission to use, copy, modify, and distribute this software and its
  25:../../lpc_chip_11cxx_lib/inc/clock_11xx.h ****  * documentation is hereby granted, under NXP Semiconductors' and its
ARM GAS  /var/folders/f9/8bk2lnw15zn4cbgn6wrnb4lm0000gn/T//cc47W8rL.s 			page 26


  26:../../lpc_chip_11cxx_lib/inc/clock_11xx.h ****  * licensor's relevant copyrights in the software, without fee, provided that it
  27:../../lpc_chip_11cxx_lib/inc/clock_11xx.h ****  * is used in conjunction with NXP Semiconductors microcontrollers.  This
  28:../../lpc_chip_11cxx_lib/inc/clock_11xx.h ****  * copyright, permission, and disclaimer notice must appear in all copies of
  29:../../lpc_chip_11cxx_lib/inc/clock_11xx.h ****  * this code.
  30:../../lpc_chip_11cxx_lib/inc/clock_11xx.h ****  */
  31:../../lpc_chip_11cxx_lib/inc/clock_11xx.h **** 
  32:../../lpc_chip_11cxx_lib/inc/clock_11xx.h **** #ifndef __CLOCK_11XX_H_
  33:../../lpc_chip_11cxx_lib/inc/clock_11xx.h **** #define __CLOCK_11XX_H_
  34:../../lpc_chip_11cxx_lib/inc/clock_11xx.h **** 
  35:../../lpc_chip_11cxx_lib/inc/clock_11xx.h **** #ifdef __cplusplus
  36:../../lpc_chip_11cxx_lib/inc/clock_11xx.h **** extern "C" {
  37:../../lpc_chip_11cxx_lib/inc/clock_11xx.h **** #endif
  38:../../lpc_chip_11cxx_lib/inc/clock_11xx.h **** 
  39:../../lpc_chip_11cxx_lib/inc/clock_11xx.h **** /** @defgroup CLOCK_11XX CHIP: LPC11xx Clock Control block driver
  40:../../lpc_chip_11cxx_lib/inc/clock_11xx.h ****  * @ingroup CHIP_11XX_Drivers
  41:../../lpc_chip_11cxx_lib/inc/clock_11xx.h ****  * @{
  42:../../lpc_chip_11cxx_lib/inc/clock_11xx.h ****  */
  43:../../lpc_chip_11cxx_lib/inc/clock_11xx.h **** 
  44:../../lpc_chip_11cxx_lib/inc/clock_11xx.h **** /** Internal oscillator frequency */
  45:../../lpc_chip_11cxx_lib/inc/clock_11xx.h **** #define SYSCTL_IRC_FREQ (12000000)
  46:../../lpc_chip_11cxx_lib/inc/clock_11xx.h **** 
  47:../../lpc_chip_11cxx_lib/inc/clock_11xx.h **** /**
  48:../../lpc_chip_11cxx_lib/inc/clock_11xx.h ****  * @brief	Set System PLL divider values
  49:../../lpc_chip_11cxx_lib/inc/clock_11xx.h ****  * @param	msel    : PLL feedback divider value. M = msel + 1.
  50:../../lpc_chip_11cxx_lib/inc/clock_11xx.h ****  * @param	psel    : PLL post divider value. P =  (1<<psel).
  51:../../lpc_chip_11cxx_lib/inc/clock_11xx.h ****  * @return	Nothing
  52:../../lpc_chip_11cxx_lib/inc/clock_11xx.h ****  * @note	See the user manual for how to setup the PLL.
  53:../../lpc_chip_11cxx_lib/inc/clock_11xx.h ****  */
  54:../../lpc_chip_11cxx_lib/inc/clock_11xx.h **** STATIC INLINE void Chip_Clock_SetupSystemPLL(uint8_t msel, uint8_t psel)
  55:../../lpc_chip_11cxx_lib/inc/clock_11xx.h **** {
  56:../../lpc_chip_11cxx_lib/inc/clock_11xx.h **** 	LPC_SYSCTL->SYSPLLCTRL = (msel & 0x1F) | ((psel & 0x3) << 5);
  57:../../lpc_chip_11cxx_lib/inc/clock_11xx.h **** }
  58:../../lpc_chip_11cxx_lib/inc/clock_11xx.h **** 
  59:../../lpc_chip_11cxx_lib/inc/clock_11xx.h **** /**
  60:../../lpc_chip_11cxx_lib/inc/clock_11xx.h ****  * @brief	Read System PLL lock status
  61:../../lpc_chip_11cxx_lib/inc/clock_11xx.h ****  * @return	true of the PLL is locked. false if not locked
  62:../../lpc_chip_11cxx_lib/inc/clock_11xx.h ****  */
  63:../../lpc_chip_11cxx_lib/inc/clock_11xx.h **** STATIC INLINE bool Chip_Clock_IsSystemPLLLocked(void)
  64:../../lpc_chip_11cxx_lib/inc/clock_11xx.h **** {
  65:../../lpc_chip_11cxx_lib/inc/clock_11xx.h **** 	return (bool) ((LPC_SYSCTL->SYSPLLSTAT & 1) != 0);
  66:../../lpc_chip_11cxx_lib/inc/clock_11xx.h **** }
  67:../../lpc_chip_11cxx_lib/inc/clock_11xx.h **** 
  68:../../lpc_chip_11cxx_lib/inc/clock_11xx.h **** /**
  69:../../lpc_chip_11cxx_lib/inc/clock_11xx.h ****  * Clock sources for system and USB PLLs
  70:../../lpc_chip_11cxx_lib/inc/clock_11xx.h ****  */
  71:../../lpc_chip_11cxx_lib/inc/clock_11xx.h **** typedef enum CHIP_SYSCTL_PLLCLKSRC {
  72:../../lpc_chip_11cxx_lib/inc/clock_11xx.h **** 	SYSCTL_PLLCLKSRC_IRC = 0,		/*!< Internal oscillator in */
  73:../../lpc_chip_11cxx_lib/inc/clock_11xx.h **** 	SYSCTL_PLLCLKSRC_MAINOSC,		/*!< Crystal (main) oscillator in */
  74:../../lpc_chip_11cxx_lib/inc/clock_11xx.h **** #if defined(CHIP_LPC11AXX)
  75:../../lpc_chip_11cxx_lib/inc/clock_11xx.h **** 	SYSCTL_PLLCLKSRC_EXT_CLKIN,	/*!< External clock in (11Axx only) */
  76:../../lpc_chip_11cxx_lib/inc/clock_11xx.h **** #else
  77:../../lpc_chip_11cxx_lib/inc/clock_11xx.h **** 	SYSCTL_PLLCLKSRC_RESERVED1,	/*!< Reserved */
  78:../../lpc_chip_11cxx_lib/inc/clock_11xx.h **** #endif
  79:../../lpc_chip_11cxx_lib/inc/clock_11xx.h **** 	SYSCTL_PLLCLKSRC_RESERVED2,	/*!< Reserved */
  80:../../lpc_chip_11cxx_lib/inc/clock_11xx.h **** } CHIP_SYSCTL_PLLCLKSRC_T;
  81:../../lpc_chip_11cxx_lib/inc/clock_11xx.h **** 
  82:../../lpc_chip_11cxx_lib/inc/clock_11xx.h **** /**
ARM GAS  /var/folders/f9/8bk2lnw15zn4cbgn6wrnb4lm0000gn/T//cc47W8rL.s 			page 27


  83:../../lpc_chip_11cxx_lib/inc/clock_11xx.h ****  * @brief	Set System PLL clock source
  84:../../lpc_chip_11cxx_lib/inc/clock_11xx.h ****  * @param	src	: Clock source for system PLL
  85:../../lpc_chip_11cxx_lib/inc/clock_11xx.h ****  * @return	Nothing
  86:../../lpc_chip_11cxx_lib/inc/clock_11xx.h ****  * @note	This function will also toggle the clock source update register
  87:../../lpc_chip_11cxx_lib/inc/clock_11xx.h ****  * to update the clock source.
  88:../../lpc_chip_11cxx_lib/inc/clock_11xx.h ****  */
  89:../../lpc_chip_11cxx_lib/inc/clock_11xx.h **** void Chip_Clock_SetSystemPLLSource(CHIP_SYSCTL_PLLCLKSRC_T src);
  90:../../lpc_chip_11cxx_lib/inc/clock_11xx.h **** 
  91:../../lpc_chip_11cxx_lib/inc/clock_11xx.h **** #if defined(CHIP_LPC11UXX)
  92:../../lpc_chip_11cxx_lib/inc/clock_11xx.h **** /**
  93:../../lpc_chip_11cxx_lib/inc/clock_11xx.h ****  * @brief	Set USB PLL divider values
  94:../../lpc_chip_11cxx_lib/inc/clock_11xx.h ****  * @param	msel    : PLL feedback divider value. M = msel + 1.
  95:../../lpc_chip_11cxx_lib/inc/clock_11xx.h ****  * @param	psel    : PLL post divider value. P = (1<<psel).
  96:../../lpc_chip_11cxx_lib/inc/clock_11xx.h ****  * @return	Nothing
  97:../../lpc_chip_11cxx_lib/inc/clock_11xx.h ****  * @note	See the user manual for how to setup the PLL.
  98:../../lpc_chip_11cxx_lib/inc/clock_11xx.h ****  */
  99:../../lpc_chip_11cxx_lib/inc/clock_11xx.h **** STATIC INLINE void Chip_Clock_SetupUSBPLL(uint8_t msel, uint8_t psel)
 100:../../lpc_chip_11cxx_lib/inc/clock_11xx.h **** {
 101:../../lpc_chip_11cxx_lib/inc/clock_11xx.h **** 	LPC_SYSCTL->USBPLLCTRL = (msel & 0x1F) | ((psel & 0x3) << 5);
 102:../../lpc_chip_11cxx_lib/inc/clock_11xx.h **** }
 103:../../lpc_chip_11cxx_lib/inc/clock_11xx.h **** 
 104:../../lpc_chip_11cxx_lib/inc/clock_11xx.h **** /**
 105:../../lpc_chip_11cxx_lib/inc/clock_11xx.h ****  * @brief	Read USB PLL lock status
 106:../../lpc_chip_11cxx_lib/inc/clock_11xx.h ****  * @return	true of the PLL is locked. false if not locked
 107:../../lpc_chip_11cxx_lib/inc/clock_11xx.h ****  */
 108:../../lpc_chip_11cxx_lib/inc/clock_11xx.h **** STATIC INLINE bool Chip_Clock_IsUSBPLLLocked(void)
 109:../../lpc_chip_11cxx_lib/inc/clock_11xx.h **** {
 110:../../lpc_chip_11cxx_lib/inc/clock_11xx.h **** 	return (bool) ((LPC_SYSCTL->USBPLLSTAT & 1) != 0);
 111:../../lpc_chip_11cxx_lib/inc/clock_11xx.h **** }
 112:../../lpc_chip_11cxx_lib/inc/clock_11xx.h **** 
 113:../../lpc_chip_11cxx_lib/inc/clock_11xx.h **** /**
 114:../../lpc_chip_11cxx_lib/inc/clock_11xx.h ****  * @brief	Set USB PLL clock source
 115:../../lpc_chip_11cxx_lib/inc/clock_11xx.h ****  * @param	src	: Clock source for USB PLL
 116:../../lpc_chip_11cxx_lib/inc/clock_11xx.h ****  * @return	Nothing
 117:../../lpc_chip_11cxx_lib/inc/clock_11xx.h ****  * @note	This function will also toggle the clock source update register
 118:../../lpc_chip_11cxx_lib/inc/clock_11xx.h ****  * to update the clock source.
 119:../../lpc_chip_11cxx_lib/inc/clock_11xx.h ****  */
 120:../../lpc_chip_11cxx_lib/inc/clock_11xx.h **** void Chip_Clock_SetUSBPLLSource(CHIP_SYSCTL_PLLCLKSRC_T src);
 121:../../lpc_chip_11cxx_lib/inc/clock_11xx.h **** 
 122:../../lpc_chip_11cxx_lib/inc/clock_11xx.h **** #endif /*defined(CHIP_LPC11UXX)*/
 123:../../lpc_chip_11cxx_lib/inc/clock_11xx.h **** 
 124:../../lpc_chip_11cxx_lib/inc/clock_11xx.h **** /**
 125:../../lpc_chip_11cxx_lib/inc/clock_11xx.h ****  * @brief	Bypass System Oscillator and set oscillator frequency range
 126:../../lpc_chip_11cxx_lib/inc/clock_11xx.h ****  * @param	bypass	: Flag to bypass oscillator
 127:../../lpc_chip_11cxx_lib/inc/clock_11xx.h ****  * @param	highfr	: Flag to set oscillator range from 15-25 MHz
 128:../../lpc_chip_11cxx_lib/inc/clock_11xx.h ****  * @return	Nothing
 129:../../lpc_chip_11cxx_lib/inc/clock_11xx.h ****  * @note	Sets the PLL input to bypass the oscillator. This would be
 130:../../lpc_chip_11cxx_lib/inc/clock_11xx.h ****  * used if an external clock that is not an oscillator is attached
 131:../../lpc_chip_11cxx_lib/inc/clock_11xx.h ****  * to the XTALIN pin.
 132:../../lpc_chip_11cxx_lib/inc/clock_11xx.h ****  */
 133:../../lpc_chip_11cxx_lib/inc/clock_11xx.h **** void Chip_Clock_SetPLLBypass(bool bypass, bool highfr);
 134:../../lpc_chip_11cxx_lib/inc/clock_11xx.h **** 
 135:../../lpc_chip_11cxx_lib/inc/clock_11xx.h **** /**
 136:../../lpc_chip_11cxx_lib/inc/clock_11xx.h ****  * Watchdog and low frequency oscillator frequencies plus or minus 40%
 137:../../lpc_chip_11cxx_lib/inc/clock_11xx.h ****  */
 138:../../lpc_chip_11cxx_lib/inc/clock_11xx.h **** typedef enum CHIP_WDTLFO_OSC {
 139:../../lpc_chip_11cxx_lib/inc/clock_11xx.h **** 	WDTLFO_OSC_ILLEGAL,
ARM GAS  /var/folders/f9/8bk2lnw15zn4cbgn6wrnb4lm0000gn/T//cc47W8rL.s 			page 28


 140:../../lpc_chip_11cxx_lib/inc/clock_11xx.h **** 	WDTLFO_OSC_0_60,	/*!< 0.6 MHz watchdog/LFO rate */
 141:../../lpc_chip_11cxx_lib/inc/clock_11xx.h **** 	WDTLFO_OSC_1_05,	/*!< 1.05 MHz watchdog/LFO rate */
 142:../../lpc_chip_11cxx_lib/inc/clock_11xx.h **** 	WDTLFO_OSC_1_40,	/*!< 1.4 MHz watchdog/LFO rate */
 143:../../lpc_chip_11cxx_lib/inc/clock_11xx.h **** 	WDTLFO_OSC_1_75,	/*!< 1.75 MHz watchdog/LFO rate */
 144:../../lpc_chip_11cxx_lib/inc/clock_11xx.h **** 	WDTLFO_OSC_2_10,	/*!< 2.1 MHz watchdog/LFO rate */
 145:../../lpc_chip_11cxx_lib/inc/clock_11xx.h **** 	WDTLFO_OSC_2_40,	/*!< 2.4 MHz watchdog/LFO rate */
 146:../../lpc_chip_11cxx_lib/inc/clock_11xx.h **** 	WDTLFO_OSC_2_70,	/*!< 2.7 MHz watchdog/LFO rate */
 147:../../lpc_chip_11cxx_lib/inc/clock_11xx.h **** 	WDTLFO_OSC_3_00,	/*!< 3.0 MHz watchdog/LFO rate */
 148:../../lpc_chip_11cxx_lib/inc/clock_11xx.h **** 	WDTLFO_OSC_3_25,	/*!< 3.25 MHz watchdog/LFO rate */
 149:../../lpc_chip_11cxx_lib/inc/clock_11xx.h **** 	WDTLFO_OSC_3_50,	/*!< 3.5 MHz watchdog/LFO rate */
 150:../../lpc_chip_11cxx_lib/inc/clock_11xx.h **** 	WDTLFO_OSC_3_75,	/*!< 3.75 MHz watchdog/LFO rate */
 151:../../lpc_chip_11cxx_lib/inc/clock_11xx.h **** 	WDTLFO_OSC_4_00,	/*!< 4.0 MHz watchdog/LFO rate */
 152:../../lpc_chip_11cxx_lib/inc/clock_11xx.h **** 	WDTLFO_OSC_4_20,	/*!< 4.2 MHz watchdog/LFO rate */
 153:../../lpc_chip_11cxx_lib/inc/clock_11xx.h **** 	WDTLFO_OSC_4_40,	/*!< 4.4 MHz watchdog/LFO rate */
 154:../../lpc_chip_11cxx_lib/inc/clock_11xx.h **** 	WDTLFO_OSC_4_60		/*!< 4.6 MHz watchdog/LFO rate */
 155:../../lpc_chip_11cxx_lib/inc/clock_11xx.h **** } CHIP_WDTLFO_OSC_T;
 156:../../lpc_chip_11cxx_lib/inc/clock_11xx.h **** 
 157:../../lpc_chip_11cxx_lib/inc/clock_11xx.h **** /**
 158:../../lpc_chip_11cxx_lib/inc/clock_11xx.h ****  * @brief	Setup Watchdog oscillator rate and divider
 159:../../lpc_chip_11cxx_lib/inc/clock_11xx.h ****  * @param	wdtclk	: Selected watchdog clock rate
 160:../../lpc_chip_11cxx_lib/inc/clock_11xx.h ****  * @param	div		: Watchdog divider value, even value between 2 and 64
 161:../../lpc_chip_11cxx_lib/inc/clock_11xx.h ****  * @return	Nothing
 162:../../lpc_chip_11cxx_lib/inc/clock_11xx.h ****  * @note	Watchdog rate = selected rate divided by divider rate
 163:../../lpc_chip_11cxx_lib/inc/clock_11xx.h ****  */
 164:../../lpc_chip_11cxx_lib/inc/clock_11xx.h **** STATIC INLINE void Chip_Clock_SetWDTOSC(CHIP_WDTLFO_OSC_T wdtclk, uint8_t div)
 165:../../lpc_chip_11cxx_lib/inc/clock_11xx.h **** {
 166:../../lpc_chip_11cxx_lib/inc/clock_11xx.h **** 	LPC_SYSCTL->WDTOSCCTRL  = (((uint32_t) wdtclk) << 5) | ((div >> 1) - 1);
 167:../../lpc_chip_11cxx_lib/inc/clock_11xx.h **** }
 168:../../lpc_chip_11cxx_lib/inc/clock_11xx.h **** 
 169:../../lpc_chip_11cxx_lib/inc/clock_11xx.h **** #if defined(CHIP_LPC11AXX)
 170:../../lpc_chip_11cxx_lib/inc/clock_11xx.h **** /**
 171:../../lpc_chip_11cxx_lib/inc/clock_11xx.h ****  * @brief	Setup low frequency oscillator rate and divider
 172:../../lpc_chip_11cxx_lib/inc/clock_11xx.h ****  * @param	lfoclk	: Selected low frequency clock rate
 173:../../lpc_chip_11cxx_lib/inc/clock_11xx.h ****  * @param	div		: Low frequency divider value, even value between 2 and 64
 174:../../lpc_chip_11cxx_lib/inc/clock_11xx.h ****  * @return	Nothing
 175:../../lpc_chip_11cxx_lib/inc/clock_11xx.h ****  * @note	Low frequency oscillator rate = selected rate divided by divider rate
 176:../../lpc_chip_11cxx_lib/inc/clock_11xx.h ****  */
 177:../../lpc_chip_11cxx_lib/inc/clock_11xx.h **** STATIC INLINE void Chip_Clock_SetLFOSC(CHIP_WDTLFO_OSC_T lfoclk, uint8_t div)
 178:../../lpc_chip_11cxx_lib/inc/clock_11xx.h **** {
 179:../../lpc_chip_11cxx_lib/inc/clock_11xx.h **** 	LPC_SYSCTL->LFOSCCTRL  = (((uint32_t) lfoclk) << 5) | ((div >> 1) - 1);
 180:../../lpc_chip_11cxx_lib/inc/clock_11xx.h **** }
 181:../../lpc_chip_11cxx_lib/inc/clock_11xx.h **** 
 182:../../lpc_chip_11cxx_lib/inc/clock_11xx.h **** #endif /*CHIP_LPC11AXX*/
 183:../../lpc_chip_11cxx_lib/inc/clock_11xx.h **** 
 184:../../lpc_chip_11cxx_lib/inc/clock_11xx.h **** /**
 185:../../lpc_chip_11cxx_lib/inc/clock_11xx.h ****  * Clock sources for main system clock
 186:../../lpc_chip_11cxx_lib/inc/clock_11xx.h ****  */
 187:../../lpc_chip_11cxx_lib/inc/clock_11xx.h **** typedef enum CHIP_SYSCTL_MAINCLKSRC {
 188:../../lpc_chip_11cxx_lib/inc/clock_11xx.h **** 	SYSCTL_MAINCLKSRC_IRC = 0,		/*!< Internal oscillator */
 189:../../lpc_chip_11cxx_lib/inc/clock_11xx.h **** 	SYSCTL_MAINCLKSRC_PLLIN,		/*!< System PLL input */
 190:../../lpc_chip_11cxx_lib/inc/clock_11xx.h **** 	SYSCTL_MAINCLKSRC_LFOSC,		/*!< LF oscillator rate (11Axx only) */
 191:../../lpc_chip_11cxx_lib/inc/clock_11xx.h **** 	SYSCTL_MAINCLKSRC_WDTOSC = SYSCTL_MAINCLKSRC_LFOSC,	/*!< Watchdog oscillator rate */
 192:../../lpc_chip_11cxx_lib/inc/clock_11xx.h **** 	SYSCTL_MAINCLKSRC_PLLOUT,		/*!< System PLL output */
 193:../../lpc_chip_11cxx_lib/inc/clock_11xx.h **** } CHIP_SYSCTL_MAINCLKSRC_T;
 194:../../lpc_chip_11cxx_lib/inc/clock_11xx.h **** 
 195:../../lpc_chip_11cxx_lib/inc/clock_11xx.h **** /**
 196:../../lpc_chip_11cxx_lib/inc/clock_11xx.h ****  * @brief	Set main system clock source
ARM GAS  /var/folders/f9/8bk2lnw15zn4cbgn6wrnb4lm0000gn/T//cc47W8rL.s 			page 29


 197:../../lpc_chip_11cxx_lib/inc/clock_11xx.h ****  * @param	src	: Clock source for main system
 198:../../lpc_chip_11cxx_lib/inc/clock_11xx.h ****  * @return	Nothing
 199:../../lpc_chip_11cxx_lib/inc/clock_11xx.h ****  * @note	This function will also toggle the clock source update register
 200:../../lpc_chip_11cxx_lib/inc/clock_11xx.h ****  * to update the clock source.
 201:../../lpc_chip_11cxx_lib/inc/clock_11xx.h ****  */
 202:../../lpc_chip_11cxx_lib/inc/clock_11xx.h **** void Chip_Clock_SetMainClockSource(CHIP_SYSCTL_MAINCLKSRC_T src);
 203:../../lpc_chip_11cxx_lib/inc/clock_11xx.h **** 
 204:../../lpc_chip_11cxx_lib/inc/clock_11xx.h **** /**
 205:../../lpc_chip_11cxx_lib/inc/clock_11xx.h ****  * @brief   Returns the main clock source
 206:../../lpc_chip_11cxx_lib/inc/clock_11xx.h ****  * @return	Which clock is used for the core clock source?
 207:../../lpc_chip_11cxx_lib/inc/clock_11xx.h ****  */
 208:../../lpc_chip_11cxx_lib/inc/clock_11xx.h **** STATIC INLINE CHIP_SYSCTL_MAINCLKSRC_T Chip_Clock_GetMainClockSource(void)
 209:../../lpc_chip_11cxx_lib/inc/clock_11xx.h **** {
 210:../../lpc_chip_11cxx_lib/inc/clock_11xx.h **** 	return (CHIP_SYSCTL_MAINCLKSRC_T) (LPC_SYSCTL->MAINCLKSEL);
 211:../../lpc_chip_11cxx_lib/inc/clock_11xx.h **** }
 212:../../lpc_chip_11cxx_lib/inc/clock_11xx.h **** 
 213:../../lpc_chip_11cxx_lib/inc/clock_11xx.h **** /**
 214:../../lpc_chip_11cxx_lib/inc/clock_11xx.h ****  * @brief	Set system clock divider
 215:../../lpc_chip_11cxx_lib/inc/clock_11xx.h ****  * @param	div	: divider for system clock
 216:../../lpc_chip_11cxx_lib/inc/clock_11xx.h ****  * @return	Nothing
 217:../../lpc_chip_11cxx_lib/inc/clock_11xx.h ****  * @note	Use 0 to disable, or a divider value of 1 to 255. The system clock
 218:../../lpc_chip_11cxx_lib/inc/clock_11xx.h ****  * rate is the main system clock divided by this value.
 219:../../lpc_chip_11cxx_lib/inc/clock_11xx.h ****  */
 220:../../lpc_chip_11cxx_lib/inc/clock_11xx.h **** STATIC INLINE void Chip_Clock_SetSysClockDiv(uint32_t div)
 221:../../lpc_chip_11cxx_lib/inc/clock_11xx.h **** {
 222:../../lpc_chip_11cxx_lib/inc/clock_11xx.h **** 	LPC_SYSCTL->SYSAHBCLKDIV  = div;
 223:../../lpc_chip_11cxx_lib/inc/clock_11xx.h **** }
 224:../../lpc_chip_11cxx_lib/inc/clock_11xx.h **** 
 225:../../lpc_chip_11cxx_lib/inc/clock_11xx.h **** /**
 226:../../lpc_chip_11cxx_lib/inc/clock_11xx.h ****  * System and peripheral clocks
 227:../../lpc_chip_11cxx_lib/inc/clock_11xx.h ****  */
 228:../../lpc_chip_11cxx_lib/inc/clock_11xx.h **** typedef enum CHIP_SYSCTL_CLOCK {
 229:../../lpc_chip_11cxx_lib/inc/clock_11xx.h **** 	SYSCTL_CLOCK_SYS = 0,				/*!< 0: System clock */
 230:../../lpc_chip_11cxx_lib/inc/clock_11xx.h **** 	SYSCTL_CLOCK_ROM,					/*!<1:  ROM clock */
 231:../../lpc_chip_11cxx_lib/inc/clock_11xx.h **** 	SYSCTL_CLOCK_RAM,					/*!< 2: RAM clock */
 232:../../lpc_chip_11cxx_lib/inc/clock_11xx.h **** 	SYSCTL_CLOCK_FLASHREG,				/*!< 3: FLASH register interface clock */
 233:../../lpc_chip_11cxx_lib/inc/clock_11xx.h **** 	SYSCTL_CLOCK_FLASHARRAY,			/*!< 4: FLASH array access clock */
 234:../../lpc_chip_11cxx_lib/inc/clock_11xx.h **** #if defined(CHIP_LPC110X)
 235:../../lpc_chip_11cxx_lib/inc/clock_11xx.h **** 	SYSCTL_CLOCK_RESERVED5,				/*!< 5: Reserved */
 236:../../lpc_chip_11cxx_lib/inc/clock_11xx.h **** #else
 237:../../lpc_chip_11cxx_lib/inc/clock_11xx.h **** 	SYSCTL_CLOCK_I2C,					/*!< 5: I2C clock, not on LPC110x */
 238:../../lpc_chip_11cxx_lib/inc/clock_11xx.h **** #endif
 239:../../lpc_chip_11cxx_lib/inc/clock_11xx.h **** 	SYSCTL_CLOCK_GPIO,					/*!< 6: GPIO clock */
 240:../../lpc_chip_11cxx_lib/inc/clock_11xx.h **** 	SYSCTL_CLOCK_CT16B0,				/*!< 7: 16-bit Counter/timer 0 clock */
 241:../../lpc_chip_11cxx_lib/inc/clock_11xx.h **** 	SYSCTL_CLOCK_CT16B1,				/*!< 8: 16-bit Counter/timer 1 clock */
 242:../../lpc_chip_11cxx_lib/inc/clock_11xx.h **** 	SYSCTL_CLOCK_CT32B0,				/*!< 9: 32-bit Counter/timer 0 clock */
 243:../../lpc_chip_11cxx_lib/inc/clock_11xx.h **** 	SYSCTL_CLOCK_CT32B1,				/*!< 10: 32-bit Counter/timer 1 clock */
 244:../../lpc_chip_11cxx_lib/inc/clock_11xx.h **** 	SYSCTL_CLOCK_SSP0,					/*!< 11: SSP0 clock */
 245:../../lpc_chip_11cxx_lib/inc/clock_11xx.h **** 	SYSCTL_CLOCK_UART0,					/*!< 12: UART0 clock */
 246:../../lpc_chip_11cxx_lib/inc/clock_11xx.h **** 	SYSCTL_CLOCK_ADC,					/*!< 13: ADC clock */
 247:../../lpc_chip_11cxx_lib/inc/clock_11xx.h **** #if defined(CHIP_LPC11UXX)
 248:../../lpc_chip_11cxx_lib/inc/clock_11xx.h **** 	SYSCTL_CLOCK_USB,					/*!< 14: USB clock, LPC11Uxx only */
 249:../../lpc_chip_11cxx_lib/inc/clock_11xx.h **** #else
 250:../../lpc_chip_11cxx_lib/inc/clock_11xx.h **** 	SYSCTL_CLOCK_RESERVED14,			/*!< 14: Reserved */
 251:../../lpc_chip_11cxx_lib/inc/clock_11xx.h **** #endif
 252:../../lpc_chip_11cxx_lib/inc/clock_11xx.h **** 	SYSCTL_CLOCK_WDT,					/*!< 15: Watchdog timer clock */
 253:../../lpc_chip_11cxx_lib/inc/clock_11xx.h **** 	SYSCTL_CLOCK_IOCON,					/*!< 16: IOCON block clock */
ARM GAS  /var/folders/f9/8bk2lnw15zn4cbgn6wrnb4lm0000gn/T//cc47W8rL.s 			page 30


 254:../../lpc_chip_11cxx_lib/inc/clock_11xx.h **** #if defined(CHIP_LPC11CXX)
 255:../../lpc_chip_11cxx_lib/inc/clock_11xx.h **** 	SYSCTL_CLOCK_CAN,					/*!< 17: CAN clock, LPC11Cxx only */
 256:../../lpc_chip_11cxx_lib/inc/clock_11xx.h **** #else
 257:../../lpc_chip_11cxx_lib/inc/clock_11xx.h **** 	SYSCTL_CLOCK_RESERVED17,			/*!< 17: Reserved */
 258:../../lpc_chip_11cxx_lib/inc/clock_11xx.h **** #endif
 259:../../lpc_chip_11cxx_lib/inc/clock_11xx.h **** #if !(defined(CHIP_LPC110X) || defined(CHIP_LPC11XXLV))  
 260:../../lpc_chip_11cxx_lib/inc/clock_11xx.h **** 	SYSCTL_CLOCK_SSP1,					/*!< 18: SSP1 clock, LPC11A/C/E/Uxx//1125 only */
 261:../../lpc_chip_11cxx_lib/inc/clock_11xx.h **** #if !defined(CHIP_LPC11CXX)
 262:../../lpc_chip_11cxx_lib/inc/clock_11xx.h **** 	SYSCTL_CLOCK_PINT,					/*!< 19: GPIO Pin int register interface clock, LPC11A/E/Uxx only */
 263:../../lpc_chip_11cxx_lib/inc/clock_11xx.h **** #if defined(CHIP_LPC11AXX)
 264:../../lpc_chip_11cxx_lib/inc/clock_11xx.h **** 	SYSCTL_CLOCK_ACOMP,					/*!< 20: Analog comparator clock, LPC11Axx only */
 265:../../lpc_chip_11cxx_lib/inc/clock_11xx.h **** 	SYSCTL_CLOCK_DAC,					/*!< 21: DAC clock, LPC11Axx only */
 266:../../lpc_chip_11cxx_lib/inc/clock_11xx.h **** #else
 267:../../lpc_chip_11cxx_lib/inc/clock_11xx.h **** 	SYSCTL_CLOCK_RESERVED20,			/*!< 20: Reserved */
 268:../../lpc_chip_11cxx_lib/inc/clock_11xx.h **** 	SYSCTL_CLOCK_RESERVED21,			/*!< 21: Reserved */
 269:../../lpc_chip_11cxx_lib/inc/clock_11xx.h **** #endif
 270:../../lpc_chip_11cxx_lib/inc/clock_11xx.h **** 	SYSCTL_CLOCK_RESERVED22,			/*!< 22: Reserved */
 271:../../lpc_chip_11cxx_lib/inc/clock_11xx.h **** 	SYSCTL_CLOCK_P0INT,					/*!< 23: GPIO GROUP1 interrupt register clock, LPC11Axx only */
 272:../../lpc_chip_11cxx_lib/inc/clock_11xx.h **** 	SYSCTL_CLOCK_GROUP0INT = SYSCTL_CLOCK_P0INT,/*!< 23: GPIO GROUP0 interrupt register interface cloc
 273:../../lpc_chip_11cxx_lib/inc/clock_11xx.h **** 	SYSCTL_CLOCK_P1INT,					/*!< 24: GPIO GROUP1 interrupt register clock, LPC11Axx only */
 274:../../lpc_chip_11cxx_lib/inc/clock_11xx.h **** 	SYSCTL_CLOCK_GROUP1INT = SYSCTL_CLOCK_P1INT,/*!< 24: GPIO GROUP1 interrupt register interface cloc
 275:../../lpc_chip_11cxx_lib/inc/clock_11xx.h **** 	SYSCTL_CLOCK_RESERVED25,			/*!< 25: Reserved */
 276:../../lpc_chip_11cxx_lib/inc/clock_11xx.h **** #if defined(CHIP_LPC11EXX)  || defined(CHIP_LPC11UXX)
 277:../../lpc_chip_11cxx_lib/inc/clock_11xx.h **** 	SYSCTL_CLOCK_RAM1,					/*!< 26: SRAM block (0x20000000) clock, LPC11E/Uxx only */
 278:../../lpc_chip_11cxx_lib/inc/clock_11xx.h **** #else
 279:../../lpc_chip_11cxx_lib/inc/clock_11xx.h **** 	SYSCTL_CLOCK_RESERVED26,			/*!< 26: Reserved */
 280:../../lpc_chip_11cxx_lib/inc/clock_11xx.h **** #endif
 281:../../lpc_chip_11cxx_lib/inc/clock_11xx.h **** #if defined(CHIP_LPC11UXX)
 282:../../lpc_chip_11cxx_lib/inc/clock_11xx.h **** 	SYSCTL_CLOCK_USBRAM,				/*!< 27: USB SRAM block clock, LPC11Uxx only */
 283:../../lpc_chip_11cxx_lib/inc/clock_11xx.h **** #else
 284:../../lpc_chip_11cxx_lib/inc/clock_11xx.h **** 	SYSCTL_CLOCK_RESERVED27,			/*!< 27: Reserved */
 285:../../lpc_chip_11cxx_lib/inc/clock_11xx.h **** #endif
 286:../../lpc_chip_11cxx_lib/inc/clock_11xx.h **** #endif /* !defined(CHIP_LPC11CXX) */
 287:../../lpc_chip_11cxx_lib/inc/clock_11xx.h **** #endif /* !(defined(CHIP_LPC110X) || defined(CHIP_LPC11XXLV)) */
 288:../../lpc_chip_11cxx_lib/inc/clock_11xx.h **** } CHIP_SYSCTL_CLOCK_T;
 289:../../lpc_chip_11cxx_lib/inc/clock_11xx.h **** 
 290:../../lpc_chip_11cxx_lib/inc/clock_11xx.h **** /**
 291:../../lpc_chip_11cxx_lib/inc/clock_11xx.h ****  * @brief	Enable a system or peripheral clock
 292:../../lpc_chip_11cxx_lib/inc/clock_11xx.h ****  * @param	clk	: Clock to enable
 293:../../lpc_chip_11cxx_lib/inc/clock_11xx.h ****  * @return	Nothing
 294:../../lpc_chip_11cxx_lib/inc/clock_11xx.h ****  */
 295:../../lpc_chip_11cxx_lib/inc/clock_11xx.h **** STATIC INLINE void Chip_Clock_EnablePeriphClock(CHIP_SYSCTL_CLOCK_T clk)
 296:../../lpc_chip_11cxx_lib/inc/clock_11xx.h **** {
 297:../../lpc_chip_11cxx_lib/inc/clock_11xx.h **** 	LPC_SYSCTL->SYSAHBCLKCTRL |= (1 << clk);
 918              		.loc 2 297 0
 919 000c 2479     		ldrb	r4, [r4, #4]	@ D.6728,
 920 000e 0749     		ldr	r1, .L89+4	@ tmp119,
 921 0010 8022     		mov	r2, #128	@ tmp120,
 922 0012 0126     		mov	r6, #1	@ tmp129,
 923 0014 8D58     		ldr	r5, [r1, r2]	@ D.6730, MEM[(struct LPC_SYSCTL_T *)1074036736B].SYSAHBCLKCTRL
 924 0016 A640     		lsl	r6, r6, r4	@ tmp129, tmp129, D.6728
 925 0018 341C     		mov	r4, r6	@ D.6728, tmp129
 926 001a 2C43     		orr	r4, r5	@ D.6730, D.6730
 927              	.LBE92:
 928              	.LBE91:
 929              	.LBE90:
 930              	.LBE89:
ARM GAS  /var/folders/f9/8bk2lnw15zn4cbgn6wrnb4lm0000gn/T//cc47W8rL.s 			page 31


 366:../../lpc_chip_11cxx_lib/src/i2c_11xx.c **** 	enableClk(id);
 367:../../lpc_chip_11cxx_lib/src/i2c_11xx.c **** 
 368:../../lpc_chip_11cxx_lib/src/i2c_11xx.c **** 	/* Set I2C operation to default */
 369:../../lpc_chip_11cxx_lib/src/i2c_11xx.c **** 	LPC_I2Cx(id)->CONCLR = (I2C_CON_AA | I2C_CON_SI | I2C_CON_STA | I2C_CON_I2EN);
 931              		.loc 1 369 0
 932 001c C358     		ldr	r3, [r0, r3]	@ D.6727, i2c[_6].ip
 933              	.LBB96:
 934              	.LBB95:
 935              	.LBB94:
 936              	.LBB93:
 937              		.loc 2 297 0
 938 001e 8C50     		str	r4, [r1, r2]	@ D.6730, MEM[(struct LPC_SYSCTL_T *)1074036736B].SYSAHBCLKCTRL
 939              	.LBE93:
 940              	.LBE94:
 941              	.LBE95:
 942              	.LBE96:
 943              		.loc 1 369 0
 944 0020 6C22     		mov	r2, #108	@ tmp137,
 945 0022 9A61     		str	r2, [r3, #24]	@ tmp137, _4->CONCLR
 370:../../lpc_chip_11cxx_lib/src/i2c_11xx.c **** }
 946              		.loc 1 370 0
 947              		@ sp needed	@
 948 0024 70BD     		pop	{r4, r5, r6, pc}
 949              	.L90:
 950 0026 C046     		.align	2
 951              	.L89:
 952 0028 00000000 		.word	.LANCHOR0
 953 002c 00800440 		.word	1074036736
 954              		.cfi_endproc
 955              	.LFE214:
 956              		.size	Chip_I2C_Init, .-Chip_I2C_Init
 957              		.section	.text.Chip_I2C_DeInit,"ax",%progbits
 958              		.align	2
 959              		.global	Chip_I2C_DeInit
 960              		.code	16
 961              		.thumb_func
 962              		.type	Chip_I2C_DeInit, %function
 963              	Chip_I2C_DeInit:
 964              	.LFB215:
 371:../../lpc_chip_11cxx_lib/src/i2c_11xx.c **** 
 372:../../lpc_chip_11cxx_lib/src/i2c_11xx.c **** /* De-initializes the I2C peripheral registers to their default reset values */
 373:../../lpc_chip_11cxx_lib/src/i2c_11xx.c **** void Chip_I2C_DeInit(I2C_ID_T id)
 374:../../lpc_chip_11cxx_lib/src/i2c_11xx.c **** {
 965              		.loc 1 374 0
 966              		.cfi_startproc
 967              	.LVL62:
 375:../../lpc_chip_11cxx_lib/src/i2c_11xx.c **** 	/* Disable I2C control */
 376:../../lpc_chip_11cxx_lib/src/i2c_11xx.c **** 	LPC_I2Cx(id)->CONCLR = I2C_CON_I2EN | I2C_CON_SI | I2C_CON_STO | I2C_CON_STA | I2C_CON_AA;
 968              		.loc 1 376 0
 969 0000 C300     		lsl	r3, r0, #3	@ tmp122, id,
 374:../../lpc_chip_11cxx_lib/src/i2c_11xx.c **** {
 970              		.loc 1 374 0
 971 0002 10B5     		push	{r4, lr}	@
 972              		.cfi_def_cfa_offset 8
 973              		.cfi_offset 4, -8
 974              		.cfi_offset 14, -4
 975              		.loc 1 376 0
ARM GAS  /var/folders/f9/8bk2lnw15zn4cbgn6wrnb4lm0000gn/T//cc47W8rL.s 			page 32


 976 0004 0749     		ldr	r1, .L92	@ tmp120,
 977 0006 181A     		sub	r0, r3, r0	@ tmp123, tmp122, id
 978              	.LVL63:
 979 0008 8000     		lsl	r0, r0, #2	@ tmp124, tmp123,
 980 000a 4358     		ldr	r3, [r0, r1]	@ D.6735, i2c[_2].ip
 981 000c 7C22     		mov	r2, #124	@ tmp125,
 982 000e 9A61     		str	r2, [r3, #24]	@ tmp125, _4->CONCLR
 983              	.LVL64:
 984              	.LBB97:
 985              	.LBB98:
  84:../../lpc_chip_11cxx_lib/src/i2c_11xx.c **** 	Chip_Clock_DisablePeriphClock(i2c[id].clk);
 986              		.loc 1 84 0
 987 0010 0818     		add	r0, r1, r0	@ tmp133, tmp120, tmp124
 988              	.LBB99:
 989              	.LBB100:
 298:../../lpc_chip_11cxx_lib/inc/clock_11xx.h **** }
 299:../../lpc_chip_11cxx_lib/inc/clock_11xx.h **** 
 300:../../lpc_chip_11cxx_lib/inc/clock_11xx.h **** /**
 301:../../lpc_chip_11cxx_lib/inc/clock_11xx.h ****  * @brief	Disable a system or peripheral clock
 302:../../lpc_chip_11cxx_lib/inc/clock_11xx.h ****  * @param	clk	: Clock to disable
 303:../../lpc_chip_11cxx_lib/inc/clock_11xx.h ****  * @return	Nothing
 304:../../lpc_chip_11cxx_lib/inc/clock_11xx.h ****  */
 305:../../lpc_chip_11cxx_lib/inc/clock_11xx.h **** STATIC INLINE void Chip_Clock_DisablePeriphClock(CHIP_SYSCTL_CLOCK_T clk)
 306:../../lpc_chip_11cxx_lib/inc/clock_11xx.h **** {
 307:../../lpc_chip_11cxx_lib/inc/clock_11xx.h **** 	LPC_SYSCTL->SYSAHBCLKCTRL &= ~(1 << clk);
 990              		.loc 2 307 0
 991 0012 054A     		ldr	r2, .L92+4	@ tmp126,
 992 0014 0179     		ldrb	r1, [r0, #4]	@ D.6734,
 993 0016 8023     		mov	r3, #128	@ tmp127,
 994 0018 D458     		ldr	r4, [r2, r3]	@ D.6737, MEM[(struct LPC_SYSCTL_T *)1074036736B].SYSAHBCLKCTRL
 995 001a 0120     		mov	r0, #1	@ tmp136,
 996 001c 8840     		lsl	r0, r0, r1	@ tmp136, tmp136, D.6734
 997 001e 8443     		bic	r4, r0	@ D.6737, D.6734
 998 0020 D450     		str	r4, [r2, r3]	@ D.6737, MEM[(struct LPC_SYSCTL_T *)1074036736B].SYSAHBCLKCTRL
 999              	.LBE100:
 1000              	.LBE99:
 1001              	.LBE98:
 1002              	.LBE97:
 377:../../lpc_chip_11cxx_lib/src/i2c_11xx.c **** 
 378:../../lpc_chip_11cxx_lib/src/i2c_11xx.c **** 	disableClk(id);
 379:../../lpc_chip_11cxx_lib/src/i2c_11xx.c **** }
 1003              		.loc 1 379 0
 1004              		@ sp needed	@
 1005 0022 10BD     		pop	{r4, pc}
 1006              	.L93:
 1007              		.align	2
 1008              	.L92:
 1009 0024 00000000 		.word	.LANCHOR0
 1010 0028 00800440 		.word	1074036736
 1011              		.cfi_endproc
 1012              	.LFE215:
 1013              		.size	Chip_I2C_DeInit, .-Chip_I2C_DeInit
 1014              		.global	__aeabi_uidiv
 1015              		.section	.text.Chip_I2C_SetClockRate,"ax",%progbits
 1016              		.align	2
 1017              		.global	Chip_I2C_SetClockRate
 1018              		.code	16
ARM GAS  /var/folders/f9/8bk2lnw15zn4cbgn6wrnb4lm0000gn/T//cc47W8rL.s 			page 33


 1019              		.thumb_func
 1020              		.type	Chip_I2C_SetClockRate, %function
 1021              	Chip_I2C_SetClockRate:
 1022              	.LFB216:
 380:../../lpc_chip_11cxx_lib/src/i2c_11xx.c **** 
 381:../../lpc_chip_11cxx_lib/src/i2c_11xx.c **** /* Set up clock rate for LPC_I2C peripheral */
 382:../../lpc_chip_11cxx_lib/src/i2c_11xx.c **** void Chip_I2C_SetClockRate(I2C_ID_T id, uint32_t clockrate)
 383:../../lpc_chip_11cxx_lib/src/i2c_11xx.c **** {
 1023              		.loc 1 383 0
 1024              		.cfi_startproc
 1025              	.LVL65:
 1026 0000 38B5     		push	{r3, r4, r5, lr}	@
 1027              		.cfi_def_cfa_offset 16
 1028              		.cfi_offset 3, -16
 1029              		.cfi_offset 4, -12
 1030              		.cfi_offset 5, -8
 1031              		.cfi_offset 14, -4
 1032              		.loc 1 383 0
 1033 0002 0D1C     		mov	r5, r1	@ clockrate, clockrate
 1034 0004 041C     		mov	r4, r0	@ id, id
 1035              	.LBB101:
 1036              	.LBB102:
  90:../../lpc_chip_11cxx_lib/src/i2c_11xx.c **** 	return Chip_Clock_GetMainClockRate();
 1037              		.loc 1 90 0
 1038 0006 FFF7FEFF 		bl	Chip_Clock_GetMainClockRate	@
 1039              	.LVL66:
 1040              	.LBE102:
 1041              	.LBE101:
 384:../../lpc_chip_11cxx_lib/src/i2c_11xx.c **** 	uint32_t SCLValue;
 385:../../lpc_chip_11cxx_lib/src/i2c_11xx.c **** 
 386:../../lpc_chip_11cxx_lib/src/i2c_11xx.c **** 	SCLValue = (getClkRate() / clockrate);
 1042              		.loc 1 386 0
 1043 000a 291C     		mov	r1, r5	@, clockrate
 1044 000c FFF7FEFF 		bl	__aeabi_uidiv	@
 1045              	.LVL67:
 387:../../lpc_chip_11cxx_lib/src/i2c_11xx.c **** 	LPC_I2Cx(id)->SCLH = (uint32_t) (SCLValue >> 1);
 1046              		.loc 1 387 0
 1047 0010 E300     		lsl	r3, r4, #3	@ tmp124, id,
 1048 0012 1C1B     		sub	r4, r3, r4	@ tmp125, tmp124, id
 1049 0014 044B     		ldr	r3, .L95	@ tmp122,
 1050 0016 A400     		lsl	r4, r4, #2	@ tmp126, tmp125,
 1051 0018 E358     		ldr	r3, [r4, r3]	@ D.6742, i2c[_6].ip
 1052 001a 4208     		lsr	r2, r0, #1	@ D.6743, tmp121,
 1053 001c 1A61     		str	r2, [r3, #16]	@ D.6743, _7->SCLH
 388:../../lpc_chip_11cxx_lib/src/i2c_11xx.c **** 	LPC_I2Cx(id)->SCLL = (uint32_t) (SCLValue - LPC_I2Cx(id)->SCLH);
 1054              		.loc 1 388 0
 1055 001e 1A69     		ldr	r2, [r3, #16]	@ D.6743, _7->SCLH
 389:../../lpc_chip_11cxx_lib/src/i2c_11xx.c **** }
 1056              		.loc 1 389 0
 1057              		@ sp needed	@
 388:../../lpc_chip_11cxx_lib/src/i2c_11xx.c **** 	LPC_I2Cx(id)->SCLL = (uint32_t) (SCLValue - LPC_I2Cx(id)->SCLH);
 1058              		.loc 1 388 0
 1059 0020 801A     		sub	r0, r0, r2	@ D.6743, tmp121, D.6743
 1060              	.LVL68:
 1061 0022 5861     		str	r0, [r3, #20]	@ D.6743, _7->SCLL
 1062              	.LVL69:
 1063              		.loc 1 389 0
ARM GAS  /var/folders/f9/8bk2lnw15zn4cbgn6wrnb4lm0000gn/T//cc47W8rL.s 			page 34


 1064 0024 38BD     		pop	{r3, r4, r5, pc}
 1065              	.L96:
 1066 0026 C046     		.align	2
 1067              	.L95:
 1068 0028 00000000 		.word	.LANCHOR0
 1069              		.cfi_endproc
 1070              	.LFE216:
 1071              		.size	Chip_I2C_SetClockRate, .-Chip_I2C_SetClockRate
 1072              		.section	.text.Chip_I2C_GetClockRate,"ax",%progbits
 1073              		.align	2
 1074              		.global	Chip_I2C_GetClockRate
 1075              		.code	16
 1076              		.thumb_func
 1077              		.type	Chip_I2C_GetClockRate, %function
 1078              	Chip_I2C_GetClockRate:
 1079              	.LFB217:
 390:../../lpc_chip_11cxx_lib/src/i2c_11xx.c **** 
 391:../../lpc_chip_11cxx_lib/src/i2c_11xx.c **** /* Get current clock rate for LPC_I2C peripheral */
 392:../../lpc_chip_11cxx_lib/src/i2c_11xx.c **** uint32_t Chip_I2C_GetClockRate(I2C_ID_T id)
 393:../../lpc_chip_11cxx_lib/src/i2c_11xx.c **** {
 1080              		.loc 1 393 0
 1081              		.cfi_startproc
 1082              	.LVL70:
 1083 0000 10B5     		push	{r4, lr}	@
 1084              		.cfi_def_cfa_offset 8
 1085              		.cfi_offset 4, -8
 1086              		.cfi_offset 14, -4
 1087              		.loc 1 393 0
 1088 0002 041C     		mov	r4, r0	@ id, id
 1089              	.LBB103:
 1090              	.LBB104:
  90:../../lpc_chip_11cxx_lib/src/i2c_11xx.c **** 	return Chip_Clock_GetMainClockRate();
 1091              		.loc 1 90 0
 1092 0004 FFF7FEFF 		bl	Chip_Clock_GetMainClockRate	@
 1093              	.LVL71:
 1094              	.LBE104:
 1095              	.LBE103:
 394:../../lpc_chip_11cxx_lib/src/i2c_11xx.c **** 	return getClkRate() / (LPC_I2Cx(id)->SCLH + LPC_I2Cx(id)->SCLL);
 1096              		.loc 1 394 0
 1097 0008 E300     		lsl	r3, r4, #3	@ tmp121, id,
 1098 000a 1C1B     		sub	r4, r3, r4	@ tmp122, tmp121, id
 1099 000c 044B     		ldr	r3, .L98	@ tmp119,
 1100 000e A400     		lsl	r4, r4, #2	@ tmp123, tmp122,
 1101 0010 E358     		ldr	r3, [r4, r3]	@ D.6749, i2c[_4].ip
 395:../../lpc_chip_11cxx_lib/src/i2c_11xx.c **** }
 1102              		.loc 1 395 0
 1103              		@ sp needed	@
 394:../../lpc_chip_11cxx_lib/src/i2c_11xx.c **** 	return getClkRate() / (LPC_I2Cx(id)->SCLH + LPC_I2Cx(id)->SCLL);
 1104              		.loc 1 394 0
 1105 0012 1A69     		ldr	r2, [r3, #16]	@ D.6750, _5->SCLH
 1106 0014 5969     		ldr	r1, [r3, #20]	@ D.6750, _5->SCLL
 1107 0016 8918     		add	r1, r1, r2	@ D.6750, D.6750, D.6750
 1108 0018 FFF7FEFF 		bl	__aeabi_uidiv	@
 1109              	.LVL72:
 1110              		.loc 1 395 0
 1111 001c 10BD     		pop	{r4, pc}
 1112              	.L99:
ARM GAS  /var/folders/f9/8bk2lnw15zn4cbgn6wrnb4lm0000gn/T//cc47W8rL.s 			page 35


 1113 001e C046     		.align	2
 1114              	.L98:
 1115 0020 00000000 		.word	.LANCHOR0
 1116              		.cfi_endproc
 1117              	.LFE217:
 1118              		.size	Chip_I2C_GetClockRate, .-Chip_I2C_GetClockRate
 1119              		.section	.text.Chip_I2C_SetMasterEventHandler,"ax",%progbits
 1120              		.align	2
 1121              		.global	Chip_I2C_SetMasterEventHandler
 1122              		.code	16
 1123              		.thumb_func
 1124              		.type	Chip_I2C_SetMasterEventHandler, %function
 1125              	Chip_I2C_SetMasterEventHandler:
 1126              	.LFB218:
 396:../../lpc_chip_11cxx_lib/src/i2c_11xx.c **** 
 397:../../lpc_chip_11cxx_lib/src/i2c_11xx.c **** /* Set the master event handler */
 398:../../lpc_chip_11cxx_lib/src/i2c_11xx.c **** int Chip_I2C_SetMasterEventHandler(I2C_ID_T id, I2C_EVENTHANDLER_T event)
 399:../../lpc_chip_11cxx_lib/src/i2c_11xx.c **** {
 1127              		.loc 1 399 0
 1128              		.cfi_startproc
 1129              	.LVL73:
 400:../../lpc_chip_11cxx_lib/src/i2c_11xx.c **** 	struct i2c_interface *iic = &i2c[id];
 1130              		.loc 1 400 0
 1131 0000 C300     		lsl	r3, r0, #3	@ tmp121, id,
 1132 0002 181A     		sub	r0, r3, r0	@ tmp122, tmp121, id
 1133              	.LVL74:
 1134 0004 064B     		ldr	r3, .L103	@ tmp119,
 1135 0006 8000     		lsl	r0, r0, #2	@ tmp123, tmp122,
 1136 0008 1818     		add	r0, r3, r0	@ iic, tmp119, tmp123
 1137              	.LVL75:
 401:../../lpc_chip_11cxx_lib/src/i2c_11xx.c **** 	if (!iic->mXfer) {
 1138              		.loc 1 401 0
 1139 000a 0369     		ldr	r3, [r0, #16]	@, iic_4->mXfer
 1140 000c 002B     		cmp	r3, #0	@,
 1141 000e 04D0     		beq	.L101	@,
 1142 0010 8068     		ldr	r0, [r0, #8]	@ iic_4->mEvent, iic_4->mEvent
 1143              	.LVL76:
 1144 0012 081A     		sub	r0, r1, r0	@ tmp128, event, iic_4->mEvent
 1145 0014 4142     		neg	r1, r0	@ tmp129, tmp128
 1146 0016 4841     		adc	r0, r0, r1	@ D.6755, tmp128, tmp129
 1147              	.LVL77:
 1148              	.L102:
 402:../../lpc_chip_11cxx_lib/src/i2c_11xx.c **** 		iic->mEvent = event;
 403:../../lpc_chip_11cxx_lib/src/i2c_11xx.c **** 	}
 404:../../lpc_chip_11cxx_lib/src/i2c_11xx.c **** 	return iic->mEvent == event;
 405:../../lpc_chip_11cxx_lib/src/i2c_11xx.c **** }
 1149              		.loc 1 405 0
 1150              		@ sp needed	@
 1151 0018 7047     		bx	lr
 1152              	.LVL78:
 1153              	.L101:
 402:../../lpc_chip_11cxx_lib/src/i2c_11xx.c **** 		iic->mEvent = event;
 1154              		.loc 1 402 0
 1155 001a 8160     		str	r1, [r0, #8]	@ event, iic_4->mEvent
 1156 001c 0120     		mov	r0, #1	@ D.6755,
 1157              	.LVL79:
 1158 001e FBE7     		b	.L102	@
ARM GAS  /var/folders/f9/8bk2lnw15zn4cbgn6wrnb4lm0000gn/T//cc47W8rL.s 			page 36


 1159              	.L104:
 1160              		.align	2
 1161              	.L103:
 1162 0020 00000000 		.word	.LANCHOR0
 1163              		.cfi_endproc
 1164              	.LFE218:
 1165              		.size	Chip_I2C_SetMasterEventHandler, .-Chip_I2C_SetMasterEventHandler
 1166              		.section	.text.Chip_I2C_GetMasterEventHandler,"ax",%progbits
 1167              		.align	2
 1168              		.global	Chip_I2C_GetMasterEventHandler
 1169              		.code	16
 1170              		.thumb_func
 1171              		.type	Chip_I2C_GetMasterEventHandler, %function
 1172              	Chip_I2C_GetMasterEventHandler:
 1173              	.LFB219:
 406:../../lpc_chip_11cxx_lib/src/i2c_11xx.c **** 
 407:../../lpc_chip_11cxx_lib/src/i2c_11xx.c **** /* Get the master event handler */
 408:../../lpc_chip_11cxx_lib/src/i2c_11xx.c **** I2C_EVENTHANDLER_T Chip_I2C_GetMasterEventHandler(I2C_ID_T id)
 409:../../lpc_chip_11cxx_lib/src/i2c_11xx.c **** {
 1174              		.loc 1 409 0
 1175              		.cfi_startproc
 1176              	.LVL80:
 410:../../lpc_chip_11cxx_lib/src/i2c_11xx.c **** 	return i2c[id].mEvent;
 1177              		.loc 1 410 0
 1178 0000 C300     		lsl	r3, r0, #3	@ tmp117, id,
 1179 0002 181A     		sub	r0, r3, r0	@ tmp118, tmp117, id
 1180              	.LVL81:
 1181 0004 024B     		ldr	r3, .L106	@ tmp115,
 1182 0006 8000     		lsl	r0, r0, #2	@ tmp119, tmp118,
 1183 0008 1818     		add	r0, r3, r0	@ tmp120, tmp115, tmp119
 1184 000a 8068     		ldr	r0, [r0, #8]	@ i2c[_2].mEvent, i2c[_2].mEvent
 411:../../lpc_chip_11cxx_lib/src/i2c_11xx.c **** }
 1185              		.loc 1 411 0
 1186              		@ sp needed	@
 1187 000c 7047     		bx	lr
 1188              	.L107:
 1189 000e C046     		.align	2
 1190              	.L106:
 1191 0010 00000000 		.word	.LANCHOR0
 1192              		.cfi_endproc
 1193              	.LFE219:
 1194              		.size	Chip_I2C_GetMasterEventHandler, .-Chip_I2C_GetMasterEventHandler
 1195              		.section	.text.Chip_I2C_MasterTransfer,"ax",%progbits
 1196              		.align	2
 1197              		.global	Chip_I2C_MasterTransfer
 1198              		.code	16
 1199              		.thumb_func
 1200              		.type	Chip_I2C_MasterTransfer, %function
 1201              	Chip_I2C_MasterTransfer:
 1202              	.LFB220:
 412:../../lpc_chip_11cxx_lib/src/i2c_11xx.c **** 
 413:../../lpc_chip_11cxx_lib/src/i2c_11xx.c **** /* Transmit and Receive data in master mode */
 414:../../lpc_chip_11cxx_lib/src/i2c_11xx.c **** int Chip_I2C_MasterTransfer(I2C_ID_T id, I2C_XFER_T *xfer)
 415:../../lpc_chip_11cxx_lib/src/i2c_11xx.c **** {
 1203              		.loc 1 415 0
 1204              		.cfi_startproc
 1205              	.LVL82:
ARM GAS  /var/folders/f9/8bk2lnw15zn4cbgn6wrnb4lm0000gn/T//cc47W8rL.s 			page 37


 1206 0000 F8B5     		push	{r3, r4, r5, r6, r7, lr}	@
 1207              		.cfi_def_cfa_offset 24
 1208              		.cfi_offset 3, -24
 1209              		.cfi_offset 4, -20
 1210              		.cfi_offset 5, -16
 1211              		.cfi_offset 6, -12
 1212              		.cfi_offset 7, -8
 1213              		.cfi_offset 14, -4
 416:../../lpc_chip_11cxx_lib/src/i2c_11xx.c **** 	struct i2c_interface *iic = &i2c[id];
 1214              		.loc 1 416 0
 1215 0002 C500     		lsl	r5, r0, #3	@ tmp129, id,
 1216 0004 174B     		ldr	r3, .L117	@ tmp127,
 1217 0006 2D1A     		sub	r5, r5, r0	@ tmp130, tmp129, id
 1218 0008 AD00     		lsl	r5, r5, #2	@ tmp131, tmp130,
 1219 000a 5D19     		add	r5, r3, r5	@ iic, tmp127, tmp131
 1220              	.LVL83:
 415:../../lpc_chip_11cxx_lib/src/i2c_11xx.c **** {
 1221              		.loc 1 415 0
 1222 000c 0F1C     		mov	r7, r1	@ xfer, xfer
 417:../../lpc_chip_11cxx_lib/src/i2c_11xx.c **** 
 418:../../lpc_chip_11cxx_lib/src/i2c_11xx.c **** 	iic->mEvent(id, I2C_EVENT_LOCK);
 1223              		.loc 1 418 0
 1224 000e AB68     		ldr	r3, [r5, #8]	@, iic_6->mEvent
 1225 0010 0321     		mov	r1, #3	@,
 1226              	.LVL84:
 415:../../lpc_chip_11cxx_lib/src/i2c_11xx.c **** {
 1227              		.loc 1 415 0
 1228 0012 061C     		mov	r6, r0	@ id, id
 1229              		.loc 1 418 0
 1230 0014 9847     		blx	r3	@
 1231              	.LVL85:
 419:../../lpc_chip_11cxx_lib/src/i2c_11xx.c **** 	xfer->status = I2C_STATUS_BUSY;
 420:../../lpc_chip_11cxx_lib/src/i2c_11xx.c **** 	iic->mXfer = xfer;
 421:../../lpc_chip_11cxx_lib/src/i2c_11xx.c **** 
 422:../../lpc_chip_11cxx_lib/src/i2c_11xx.c **** 	/* If slave xfer not in progress */
 423:../../lpc_chip_11cxx_lib/src/i2c_11xx.c **** 	if (!iic->sXfer) {
 1232              		.loc 1 423 0
 1233 0016 6969     		ldr	r1, [r5, #20]	@, iic_6->sXfer
 419:../../lpc_chip_11cxx_lib/src/i2c_11xx.c **** 	xfer->status = I2C_STATUS_BUSY;
 1234              		.loc 1 419 0
 1235 0018 0423     		mov	r3, #4	@ tmp133,
 1236 001a 3B75     		strb	r3, [r7, #20]	@ tmp133, xfer_10(D)->status
 420:../../lpc_chip_11cxx_lib/src/i2c_11xx.c **** 	iic->mXfer = xfer;
 1237              		.loc 1 420 0
 1238 001c 2F61     		str	r7, [r5, #16]	@ xfer, iic_6->mXfer
 1239              		.loc 1 423 0
 1240 001e 0029     		cmp	r1, #0	@,
 1241 0020 19D0     		beq	.L116	@,
 1242              	.L109:
 424:../../lpc_chip_11cxx_lib/src/i2c_11xx.c **** 		startMasterXfer(iic->ip);
 425:../../lpc_chip_11cxx_lib/src/i2c_11xx.c **** 	}
 426:../../lpc_chip_11cxx_lib/src/i2c_11xx.c **** 	iic->mEvent(id, I2C_EVENT_WAIT);
 1243              		.loc 1 426 0
 1244 0022 AB68     		ldr	r3, [r5, #8]	@, iic_6->mEvent
 1245 0024 301C     		mov	r0, r6	@, id
 1246 0026 0121     		mov	r1, #1	@,
 1247 0028 9847     		blx	r3	@
ARM GAS  /var/folders/f9/8bk2lnw15zn4cbgn6wrnb4lm0000gn/T//cc47W8rL.s 			page 38


 1248              	.LVL86:
 427:../../lpc_chip_11cxx_lib/src/i2c_11xx.c **** 	iic->mXfer = 0;
 1249              		.loc 1 427 0
 1250 002a 0023     		mov	r3, #0	@ tmp139,
 1251 002c 2A68     		ldr	r2, [r5]	@ D.6770, iic_6->ip
 1252 002e 2B61     		str	r3, [r5, #16]	@ tmp139, iic_6->mXfer
 1253              	.LBB105:
 1254              	.LBB106:
 116:../../lpc_chip_11cxx_lib/src/i2c_11xx.c **** 	return !(pI2C->CONSET & I2C_CON_STO);
 1255              		.loc 1 116 0
 1256 0030 1024     		mov	r4, #16	@ tmp149,
 1257              	.L111:
 1258              	.LVL87:
 116:../../lpc_chip_11cxx_lib/src/i2c_11xx.c **** 	return !(pI2C->CONSET & I2C_CON_STO);
 1259              		.loc 1 116 0 is_stmt 0 discriminator 1
 1260 0032 1368     		ldr	r3, [r2]	@ D.6771, _34->CONSET
 1261              	.LBE106:
 1262              	.LBE105:
 428:../../lpc_chip_11cxx_lib/src/i2c_11xx.c **** 
 429:../../lpc_chip_11cxx_lib/src/i2c_11xx.c **** 	/* Wait for stop condition to appear on bus */
 430:../../lpc_chip_11cxx_lib/src/i2c_11xx.c **** 	while (!isI2CBusFree(iic->ip)) {}
 1263              		.loc 1 430 0 is_stmt 1 discriminator 1
 1264 0034 1C42     		tst	r4, r3	@ tmp149, D.6771
 1265 0036 FCD1     		bne	.L111	@,
 431:../../lpc_chip_11cxx_lib/src/i2c_11xx.c **** 
 432:../../lpc_chip_11cxx_lib/src/i2c_11xx.c **** 	/* Start slave if one is active */
 433:../../lpc_chip_11cxx_lib/src/i2c_11xx.c **** 	if (SLAVE_ACTIVE(iic)) {
 1266              		.loc 1 433 0
 1267 0038 FF23     		mov	r3, #255	@ tmp150,
 1268 003a A969     		ldr	r1, [r5, #24]	@, iic_6->flags
 1269 003c 1B02     		lsl	r3, r3, #8	@ tmp144, tmp150,
 1270 003e 1942     		tst	r1, r3	@, tmp144
 1271 0040 03D0     		beq	.L112	@,
 1272              	.LVL88:
 1273              	.LBB107:
 1274              	.LBB108:
 107:../../lpc_chip_11cxx_lib/src/i2c_11xx.c **** 	pI2C->CONCLR = I2C_CON_SI | I2C_CON_STO | I2C_CON_STA;
 1275              		.loc 1 107 0
 1276 0042 3823     		mov	r3, #56	@ tmp145,
 1277 0044 9361     		str	r3, [r2, #24]	@ tmp145, _34->CONCLR
 110:../../lpc_chip_11cxx_lib/src/i2c_11xx.c **** 	pI2C->CONSET = I2C_CON_I2EN | I2C_CON_AA;
 1278              		.loc 1 110 0
 1279 0046 4423     		mov	r3, #68	@ tmp146,
 1280 0048 1360     		str	r3, [r2]	@ tmp146, _34->CONSET
 1281              	.LVL89:
 1282              	.L112:
 1283              	.LBE108:
 1284              	.LBE107:
 434:../../lpc_chip_11cxx_lib/src/i2c_11xx.c **** 		startSlaverXfer(iic->ip);
 435:../../lpc_chip_11cxx_lib/src/i2c_11xx.c **** 	}
 436:../../lpc_chip_11cxx_lib/src/i2c_11xx.c **** 
 437:../../lpc_chip_11cxx_lib/src/i2c_11xx.c **** 	iic->mEvent(id, I2C_EVENT_UNLOCK);
 1285              		.loc 1 437 0
 1286 004a 301C     		mov	r0, r6	@, id
 1287 004c AB68     		ldr	r3, [r5, #8]	@ iic_6->mEvent, iic_6->mEvent
 1288 004e 0421     		mov	r1, #4	@,
 1289 0050 9847     		blx	r3	@ iic_6->mEvent
ARM GAS  /var/folders/f9/8bk2lnw15zn4cbgn6wrnb4lm0000gn/T//cc47W8rL.s 			page 39


 1290              	.LVL90:
 438:../../lpc_chip_11cxx_lib/src/i2c_11xx.c **** 	return (int) xfer->status;
 439:../../lpc_chip_11cxx_lib/src/i2c_11xx.c **** }
 1291              		.loc 1 439 0
 1292              		@ sp needed	@
 438:../../lpc_chip_11cxx_lib/src/i2c_11xx.c **** 	return (int) xfer->status;
 1293              		.loc 1 438 0
 1294 0052 387D     		ldrb	r0, [r7, #20]	@ D.6767,
 1295              	.LVL91:
 1296              	.LVL92:
 1297              	.LVL93:
 1298              		.loc 1 439 0
 1299 0054 F8BD     		pop	{r3, r4, r5, r6, r7, pc}
 1300              	.LVL94:
 1301              	.L116:
 424:../../lpc_chip_11cxx_lib/src/i2c_11xx.c **** 		startMasterXfer(iic->ip);
 1302              		.loc 1 424 0
 1303 0056 2B68     		ldr	r3, [r5]	@ D.6770, iic_6->ip
 1304              	.LVL95:
 1305              	.LBB109:
 1306              	.LBB110:
  97:../../lpc_chip_11cxx_lib/src/i2c_11xx.c **** 	pI2C->CONCLR = I2C_CON_SI | I2C_CON_STO | I2C_CON_STA | I2C_CON_AA;
 1307              		.loc 1 97 0
 1308 0058 3C22     		mov	r2, #60	@ tmp136,
 1309 005a 9A61     		str	r2, [r3, #24]	@ tmp136, _14->CONCLR
 100:../../lpc_chip_11cxx_lib/src/i2c_11xx.c **** 	pI2C->CONSET = I2C_CON_I2EN | I2C_CON_STA;
 1310              		.loc 1 100 0
 1311 005c 6022     		mov	r2, #96	@ tmp137,
 1312 005e 1A60     		str	r2, [r3]	@ tmp137, _14->CONSET
 1313 0060 DFE7     		b	.L109	@
 1314              	.L118:
 1315 0062 C046     		.align	2
 1316              	.L117:
 1317 0064 00000000 		.word	.LANCHOR0
 1318              	.LBE110:
 1319              	.LBE109:
 1320              		.cfi_endproc
 1321              	.LFE220:
 1322              		.size	Chip_I2C_MasterTransfer, .-Chip_I2C_MasterTransfer
 1323              		.section	.text.Chip_I2C_MasterSend,"ax",%progbits
 1324              		.align	2
 1325              		.global	Chip_I2C_MasterSend
 1326              		.code	16
 1327              		.thumb_func
 1328              		.type	Chip_I2C_MasterSend, %function
 1329              	Chip_I2C_MasterSend:
 1330              	.LFB221:
 440:../../lpc_chip_11cxx_lib/src/i2c_11xx.c **** 
 441:../../lpc_chip_11cxx_lib/src/i2c_11xx.c **** /* Master tx only */
 442:../../lpc_chip_11cxx_lib/src/i2c_11xx.c **** int Chip_I2C_MasterSend(I2C_ID_T id, uint8_t slaveAddr, const uint8_t *buff, uint8_t len)
 443:../../lpc_chip_11cxx_lib/src/i2c_11xx.c **** {
 1331              		.loc 1 443 0
 1332              		.cfi_startproc
 1333              	.LVL96:
 1334 0000 30B5     		push	{r4, r5, lr}	@
 1335              		.cfi_def_cfa_offset 12
 1336              		.cfi_offset 4, -12
ARM GAS  /var/folders/f9/8bk2lnw15zn4cbgn6wrnb4lm0000gn/T//cc47W8rL.s 			page 40


 1337              		.cfi_offset 5, -8
 1338              		.cfi_offset 14, -4
 1339 0002 87B0     		sub	sp, sp, #28	@,,
 1340              		.cfi_def_cfa_offset 40
 1341              		.loc 1 443 0
 1342 0004 1D1C     		mov	r5, r3	@ len, len
 444:../../lpc_chip_11cxx_lib/src/i2c_11xx.c **** 	I2C_XFER_T xfer;
 445:../../lpc_chip_11cxx_lib/src/i2c_11xx.c **** 	xfer.slaveAddr = slaveAddr;
 1343              		.loc 1 445 0
 1344 0006 6B46     		mov	r3, sp	@,
 1345              	.LVL97:
 443:../../lpc_chip_11cxx_lib/src/i2c_11xx.c **** {
 1346              		.loc 1 443 0
 1347 0008 041C     		mov	r4, r0	@ id, id
 1348              		.loc 1 445 0
 1349 000a 1970     		strb	r1, [r3]	@ slaveAddr, xfer.slaveAddr
 446:../../lpc_chip_11cxx_lib/src/i2c_11xx.c **** 	xfer.txBuff = buff;
 1350              		.loc 1 446 0
 1351 000c 0192     		str	r2, [sp, #4]	@ buff, xfer.txBuff
 447:../../lpc_chip_11cxx_lib/src/i2c_11xx.c **** 	xfer.txSz = len;
 1352              		.loc 1 447 0
 1353 000e 0295     		str	r5, [sp, #8]	@ len, xfer.txSz
 1354              	.LVL98:
 1355              	.L121:
 448:../../lpc_chip_11cxx_lib/src/i2c_11xx.c **** 	while (Chip_I2C_MasterTransfer(id, &xfer) == I2C_STATUS_ARBLOST) {}
 1356              		.loc 1 448 0 discriminator 1
 1357 0010 201C     		mov	r0, r4	@, id
 1358 0012 6946     		mov	r1, sp	@,
 1359 0014 FFF7FEFF 		bl	Chip_I2C_MasterTransfer	@
 1360              	.LVL99:
 1361 0018 0228     		cmp	r0, #2	@ D.6776,
 1362 001a F9D0     		beq	.L121	@,
 449:../../lpc_chip_11cxx_lib/src/i2c_11xx.c **** 	return len - xfer.txSz;
 1363              		.loc 1 449 0
 1364 001c 0298     		ldr	r0, [sp, #8]	@ xfer.txSz, xfer.txSz
 1365 001e 281A     		sub	r0, r5, r0	@ D.6776, len, xfer.txSz
 450:../../lpc_chip_11cxx_lib/src/i2c_11xx.c **** }
 1366              		.loc 1 450 0
 1367 0020 07B0     		add	sp, sp, #28	@,,
 1368              		@ sp needed	@
 1369 0022 30BD     		pop	{r4, r5, pc}
 1370              		.cfi_endproc
 1371              	.LFE221:
 1372              		.size	Chip_I2C_MasterSend, .-Chip_I2C_MasterSend
 1373              		.section	.text.Chip_I2C_MasterCmdRead,"ax",%progbits
 1374              		.align	2
 1375              		.global	Chip_I2C_MasterCmdRead
 1376              		.code	16
 1377              		.thumb_func
 1378              		.type	Chip_I2C_MasterCmdRead, %function
 1379              	Chip_I2C_MasterCmdRead:
 1380              	.LFB222:
 451:../../lpc_chip_11cxx_lib/src/i2c_11xx.c **** 
 452:../../lpc_chip_11cxx_lib/src/i2c_11xx.c **** /* Transmit one byte and receive an array of bytes after a repeated start condition is generated in
 453:../../lpc_chip_11cxx_lib/src/i2c_11xx.c ****  * This function is useful for communicating with the I2C slave registers
 454:../../lpc_chip_11cxx_lib/src/i2c_11xx.c ****  */
 455:../../lpc_chip_11cxx_lib/src/i2c_11xx.c **** int Chip_I2C_MasterCmdRead(I2C_ID_T id, uint8_t slaveAddr, uint8_t cmd, uint8_t *buff, int len)
ARM GAS  /var/folders/f9/8bk2lnw15zn4cbgn6wrnb4lm0000gn/T//cc47W8rL.s 			page 41


 456:../../lpc_chip_11cxx_lib/src/i2c_11xx.c **** {
 1381              		.loc 1 456 0
 1382              		.cfi_startproc
 1383              	.LVL100:
 1384 0000 70B5     		push	{r4, r5, r6, lr}	@
 1385              		.cfi_def_cfa_offset 16
 1386              		.cfi_offset 4, -16
 1387              		.cfi_offset 5, -12
 1388              		.cfi_offset 6, -8
 1389              		.cfi_offset 14, -4
 1390 0002 88B0     		sub	sp, sp, #32	@,,
 1391              		.cfi_def_cfa_offset 48
 1392              		.loc 1 456 0
 1393 0004 051C     		mov	r5, r0	@ id, id
 1394 0006 0C9E     		ldr	r6, [sp, #48]	@ len, len
 1395 0008 6846     		mov	r0, sp	@ tmp117,
 1396              	.LVL101:
 457:../../lpc_chip_11cxx_lib/src/i2c_11xx.c **** 	I2C_XFER_T xfer;
 458:../../lpc_chip_11cxx_lib/src/i2c_11xx.c **** 	xfer.slaveAddr = slaveAddr;
 1397              		.loc 1 458 0
 1398 000a 02AC     		add	r4, sp, #8	@ tmp133,,
 456:../../lpc_chip_11cxx_lib/src/i2c_11xx.c **** {
 1399              		.loc 1 456 0
 1400 000c C271     		strb	r2, [r0, #7]	@ cmd, cmd
 1401 000e 0730     		add	r0, r0, #7	@ tmp117,
 459:../../lpc_chip_11cxx_lib/src/i2c_11xx.c **** 	xfer.txBuff = &cmd;
 460:../../lpc_chip_11cxx_lib/src/i2c_11xx.c **** 	xfer.txSz = 1;
 1402              		.loc 1 460 0
 1403 0010 0122     		mov	r2, #1	@ tmp126,
 1404              	.LVL102:
 458:../../lpc_chip_11cxx_lib/src/i2c_11xx.c **** 	xfer.slaveAddr = slaveAddr;
 1405              		.loc 1 458 0
 1406 0012 2170     		strb	r1, [r4]	@ slaveAddr, xfer.slaveAddr
 459:../../lpc_chip_11cxx_lib/src/i2c_11xx.c **** 	xfer.txBuff = &cmd;
 1407              		.loc 1 459 0
 1408 0014 6060     		str	r0, [r4, #4]	@ tmp117, xfer.txBuff
 1409              		.loc 1 460 0
 1410 0016 A260     		str	r2, [r4, #8]	@ tmp126, xfer.txSz
 461:../../lpc_chip_11cxx_lib/src/i2c_11xx.c **** 	xfer.rxBuff = buff;
 1411              		.loc 1 461 0
 1412 0018 E360     		str	r3, [r4, #12]	@ buff, xfer.rxBuff
 462:../../lpc_chip_11cxx_lib/src/i2c_11xx.c **** 	xfer.rxSz = len;
 1413              		.loc 1 462 0
 1414 001a 2661     		str	r6, [r4, #16]	@ len, xfer.rxSz
 1415              	.LVL103:
 1416              	.L124:
 463:../../lpc_chip_11cxx_lib/src/i2c_11xx.c **** 	while (Chip_I2C_MasterTransfer(id, &xfer) == I2C_STATUS_ARBLOST) {}
 1417              		.loc 1 463 0 discriminator 1
 1418 001c 281C     		mov	r0, r5	@, id
 1419 001e 211C     		mov	r1, r4	@, tmp133
 1420 0020 FFF7FEFF 		bl	Chip_I2C_MasterTransfer	@
 1421              	.LVL104:
 1422 0024 0228     		cmp	r0, #2	@ D.6779,
 1423 0026 F9D0     		beq	.L124	@,
 464:../../lpc_chip_11cxx_lib/src/i2c_11xx.c **** 	return len - xfer.rxSz;
 1424              		.loc 1 464 0
 1425 0028 2069     		ldr	r0, [r4, #16]	@ xfer.rxSz, xfer.rxSz
ARM GAS  /var/folders/f9/8bk2lnw15zn4cbgn6wrnb4lm0000gn/T//cc47W8rL.s 			page 42


 1426 002a 301A     		sub	r0, r6, r0	@ D.6779, len, xfer.rxSz
 465:../../lpc_chip_11cxx_lib/src/i2c_11xx.c **** }
 1427              		.loc 1 465 0
 1428 002c 08B0     		add	sp, sp, #32	@,,
 1429              	.LVL105:
 1430              		@ sp needed	@
 1431 002e 70BD     		pop	{r4, r5, r6, pc}
 1432              		.cfi_endproc
 1433              	.LFE222:
 1434              		.size	Chip_I2C_MasterCmdRead, .-Chip_I2C_MasterCmdRead
 1435              		.section	.text.Chip_I2C_MasterRead,"ax",%progbits
 1436              		.align	2
 1437              		.global	Chip_I2C_MasterRead
 1438              		.code	16
 1439              		.thumb_func
 1440              		.type	Chip_I2C_MasterRead, %function
 1441              	Chip_I2C_MasterRead:
 1442              	.LFB223:
 466:../../lpc_chip_11cxx_lib/src/i2c_11xx.c **** 
 467:../../lpc_chip_11cxx_lib/src/i2c_11xx.c **** /* Sequential master read */
 468:../../lpc_chip_11cxx_lib/src/i2c_11xx.c **** int Chip_I2C_MasterRead(I2C_ID_T id, uint8_t slaveAddr, uint8_t *buff, int len)
 469:../../lpc_chip_11cxx_lib/src/i2c_11xx.c **** {
 1443              		.loc 1 469 0
 1444              		.cfi_startproc
 1445              	.LVL106:
 1446 0000 30B5     		push	{r4, r5, lr}	@
 1447              		.cfi_def_cfa_offset 12
 1448              		.cfi_offset 4, -12
 1449              		.cfi_offset 5, -8
 1450              		.cfi_offset 14, -4
 1451 0002 87B0     		sub	sp, sp, #28	@,,
 1452              		.cfi_def_cfa_offset 40
 1453              		.loc 1 469 0
 1454 0004 1D1C     		mov	r5, r3	@ len, len
 470:../../lpc_chip_11cxx_lib/src/i2c_11xx.c **** 	I2C_XFER_T xfer;
 471:../../lpc_chip_11cxx_lib/src/i2c_11xx.c **** 	xfer.slaveAddr = slaveAddr;
 1455              		.loc 1 471 0
 1456 0006 6B46     		mov	r3, sp	@,
 1457              	.LVL107:
 469:../../lpc_chip_11cxx_lib/src/i2c_11xx.c **** {
 1458              		.loc 1 469 0
 1459 0008 041C     		mov	r4, r0	@ id, id
 1460              		.loc 1 471 0
 1461 000a 1970     		strb	r1, [r3]	@ slaveAddr, xfer.slaveAddr
 472:../../lpc_chip_11cxx_lib/src/i2c_11xx.c **** 	xfer.rxBuff = buff;
 1462              		.loc 1 472 0
 1463 000c 0392     		str	r2, [sp, #12]	@ buff, xfer.rxBuff
 473:../../lpc_chip_11cxx_lib/src/i2c_11xx.c **** 	xfer.rxSz = len;
 1464              		.loc 1 473 0
 1465 000e 0495     		str	r5, [sp, #16]	@ len, xfer.rxSz
 1466              	.LVL108:
 1467              	.L127:
 474:../../lpc_chip_11cxx_lib/src/i2c_11xx.c **** 	while (Chip_I2C_MasterTransfer(id, &xfer) == I2C_STATUS_ARBLOST) {}
 1468              		.loc 1 474 0 discriminator 1
 1469 0010 201C     		mov	r0, r4	@, id
 1470 0012 6946     		mov	r1, sp	@,
 1471 0014 FFF7FEFF 		bl	Chip_I2C_MasterTransfer	@
ARM GAS  /var/folders/f9/8bk2lnw15zn4cbgn6wrnb4lm0000gn/T//cc47W8rL.s 			page 43


 1472              	.LVL109:
 1473 0018 0228     		cmp	r0, #2	@ D.6782,
 1474 001a F9D0     		beq	.L127	@,
 475:../../lpc_chip_11cxx_lib/src/i2c_11xx.c **** 	return len - xfer.rxSz;
 1475              		.loc 1 475 0
 1476 001c 0498     		ldr	r0, [sp, #16]	@ xfer.rxSz, xfer.rxSz
 1477 001e 281A     		sub	r0, r5, r0	@ D.6782, len, xfer.rxSz
 476:../../lpc_chip_11cxx_lib/src/i2c_11xx.c **** }
 1478              		.loc 1 476 0
 1479 0020 07B0     		add	sp, sp, #28	@,,
 1480              		@ sp needed	@
 1481              	.LVL110:
 1482 0022 30BD     		pop	{r4, r5, pc}
 1483              		.cfi_endproc
 1484              	.LFE223:
 1485              		.size	Chip_I2C_MasterRead, .-Chip_I2C_MasterRead
 1486              		.section	.text.Chip_I2C_IsMasterActive,"ax",%progbits
 1487              		.align	2
 1488              		.global	Chip_I2C_IsMasterActive
 1489              		.code	16
 1490              		.thumb_func
 1491              		.type	Chip_I2C_IsMasterActive, %function
 1492              	Chip_I2C_IsMasterActive:
 1493              	.LFB224:
 477:../../lpc_chip_11cxx_lib/src/i2c_11xx.c **** 
 478:../../lpc_chip_11cxx_lib/src/i2c_11xx.c **** /* Check if master state is active */
 479:../../lpc_chip_11cxx_lib/src/i2c_11xx.c **** int Chip_I2C_IsMasterActive(I2C_ID_T id)
 480:../../lpc_chip_11cxx_lib/src/i2c_11xx.c **** {
 1494              		.loc 1 480 0
 1495              		.cfi_startproc
 1496              	.LVL111:
 481:../../lpc_chip_11cxx_lib/src/i2c_11xx.c **** 	return isMasterState(i2c[id].ip);
 1497              		.loc 1 481 0
 1498 0000 C300     		lsl	r3, r0, #3	@ tmp121, id,
 1499 0002 181A     		sub	r0, r3, r0	@ tmp122, tmp121, id
 1500              	.LVL112:
 1501 0004 054B     		ldr	r3, .L129	@ tmp119,
 1502 0006 8000     		lsl	r0, r0, #2	@ tmp123, tmp122,
 1503 0008 C358     		ldr	r3, [r0, r3]	@ D.6786, i2c[_2].ip
 1504              	.LVL113:
 1505              	.LBB111:
 1506              	.LBB112:
 1507              	.LBB113:
 1508              	.LBB114:
 122:../../lpc_chip_11cxx_lib/src/i2c_11xx.c **** 	return (int) (pI2C->STAT & I2C_STAT_CODE_BITMASK);
 1509              		.loc 1 122 0
 1510 000a F822     		mov	r2, #248	@ tmp125,
 1511 000c 5B68     		ldr	r3, [r3, #4]	@ D.6787, _4->STAT
 1512              	.LVL114:
 1513              	.LBE114:
 1514              	.LBE113:
 128:../../lpc_chip_11cxx_lib/src/i2c_11xx.c **** 	return getCurState(pI2C) < 0x60;
 1515              		.loc 1 128 0
 1516 000e 0021     		mov	r1, #0	@ tmp131,
 1517              	.LBB116:
 1518              	.LBB115:
 122:../../lpc_chip_11cxx_lib/src/i2c_11xx.c **** 	return (int) (pI2C->STAT & I2C_STAT_CODE_BITMASK);
ARM GAS  /var/folders/f9/8bk2lnw15zn4cbgn6wrnb4lm0000gn/T//cc47W8rL.s 			page 44


 1519              		.loc 1 122 0
 1520 0010 1340     		and	r3, r2	@ D.6785, tmp125
 1521              	.LBE115:
 1522              	.LBE116:
 128:../../lpc_chip_11cxx_lib/src/i2c_11xx.c **** 	return getCurState(pI2C) < 0x60;
 1523              		.loc 1 128 0
 1524 0012 D80F     		lsr	r0, r3, #31	@ tmp130, D.6785,
 1525              	.LVL115:
 1526 0014 5F22     		mov	r2, #95	@ tmp129,
 1527 0016 9A42     		cmp	r2, r3	@ tmp129, D.6785
 1528 0018 4841     		adc	r0, r0, r1	@ D.6788, tmp130, tmp131
 1529              	.LBE112:
 1530              	.LBE111:
 482:../../lpc_chip_11cxx_lib/src/i2c_11xx.c **** }
 1531              		.loc 1 482 0
 1532              		@ sp needed	@
 1533 001a 7047     		bx	lr
 1534              	.L130:
 1535              		.align	2
 1536              	.L129:
 1537 001c 00000000 		.word	.LANCHOR0
 1538              		.cfi_endproc
 1539              	.LFE224:
 1540              		.size	Chip_I2C_IsMasterActive, .-Chip_I2C_IsMasterActive
 1541              		.section	.text.Chip_I2C_MasterStateHandler,"ax",%progbits
 1542              		.align	2
 1543              		.global	Chip_I2C_MasterStateHandler
 1544              		.code	16
 1545              		.thumb_func
 1546              		.type	Chip_I2C_MasterStateHandler, %function
 1547              	Chip_I2C_MasterStateHandler:
 1548              	.LFB225:
 483:../../lpc_chip_11cxx_lib/src/i2c_11xx.c **** 
 484:../../lpc_chip_11cxx_lib/src/i2c_11xx.c **** /* State change handler for master transfer */
 485:../../lpc_chip_11cxx_lib/src/i2c_11xx.c **** void Chip_I2C_MasterStateHandler(I2C_ID_T id)
 486:../../lpc_chip_11cxx_lib/src/i2c_11xx.c **** {
 1549              		.loc 1 486 0
 1550              		.cfi_startproc
 1551              	.LVL116:
 1552 0000 38B5     		push	{r3, r4, r5, lr}	@
 1553              		.cfi_def_cfa_offset 16
 1554              		.cfi_offset 3, -16
 1555              		.cfi_offset 4, -12
 1556              		.cfi_offset 5, -8
 1557              		.cfi_offset 14, -4
 487:../../lpc_chip_11cxx_lib/src/i2c_11xx.c **** 	if (!handleMasterXferState(i2c[id].ip, i2c[id].mXfer)) {
 1558              		.loc 1 487 0
 1559 0002 C300     		lsl	r3, r0, #3	@ tmp118, id,
 1560 0004 074A     		ldr	r2, .L133	@ tmp116,
 1561 0006 1B1A     		sub	r3, r3, r0	@ tmp138, tmp118, id
 1562 0008 9B00     		lsl	r3, r3, #2	@ tmp120, tmp138,
 1563 000a D518     		add	r5, r2, r3	@ tmp127, tmp116, tmp120
 486:../../lpc_chip_11cxx_lib/src/i2c_11xx.c **** {
 1564              		.loc 1 486 0
 1565 000c 041C     		mov	r4, r0	@ id, id
 1566              		.loc 1 487 0
 1567 000e 2969     		ldr	r1, [r5, #16]	@, i2c[_3].mXfer
ARM GAS  /var/folders/f9/8bk2lnw15zn4cbgn6wrnb4lm0000gn/T//cc47W8rL.s 			page 45


 1568 0010 9858     		ldr	r0, [r3, r2]	@ i2c[_3].ip, i2c[_3].ip
 1569              	.LVL117:
 1570 0012 FFF7FEFF 		bl	handleMasterXferState	@
 1571              	.LVL118:
 1572 0016 0028     		cmp	r0, #0	@ D.6792,
 1573 0018 03D1     		bne	.L131	@,
 488:../../lpc_chip_11cxx_lib/src/i2c_11xx.c **** 		i2c[id].mEvent(id, I2C_EVENT_DONE);
 1574              		.loc 1 488 0
 1575 001a AB68     		ldr	r3, [r5, #8]	@ i2c[_3].mEvent, i2c[_3].mEvent
 1576 001c 201C     		mov	r0, r4	@, id
 1577 001e 0221     		mov	r1, #2	@,
 1578 0020 9847     		blx	r3	@ i2c[_3].mEvent
 1579              	.LVL119:
 1580              	.L131:
 489:../../lpc_chip_11cxx_lib/src/i2c_11xx.c **** 	}
 490:../../lpc_chip_11cxx_lib/src/i2c_11xx.c **** }
 1581              		.loc 1 490 0
 1582              		@ sp needed	@
 1583 0022 38BD     		pop	{r3, r4, r5, pc}
 1584              	.L134:
 1585              		.align	2
 1586              	.L133:
 1587 0024 00000000 		.word	.LANCHOR0
 1588              		.cfi_endproc
 1589              	.LFE225:
 1590              		.size	Chip_I2C_MasterStateHandler, .-Chip_I2C_MasterStateHandler
 1591              		.section	.text.Chip_I2C_EventHandlerPolling,"ax",%progbits
 1592              		.align	2
 1593              		.global	Chip_I2C_EventHandlerPolling
 1594              		.code	16
 1595              		.thumb_func
 1596              		.type	Chip_I2C_EventHandlerPolling, %function
 1597              	Chip_I2C_EventHandlerPolling:
 1598              	.LFB213:
 345:../../lpc_chip_11cxx_lib/src/i2c_11xx.c **** {
 1599              		.loc 1 345 0
 1600              		.cfi_startproc
 1601              	.LVL120:
 1602 0000 F0B5     		push	{r4, r5, r6, r7, lr}	@
 1603              		.cfi_def_cfa_offset 20
 1604              		.cfi_offset 4, -20
 1605              		.cfi_offset 5, -16
 1606              		.cfi_offset 6, -12
 1607              		.cfi_offset 7, -8
 1608              		.cfi_offset 14, -4
 1609 0002 4746     		mov	r7, r8	@,
 1610 0004 80B4     		push	{r7}	@
 1611              		.cfi_def_cfa_offset 24
 1612              		.cfi_offset 8, -24
 345:../../lpc_chip_11cxx_lib/src/i2c_11xx.c **** {
 1613              		.loc 1 345 0
 1614 0006 8046     		mov	r8, r0	@ id, id
 350:../../lpc_chip_11cxx_lib/src/i2c_11xx.c **** 	if (event != I2C_EVENT_WAIT) {
 1615              		.loc 1 350 0
 1616 0008 0129     		cmp	r1, #1	@ event,
 1617 000a 02D0     		beq	.L142	@,
 1618              	.LVL121:
ARM GAS  /var/folders/f9/8bk2lnw15zn4cbgn6wrnb4lm0000gn/T//cc47W8rL.s 			page 46


 1619              	.L135:
 361:../../lpc_chip_11cxx_lib/src/i2c_11xx.c **** }
 1620              		.loc 1 361 0
 1621              		@ sp needed	@
 1622              	.LVL122:
 1623 000c 04BC     		pop	{r2}
 1624 000e 9046     		mov	r8, r2
 1625 0010 F0BD     		pop	{r4, r5, r6, r7, pc}
 1626              	.LVL123:
 1627              	.L142:
 346:../../lpc_chip_11cxx_lib/src/i2c_11xx.c **** 	struct i2c_interface *iic = &i2c[id];
 1628              		.loc 1 346 0
 1629 0012 C700     		lsl	r7, r0, #3	@ tmp136, id,
 1630 0014 084D     		ldr	r5, .L143	@ tmp135,
 1631 0016 3F1A     		sub	r7, r7, r0	@ tmp122, tmp136, id
 1632 0018 BF00     		lsl	r7, r7, #2	@ tmp123, tmp122,
 354:../../lpc_chip_11cxx_lib/src/i2c_11xx.c **** 	stat = &iic->mXfer->status;
 1633              		.loc 1 354 0
 1634 001a EB19     		add	r3, r5, r7	@ tmp124, tmp135, tmp123
 1635 001c 1C69     		ldr	r4, [r3, #16]	@ D.6800, iic_5->mXfer
 1636              	.LVL124:
 1637              	.LBB117:
 1638              	.LBB118:
 491:../../lpc_chip_11cxx_lib/src/i2c_11xx.c **** 
 492:../../lpc_chip_11cxx_lib/src/i2c_11xx.c **** /* Setup slave function */
 493:../../lpc_chip_11cxx_lib/src/i2c_11xx.c **** void Chip_I2C_SlaveSetup(I2C_ID_T id,
 494:../../lpc_chip_11cxx_lib/src/i2c_11xx.c **** 						 I2C_SLAVE_ID sid,
 495:../../lpc_chip_11cxx_lib/src/i2c_11xx.c **** 						 I2C_XFER_T *xfer,
 496:../../lpc_chip_11cxx_lib/src/i2c_11xx.c **** 						 I2C_EVENTHANDLER_T event,
 497:../../lpc_chip_11cxx_lib/src/i2c_11xx.c **** 						 uint8_t addrMask)
 498:../../lpc_chip_11cxx_lib/src/i2c_11xx.c **** {
 499:../../lpc_chip_11cxx_lib/src/i2c_11xx.c **** 	struct i2c_interface *iic = &i2c[id];
 500:../../lpc_chip_11cxx_lib/src/i2c_11xx.c **** 	struct i2c_slave_interface *si2c = &i2c_slave[id][sid];
 501:../../lpc_chip_11cxx_lib/src/i2c_11xx.c **** 	si2c->xfer = xfer;
 502:../../lpc_chip_11cxx_lib/src/i2c_11xx.c **** 	si2c->event = event;
 503:../../lpc_chip_11cxx_lib/src/i2c_11xx.c **** 
 504:../../lpc_chip_11cxx_lib/src/i2c_11xx.c **** 	/* Set up the slave address */
 505:../../lpc_chip_11cxx_lib/src/i2c_11xx.c **** 	if (sid != I2C_SLAVE_GENERAL) {
 506:../../lpc_chip_11cxx_lib/src/i2c_11xx.c **** 		setSlaveAddr(iic->ip, sid, xfer->slaveAddr, addrMask);
 507:../../lpc_chip_11cxx_lib/src/i2c_11xx.c **** 	}
 508:../../lpc_chip_11cxx_lib/src/i2c_11xx.c **** 
 509:../../lpc_chip_11cxx_lib/src/i2c_11xx.c **** 	if (!SLAVE_ACTIVE(iic) && !iic->mXfer) {
 510:../../lpc_chip_11cxx_lib/src/i2c_11xx.c **** 		startSlaverXfer(iic->ip);
 511:../../lpc_chip_11cxx_lib/src/i2c_11xx.c **** 	}
 512:../../lpc_chip_11cxx_lib/src/i2c_11xx.c **** 	iic->flags |= 1 << (sid + 8);
 513:../../lpc_chip_11cxx_lib/src/i2c_11xx.c **** }
 514:../../lpc_chip_11cxx_lib/src/i2c_11xx.c **** 
 515:../../lpc_chip_11cxx_lib/src/i2c_11xx.c **** /* I2C Slave event handler */
 516:../../lpc_chip_11cxx_lib/src/i2c_11xx.c **** void Chip_I2C_SlaveStateHandler(I2C_ID_T id)
 517:../../lpc_chip_11cxx_lib/src/i2c_11xx.c **** {
 518:../../lpc_chip_11cxx_lib/src/i2c_11xx.c **** 	int ret;
 519:../../lpc_chip_11cxx_lib/src/i2c_11xx.c **** 	struct i2c_interface *iic = &i2c[id];
 520:../../lpc_chip_11cxx_lib/src/i2c_11xx.c **** 
 521:../../lpc_chip_11cxx_lib/src/i2c_11xx.c **** 	/* Get the currently addressed slave */
 522:../../lpc_chip_11cxx_lib/src/i2c_11xx.c **** 	if (!iic->sXfer) {
 523:../../lpc_chip_11cxx_lib/src/i2c_11xx.c **** 		struct i2c_slave_interface *si2c;
 524:../../lpc_chip_11cxx_lib/src/i2c_11xx.c **** 
ARM GAS  /var/folders/f9/8bk2lnw15zn4cbgn6wrnb4lm0000gn/T//cc47W8rL.s 			page 47


 525:../../lpc_chip_11cxx_lib/src/i2c_11xx.c **** 		I2C_SLAVE_ID sid = getSlaveIndex(iic->ip);
 526:../../lpc_chip_11cxx_lib/src/i2c_11xx.c **** 		si2c = &i2c_slave[id][sid];
 527:../../lpc_chip_11cxx_lib/src/i2c_11xx.c **** 		iic->sXfer = si2c->xfer;
 528:../../lpc_chip_11cxx_lib/src/i2c_11xx.c **** 		iic->sEvent = si2c->event;
 529:../../lpc_chip_11cxx_lib/src/i2c_11xx.c **** 	}
 530:../../lpc_chip_11cxx_lib/src/i2c_11xx.c **** 
 531:../../lpc_chip_11cxx_lib/src/i2c_11xx.c **** 	iic->sXfer->slaveAddr |= iic->mXfer != 0;
 532:../../lpc_chip_11cxx_lib/src/i2c_11xx.c **** 	ret = handleSlaveXferState(iic->ip, iic->sXfer);
 533:../../lpc_chip_11cxx_lib/src/i2c_11xx.c **** 	if (ret) {
 534:../../lpc_chip_11cxx_lib/src/i2c_11xx.c **** 		if (iic->sXfer->status == I2C_STATUS_DONE) {
 535:../../lpc_chip_11cxx_lib/src/i2c_11xx.c **** 			iic->sXfer = 0;
 536:../../lpc_chip_11cxx_lib/src/i2c_11xx.c **** 		}
 537:../../lpc_chip_11cxx_lib/src/i2c_11xx.c **** 		iic->sEvent(id, (I2C_EVENT_T) ret);
 538:../../lpc_chip_11cxx_lib/src/i2c_11xx.c **** 	}
 539:../../lpc_chip_11cxx_lib/src/i2c_11xx.c **** }
 540:../../lpc_chip_11cxx_lib/src/i2c_11xx.c **** 
 541:../../lpc_chip_11cxx_lib/src/i2c_11xx.c **** /* Disable I2C device */
 542:../../lpc_chip_11cxx_lib/src/i2c_11xx.c **** void Chip_I2C_Disable(I2C_ID_T id)
 543:../../lpc_chip_11cxx_lib/src/i2c_11xx.c **** {
 544:../../lpc_chip_11cxx_lib/src/i2c_11xx.c **** 	LPC_I2Cx(id)->CONCLR = I2C_I2CONCLR_I2ENC;
 545:../../lpc_chip_11cxx_lib/src/i2c_11xx.c **** }
 546:../../lpc_chip_11cxx_lib/src/i2c_11xx.c **** 
 547:../../lpc_chip_11cxx_lib/src/i2c_11xx.c **** /* State change checking */
 548:../../lpc_chip_11cxx_lib/src/i2c_11xx.c **** int Chip_I2C_IsStateChanged(I2C_ID_T id)
 549:../../lpc_chip_11cxx_lib/src/i2c_11xx.c **** {
 550:../../lpc_chip_11cxx_lib/src/i2c_11xx.c **** 	return (LPC_I2Cx(id)->CONSET & I2C_CON_SI) != 0;
 1639              		.loc 1 550 0
 1640 001e 0826     		mov	r6, #8	@ tmp142,
 1641              	.LVL125:
 1642              	.L139:
 1643              	.LBE118:
 1644              	.LBE117:
 356:../../lpc_chip_11cxx_lib/src/i2c_11xx.c **** 	while (*stat == I2C_STATUS_BUSY) {
 1645              		.loc 1 356 0 discriminator 1
 1646 0020 237D     		ldrb	r3, [r4, #20]	@ MEM[(volatile I2C_STATUS_T *)_8 + 20B], MEM[(volatile I2C_STATUS_T *)_8 + 20B
 1647 0022 042B     		cmp	r3, #4	@ MEM[(volatile I2C_STATUS_T *)_8 + 20B],
 1648 0024 F2D1     		bne	.L135	@,
 1649              	.LVL126:
 1650              	.LBB120:
 1651              	.LBB119:
 1652              		.loc 1 550 0
 1653 0026 EB59     		ldr	r3, [r5, r7]	@ D.6802, i2c[_4].ip
 1654 0028 1B68     		ldr	r3, [r3]	@ D.6803, _13->CONSET
 1655              	.LBE119:
 1656              	.LBE120:
 357:../../lpc_chip_11cxx_lib/src/i2c_11xx.c **** 		if (Chip_I2C_IsStateChanged(id)) {
 1657              		.loc 1 357 0
 1658 002a 1E42     		tst	r6, r3	@ tmp142, D.6803
 1659 002c F8D0     		beq	.L139	@,
 358:../../lpc_chip_11cxx_lib/src/i2c_11xx.c **** 			Chip_I2C_MasterStateHandler(id);
 1660              		.loc 1 358 0
 1661 002e 4046     		mov	r0, r8	@, id
 1662 0030 FFF7FEFF 		bl	Chip_I2C_MasterStateHandler	@
 1663              	.LVL127:
 1664 0034 F4E7     		b	.L139	@
 1665              	.L144:
 1666 0036 C046     		.align	2
ARM GAS  /var/folders/f9/8bk2lnw15zn4cbgn6wrnb4lm0000gn/T//cc47W8rL.s 			page 48


 1667              	.L143:
 1668 0038 00000000 		.word	.LANCHOR0
 1669              		.cfi_endproc
 1670              	.LFE213:
 1671              		.size	Chip_I2C_EventHandlerPolling, .-Chip_I2C_EventHandlerPolling
 1672              		.section	.text.Chip_I2C_SlaveSetup,"ax",%progbits
 1673              		.align	2
 1674              		.global	Chip_I2C_SlaveSetup
 1675              		.code	16
 1676              		.thumb_func
 1677              		.type	Chip_I2C_SlaveSetup, %function
 1678              	Chip_I2C_SlaveSetup:
 1679              	.LFB226:
 498:../../lpc_chip_11cxx_lib/src/i2c_11xx.c **** {
 1680              		.loc 1 498 0
 1681              		.cfi_startproc
 1682              	.LVL128:
 1683 0000 70B5     		push	{r4, r5, r6, lr}	@
 1684              		.cfi_def_cfa_offset 16
 1685              		.cfi_offset 4, -16
 1686              		.cfi_offset 5, -12
 1687              		.cfi_offset 6, -8
 1688              		.cfi_offset 14, -4
 498:../../lpc_chip_11cxx_lib/src/i2c_11xx.c **** {
 1689              		.loc 1 498 0
 1690 0002 04AC     		add	r4, sp, #16	@ tmp138,,
 1691              	.LVL129:
 1692 0004 2678     		ldrb	r6, [r4]	@ addrMask, addrMask
 499:../../lpc_chip_11cxx_lib/src/i2c_11xx.c **** 	struct i2c_interface *iic = &i2c[id];
 1693              		.loc 1 499 0
 1694 0006 C400     		lsl	r4, r0, #3	@ tmp141, id,
 1695              	.LVL130:
 1696 0008 241A     		sub	r4, r4, r0	@ tmp142, tmp141, id
 1697 000a 184D     		ldr	r5, .L154	@ tmp139,
 1698 000c A400     		lsl	r4, r4, #2	@ tmp143, tmp142,
 1699 000e 2C19     		add	r4, r5, r4	@ iic, tmp139, tmp143
 1700              	.LVL131:
 500:../../lpc_chip_11cxx_lib/src/i2c_11xx.c **** 	struct i2c_slave_interface *si2c = &i2c_slave[id][sid];
 1701              		.loc 1 500 0
 1702 0010 8500     		lsl	r5, r0, #2	@ tmp146, id,
 1703 0012 2818     		add	r0, r5, r0	@ tmp147, tmp146, id
 1704              	.LVL132:
 1705 0014 4018     		add	r0, r0, r1	@ tmp148, tmp147, sid
 1706 0016 164D     		ldr	r5, .L154+4	@ tmp144,
 1707 0018 C000     		lsl	r0, r0, #3	@ tmp149, tmp148,
 1708 001a 2818     		add	r0, r5, r0	@ si2c, tmp144, tmp149
 1709              	.LVL133:
 502:../../lpc_chip_11cxx_lib/src/i2c_11xx.c **** 	si2c->event = event;
 1710              		.loc 1 502 0
 1711 001c 0CC0     		stmia	r0!, {r2, r3}	@,,
 1712              	.LVL134:
 505:../../lpc_chip_11cxx_lib/src/i2c_11xx.c **** 	if (sid != I2C_SLAVE_GENERAL) {
 1713              		.loc 1 505 0
 1714 001e 0029     		cmp	r1, #0	@ sid,
 1715 0020 0DD0     		beq	.L146	@,
 1716              	.LBB121:
 1717              	.LBB122:
ARM GAS  /var/folders/f9/8bk2lnw15zn4cbgn6wrnb4lm0000gn/T//cc47W8rL.s 			page 49


 135:../../lpc_chip_11cxx_lib/src/i2c_11xx.c **** 	pI2C->MASK[index] = mask;
 1718              		.loc 1 135 0
 1719 0022 081C     		mov	r0, r1	@ tmp150, sid
 1720              	.LVL135:
 1721              	.LBE122:
 1722              	.LBE121:
 506:../../lpc_chip_11cxx_lib/src/i2c_11xx.c **** 		setSlaveAddr(iic->ip, sid, xfer->slaveAddr, addrMask);
 1723              		.loc 1 506 0
 1724 0024 2368     		ldr	r3, [r4]	@ D.6808, iic_5->ip
 1725              	.LVL136:
 1726              	.LBB127:
 1727              	.LBB124:
 135:../../lpc_chip_11cxx_lib/src/i2c_11xx.c **** 	pI2C->MASK[index] = mask;
 1728              		.loc 1 135 0
 1729 0026 0B30     		add	r0, r0, #11	@ tmp150,
 1730 0028 8000     		lsl	r0, r0, #2	@ tmp151, tmp150,
 1731              	.LBE124:
 1732              	.LBE127:
 506:../../lpc_chip_11cxx_lib/src/i2c_11xx.c **** 		setSlaveAddr(iic->ip, sid, xfer->slaveAddr, addrMask);
 1733              		.loc 1 506 0
 1734 002a 1278     		ldrb	r2, [r2]	@ D.6809, *xfer_10(D)
 1735              	.LVL137:
 1736              	.LBB128:
 1737              	.LBB125:
 135:../../lpc_chip_11cxx_lib/src/i2c_11xx.c **** 	pI2C->MASK[index] = mask;
 1738              		.loc 1 135 0
 1739 002c C650     		str	r6, [r0, r3]	@ addrMask, _14->MASK
 136:../../lpc_chip_11cxx_lib/src/i2c_11xx.c **** 	if (sid == I2C_SLAVE_0) {
 1740              		.loc 1 136 0
 1741 002e 0129     		cmp	r1, #1	@ sid,
 1742 0030 13D0     		beq	.L152	@,
 1743              	.LVL138:
 1744              	.LBB123:
 141:../../lpc_chip_11cxx_lib/src/i2c_11xx.c **** 		abase[index - 1] = addr;
 1745              		.loc 1 141 0
 1746 0032 104D     		ldr	r5, .L154+8	@,
 140:../../lpc_chip_11cxx_lib/src/i2c_11xx.c **** 		volatile uint32_t *abase = &pI2C->ADR1;
 1747              		.loc 1 140 0
 1748 0034 2033     		add	r3, r3, #32	@ abase,
 1749              	.LVL139:
 141:../../lpc_chip_11cxx_lib/src/i2c_11xx.c **** 		abase[index - 1] = addr;
 1750              		.loc 1 141 0
 1751 0036 4819     		add	r0, r1, r5	@ D.6812, sid,
 1752 0038 8000     		lsl	r0, r0, #2	@ D.6812, D.6812,
 1753 003a 1B18     		add	r3, r3, r0	@ D.6813, abase, D.6812
 1754              	.LVL140:
 1755 003c 1A60     		str	r2, [r3]	@ D.6809, *_35
 1756              	.LVL141:
 1757              	.L146:
 1758              	.LBE123:
 1759              	.LBE125:
 1760              	.LBE128:
 509:../../lpc_chip_11cxx_lib/src/i2c_11xx.c **** 	if (!SLAVE_ACTIVE(iic) && !iic->mXfer) {
 1761              		.loc 1 509 0
 1762 003e FF22     		mov	r2, #255	@ tmp164,
 1763 0040 A369     		ldr	r3, [r4, #24]	@ D.6810, iic_5->flags
 1764 0042 1202     		lsl	r2, r2, #8	@ tmp156, tmp164,
ARM GAS  /var/folders/f9/8bk2lnw15zn4cbgn6wrnb4lm0000gn/T//cc47W8rL.s 			page 50


 1765 0044 1342     		tst	r3, r2	@ D.6810, tmp156
 1766 0046 02D1     		bne	.L148	@,
 509:../../lpc_chip_11cxx_lib/src/i2c_11xx.c **** 	if (!SLAVE_ACTIVE(iic) && !iic->mXfer) {
 1767              		.loc 1 509 0 is_stmt 0 discriminator 1
 1768 0048 2269     		ldr	r2, [r4, #16]	@, iic_5->mXfer
 1769 004a 002A     		cmp	r2, #0	@,
 1770 004c 07D0     		beq	.L153	@,
 1771              	.L148:
 512:../../lpc_chip_11cxx_lib/src/i2c_11xx.c **** 	iic->flags |= 1 << (sid + 8);
 1772              		.loc 1 512 0 is_stmt 1
 1773 004e 0831     		add	r1, r1, #8	@ D.6807,
 1774              	.LVL142:
 1775 0050 0122     		mov	r2, #1	@ tmp162,
 1776 0052 8A40     		lsl	r2, r2, r1	@ tmp162, tmp162, D.6807
 1777 0054 1343     		orr	r3, r2	@ D.6810, D.6807
 1778 0056 A361     		str	r3, [r4, #24]	@ D.6810, iic_5->flags
 513:../../lpc_chip_11cxx_lib/src/i2c_11xx.c **** }
 1779              		.loc 1 513 0
 1780              		@ sp needed	@
 1781              	.LVL143:
 1782 0058 70BD     		pop	{r4, r5, r6, pc}
 1783              	.LVL144:
 1784              	.L152:
 1785              	.LBB129:
 1786              	.LBB126:
 137:../../lpc_chip_11cxx_lib/src/i2c_11xx.c **** 		pI2C->ADR0 = addr;
 1787              		.loc 1 137 0
 1788 005a DA60     		str	r2, [r3, #12]	@ D.6809, _14->ADR0
 1789 005c EFE7     		b	.L146	@
 1790              	.LVL145:
 1791              	.L153:
 1792              	.LBE126:
 1793              	.LBE129:
 510:../../lpc_chip_11cxx_lib/src/i2c_11xx.c **** 		startSlaverXfer(iic->ip);
 1794              		.loc 1 510 0
 1795 005e 2268     		ldr	r2, [r4]	@ D.6808, iic_5->ip
 1796              	.LVL146:
 1797              	.LBB130:
 1798              	.LBB131:
 107:../../lpc_chip_11cxx_lib/src/i2c_11xx.c **** 	pI2C->CONCLR = I2C_CON_SI | I2C_CON_STO | I2C_CON_STA;
 1799              		.loc 1 107 0
 1800 0060 3820     		mov	r0, #56	@ tmp158,
 1801 0062 9061     		str	r0, [r2, #24]	@ tmp158, _21->CONCLR
 110:../../lpc_chip_11cxx_lib/src/i2c_11xx.c **** 	pI2C->CONSET = I2C_CON_I2EN | I2C_CON_AA;
 1802              		.loc 1 110 0
 1803 0064 4420     		mov	r0, #68	@ tmp159,
 1804 0066 1060     		str	r0, [r2]	@ tmp159, _21->CONSET
 1805 0068 F1E7     		b	.L148	@
 1806              	.L155:
 1807 006a C046     		.align	2
 1808              	.L154:
 1809 006c 00000000 		.word	.LANCHOR0
 1810 0070 00000000 		.word	.LANCHOR1
 1811 0074 FEFFFF3F 		.word	1073741822
 1812              	.LBE131:
 1813              	.LBE130:
 1814              		.cfi_endproc
ARM GAS  /var/folders/f9/8bk2lnw15zn4cbgn6wrnb4lm0000gn/T//cc47W8rL.s 			page 51


 1815              	.LFE226:
 1816              		.size	Chip_I2C_SlaveSetup, .-Chip_I2C_SlaveSetup
 1817              		.section	.text.Chip_I2C_SlaveStateHandler,"ax",%progbits
 1818              		.align	2
 1819              		.global	Chip_I2C_SlaveStateHandler
 1820              		.code	16
 1821              		.thumb_func
 1822              		.type	Chip_I2C_SlaveStateHandler, %function
 1823              	Chip_I2C_SlaveStateHandler:
 1824              	.LFB227:
 517:../../lpc_chip_11cxx_lib/src/i2c_11xx.c **** {
 1825              		.loc 1 517 0
 1826              		.cfi_startproc
 1827              	.LVL147:
 1828 0000 38B5     		push	{r3, r4, r5, lr}	@
 1829              		.cfi_def_cfa_offset 16
 1830              		.cfi_offset 3, -16
 1831              		.cfi_offset 4, -12
 1832              		.cfi_offset 5, -8
 1833              		.cfi_offset 14, -4
 519:../../lpc_chip_11cxx_lib/src/i2c_11xx.c **** 	struct i2c_interface *iic = &i2c[id];
 1834              		.loc 1 519 0
 1835 0002 C400     		lsl	r4, r0, #3	@ tmp135, id,
 1836 0004 164B     		ldr	r3, .L165	@ tmp133,
 1837 0006 241A     		sub	r4, r4, r0	@ tmp136, tmp135, id
 1838 0008 A400     		lsl	r4, r4, #2	@ tmp137, tmp136,
 1839 000a 1C19     		add	r4, r3, r4	@ iic, tmp133, tmp137
 1840              	.LVL148:
 522:../../lpc_chip_11cxx_lib/src/i2c_11xx.c **** 	if (!iic->sXfer) {
 1841              		.loc 1 522 0
 1842 000c 6369     		ldr	r3, [r4, #20]	@ D.6819, iic_6->sXfer
 517:../../lpc_chip_11cxx_lib/src/i2c_11xx.c **** {
 1843              		.loc 1 517 0
 1844 000e 051C     		mov	r5, r0	@ id, id
 522:../../lpc_chip_11cxx_lib/src/i2c_11xx.c **** 	if (!iic->sXfer) {
 1845              		.loc 1 522 0
 1846 0010 002B     		cmp	r3, #0	@ D.6819,
 1847 0012 16D0     		beq	.L163	@,
 1848              	.LVL149:
 1849              	.L157:
 531:../../lpc_chip_11cxx_lib/src/i2c_11xx.c **** 	iic->sXfer->slaveAddr |= iic->mXfer != 0;
 1850              		.loc 1 531 0
 1851 0014 2169     		ldr	r1, [r4, #16]	@ tmp150, iic_6->mXfer
 1852 0016 4A1E     		sub	r2, r1, #1	@ tmp151, tmp150
 1853 0018 9141     		sbc	r1, r1, r2	@ tmp150, tmp150, tmp151
 1854 001a 1A78     		ldrb	r2, [r3]	@ *_49, *_49
 1855 001c 0A43     		orr	r2, r1	@ tmp154, tmp150
 1856 001e 1A70     		strb	r2, [r3]	@ tmp154, _49->slaveAddr
 532:../../lpc_chip_11cxx_lib/src/i2c_11xx.c **** 	ret = handleSlaveXferState(iic->ip, iic->sXfer);
 1857              		.loc 1 532 0
 1858 0020 2068     		ldr	r0, [r4]	@, iic_6->ip
 1859 0022 6169     		ldr	r1, [r4, #20]	@, iic_6->sXfer
 1860 0024 FFF7FEFF 		bl	handleSlaveXferState	@
 1861              	.LVL150:
 533:../../lpc_chip_11cxx_lib/src/i2c_11xx.c **** 	if (ret) {
 1862              		.loc 1 533 0
 1863 0028 0028     		cmp	r0, #0	@ ret,
ARM GAS  /var/folders/f9/8bk2lnw15zn4cbgn6wrnb4lm0000gn/T//cc47W8rL.s 			page 52


 1864 002a 07D0     		beq	.L156	@,
 534:../../lpc_chip_11cxx_lib/src/i2c_11xx.c **** 		if (iic->sXfer->status == I2C_STATUS_DONE) {
 1865              		.loc 1 534 0
 1866 002c 6269     		ldr	r2, [r4, #20]	@, iic_6->sXfer
 1867 002e 137D     		ldrb	r3, [r2, #20]	@ tmp159,
 1868 0030 002B     		cmp	r3, #0	@ tmp159,
 1869 0032 04D0     		beq	.L164	@,
 1870              	.L159:
 537:../../lpc_chip_11cxx_lib/src/i2c_11xx.c **** 		iic->sEvent(id, (I2C_EVENT_T) ret);
 1871              		.loc 1 537 0
 1872 0034 C1B2     		uxtb	r1, r0	@ ret, ret
 1873 0036 E368     		ldr	r3, [r4, #12]	@ iic_6->sEvent, iic_6->sEvent
 1874 0038 281C     		mov	r0, r5	@, id
 1875              	.LVL151:
 1876 003a 9847     		blx	r3	@ iic_6->sEvent
 1877              	.LVL152:
 1878              	.L156:
 539:../../lpc_chip_11cxx_lib/src/i2c_11xx.c **** }
 1879              		.loc 1 539 0
 1880              		@ sp needed	@
 1881              	.LVL153:
 1882              	.LVL154:
 1883 003c 38BD     		pop	{r3, r4, r5, pc}
 1884              	.LVL155:
 1885              	.L164:
 535:../../lpc_chip_11cxx_lib/src/i2c_11xx.c **** 			iic->sXfer = 0;
 1886              		.loc 1 535 0
 1887 003e 6361     		str	r3, [r4, #20]	@ tmp159, iic_6->sXfer
 1888 0040 F8E7     		b	.L159	@
 1889              	.LVL156:
 1890              	.L163:
 1891              	.LBB132:
 525:../../lpc_chip_11cxx_lib/src/i2c_11xx.c **** 		I2C_SLAVE_ID sid = getSlaveIndex(iic->ip);
 1892              		.loc 1 525 0
 1893 0042 2068     		ldr	r0, [r4]	@, iic_6->ip
 1894              	.LVL157:
 1895 0044 FFF7FEFF 		bl	getSlaveIndex	@
 1896              	.LVL158:
 526:../../lpc_chip_11cxx_lib/src/i2c_11xx.c **** 		si2c = &i2c_slave[id][sid];
 1897              		.loc 1 526 0
 1898 0048 AA00     		lsl	r2, r5, #2	@ tmp143, id,
 1899 004a 5219     		add	r2, r2, r5	@ tmp144, tmp143, id
 1900 004c 054B     		ldr	r3, .L165+4	@ tmp141,
 1901 004e 1218     		add	r2, r2, r0	@ tmp145, tmp144, tmp139
 1902 0050 D200     		lsl	r2, r2, #3	@ tmp146, tmp145,
 1903 0052 9A18     		add	r2, r3, r2	@ si2c, tmp141, tmp146
 1904              	.LVL159:
 527:../../lpc_chip_11cxx_lib/src/i2c_11xx.c **** 		iic->sXfer = si2c->xfer;
 1905              		.loc 1 527 0
 1906 0054 1368     		ldr	r3, [r2]	@ D.6819, si2c_13->xfer
 528:../../lpc_chip_11cxx_lib/src/i2c_11xx.c **** 		iic->sEvent = si2c->event;
 1907              		.loc 1 528 0
 1908 0056 5268     		ldr	r2, [r2, #4]	@, si2c_13->event
 1909              	.LVL160:
 527:../../lpc_chip_11cxx_lib/src/i2c_11xx.c **** 		iic->sXfer = si2c->xfer;
 1910              		.loc 1 527 0
 1911 0058 6361     		str	r3, [r4, #20]	@ D.6819, iic_6->sXfer
ARM GAS  /var/folders/f9/8bk2lnw15zn4cbgn6wrnb4lm0000gn/T//cc47W8rL.s 			page 53


 528:../../lpc_chip_11cxx_lib/src/i2c_11xx.c **** 		iic->sEvent = si2c->event;
 1912              		.loc 1 528 0
 1913 005a E260     		str	r2, [r4, #12]	@, iic_6->sEvent
 1914 005c DAE7     		b	.L157	@
 1915              	.L166:
 1916 005e C046     		.align	2
 1917              	.L165:
 1918 0060 00000000 		.word	.LANCHOR0
 1919 0064 00000000 		.word	.LANCHOR1
 1920              	.LBE132:
 1921              		.cfi_endproc
 1922              	.LFE227:
 1923              		.size	Chip_I2C_SlaveStateHandler, .-Chip_I2C_SlaveStateHandler
 1924              		.section	.text.Chip_I2C_Disable,"ax",%progbits
 1925              		.align	2
 1926              		.global	Chip_I2C_Disable
 1927              		.code	16
 1928              		.thumb_func
 1929              		.type	Chip_I2C_Disable, %function
 1930              	Chip_I2C_Disable:
 1931              	.LFB228:
 543:../../lpc_chip_11cxx_lib/src/i2c_11xx.c **** {
 1932              		.loc 1 543 0
 1933              		.cfi_startproc
 1934              	.LVL161:
 544:../../lpc_chip_11cxx_lib/src/i2c_11xx.c **** 	LPC_I2Cx(id)->CONCLR = I2C_I2CONCLR_I2ENC;
 1935              		.loc 1 544 0
 1936 0000 C300     		lsl	r3, r0, #3	@ tmp115, id,
 1937 0002 181A     		sub	r0, r3, r0	@ tmp116, tmp115, id
 1938              	.LVL162:
 1939 0004 024B     		ldr	r3, .L168	@ tmp113,
 1940 0006 8000     		lsl	r0, r0, #2	@ tmp117, tmp116,
 1941 0008 C358     		ldr	r3, [r0, r3]	@ D.6832, i2c[_2].ip
 1942 000a 4022     		mov	r2, #64	@ tmp118,
 1943 000c 9A61     		str	r2, [r3, #24]	@ tmp118, _4->CONCLR
 545:../../lpc_chip_11cxx_lib/src/i2c_11xx.c **** }
 1944              		.loc 1 545 0
 1945              		@ sp needed	@
 1946 000e 7047     		bx	lr
 1947              	.L169:
 1948              		.align	2
 1949              	.L168:
 1950 0010 00000000 		.word	.LANCHOR0
 1951              		.cfi_endproc
 1952              	.LFE228:
 1953              		.size	Chip_I2C_Disable, .-Chip_I2C_Disable
 1954              		.section	.text.Chip_I2C_IsStateChanged,"ax",%progbits
 1955              		.align	2
 1956              		.global	Chip_I2C_IsStateChanged
 1957              		.code	16
 1958              		.thumb_func
 1959              		.type	Chip_I2C_IsStateChanged, %function
 1960              	Chip_I2C_IsStateChanged:
 1961              	.LFB229:
 549:../../lpc_chip_11cxx_lib/src/i2c_11xx.c **** {
 1962              		.loc 1 549 0
 1963              		.cfi_startproc
ARM GAS  /var/folders/f9/8bk2lnw15zn4cbgn6wrnb4lm0000gn/T//cc47W8rL.s 			page 54


 1964              	.LVL163:
 1965              		.loc 1 550 0
 1966 0000 C300     		lsl	r3, r0, #3	@ tmp120, id,
 1967 0002 181A     		sub	r0, r3, r0	@ tmp121, tmp120, id
 1968              	.LVL164:
 1969 0004 034B     		ldr	r3, .L171	@ tmp118,
 1970 0006 8000     		lsl	r0, r0, #2	@ tmp122, tmp121,
 1971 0008 C358     		ldr	r3, [r0, r3]	@ D.6837, i2c[_2].ip
 551:../../lpc_chip_11cxx_lib/src/i2c_11xx.c **** }
 1972              		.loc 1 551 0
 1973              		@ sp needed	@
 550:../../lpc_chip_11cxx_lib/src/i2c_11xx.c **** 	return (LPC_I2Cx(id)->CONSET & I2C_CON_SI) != 0;
 1974              		.loc 1 550 0
 1975 000a 1868     		ldr	r0, [r3]	@ D.6838, _4->CONSET
 1976 000c 0007     		lsl	r0, r0, #28	@ tmp125, D.6838,
 1977 000e C00F     		lsr	r0, r0, #31	@ D.6839, tmp125,
 1978              		.loc 1 551 0
 1979 0010 7047     		bx	lr
 1980              	.L172:
 1981 0012 C046     		.align	2
 1982              	.L171:
 1983 0014 00000000 		.word	.LANCHOR0
 1984              		.cfi_endproc
 1985              	.LFE229:
 1986              		.size	Chip_I2C_IsStateChanged, .-Chip_I2C_IsStateChanged
 1987              		.section	.data.i2c,"aw",%progbits
 1988              		.align	2
 1989              		.set	.LANCHOR0,. + 0
 1990              		.type	i2c, %object
 1991              		.size	i2c, 28
 1992              	i2c:
 1993              	@ ip:
 1994 0000 00000040 		.word	1073741824
 1995              	@ clk:
 1996 0004 05       		.byte	5
 1997              	@ mEvent:
 1998 0005 000000   		.space	3
 1999 0008 00000000 		.word	Chip_I2C_EventHandler
 2000              	@ sEvent:
 2001 000c 00000000 		.word	0
 2002              	@ mXfer:
 2003 0010 00000000 		.word	0
 2004              	@ sXfer:
 2005 0014 00000000 		.word	0
 2006              	@ flags:
 2007 0018 00000000 		.word	0
 2008              		.section	.bss.i2c_slave,"aw",%nobits
 2009              		.align	2
 2010              		.set	.LANCHOR1,. + 0
 2011              		.type	i2c_slave, %object
 2012              		.size	i2c_slave, 40
 2013              	i2c_slave:
 2014 0000 00000000 		.space	40
 2014      00000000 
 2014      00000000 
 2014      00000000 
 2014      00000000 
ARM GAS  /var/folders/f9/8bk2lnw15zn4cbgn6wrnb4lm0000gn/T//cc47W8rL.s 			page 55


 2015              		.text
 2016              	.Letext0:
 2017              		.file 3 "/usr/local/Cellar/gcc-arm-none-eabi/20140805/arm-none-eabi/include/machine/_default_types
 2018              		.file 4 "/usr/local/Cellar/gcc-arm-none-eabi/20140805/arm-none-eabi/include/stdint.h"
 2019              		.file 5 "../../lpc_chip_11cxx_lib/inc/sysctl_11xx.h"
 2020              		.file 6 "../../lpc_chip_11cxx_lib/inc/i2c_11xx.h"
 2021              		.file 7 "../../lpc_chip_11cxx_lib/inc/chip.h"
 2022              		.section	.debug_info,"",%progbits
 2023              	.Ldebug_info0:
 2024 0000 B0130000 		.4byte	0x13b0
 2025 0004 0400     		.2byte	0x4
 2026 0006 00000000 		.4byte	.Ldebug_abbrev0
 2027 000a 04       		.byte	0x4
 2028 000b 01       		.uleb128 0x1
 2029 000c 350B0000 		.4byte	.LASF1193
 2030 0010 01       		.byte	0x1
 2031 0011 372A0000 		.4byte	.LASF1194
 2032 0015 A8180000 		.4byte	.LASF1195
 2033 0019 F0000000 		.4byte	.Ldebug_ranges0+0xf0
 2034 001d 00000000 		.4byte	0
 2035 0021 00000000 		.4byte	.Ldebug_line0
 2036 0025 00000000 		.4byte	.Ldebug_macro0
 2037 0029 02       		.uleb128 0x2
 2038 002a 01       		.byte	0x1
 2039 002b 06       		.byte	0x6
 2040 002c 4D1B0000 		.4byte	.LASF991
 2041 0030 03       		.uleb128 0x3
 2042 0031 C20F0000 		.4byte	.LASF996
 2043 0035 03       		.byte	0x3
 2044 0036 1C       		.byte	0x1c
 2045 0037 3B000000 		.4byte	0x3b
 2046 003b 02       		.uleb128 0x2
 2047 003c 01       		.byte	0x1
 2048 003d 08       		.byte	0x8
 2049 003e 991E0000 		.4byte	.LASF992
 2050 0042 02       		.uleb128 0x2
 2051 0043 02       		.byte	0x2
 2052 0044 05       		.byte	0x5
 2053 0045 22650000 		.4byte	.LASF993
 2054 0049 02       		.uleb128 0x2
 2055 004a 02       		.byte	0x2
 2056 004b 07       		.byte	0x7
 2057 004c F8720000 		.4byte	.LASF994
 2058 0050 02       		.uleb128 0x2
 2059 0051 04       		.byte	0x4
 2060 0052 05       		.byte	0x5
 2061 0053 89130000 		.4byte	.LASF995
 2062 0057 03       		.uleb128 0x3
 2063 0058 893E0000 		.4byte	.LASF997
 2064 005c 03       		.byte	0x3
 2065 005d 38       		.byte	0x38
 2066 005e 62000000 		.4byte	0x62
 2067 0062 02       		.uleb128 0x2
 2068 0063 04       		.byte	0x4
 2069 0064 07       		.byte	0x7
 2070 0065 20360000 		.4byte	.LASF998
 2071 0069 02       		.uleb128 0x2
ARM GAS  /var/folders/f9/8bk2lnw15zn4cbgn6wrnb4lm0000gn/T//cc47W8rL.s 			page 56


 2072 006a 08       		.byte	0x8
 2073 006b 05       		.byte	0x5
 2074 006c CA3E0000 		.4byte	.LASF999
 2075 0070 02       		.uleb128 0x2
 2076 0071 08       		.byte	0x8
 2077 0072 07       		.byte	0x7
 2078 0073 95560000 		.4byte	.LASF1000
 2079 0077 04       		.uleb128 0x4
 2080 0078 04       		.byte	0x4
 2081 0079 05       		.byte	0x5
 2082 007a 696E7400 		.ascii	"int\000"
 2083 007e 02       		.uleb128 0x2
 2084 007f 04       		.byte	0x4
 2085 0080 07       		.byte	0x7
 2086 0081 F4450000 		.4byte	.LASF1001
 2087 0085 03       		.uleb128 0x3
 2088 0086 961B0000 		.4byte	.LASF1002
 2089 008a 04       		.byte	0x4
 2090 008b 2A       		.byte	0x2a
 2091 008c 30000000 		.4byte	0x30
 2092 0090 03       		.uleb128 0x3
 2093 0091 F76E0000 		.4byte	.LASF1003
 2094 0095 04       		.byte	0x4
 2095 0096 42       		.byte	0x42
 2096 0097 57000000 		.4byte	0x57
 2097 009b 02       		.uleb128 0x2
 2098 009c 01       		.byte	0x1
 2099 009d 08       		.byte	0x8
 2100 009e 97230000 		.4byte	.LASF1004
 2101 00a2 02       		.uleb128 0x2
 2102 00a3 01       		.byte	0x1
 2103 00a4 02       		.byte	0x2
 2104 00a5 29220000 		.4byte	.LASF1005
 2105 00a9 02       		.uleb128 0x2
 2106 00aa 04       		.byte	0x4
 2107 00ab 07       		.byte	0x7
 2108 00ac 74010000 		.4byte	.LASF1006
 2109 00b0 05       		.uleb128 0x5
 2110 00b1 90000000 		.4byte	0x90
 2111 00b5 C0000000 		.4byte	0xc0
 2112 00b9 06       		.uleb128 0x6
 2113 00ba A9000000 		.4byte	0xa9
 2114 00be 07       		.byte	0x7
 2115 00bf 00       		.byte	0
 2116 00c0 07       		.uleb128 0x7
 2117 00c1 C5000000 		.4byte	0xc5
 2118 00c5 08       		.uleb128 0x8
 2119 00c6 90000000 		.4byte	0x90
 2120 00ca 05       		.uleb128 0x5
 2121 00cb 90000000 		.4byte	0x90
 2122 00cf DA000000 		.4byte	0xda
 2123 00d3 06       		.uleb128 0x6
 2124 00d4 A9000000 		.4byte	0xa9
 2125 00d8 01       		.byte	0x1
 2126 00d9 00       		.byte	0
 2127 00da 05       		.uleb128 0x5
 2128 00db 90000000 		.4byte	0x90
ARM GAS  /var/folders/f9/8bk2lnw15zn4cbgn6wrnb4lm0000gn/T//cc47W8rL.s 			page 57


 2129 00df EA000000 		.4byte	0xea
 2130 00e3 06       		.uleb128 0x6
 2131 00e4 A9000000 		.4byte	0xa9
 2132 00e8 03       		.byte	0x3
 2133 00e9 00       		.byte	0
 2134 00ea 05       		.uleb128 0x5
 2135 00eb 90000000 		.4byte	0x90
 2136 00ef FA000000 		.4byte	0xfa
 2137 00f3 06       		.uleb128 0x6
 2138 00f4 A9000000 		.4byte	0xa9
 2139 00f8 02       		.byte	0x2
 2140 00f9 00       		.byte	0
 2141 00fa 09       		.uleb128 0x9
 2142 00fb F803     		.2byte	0x3f8
 2143 00fd 05       		.byte	0x5
 2144 00fe 2F       		.byte	0x2f
 2145 00ff 0F040000 		.4byte	0x40f
 2146 0103 0A       		.uleb128 0xa
 2147 0104 D42D0000 		.4byte	.LASF1007
 2148 0108 05       		.byte	0x5
 2149 0109 30       		.byte	0x30
 2150 010a C5000000 		.4byte	0xc5
 2151 010e 00       		.byte	0
 2152 010f 0A       		.uleb128 0xa
 2153 0110 FD5A0000 		.4byte	.LASF1008
 2154 0114 05       		.byte	0x5
 2155 0115 31       		.byte	0x31
 2156 0116 C5000000 		.4byte	0xc5
 2157 011a 04       		.byte	0x4
 2158 011b 0A       		.uleb128 0xa
 2159 011c 5D2D0000 		.4byte	.LASF1009
 2160 0120 05       		.byte	0x5
 2161 0121 32       		.byte	0x32
 2162 0122 C5000000 		.4byte	0xc5
 2163 0126 08       		.byte	0x8
 2164 0127 0A       		.uleb128 0xa
 2165 0128 E56B0000 		.4byte	.LASF1010
 2166 012c 05       		.byte	0x5
 2167 012d 33       		.byte	0x33
 2168 012e C0000000 		.4byte	0xc0
 2169 0132 0C       		.byte	0xc
 2170 0133 0A       		.uleb128 0xa
 2171 0134 CC6B0000 		.4byte	.LASF1011
 2172 0138 05       		.byte	0x5
 2173 0139 34       		.byte	0x34
 2174 013a C5000000 		.4byte	0xc5
 2175 013e 10       		.byte	0x10
 2176 013f 0A       		.uleb128 0xa
 2177 0140 FA330000 		.4byte	.LASF1012
 2178 0144 05       		.byte	0x5
 2179 0145 35       		.byte	0x35
 2180 0146 C0000000 		.4byte	0xc0
 2181 014a 14       		.byte	0x14
 2182 014b 0A       		.uleb128 0xa
 2183 014c 8F1E0000 		.4byte	.LASF1013
 2184 0150 05       		.byte	0x5
 2185 0151 36       		.byte	0x36
ARM GAS  /var/folders/f9/8bk2lnw15zn4cbgn6wrnb4lm0000gn/T//cc47W8rL.s 			page 58


 2186 0152 0F040000 		.4byte	0x40f
 2187 0156 18       		.byte	0x18
 2188 0157 0A       		.uleb128 0xa
 2189 0158 57510000 		.4byte	.LASF1014
 2190 015c 05       		.byte	0x5
 2191 015d 37       		.byte	0x37
 2192 015e C5000000 		.4byte	0xc5
 2193 0162 20       		.byte	0x20
 2194 0163 0A       		.uleb128 0xa
 2195 0164 40710000 		.4byte	.LASF1015
 2196 0168 05       		.byte	0x5
 2197 0169 38       		.byte	0x38
 2198 016a C5000000 		.4byte	0xc5
 2199 016e 24       		.byte	0x24
 2200 016f 0A       		.uleb128 0xa
 2201 0170 195A0000 		.4byte	.LASF1016
 2202 0174 05       		.byte	0x5
 2203 0175 39       		.byte	0x39
 2204 0176 C5000000 		.4byte	0xc5
 2205 017a 28       		.byte	0x28
 2206 017b 0A       		.uleb128 0xa
 2207 017c 2B630000 		.4byte	.LASF1017
 2208 0180 05       		.byte	0x5
 2209 0181 3A       		.byte	0x3a
 2210 0182 C5000000 		.4byte	0xc5
 2211 0186 2C       		.byte	0x2c
 2212 0187 0A       		.uleb128 0xa
 2213 0188 22410000 		.4byte	.LASF1018
 2214 018c 05       		.byte	0x5
 2215 018d 3B       		.byte	0x3b
 2216 018e C5000000 		.4byte	0xc5
 2217 0192 30       		.byte	0x30
 2218 0193 0A       		.uleb128 0xa
 2219 0194 DE220000 		.4byte	.LASF1019
 2220 0198 05       		.byte	0x5
 2221 0199 3C       		.byte	0x3c
 2222 019a 19040000 		.4byte	0x419
 2223 019e 34       		.byte	0x34
 2224 019f 0A       		.uleb128 0xa
 2225 01a0 F1140000 		.4byte	.LASF1020
 2226 01a4 05       		.byte	0x5
 2227 01a5 3D       		.byte	0x3d
 2228 01a6 C5000000 		.4byte	0xc5
 2229 01aa 40       		.byte	0x40
 2230 01ab 0A       		.uleb128 0xa
 2231 01ac 1B460000 		.4byte	.LASF1021
 2232 01b0 05       		.byte	0x5
 2233 01b1 3E       		.byte	0x3e
 2234 01b2 C5000000 		.4byte	0xc5
 2235 01b6 44       		.byte	0x44
 2236 01b7 0A       		.uleb128 0xa
 2237 01b8 B81B0000 		.4byte	.LASF1022
 2238 01bc 05       		.byte	0x5
 2239 01bd 3F       		.byte	0x3f
 2240 01be C5000000 		.4byte	0xc5
 2241 01c2 48       		.byte	0x48
 2242 01c3 0A       		.uleb128 0xa
ARM GAS  /var/folders/f9/8bk2lnw15zn4cbgn6wrnb4lm0000gn/T//cc47W8rL.s 			page 59


 2243 01c4 574C0000 		.4byte	.LASF1023
 2244 01c8 05       		.byte	0x5
 2245 01c9 40       		.byte	0x40
 2246 01ca C5000000 		.4byte	0xc5
 2247 01ce 4C       		.byte	0x4c
 2248 01cf 0A       		.uleb128 0xa
 2249 01d0 A71E0000 		.4byte	.LASF1024
 2250 01d4 05       		.byte	0x5
 2251 01d5 41       		.byte	0x41
 2252 01d6 23040000 		.4byte	0x423
 2253 01da 50       		.byte	0x50
 2254 01db 0A       		.uleb128 0xa
 2255 01dc 051F0000 		.4byte	.LASF1025
 2256 01e0 05       		.byte	0x5
 2257 01e1 42       		.byte	0x42
 2258 01e2 C5000000 		.4byte	0xc5
 2259 01e6 70       		.byte	0x70
 2260 01e7 0A       		.uleb128 0xa
 2261 01e8 B44F0000 		.4byte	.LASF1026
 2262 01ec 05       		.byte	0x5
 2263 01ed 43       		.byte	0x43
 2264 01ee C5000000 		.4byte	0xc5
 2265 01f2 74       		.byte	0x74
 2266 01f3 0A       		.uleb128 0xa
 2267 01f4 1A490000 		.4byte	.LASF1027
 2268 01f8 05       		.byte	0x5
 2269 01f9 44       		.byte	0x44
 2270 01fa C5000000 		.4byte	0xc5
 2271 01fe 78       		.byte	0x78
 2272 01ff 0A       		.uleb128 0xa
 2273 0200 B11E0000 		.4byte	.LASF1028
 2274 0204 05       		.byte	0x5
 2275 0205 45       		.byte	0x45
 2276 0206 C0000000 		.4byte	0xc0
 2277 020a 7C       		.byte	0x7c
 2278 020b 0A       		.uleb128 0xa
 2279 020c D5590000 		.4byte	.LASF1029
 2280 0210 05       		.byte	0x5
 2281 0211 46       		.byte	0x46
 2282 0212 C5000000 		.4byte	0xc5
 2283 0216 80       		.byte	0x80
 2284 0217 0A       		.uleb128 0xa
 2285 0218 BB1E0000 		.4byte	.LASF1030
 2286 021c 05       		.byte	0x5
 2287 021d 47       		.byte	0x47
 2288 021e 2D040000 		.4byte	0x42d
 2289 0222 84       		.byte	0x84
 2290 0223 0A       		.uleb128 0xa
 2291 0224 906C0000 		.4byte	.LASF1031
 2292 0228 05       		.byte	0x5
 2293 0229 48       		.byte	0x48
 2294 022a C5000000 		.4byte	0xc5
 2295 022e 94       		.byte	0x94
 2296 022f 0A       		.uleb128 0xa
 2297 0230 FA230000 		.4byte	.LASF1032
 2298 0234 05       		.byte	0x5
 2299 0235 49       		.byte	0x49
ARM GAS  /var/folders/f9/8bk2lnw15zn4cbgn6wrnb4lm0000gn/T//cc47W8rL.s 			page 60


 2300 0236 C5000000 		.4byte	0xc5
 2301 023a 98       		.byte	0x98
 2302 023b 0A       		.uleb128 0xa
 2303 023c 7E720000 		.4byte	.LASF1033
 2304 0240 05       		.byte	0x5
 2305 0241 4A       		.byte	0x4a
 2306 0242 C5000000 		.4byte	0xc5
 2307 0246 9C       		.byte	0x9c
 2308 0247 0A       		.uleb128 0xa
 2309 0248 C51E0000 		.4byte	.LASF1034
 2310 024c 05       		.byte	0x5
 2311 024d 4B       		.byte	0x4b
 2312 024e 37040000 		.4byte	0x437
 2313 0252 A0       		.byte	0xa0
 2314 0253 0A       		.uleb128 0xa
 2315 0254 01760000 		.4byte	.LASF1035
 2316 0258 05       		.byte	0x5
 2317 0259 4C       		.byte	0x4c
 2318 025a C5000000 		.4byte	0xc5
 2319 025e C0       		.byte	0xc0
 2320 025f 0A       		.uleb128 0xa
 2321 0260 13300000 		.4byte	.LASF1036
 2322 0264 05       		.byte	0x5
 2323 0265 4D       		.byte	0x4d
 2324 0266 C5000000 		.4byte	0xc5
 2325 026a C4       		.byte	0xc4
 2326 026b 0A       		.uleb128 0xa
 2327 026c A4090000 		.4byte	.LASF1037
 2328 0270 05       		.byte	0x5
 2329 0271 4E       		.byte	0x4e
 2330 0272 C5000000 		.4byte	0xc5
 2331 0276 C8       		.byte	0xc8
 2332 0277 0A       		.uleb128 0xa
 2333 0278 CF1E0000 		.4byte	.LASF1038
 2334 027c 05       		.byte	0x5
 2335 027d 4F       		.byte	0x4f
 2336 027e C0000000 		.4byte	0xc0
 2337 0282 CC       		.byte	0xcc
 2338 0283 0A       		.uleb128 0xa
 2339 0284 A15D0000 		.4byte	.LASF1039
 2340 0288 05       		.byte	0x5
 2341 0289 50       		.byte	0x50
 2342 028a C5000000 		.4byte	0xc5
 2343 028e D0       		.byte	0xd0
 2344 028f 0A       		.uleb128 0xa
 2345 0290 0E150000 		.4byte	.LASF1040
 2346 0294 05       		.byte	0x5
 2347 0295 51       		.byte	0x51
 2348 0296 C5000000 		.4byte	0xc5
 2349 029a D4       		.byte	0xd4
 2350 029b 0A       		.uleb128 0xa
 2351 029c 146B0000 		.4byte	.LASF1041
 2352 02a0 05       		.byte	0x5
 2353 02a1 52       		.byte	0x52
 2354 02a2 C5000000 		.4byte	0xc5
 2355 02a6 D8       		.byte	0xd8
 2356 02a7 0A       		.uleb128 0xa
ARM GAS  /var/folders/f9/8bk2lnw15zn4cbgn6wrnb4lm0000gn/T//cc47W8rL.s 			page 61


 2357 02a8 D91E0000 		.4byte	.LASF1042
 2358 02ac 05       		.byte	0x5
 2359 02ad 53       		.byte	0x53
 2360 02ae C0000000 		.4byte	0xc0
 2361 02b2 DC       		.byte	0xdc
 2362 02b3 0A       		.uleb128 0xa
 2363 02b4 AC640000 		.4byte	.LASF1043
 2364 02b8 05       		.byte	0x5
 2365 02b9 54       		.byte	0x54
 2366 02ba C5000000 		.4byte	0xc5
 2367 02be E0       		.byte	0xe0
 2368 02bf 0A       		.uleb128 0xa
 2369 02c0 4E1C0000 		.4byte	.LASF1044
 2370 02c4 05       		.byte	0x5
 2371 02c5 55       		.byte	0x55
 2372 02c6 C5000000 		.4byte	0xc5
 2373 02ca E4       		.byte	0xe4
 2374 02cb 0A       		.uleb128 0xa
 2375 02cc 99710000 		.4byte	.LASF1045
 2376 02d0 05       		.byte	0x5
 2377 02d1 56       		.byte	0x56
 2378 02d2 C5000000 		.4byte	0xc5
 2379 02d6 E8       		.byte	0xe8
 2380 02d7 0A       		.uleb128 0xa
 2381 02d8 E31E0000 		.4byte	.LASF1046
 2382 02dc 05       		.byte	0x5
 2383 02dd 57       		.byte	0x57
 2384 02de 51040000 		.4byte	0x451
 2385 02e2 EC       		.byte	0xec
 2386 02e3 0B       		.uleb128 0xb
 2387 02e4 61140000 		.4byte	.LASF1047
 2388 02e8 05       		.byte	0x5
 2389 02e9 58       		.byte	0x58
 2390 02ea 5B040000 		.4byte	0x45b
 2391 02ee 0001     		.2byte	0x100
 2392 02f0 0B       		.uleb128 0xb
 2393 02f1 A4580000 		.4byte	.LASF1048
 2394 02f5 05       		.byte	0x5
 2395 02f6 59       		.byte	0x59
 2396 02f7 75040000 		.4byte	0x475
 2397 02fb 0801     		.2byte	0x108
 2398 02fd 0B       		.uleb128 0xb
 2399 02fe 23060000 		.4byte	.LASF1049
 2400 0302 05       		.byte	0x5
 2401 0303 5A       		.byte	0x5a
 2402 0304 C5000000 		.4byte	0xc5
 2403 0308 5001     		.2byte	0x150
 2404 030a 0B       		.uleb128 0xb
 2405 030b 8F750000 		.4byte	.LASF1050
 2406 030f 05       		.byte	0x5
 2407 0310 5B       		.byte	0x5b
 2408 0311 C5000000 		.4byte	0xc5
 2409 0315 5401     		.2byte	0x154
 2410 0317 0B       		.uleb128 0xb
 2411 0318 AF580000 		.4byte	.LASF1051
 2412 031c 05       		.byte	0x5
 2413 031d 5C       		.byte	0x5c
ARM GAS  /var/folders/f9/8bk2lnw15zn4cbgn6wrnb4lm0000gn/T//cc47W8rL.s 			page 62


 2414 031e 8F040000 		.4byte	0x48f
 2415 0322 5801     		.2byte	0x158
 2416 0324 0B       		.uleb128 0xb
 2417 0325 7B3A0000 		.4byte	.LASF1052
 2418 0329 05       		.byte	0x5
 2419 032a 5D       		.byte	0x5d
 2420 032b C5000000 		.4byte	0xc5
 2421 032f 7001     		.2byte	0x170
 2422 0331 0B       		.uleb128 0xb
 2423 0332 8E690000 		.4byte	.LASF1053
 2424 0336 05       		.byte	0x5
 2425 0337 5E       		.byte	0x5e
 2426 0338 C5000000 		.4byte	0xc5
 2427 033c 7401     		.2byte	0x174
 2428 033e 0B       		.uleb128 0xb
 2429 033f 78110000 		.4byte	.LASF1054
 2430 0343 05       		.byte	0x5
 2431 0344 5F       		.byte	0x5f
 2432 0345 99040000 		.4byte	0x499
 2433 0349 7801     		.2byte	0x178
 2434 034b 0B       		.uleb128 0xb
 2435 034c 1D310000 		.4byte	.LASF1055
 2436 0350 05       		.byte	0x5
 2437 0351 60       		.byte	0x60
 2438 0352 C5000000 		.4byte	0xc5
 2439 0356 9801     		.2byte	0x198
 2440 0358 0B       		.uleb128 0xb
 2441 0359 F45A0000 		.4byte	.LASF1056
 2442 035d 05       		.byte	0x5
 2443 035e 61       		.byte	0x61
 2444 035f C0000000 		.4byte	0xc0
 2445 0363 9C01     		.2byte	0x19c
 2446 0365 0B       		.uleb128 0xb
 2447 0366 BA580000 		.4byte	.LASF1057
 2448 036a 05       		.byte	0x5
 2449 036b 62       		.byte	0x62
 2450 036c AE040000 		.4byte	0x4ae
 2451 0370 A001     		.2byte	0x1a0
 2452 0372 0B       		.uleb128 0xb
 2453 0373 314B0000 		.4byte	.LASF1058
 2454 0377 05       		.byte	0x5
 2455 0378 63       		.byte	0x63
 2456 0379 C5000000 		.4byte	0xc5
 2457 037d 0002     		.2byte	0x200
 2458 037f 0B       		.uleb128 0xb
 2459 0380 3B670000 		.4byte	.LASF1059
 2460 0384 05       		.byte	0x5
 2461 0385 64       		.byte	0x64
 2462 0386 C5000000 		.4byte	0xc5
 2463 038a 0402     		.2byte	0x204
 2464 038c 0B       		.uleb128 0xb
 2465 038d D76B0000 		.4byte	.LASF1060
 2466 0391 05       		.byte	0x5
 2467 0392 65       		.byte	0x65
 2468 0393 C5000000 		.4byte	0xc5
 2469 0397 0802     		.2byte	0x208
 2470 0399 0B       		.uleb128 0xb
ARM GAS  /var/folders/f9/8bk2lnw15zn4cbgn6wrnb4lm0000gn/T//cc47W8rL.s 			page 63


 2471 039a 556F0000 		.4byte	.LASF1061
 2472 039e 05       		.byte	0x5
 2473 039f 66       		.byte	0x66
 2474 03a0 C5000000 		.4byte	0xc5
 2475 03a4 0C02     		.2byte	0x20c
 2476 03a6 0B       		.uleb128 0xb
 2477 03a7 C5580000 		.4byte	.LASF1062
 2478 03ab 05       		.byte	0x5
 2479 03ac 67       		.byte	0x67
 2480 03ad C0000000 		.4byte	0xc0
 2481 03b1 1002     		.2byte	0x210
 2482 03b3 0B       		.uleb128 0xb
 2483 03b4 45670000 		.4byte	.LASF1063
 2484 03b8 05       		.byte	0x5
 2485 03b9 68       		.byte	0x68
 2486 03ba C5000000 		.4byte	0xc5
 2487 03be 1402     		.2byte	0x214
 2488 03c0 0B       		.uleb128 0xb
 2489 03c1 D0580000 		.4byte	.LASF1064
 2490 03c5 05       		.byte	0x5
 2491 03c6 69       		.byte	0x69
 2492 03c7 B8040000 		.4byte	0x4b8
 2493 03cb 1802     		.2byte	0x218
 2494 03cd 0B       		.uleb128 0xb
 2495 03ce E4490000 		.4byte	.LASF1065
 2496 03d2 05       		.byte	0x5
 2497 03d3 6A       		.byte	0x6a
 2498 03d4 C5000000 		.4byte	0xc5
 2499 03d8 3002     		.2byte	0x230
 2500 03da 0B       		.uleb128 0xb
 2501 03db D25A0000 		.4byte	.LASF1066
 2502 03df 05       		.byte	0x5
 2503 03e0 6B       		.byte	0x6b
 2504 03e1 C5000000 		.4byte	0xc5
 2505 03e5 3402     		.2byte	0x234
 2506 03e7 0B       		.uleb128 0xb
 2507 03e8 F0190000 		.4byte	.LASF1067
 2508 03ec 05       		.byte	0x5
 2509 03ed 6C       		.byte	0x6c
 2510 03ee C5000000 		.4byte	0xc5
 2511 03f2 3802     		.2byte	0x238
 2512 03f4 0B       		.uleb128 0xb
 2513 03f5 DB580000 		.4byte	.LASF1068
 2514 03f9 05       		.byte	0x5
 2515 03fa 6D       		.byte	0x6d
 2516 03fb D2040000 		.4byte	0x4d2
 2517 03ff 3C02     		.2byte	0x23c
 2518 0401 0B       		.uleb128 0xb
 2519 0402 31640000 		.4byte	.LASF1069
 2520 0406 05       		.byte	0x5
 2521 0407 6E       		.byte	0x6e
 2522 0408 C0000000 		.4byte	0xc0
 2523 040c F403     		.2byte	0x3f4
 2524 040e 00       		.byte	0
 2525 040f 07       		.uleb128 0x7
 2526 0410 14040000 		.4byte	0x414
 2527 0414 08       		.uleb128 0x8
ARM GAS  /var/folders/f9/8bk2lnw15zn4cbgn6wrnb4lm0000gn/T//cc47W8rL.s 			page 64


 2528 0415 CA000000 		.4byte	0xca
 2529 0419 07       		.uleb128 0x7
 2530 041a 1E040000 		.4byte	0x41e
 2531 041e 08       		.uleb128 0x8
 2532 041f EA000000 		.4byte	0xea
 2533 0423 07       		.uleb128 0x7
 2534 0424 28040000 		.4byte	0x428
 2535 0428 08       		.uleb128 0x8
 2536 0429 B0000000 		.4byte	0xb0
 2537 042d 07       		.uleb128 0x7
 2538 042e 32040000 		.4byte	0x432
 2539 0432 08       		.uleb128 0x8
 2540 0433 DA000000 		.4byte	0xda
 2541 0437 07       		.uleb128 0x7
 2542 0438 3C040000 		.4byte	0x43c
 2543 043c 08       		.uleb128 0x8
 2544 043d B0000000 		.4byte	0xb0
 2545 0441 05       		.uleb128 0x5
 2546 0442 90000000 		.4byte	0x90
 2547 0446 51040000 		.4byte	0x451
 2548 044a 06       		.uleb128 0x6
 2549 044b A9000000 		.4byte	0xa9
 2550 044f 04       		.byte	0x4
 2551 0450 00       		.byte	0
 2552 0451 07       		.uleb128 0x7
 2553 0452 56040000 		.4byte	0x456
 2554 0456 08       		.uleb128 0x8
 2555 0457 41040000 		.4byte	0x441
 2556 045b 07       		.uleb128 0x7
 2557 045c 60040000 		.4byte	0x460
 2558 0460 08       		.uleb128 0x8
 2559 0461 CA000000 		.4byte	0xca
 2560 0465 05       		.uleb128 0x5
 2561 0466 90000000 		.4byte	0x90
 2562 046a 75040000 		.4byte	0x475
 2563 046e 06       		.uleb128 0x6
 2564 046f A9000000 		.4byte	0xa9
 2565 0473 11       		.byte	0x11
 2566 0474 00       		.byte	0
 2567 0475 07       		.uleb128 0x7
 2568 0476 7A040000 		.4byte	0x47a
 2569 047a 08       		.uleb128 0x8
 2570 047b 65040000 		.4byte	0x465
 2571 047f 05       		.uleb128 0x5
 2572 0480 90000000 		.4byte	0x90
 2573 0484 8F040000 		.4byte	0x48f
 2574 0488 06       		.uleb128 0x6
 2575 0489 A9000000 		.4byte	0xa9
 2576 048d 05       		.byte	0x5
 2577 048e 00       		.byte	0
 2578 048f 07       		.uleb128 0x7
 2579 0490 94040000 		.4byte	0x494
 2580 0494 08       		.uleb128 0x8
 2581 0495 7F040000 		.4byte	0x47f
 2582 0499 08       		.uleb128 0x8
 2583 049a B0000000 		.4byte	0xb0
 2584 049e 05       		.uleb128 0x5
ARM GAS  /var/folders/f9/8bk2lnw15zn4cbgn6wrnb4lm0000gn/T//cc47W8rL.s 			page 65


 2585 049f 90000000 		.4byte	0x90
 2586 04a3 AE040000 		.4byte	0x4ae
 2587 04a7 06       		.uleb128 0x6
 2588 04a8 A9000000 		.4byte	0xa9
 2589 04ac 17       		.byte	0x17
 2590 04ad 00       		.byte	0
 2591 04ae 07       		.uleb128 0x7
 2592 04af B3040000 		.4byte	0x4b3
 2593 04b3 08       		.uleb128 0x8
 2594 04b4 9E040000 		.4byte	0x49e
 2595 04b8 07       		.uleb128 0x7
 2596 04b9 BD040000 		.4byte	0x4bd
 2597 04bd 08       		.uleb128 0x8
 2598 04be 7F040000 		.4byte	0x47f
 2599 04c2 05       		.uleb128 0x5
 2600 04c3 90000000 		.4byte	0x90
 2601 04c7 D2040000 		.4byte	0x4d2
 2602 04cb 06       		.uleb128 0x6
 2603 04cc A9000000 		.4byte	0xa9
 2604 04d0 6D       		.byte	0x6d
 2605 04d1 00       		.byte	0
 2606 04d2 07       		.uleb128 0x7
 2607 04d3 D7040000 		.4byte	0x4d7
 2608 04d7 08       		.uleb128 0x8
 2609 04d8 C2040000 		.4byte	0x4c2
 2610 04dc 03       		.uleb128 0x3
 2611 04dd 17100000 		.4byte	.LASF1070
 2612 04e1 05       		.byte	0x5
 2613 04e2 6F       		.byte	0x6f
 2614 04e3 FA000000 		.4byte	0xfa
 2615 04e7 0C       		.uleb128 0xc
 2616 04e8 693A0000 		.4byte	.LASF1124
 2617 04ec 01       		.byte	0x1
 2618 04ed 02       		.byte	0x2
 2619 04ee E4       		.byte	0xe4
 2620 04ef 66050000 		.4byte	0x566
 2621 04f3 0D       		.uleb128 0xd
 2622 04f4 8F000000 		.4byte	.LASF1071
 2623 04f8 00       		.sleb128 0
 2624 04f9 0D       		.uleb128 0xd
 2625 04fa 3E3C0000 		.4byte	.LASF1072
 2626 04fe 01       		.sleb128 1
 2627 04ff 0D       		.uleb128 0xd
 2628 0500 51010000 		.4byte	.LASF1073
 2629 0504 02       		.sleb128 2
 2630 0505 0D       		.uleb128 0xd
 2631 0506 FC520000 		.4byte	.LASF1074
 2632 050a 03       		.sleb128 3
 2633 050b 0D       		.uleb128 0xd
 2634 050c ED320000 		.4byte	.LASF1075
 2635 0510 04       		.sleb128 4
 2636 0511 0D       		.uleb128 0xd
 2637 0512 A0570000 		.4byte	.LASF1076
 2638 0516 05       		.sleb128 5
 2639 0517 0D       		.uleb128 0xd
 2640 0518 40330000 		.4byte	.LASF1077
 2641 051c 06       		.sleb128 6
ARM GAS  /var/folders/f9/8bk2lnw15zn4cbgn6wrnb4lm0000gn/T//cc47W8rL.s 			page 66


 2642 051d 0D       		.uleb128 0xd
 2643 051e E36E0000 		.4byte	.LASF1078
 2644 0522 07       		.sleb128 7
 2645 0523 0D       		.uleb128 0xd
 2646 0524 C1060000 		.4byte	.LASF1079
 2647 0528 08       		.sleb128 8
 2648 0529 0D       		.uleb128 0xd
 2649 052a 2E0E0000 		.4byte	.LASF1080
 2650 052e 09       		.sleb128 9
 2651 052f 0D       		.uleb128 0xd
 2652 0530 420E0000 		.4byte	.LASF1081
 2653 0534 0A       		.sleb128 10
 2654 0535 0D       		.uleb128 0xd
 2655 0536 49240000 		.4byte	.LASF1082
 2656 053a 0B       		.sleb128 11
 2657 053b 0D       		.uleb128 0xd
 2658 053c 8D570000 		.4byte	.LASF1083
 2659 0540 0C       		.sleb128 12
 2660 0541 0D       		.uleb128 0xd
 2661 0542 25550000 		.4byte	.LASF1084
 2662 0546 0D       		.sleb128 13
 2663 0547 0D       		.uleb128 0xd
 2664 0548 E1560000 		.4byte	.LASF1085
 2665 054c 0E       		.sleb128 14
 2666 054d 0D       		.uleb128 0xd
 2667 054e 720F0000 		.4byte	.LASF1086
 2668 0552 0F       		.sleb128 15
 2669 0553 0D       		.uleb128 0xd
 2670 0554 9E3A0000 		.4byte	.LASF1087
 2671 0558 10       		.sleb128 16
 2672 0559 0D       		.uleb128 0xd
 2673 055a 07790000 		.4byte	.LASF1088
 2674 055e 11       		.sleb128 17
 2675 055f 0D       		.uleb128 0xd
 2676 0560 5B240000 		.4byte	.LASF1089
 2677 0564 12       		.sleb128 18
 2678 0565 00       		.byte	0
 2679 0566 0E       		.uleb128 0xe
 2680 0567 F9050000 		.4byte	.LASF1090
 2681 056b 02       		.byte	0x2
 2682 056c 2001     		.2byte	0x120
 2683 056e E7040000 		.4byte	0x4e7
 2684 0572 07       		.uleb128 0x7
 2685 0573 90000000 		.4byte	0x90
 2686 0577 0F       		.uleb128 0xf
 2687 0578 40       		.byte	0x40
 2688 0579 06       		.byte	0x6
 2689 057a 31       		.byte	0x31
 2690 057b 1C060000 		.4byte	0x61c
 2691 057f 0A       		.uleb128 0xa
 2692 0580 66280000 		.4byte	.LASF1091
 2693 0584 06       		.byte	0x6
 2694 0585 32       		.byte	0x32
 2695 0586 C5000000 		.4byte	0xc5
 2696 058a 00       		.byte	0
 2697 058b 0A       		.uleb128 0xa
 2698 058c 070C0000 		.4byte	.LASF1092
ARM GAS  /var/folders/f9/8bk2lnw15zn4cbgn6wrnb4lm0000gn/T//cc47W8rL.s 			page 67


 2699 0590 06       		.byte	0x6
 2700 0591 33       		.byte	0x33
 2701 0592 C0000000 		.4byte	0xc0
 2702 0596 04       		.byte	0x4
 2703 0597 10       		.uleb128 0x10
 2704 0598 44415400 		.ascii	"DAT\000"
 2705 059c 06       		.byte	0x6
 2706 059d 34       		.byte	0x34
 2707 059e C5000000 		.4byte	0xc5
 2708 05a2 08       		.byte	0x8
 2709 05a3 0A       		.uleb128 0xa
 2710 05a4 CF280000 		.4byte	.LASF1093
 2711 05a8 06       		.byte	0x6
 2712 05a9 35       		.byte	0x35
 2713 05aa C5000000 		.4byte	0xc5
 2714 05ae 0C       		.byte	0xc
 2715 05af 0A       		.uleb128 0xa
 2716 05b0 BE010000 		.4byte	.LASF1094
 2717 05b4 06       		.byte	0x6
 2718 05b5 36       		.byte	0x36
 2719 05b6 C5000000 		.4byte	0xc5
 2720 05ba 10       		.byte	0x10
 2721 05bb 0A       		.uleb128 0xa
 2722 05bc C3010000 		.4byte	.LASF1095
 2723 05c0 06       		.byte	0x6
 2724 05c1 37       		.byte	0x37
 2725 05c2 C5000000 		.4byte	0xc5
 2726 05c6 14       		.byte	0x14
 2727 05c7 0A       		.uleb128 0xa
 2728 05c8 C66F0000 		.4byte	.LASF1096
 2729 05cc 06       		.byte	0x6
 2730 05cd 38       		.byte	0x38
 2731 05ce C5000000 		.4byte	0xc5
 2732 05d2 18       		.byte	0x18
 2733 05d3 0A       		.uleb128 0xa
 2734 05d4 A2350000 		.4byte	.LASF1097
 2735 05d8 06       		.byte	0x6
 2736 05d9 39       		.byte	0x39
 2737 05da C5000000 		.4byte	0xc5
 2738 05de 1C       		.byte	0x1c
 2739 05df 0A       		.uleb128 0xa
 2740 05e0 D4280000 		.4byte	.LASF1098
 2741 05e4 06       		.byte	0x6
 2742 05e5 3A       		.byte	0x3a
 2743 05e6 C5000000 		.4byte	0xc5
 2744 05ea 20       		.byte	0x20
 2745 05eb 0A       		.uleb128 0xa
 2746 05ec D9280000 		.4byte	.LASF1099
 2747 05f0 06       		.byte	0x6
 2748 05f1 3B       		.byte	0x3b
 2749 05f2 C5000000 		.4byte	0xc5
 2750 05f6 24       		.byte	0x24
 2751 05f7 0A       		.uleb128 0xa
 2752 05f8 DE280000 		.4byte	.LASF1100
 2753 05fc 06       		.byte	0x6
 2754 05fd 3C       		.byte	0x3c
 2755 05fe C5000000 		.4byte	0xc5
ARM GAS  /var/folders/f9/8bk2lnw15zn4cbgn6wrnb4lm0000gn/T//cc47W8rL.s 			page 68


 2756 0602 28       		.byte	0x28
 2757 0603 0A       		.uleb128 0xa
 2758 0604 E56F0000 		.4byte	.LASF1101
 2759 0608 06       		.byte	0x6
 2760 0609 3D       		.byte	0x3d
 2761 060a C0000000 		.4byte	0xc0
 2762 060e 2C       		.byte	0x2c
 2763 060f 0A       		.uleb128 0xa
 2764 0610 03650000 		.4byte	.LASF1102
 2765 0614 06       		.byte	0x6
 2766 0615 3E       		.byte	0x3e
 2767 0616 1C060000 		.4byte	0x61c
 2768 061a 30       		.byte	0x30
 2769 061b 00       		.byte	0
 2770 061c 08       		.uleb128 0x8
 2771 061d DA000000 		.4byte	0xda
 2772 0621 03       		.uleb128 0x3
 2773 0622 DC5A0000 		.4byte	.LASF1103
 2774 0626 06       		.byte	0x6
 2775 0627 3F       		.byte	0x3f
 2776 0628 77050000 		.4byte	0x577
 2777 062c 11       		.uleb128 0x11
 2778 062d 01       		.byte	0x1
 2779 062e 06       		.byte	0x6
 2780 062f F1       		.byte	0xf1
 2781 0630 59060000 		.4byte	0x659
 2782 0634 0D       		.uleb128 0xd
 2783 0635 0E090000 		.4byte	.LASF1104
 2784 0639 00       		.sleb128 0
 2785 063a 0D       		.uleb128 0xd
 2786 063b 0F110000 		.4byte	.LASF1105
 2787 063f 01       		.sleb128 1
 2788 0640 0D       		.uleb128 0xd
 2789 0641 1B110000 		.4byte	.LASF1106
 2790 0645 02       		.sleb128 2
 2791 0646 0D       		.uleb128 0xd
 2792 0647 27110000 		.4byte	.LASF1107
 2793 064b 03       		.sleb128 3
 2794 064c 0D       		.uleb128 0xd
 2795 064d 33110000 		.4byte	.LASF1108
 2796 0651 04       		.sleb128 4
 2797 0652 0D       		.uleb128 0xd
 2798 0653 EC0D0000 		.4byte	.LASF1109
 2799 0657 05       		.sleb128 5
 2800 0658 00       		.byte	0
 2801 0659 03       		.uleb128 0x3
 2802 065a 03380000 		.4byte	.LASF1110
 2803 065e 06       		.byte	0x6
 2804 065f F8       		.byte	0xf8
 2805 0660 2C060000 		.4byte	0x62c
 2806 0664 11       		.uleb128 0x11
 2807 0665 01       		.byte	0x1
 2808 0666 06       		.byte	0x6
 2809 0667 FD       		.byte	0xfd
 2810 0668 8B060000 		.4byte	0x68b
 2811 066c 0D       		.uleb128 0xd
 2812 066d 96370000 		.4byte	.LASF1111
ARM GAS  /var/folders/f9/8bk2lnw15zn4cbgn6wrnb4lm0000gn/T//cc47W8rL.s 			page 69


 2813 0671 00       		.sleb128 0
 2814 0672 0D       		.uleb128 0xd
 2815 0673 7E6A0000 		.4byte	.LASF1112
 2816 0677 01       		.sleb128 1
 2817 0678 0D       		.uleb128 0xd
 2818 0679 01220000 		.4byte	.LASF1113
 2819 067d 02       		.sleb128 2
 2820 067e 0D       		.uleb128 0xd
 2821 067f 52360000 		.4byte	.LASF1114
 2822 0683 03       		.sleb128 3
 2823 0684 0D       		.uleb128 0xd
 2824 0685 94630000 		.4byte	.LASF1115
 2825 0689 04       		.sleb128 4
 2826 068a 00       		.byte	0
 2827 068b 0E       		.uleb128 0xe
 2828 068c 12430000 		.4byte	.LASF1116
 2829 0690 06       		.byte	0x6
 2830 0691 0301     		.2byte	0x103
 2831 0693 64060000 		.4byte	0x664
 2832 0697 12       		.uleb128 0x12
 2833 0698 18       		.byte	0x18
 2834 0699 06       		.byte	0x6
 2835 069a 0801     		.2byte	0x108
 2836 069c EF060000 		.4byte	0x6ef
 2837 06a0 13       		.uleb128 0x13
 2838 06a1 F4600000 		.4byte	.LASF1117
 2839 06a5 06       		.byte	0x6
 2840 06a6 0901     		.2byte	0x109
 2841 06a8 85000000 		.4byte	0x85
 2842 06ac 00       		.byte	0
 2843 06ad 13       		.uleb128 0x13
 2844 06ae FB3A0000 		.4byte	.LASF1118
 2845 06b2 06       		.byte	0x6
 2846 06b3 0A01     		.2byte	0x10a
 2847 06b5 EF060000 		.4byte	0x6ef
 2848 06b9 04       		.byte	0x4
 2849 06ba 13       		.uleb128 0x13
 2850 06bb 9E740000 		.4byte	.LASF1119
 2851 06bf 06       		.byte	0x6
 2852 06c0 0B01     		.2byte	0x10b
 2853 06c2 77000000 		.4byte	0x77
 2854 06c6 08       		.byte	0x8
 2855 06c7 13       		.uleb128 0x13
 2856 06c8 2C580000 		.4byte	.LASF1120
 2857 06cc 06       		.byte	0x6
 2858 06cd 0D01     		.2byte	0x10d
 2859 06cf FA060000 		.4byte	0x6fa
 2860 06d3 0C       		.byte	0xc
 2861 06d4 13       		.uleb128 0x13
 2862 06d5 A3730000 		.4byte	.LASF1121
 2863 06d9 06       		.byte	0x6
 2864 06da 0E01     		.2byte	0x10e
 2865 06dc 77000000 		.4byte	0x77
 2866 06e0 10       		.byte	0x10
 2867 06e1 13       		.uleb128 0x13
 2868 06e2 F9360000 		.4byte	.LASF1122
 2869 06e6 06       		.byte	0x6
ARM GAS  /var/folders/f9/8bk2lnw15zn4cbgn6wrnb4lm0000gn/T//cc47W8rL.s 			page 70


 2870 06e7 1001     		.2byte	0x110
 2871 06e9 8B060000 		.4byte	0x68b
 2872 06ed 14       		.byte	0x14
 2873 06ee 00       		.byte	0
 2874 06ef 14       		.uleb128 0x14
 2875 06f0 04       		.byte	0x4
 2876 06f1 F5060000 		.4byte	0x6f5
 2877 06f5 07       		.uleb128 0x7
 2878 06f6 85000000 		.4byte	0x85
 2879 06fa 14       		.uleb128 0x14
 2880 06fb 04       		.byte	0x4
 2881 06fc 85000000 		.4byte	0x85
 2882 0700 0E       		.uleb128 0xe
 2883 0701 64360000 		.4byte	.LASF1123
 2884 0705 06       		.byte	0x6
 2885 0706 1101     		.2byte	0x111
 2886 0708 97060000 		.4byte	0x697
 2887 070c 15       		.uleb128 0x15
 2888 070d 9E5A0000 		.4byte	.LASF1125
 2889 0711 01       		.byte	0x1
 2890 0712 06       		.byte	0x6
 2891 0713 1B01     		.2byte	0x11b
 2892 0715 26070000 		.4byte	0x726
 2893 0719 0D       		.uleb128 0xd
 2894 071a 20550000 		.4byte	.LASF1126
 2895 071e 00       		.sleb128 0
 2896 071f 0D       		.uleb128 0xd
 2897 0720 A4490000 		.4byte	.LASF1127
 2898 0724 01       		.sleb128 1
 2899 0725 00       		.byte	0
 2900 0726 0E       		.uleb128 0xe
 2901 0727 581E0000 		.4byte	.LASF1128
 2902 072b 06       		.byte	0x6
 2903 072c 1E01     		.2byte	0x11e
 2904 072e 0C070000 		.4byte	0x70c
 2905 0732 16       		.uleb128 0x16
 2906 0733 01       		.byte	0x1
 2907 0734 06       		.byte	0x6
 2908 0735 2301     		.2byte	0x123
 2909 0737 60070000 		.4byte	0x760
 2910 073b 0D       		.uleb128 0xd
 2911 073c 40420000 		.4byte	.LASF1129
 2912 0740 01       		.sleb128 1
 2913 0741 0D       		.uleb128 0xd
 2914 0742 4F420000 		.4byte	.LASF1130
 2915 0746 02       		.sleb128 2
 2916 0747 0D       		.uleb128 0xd
 2917 0748 094A0000 		.4byte	.LASF1131
 2918 074c 03       		.sleb128 3
 2919 074d 0D       		.uleb128 0xd
 2920 074e 3B150000 		.4byte	.LASF1132
 2921 0752 04       		.sleb128 4
 2922 0753 0D       		.uleb128 0xd
 2923 0754 1D2E0000 		.4byte	.LASF1133
 2924 0758 05       		.sleb128 5
 2925 0759 0D       		.uleb128 0xd
 2926 075a 6F360000 		.4byte	.LASF1134
ARM GAS  /var/folders/f9/8bk2lnw15zn4cbgn6wrnb4lm0000gn/T//cc47W8rL.s 			page 71


 2927 075e 06       		.sleb128 6
 2928 075f 00       		.byte	0
 2929 0760 0E       		.uleb128 0xe
 2930 0761 124D0000 		.4byte	.LASF1135
 2931 0765 06       		.byte	0x6
 2932 0766 2A01     		.2byte	0x12a
 2933 0768 32070000 		.4byte	0x732
 2934 076c 0E       		.uleb128 0xe
 2935 076d 68610000 		.4byte	.LASF1136
 2936 0771 06       		.byte	0x6
 2937 0772 2F01     		.2byte	0x12f
 2938 0774 78070000 		.4byte	0x778
 2939 0778 14       		.uleb128 0x14
 2940 0779 04       		.byte	0x4
 2941 077a 7E070000 		.4byte	0x77e
 2942 077e 17       		.uleb128 0x17
 2943 077f 8E070000 		.4byte	0x78e
 2944 0783 18       		.uleb128 0x18
 2945 0784 26070000 		.4byte	0x726
 2946 0788 18       		.uleb128 0x18
 2947 0789 60070000 		.4byte	0x760
 2948 078d 00       		.byte	0
 2949 078e 19       		.uleb128 0x19
 2950 078f 044D0000 		.4byte	.LASF1142
 2951 0793 1C       		.byte	0x1c
 2952 0794 01       		.byte	0x1
 2953 0795 2E       		.byte	0x2e
 2954 0796 EE070000 		.4byte	0x7ee
 2955 079a 10       		.uleb128 0x10
 2956 079b 697000   		.ascii	"ip\000"
 2957 079e 01       		.byte	0x1
 2958 079f 2F       		.byte	0x2f
 2959 07a0 EE070000 		.4byte	0x7ee
 2960 07a4 00       		.byte	0
 2961 07a5 10       		.uleb128 0x10
 2962 07a6 636C6B00 		.ascii	"clk\000"
 2963 07aa 01       		.byte	0x1
 2964 07ab 30       		.byte	0x30
 2965 07ac 66050000 		.4byte	0x566
 2966 07b0 04       		.byte	0x4
 2967 07b1 0A       		.uleb128 0xa
 2968 07b2 E3590000 		.4byte	.LASF1137
 2969 07b6 01       		.byte	0x1
 2970 07b7 31       		.byte	0x31
 2971 07b8 6C070000 		.4byte	0x76c
 2972 07bc 08       		.byte	0x8
 2973 07bd 0A       		.uleb128 0xa
 2974 07be 82080000 		.4byte	.LASF1138
 2975 07c2 01       		.byte	0x1
 2976 07c3 32       		.byte	0x32
 2977 07c4 6C070000 		.4byte	0x76c
 2978 07c8 0C       		.byte	0xc
 2979 07c9 0A       		.uleb128 0xa
 2980 07ca C3070000 		.4byte	.LASF1139
 2981 07ce 01       		.byte	0x1
 2982 07cf 33       		.byte	0x33
 2983 07d0 F4070000 		.4byte	0x7f4
ARM GAS  /var/folders/f9/8bk2lnw15zn4cbgn6wrnb4lm0000gn/T//cc47W8rL.s 			page 72


 2984 07d4 10       		.byte	0x10
 2985 07d5 0A       		.uleb128 0xa
 2986 07d6 1A3A0000 		.4byte	.LASF1140
 2987 07da 01       		.byte	0x1
 2988 07db 34       		.byte	0x34
 2989 07dc F4070000 		.4byte	0x7f4
 2990 07e0 14       		.byte	0x14
 2991 07e1 0A       		.uleb128 0xa
 2992 07e2 36280000 		.4byte	.LASF1141
 2993 07e6 01       		.byte	0x1
 2994 07e7 35       		.byte	0x35
 2995 07e8 90000000 		.4byte	0x90
 2996 07ec 18       		.byte	0x18
 2997 07ed 00       		.byte	0
 2998 07ee 14       		.uleb128 0x14
 2999 07ef 04       		.byte	0x4
 3000 07f0 21060000 		.4byte	0x621
 3001 07f4 14       		.uleb128 0x14
 3002 07f5 04       		.byte	0x4
 3003 07f6 00070000 		.4byte	0x700
 3004 07fa 19       		.uleb128 0x19
 3005 07fb 1F430000 		.4byte	.LASF1143
 3006 07ff 08       		.byte	0x8
 3007 0800 01       		.byte	0x1
 3008 0801 39       		.byte	0x39
 3009 0802 1F080000 		.4byte	0x81f
 3010 0806 0A       		.uleb128 0xa
 3011 0807 45720000 		.4byte	.LASF1144
 3012 080b 01       		.byte	0x1
 3013 080c 3A       		.byte	0x3a
 3014 080d F4070000 		.4byte	0x7f4
 3015 0811 00       		.byte	0
 3016 0812 0A       		.uleb128 0xa
 3017 0813 91440000 		.4byte	.LASF1145
 3018 0817 01       		.byte	0x1
 3019 0818 3B       		.byte	0x3b
 3020 0819 6C070000 		.4byte	0x76c
 3021 081d 04       		.byte	0x4
 3022 081e 00       		.byte	0
 3023 081f 1A       		.uleb128 0x1a
 3024 0820 1C570000 		.4byte	.LASF1146
 3025 0824 02       		.byte	0x2
 3026 0825 2701     		.2byte	0x127
 3027 0827 03       		.byte	0x3
 3028 0828 39080000 		.4byte	0x839
 3029 082c 1B       		.uleb128 0x1b
 3030 082d 636C6B00 		.ascii	"clk\000"
 3031 0831 02       		.byte	0x2
 3032 0832 2701     		.2byte	0x127
 3033 0834 66050000 		.4byte	0x566
 3034 0838 00       		.byte	0
 3035 0839 1A       		.uleb128 0x1a
 3036 083a A0330000 		.4byte	.LASF1147
 3037 083e 02       		.byte	0x2
 3038 083f 3101     		.2byte	0x131
 3039 0841 03       		.byte	0x3
 3040 0842 53080000 		.4byte	0x853
ARM GAS  /var/folders/f9/8bk2lnw15zn4cbgn6wrnb4lm0000gn/T//cc47W8rL.s 			page 73


 3041 0846 1B       		.uleb128 0x1b
 3042 0847 636C6B00 		.ascii	"clk\000"
 3043 084b 02       		.byte	0x2
 3044 084c 3101     		.2byte	0x131
 3045 084e 66050000 		.4byte	0x566
 3046 0852 00       		.byte	0
 3047 0853 1C       		.uleb128 0x1c
 3048 0854 39020000 		.4byte	.LASF1149
 3049 0858 01       		.byte	0x1
 3050 0859 78       		.byte	0x78
 3051 085a 77000000 		.4byte	0x77
 3052 085e 03       		.byte	0x3
 3053 085f 6F080000 		.4byte	0x86f
 3054 0863 1D       		.uleb128 0x1d
 3055 0864 03750000 		.4byte	.LASF1148
 3056 0868 01       		.byte	0x1
 3057 0869 78       		.byte	0x78
 3058 086a EE070000 		.4byte	0x7ee
 3059 086e 00       		.byte	0
 3060 086f 1C       		.uleb128 0x1c
 3061 0870 681D0000 		.4byte	.LASF1150
 3062 0874 01       		.byte	0x1
 3063 0875 92       		.byte	0x92
 3064 0876 77000000 		.4byte	0x77
 3065 087a 01       		.byte	0x1
 3066 087b A1080000 		.4byte	0x8a1
 3067 087f 1D       		.uleb128 0x1d
 3068 0880 92770000 		.4byte	.LASF1151
 3069 0884 01       		.byte	0x1
 3070 0885 92       		.byte	0x92
 3071 0886 85000000 		.4byte	0x85
 3072 088a 1D       		.uleb128 0x1d
 3073 088b 98770000 		.4byte	.LASF1152
 3074 088f 01       		.byte	0x1
 3075 0890 92       		.byte	0x92
 3076 0891 85000000 		.4byte	0x85
 3077 0895 1D       		.uleb128 0x1d
 3078 0896 24420000 		.4byte	.LASF1153
 3079 089a 01       		.byte	0x1
 3080 089b 92       		.byte	0x92
 3081 089c 85000000 		.4byte	0x85
 3082 08a0 00       		.byte	0
 3083 08a1 1E       		.uleb128 0x1e
 3084 08a2 F8350000 		.4byte	.LASF1154
 3085 08a6 01       		.byte	0x1
 3086 08a7 4D       		.byte	0x4d
 3087 08a8 03       		.byte	0x3
 3088 08a9 B8080000 		.4byte	0x8b8
 3089 08ad 1F       		.uleb128 0x1f
 3090 08ae 696400   		.ascii	"id\000"
 3091 08b1 01       		.byte	0x1
 3092 08b2 4D       		.byte	0x4d
 3093 08b3 26070000 		.4byte	0x726
 3094 08b7 00       		.byte	0
 3095 08b8 1E       		.uleb128 0x1e
 3096 08b9 0B3C0000 		.4byte	.LASF1155
 3097 08bd 01       		.byte	0x1
ARM GAS  /var/folders/f9/8bk2lnw15zn4cbgn6wrnb4lm0000gn/T//cc47W8rL.s 			page 74


 3098 08be 52       		.byte	0x52
 3099 08bf 03       		.byte	0x3
 3100 08c0 CF080000 		.4byte	0x8cf
 3101 08c4 1F       		.uleb128 0x1f
 3102 08c5 696400   		.ascii	"id\000"
 3103 08c8 01       		.byte	0x1
 3104 08c9 52       		.byte	0x52
 3105 08ca 26070000 		.4byte	0x726
 3106 08ce 00       		.byte	0
 3107 08cf 20       		.uleb128 0x20
 3108 08d0 5E420000 		.4byte	.LASF1196
 3109 08d4 01       		.byte	0x1
 3110 08d5 58       		.byte	0x58
 3111 08d6 90000000 		.4byte	0x90
 3112 08da 03       		.byte	0x3
 3113 08db 1E       		.uleb128 0x1e
 3114 08dc 43030000 		.4byte	.LASF1156
 3115 08e0 01       		.byte	0x1
 3116 08e1 5E       		.byte	0x5e
 3117 08e2 03       		.byte	0x3
 3118 08e3 F3080000 		.4byte	0x8f3
 3119 08e7 1D       		.uleb128 0x1d
 3120 08e8 03750000 		.4byte	.LASF1148
 3121 08ec 01       		.byte	0x1
 3122 08ed 5E       		.byte	0x5e
 3123 08ee EE070000 		.4byte	0x7ee
 3124 08f2 00       		.byte	0
 3125 08f3 1C       		.uleb128 0x1c
 3126 08f4 8A5D0000 		.4byte	.LASF1157
 3127 08f8 01       		.byte	0x1
 3128 08f9 72       		.byte	0x72
 3129 08fa 77000000 		.4byte	0x77
 3130 08fe 03       		.byte	0x3
 3131 08ff 0F090000 		.4byte	0x90f
 3132 0903 1D       		.uleb128 0x1d
 3133 0904 03750000 		.4byte	.LASF1148
 3134 0908 01       		.byte	0x1
 3135 0909 72       		.byte	0x72
 3136 090a EE070000 		.4byte	0x7ee
 3137 090e 00       		.byte	0
 3138 090f 1E       		.uleb128 0x1e
 3139 0910 77310000 		.4byte	.LASF1158
 3140 0914 01       		.byte	0x1
 3141 0915 68       		.byte	0x68
 3142 0916 03       		.byte	0x3
 3143 0917 27090000 		.4byte	0x927
 3144 091b 1D       		.uleb128 0x1d
 3145 091c 03750000 		.4byte	.LASF1148
 3146 0920 01       		.byte	0x1
 3147 0921 68       		.byte	0x68
 3148 0922 EE070000 		.4byte	0x7ee
 3149 0926 00       		.byte	0
 3150 0927 1C       		.uleb128 0x1c
 3151 0928 0A010000 		.4byte	.LASF1159
 3152 092c 01       		.byte	0x1
 3153 092d 7E       		.byte	0x7e
 3154 092e 77000000 		.4byte	0x77
ARM GAS  /var/folders/f9/8bk2lnw15zn4cbgn6wrnb4lm0000gn/T//cc47W8rL.s 			page 75


 3155 0932 03       		.byte	0x3
 3156 0933 43090000 		.4byte	0x943
 3157 0937 1D       		.uleb128 0x1d
 3158 0938 03750000 		.4byte	.LASF1148
 3159 093c 01       		.byte	0x1
 3160 093d 7E       		.byte	0x7e
 3161 093e EE070000 		.4byte	0x7ee
 3162 0942 00       		.byte	0
 3163 0943 1E       		.uleb128 0x1e
 3164 0944 50780000 		.4byte	.LASF1160
 3165 0948 01       		.byte	0x1
 3166 0949 84       		.byte	0x84
 3167 094a 01       		.byte	0x1
 3168 094b 94090000 		.4byte	0x994
 3169 094f 1D       		.uleb128 0x1d
 3170 0950 03750000 		.4byte	.LASF1148
 3171 0954 01       		.byte	0x1
 3172 0955 84       		.byte	0x84
 3173 0956 EE070000 		.4byte	0x7ee
 3174 095a 1F       		.uleb128 0x1f
 3175 095b 73696400 		.ascii	"sid\000"
 3176 095f 01       		.byte	0x1
 3177 0960 84       		.byte	0x84
 3178 0961 59060000 		.4byte	0x659
 3179 0965 1D       		.uleb128 0x1d
 3180 0966 B2440000 		.4byte	.LASF1161
 3181 096a 01       		.byte	0x1
 3182 096b 84       		.byte	0x84
 3183 096c 85000000 		.4byte	0x85
 3184 0970 1D       		.uleb128 0x1d
 3185 0971 24420000 		.4byte	.LASF1153
 3186 0975 01       		.byte	0x1
 3187 0976 84       		.byte	0x84
 3188 0977 85000000 		.4byte	0x85
 3189 097b 21       		.uleb128 0x21
 3190 097c 3A330000 		.4byte	.LASF1162
 3191 0980 01       		.byte	0x1
 3192 0981 86       		.byte	0x86
 3193 0982 90000000 		.4byte	0x90
 3194 0986 22       		.uleb128 0x22
 3195 0987 21       		.uleb128 0x21
 3196 0988 41360000 		.4byte	.LASF1163
 3197 098c 01       		.byte	0x1
 3198 098d 8C       		.byte	0x8c
 3199 098e 94090000 		.4byte	0x994
 3200 0992 00       		.byte	0
 3201 0993 00       		.byte	0
 3202 0994 14       		.uleb128 0x14
 3203 0995 04       		.byte	0x4
 3204 0996 C5000000 		.4byte	0xc5
 3205 099a 23       		.uleb128 0x23
 3206 099b A84A0000 		.4byte	.LASF1197
 3207 099f 01       		.byte	0x1
 3208 09a0 2402     		.2byte	0x224
 3209 09a2 77000000 		.4byte	0x77
 3210 09a6 01       		.byte	0x1
 3211 09a7 B7090000 		.4byte	0x9b7
ARM GAS  /var/folders/f9/8bk2lnw15zn4cbgn6wrnb4lm0000gn/T//cc47W8rL.s 			page 76


 3212 09ab 1B       		.uleb128 0x1b
 3213 09ac 696400   		.ascii	"id\000"
 3214 09af 01       		.byte	0x1
 3215 09b0 2402     		.2byte	0x224
 3216 09b2 26070000 		.4byte	0x726
 3217 09b6 00       		.byte	0
 3218 09b7 24       		.uleb128 0x24
 3219 09b8 D30B0000 		.4byte	.LASF1170
 3220 09bc 01       		.byte	0x1
 3221 09bd 4801     		.2byte	0x148
 3222 09bf 00000000 		.4byte	.LFB212
 3223 09c3 20000000 		.4byte	.LFE212-.LFB212
 3224 09c7 01       		.uleb128 0x1
 3225 09c8 9C       		.byte	0x9c
 3226 09c9 0B0A0000 		.4byte	0xa0b
 3227 09cd 25       		.uleb128 0x25
 3228 09ce 696400   		.ascii	"id\000"
 3229 09d1 01       		.byte	0x1
 3230 09d2 4801     		.2byte	0x148
 3231 09d4 26070000 		.4byte	0x726
 3232 09d8 00000000 		.4byte	.LLST0
 3233 09dc 26       		.uleb128 0x26
 3234 09dd 91440000 		.4byte	.LASF1145
 3235 09e1 01       		.byte	0x1
 3236 09e2 4801     		.2byte	0x148
 3237 09e4 60070000 		.4byte	0x760
 3238 09e8 01       		.uleb128 0x1
 3239 09e9 51       		.byte	0x51
 3240 09ea 27       		.uleb128 0x27
 3241 09eb 69696300 		.ascii	"iic\000"
 3242 09ef 01       		.byte	0x1
 3243 09f0 4A01     		.2byte	0x14a
 3244 09f2 0B0A0000 		.4byte	0xa0b
 3245 09f6 3A000000 		.4byte	.LLST1
 3246 09fa 28       		.uleb128 0x28
 3247 09fb 750C0000 		.4byte	.LASF1164
 3248 09ff 01       		.byte	0x1
 3249 0a00 4B01     		.2byte	0x14b
 3250 0a02 110A0000 		.4byte	0xa11
 3251 0a06 03       		.uleb128 0x3
 3252 0a07 72       		.byte	0x72
 3253 0a08 14       		.sleb128 20
 3254 0a09 9F       		.byte	0x9f
 3255 0a0a 00       		.byte	0
 3256 0a0b 14       		.uleb128 0x14
 3257 0a0c 04       		.byte	0x4
 3258 0a0d 8E070000 		.4byte	0x78e
 3259 0a11 14       		.uleb128 0x14
 3260 0a12 04       		.byte	0x4
 3261 0a13 170A0000 		.4byte	0xa17
 3262 0a17 08       		.uleb128 0x8
 3263 0a18 8B060000 		.4byte	0x68b
 3264 0a1c 29       		.uleb128 0x29
 3265 0a1d 9A5B0000 		.4byte	.LASF1167
 3266 0a21 01       		.byte	0x1
 3267 0a22 B0       		.byte	0xb0
 3268 0a23 77000000 		.4byte	0x77
ARM GAS  /var/folders/f9/8bk2lnw15zn4cbgn6wrnb4lm0000gn/T//cc47W8rL.s 			page 77


 3269 0a27 00000000 		.4byte	.LFB209
 3270 0a2b F0000000 		.4byte	.LFE209-.LFB209
 3271 0a2f 01       		.uleb128 0x1
 3272 0a30 9C       		.byte	0x9c
 3273 0a31 7A0A0000 		.4byte	0xa7a
 3274 0a35 2A       		.uleb128 0x2a
 3275 0a36 03750000 		.4byte	.LASF1148
 3276 0a3a 01       		.byte	0x1
 3277 0a3b B0       		.byte	0xb0
 3278 0a3c EE070000 		.4byte	0x7ee
 3279 0a40 72000000 		.4byte	.LLST2
 3280 0a44 2B       		.uleb128 0x2b
 3281 0a45 45720000 		.4byte	.LASF1144
 3282 0a49 01       		.byte	0x1
 3283 0a4a B0       		.byte	0xb0
 3284 0a4b F4070000 		.4byte	0x7f4
 3285 0a4f 01       		.uleb128 0x1
 3286 0a50 51       		.byte	0x51
 3287 0a51 2C       		.uleb128 0x2c
 3288 0a52 6F4D0000 		.4byte	.LASF1165
 3289 0a56 01       		.byte	0x1
 3290 0a57 B2       		.byte	0xb2
 3291 0a58 90000000 		.4byte	0x90
 3292 0a5c DB000000 		.4byte	.LLST3
 3293 0a60 2D       		.uleb128 0x2d
 3294 0a61 53080000 		.4byte	0x853
 3295 0a65 00000000 		.4byte	.LBB51
 3296 0a69 00000000 		.4byte	.Ldebug_ranges0+0
 3297 0a6d 01       		.byte	0x1
 3298 0a6e B4       		.byte	0xb4
 3299 0a6f 2E       		.uleb128 0x2e
 3300 0a70 63080000 		.4byte	0x863
 3301 0a74 72000000 		.4byte	.LLST2
 3302 0a78 00       		.byte	0
 3303 0a79 00       		.byte	0
 3304 0a7a 1C       		.uleb128 0x1c
 3305 0a7b 4B750000 		.4byte	.LASF1166
 3306 0a7f 01       		.byte	0x1
 3307 0a80 99       		.byte	0x99
 3308 0a81 59060000 		.4byte	0x659
 3309 0a85 01       		.byte	0x1
 3310 0a86 A10A0000 		.4byte	0xaa1
 3311 0a8a 1D       		.uleb128 0x1d
 3312 0a8b 03750000 		.4byte	.LASF1148
 3313 0a8f 01       		.byte	0x1
 3314 0a90 99       		.byte	0x99
 3315 0a91 EE070000 		.4byte	0x7ee
 3316 0a95 1D       		.uleb128 0x1d
 3317 0a96 F4600000 		.4byte	.LASF1117
 3318 0a9a 01       		.byte	0x1
 3319 0a9b 99       		.byte	0x99
 3320 0a9c 85000000 		.4byte	0x85
 3321 0aa0 00       		.byte	0
 3322 0aa1 29       		.uleb128 0x29
 3323 0aa2 C8730000 		.4byte	.LASF1168
 3324 0aa6 01       		.byte	0x1
 3325 0aa7 F5       		.byte	0xf5
ARM GAS  /var/folders/f9/8bk2lnw15zn4cbgn6wrnb4lm0000gn/T//cc47W8rL.s 			page 78


 3326 0aa8 59060000 		.4byte	0x659
 3327 0aac 00000000 		.4byte	.LFB210
 3328 0ab0 86000000 		.4byte	.LFE210-.LFB210
 3329 0ab4 01       		.uleb128 0x1
 3330 0ab5 9C       		.byte	0x9c
 3331 0ab6 C30B0000 		.4byte	0xbc3
 3332 0aba 2A       		.uleb128 0x2a
 3333 0abb 03750000 		.4byte	.LASF1148
 3334 0abf 01       		.byte	0x1
 3335 0ac0 F5       		.byte	0xf5
 3336 0ac1 EE070000 		.4byte	0x7ee
 3337 0ac5 77010000 		.4byte	.LLST5
 3338 0ac9 2F       		.uleb128 0x2f
 3339 0aca 53080000 		.4byte	0x853
 3340 0ace 00000000 		.4byte	.LBB69
 3341 0ad2 20000000 		.4byte	.Ldebug_ranges0+0x20
 3342 0ad6 01       		.byte	0x1
 3343 0ad7 F7       		.byte	0xf7
 3344 0ad8 E60A0000 		.4byte	0xae6
 3345 0adc 2E       		.uleb128 0x2e
 3346 0add 63080000 		.4byte	0x863
 3347 0ae1 77010000 		.4byte	.LLST5
 3348 0ae5 00       		.byte	0
 3349 0ae6 2D       		.uleb128 0x2d
 3350 0ae7 7A0A0000 		.4byte	0xa7a
 3351 0aeb 2A000000 		.4byte	.LBB73
 3352 0aef 38000000 		.4byte	.Ldebug_ranges0+0x38
 3353 0af3 01       		.byte	0x1
 3354 0af4 FE       		.byte	0xfe
 3355 0af5 2E       		.uleb128 0x2e
 3356 0af6 950A0000 		.4byte	0xa95
 3357 0afa BC010000 		.4byte	.LLST7
 3358 0afe 2E       		.uleb128 0x2e
 3359 0aff 8A0A0000 		.4byte	0xa8a
 3360 0b03 CF010000 		.4byte	.LLST8
 3361 0b07 30       		.uleb128 0x30
 3362 0b08 6F080000 		.4byte	0x86f
 3363 0b0c 36000000 		.4byte	.LBB75
 3364 0b10 0C000000 		.4byte	.LBE75-.LBB75
 3365 0b14 01       		.byte	0x1
 3366 0b15 9E       		.byte	0x9e
 3367 0b16 360B0000 		.4byte	0xb36
 3368 0b1a 2E       		.uleb128 0x2e
 3369 0b1b 95080000 		.4byte	0x895
 3370 0b1f F0010000 		.4byte	.LLST9
 3371 0b23 2E       		.uleb128 0x2e
 3372 0b24 8A080000 		.4byte	0x88a
 3373 0b28 07020000 		.4byte	.LLST10
 3374 0b2c 2E       		.uleb128 0x2e
 3375 0b2d 7F080000 		.4byte	0x87f
 3376 0b31 1A020000 		.4byte	.LLST11
 3377 0b35 00       		.byte	0
 3378 0b36 30       		.uleb128 0x30
 3379 0b37 6F080000 		.4byte	0x86f
 3380 0b3b 4C000000 		.4byte	.LBB77
 3381 0b3f 0A000000 		.4byte	.LBE77-.LBB77
 3382 0b43 01       		.byte	0x1
ARM GAS  /var/folders/f9/8bk2lnw15zn4cbgn6wrnb4lm0000gn/T//cc47W8rL.s 			page 79


 3383 0b44 A1       		.byte	0xa1
 3384 0b45 650B0000 		.4byte	0xb65
 3385 0b49 2E       		.uleb128 0x2e
 3386 0b4a 95080000 		.4byte	0x895
 3387 0b4e 2D020000 		.4byte	.LLST12
 3388 0b52 2E       		.uleb128 0x2e
 3389 0b53 8A080000 		.4byte	0x88a
 3390 0b57 44020000 		.4byte	.LLST13
 3391 0b5b 2E       		.uleb128 0x2e
 3392 0b5c 7F080000 		.4byte	0x87f
 3393 0b60 57020000 		.4byte	.LLST14
 3394 0b64 00       		.byte	0
 3395 0b65 30       		.uleb128 0x30
 3396 0b66 6F080000 		.4byte	0x86f
 3397 0b6a 60000000 		.4byte	.LBB79
 3398 0b6e 0A000000 		.4byte	.LBE79-.LBB79
 3399 0b72 01       		.byte	0x1
 3400 0b73 A4       		.byte	0xa4
 3401 0b74 940B0000 		.4byte	0xb94
 3402 0b78 2E       		.uleb128 0x2e
 3403 0b79 95080000 		.4byte	0x895
 3404 0b7d 6A020000 		.4byte	.LLST15
 3405 0b81 2E       		.uleb128 0x2e
 3406 0b82 8A080000 		.4byte	0x88a
 3407 0b86 81020000 		.4byte	.LLST16
 3408 0b8a 2E       		.uleb128 0x2e
 3409 0b8b 7F080000 		.4byte	0x87f
 3410 0b8f 94020000 		.4byte	.LLST17
 3411 0b93 00       		.byte	0
 3412 0b94 31       		.uleb128 0x31
 3413 0b95 6F080000 		.4byte	0x86f
 3414 0b99 74000000 		.4byte	.LBB81
 3415 0b9d 0A000000 		.4byte	.LBE81-.LBB81
 3416 0ba1 01       		.byte	0x1
 3417 0ba2 A7       		.byte	0xa7
 3418 0ba3 32       		.uleb128 0x32
 3419 0ba4 95080000 		.4byte	0x895
 3420 0ba8 05       		.uleb128 0x5
 3421 0ba9 72       		.byte	0x72
 3422 0baa 00       		.sleb128 0
 3423 0bab 31       		.byte	0x31
 3424 0bac 21       		.byte	0x21
 3425 0bad 9F       		.byte	0x9f
 3426 0bae 2E       		.uleb128 0x2e
 3427 0baf 8A080000 		.4byte	0x88a
 3428 0bb3 A7020000 		.4byte	.LLST18
 3429 0bb7 2E       		.uleb128 0x2e
 3430 0bb8 7F080000 		.4byte	0x87f
 3431 0bbc BA020000 		.4byte	.LLST19
 3432 0bc0 00       		.byte	0
 3433 0bc1 00       		.byte	0
 3434 0bc2 00       		.byte	0
 3435 0bc3 33       		.uleb128 0x33
 3436 0bc4 4A720000 		.4byte	.LASF1169
 3437 0bc8 01       		.byte	0x1
 3438 0bc9 0601     		.2byte	0x106
 3439 0bcb 77000000 		.4byte	0x77
ARM GAS  /var/folders/f9/8bk2lnw15zn4cbgn6wrnb4lm0000gn/T//cc47W8rL.s 			page 80


 3440 0bcf 00000000 		.4byte	.LFB211
 3441 0bd3 AC000000 		.4byte	.LFE211-.LFB211
 3442 0bd7 01       		.uleb128 0x1
 3443 0bd8 9C       		.byte	0x9c
 3444 0bd9 380C0000 		.4byte	0xc38
 3445 0bdd 34       		.uleb128 0x34
 3446 0bde 03750000 		.4byte	.LASF1148
 3447 0be2 01       		.byte	0x1
 3448 0be3 0601     		.2byte	0x106
 3449 0be5 EE070000 		.4byte	0x7ee
 3450 0be9 CD020000 		.4byte	.LLST20
 3451 0bed 34       		.uleb128 0x34
 3452 0bee 45720000 		.4byte	.LASF1144
 3453 0bf2 01       		.byte	0x1
 3454 0bf3 0601     		.2byte	0x106
 3455 0bf5 F4070000 		.4byte	0x7f4
 3456 0bf9 EB020000 		.4byte	.LLST21
 3457 0bfd 35       		.uleb128 0x35
 3458 0bfe 6F4D0000 		.4byte	.LASF1165
 3459 0c02 01       		.byte	0x1
 3460 0c03 0801     		.2byte	0x108
 3461 0c05 90000000 		.4byte	0x90
 3462 0c09 A2030000 		.4byte	.LLST22
 3463 0c0d 27       		.uleb128 0x27
 3464 0c0e 72657400 		.ascii	"ret\000"
 3465 0c12 01       		.byte	0x1
 3466 0c13 0901     		.2byte	0x109
 3467 0c15 77000000 		.4byte	0x77
 3468 0c19 03040000 		.4byte	.LLST23
 3469 0c1d 36       		.uleb128 0x36
 3470 0c1e 53080000 		.4byte	0x853
 3471 0c22 04000000 		.4byte	.LBB85
 3472 0c26 50000000 		.4byte	.Ldebug_ranges0+0x50
 3473 0c2a 01       		.byte	0x1
 3474 0c2b 0C01     		.2byte	0x10c
 3475 0c2d 2E       		.uleb128 0x2e
 3476 0c2e 63080000 		.4byte	0x863
 3477 0c32 6A040000 		.4byte	.LLST24
 3478 0c36 00       		.byte	0
 3479 0c37 00       		.byte	0
 3480 0c38 24       		.uleb128 0x24
 3481 0c39 4E600000 		.4byte	.LASF1171
 3482 0c3d 01       		.byte	0x1
 3483 0c3e 6C01     		.2byte	0x16c
 3484 0c40 00000000 		.4byte	.LFB214
 3485 0c44 30000000 		.4byte	.LFE214-.LFB214
 3486 0c48 01       		.uleb128 0x1
 3487 0c49 9C       		.byte	0x9c
 3488 0c4a 910C0000 		.4byte	0xc91
 3489 0c4e 25       		.uleb128 0x25
 3490 0c4f 696400   		.ascii	"id\000"
 3491 0c52 01       		.byte	0x1
 3492 0c53 6C01     		.2byte	0x16c
 3493 0c55 26070000 		.4byte	0x726
 3494 0c59 88040000 		.4byte	.LLST25
 3495 0c5d 36       		.uleb128 0x36
 3496 0c5e A1080000 		.4byte	0x8a1
ARM GAS  /var/folders/f9/8bk2lnw15zn4cbgn6wrnb4lm0000gn/T//cc47W8rL.s 			page 81


 3497 0c62 02000000 		.4byte	.LBB89
 3498 0c66 68000000 		.4byte	.Ldebug_ranges0+0x68
 3499 0c6a 01       		.byte	0x1
 3500 0c6b 6E01     		.2byte	0x16e
 3501 0c6d 2E       		.uleb128 0x2e
 3502 0c6e AD080000 		.4byte	0x8ad
 3503 0c72 A9040000 		.4byte	.LLST26
 3504 0c76 2D       		.uleb128 0x2d
 3505 0c77 1F080000 		.4byte	0x81f
 3506 0c7b 0C000000 		.4byte	.LBB91
 3507 0c7f 80000000 		.4byte	.Ldebug_ranges0+0x80
 3508 0c83 01       		.byte	0x1
 3509 0c84 4F       		.byte	0x4f
 3510 0c85 2E       		.uleb128 0x2e
 3511 0c86 2C080000 		.4byte	0x82c
 3512 0c8a BC040000 		.4byte	.LLST27
 3513 0c8e 00       		.byte	0
 3514 0c8f 00       		.byte	0
 3515 0c90 00       		.byte	0
 3516 0c91 24       		.uleb128 0x24
 3517 0c92 F91B0000 		.4byte	.LASF1172
 3518 0c96 01       		.byte	0x1
 3519 0c97 7501     		.2byte	0x175
 3520 0c99 00000000 		.4byte	.LFB215
 3521 0c9d 2C000000 		.4byte	.LFE215-.LFB215
 3522 0ca1 01       		.uleb128 0x1
 3523 0ca2 9C       		.byte	0x9c
 3524 0ca3 E20C0000 		.4byte	0xce2
 3525 0ca7 25       		.uleb128 0x25
 3526 0ca8 696400   		.ascii	"id\000"
 3527 0cab 01       		.byte	0x1
 3528 0cac 7501     		.2byte	0x175
 3529 0cae 26070000 		.4byte	0x726
 3530 0cb2 D8040000 		.4byte	.LLST28
 3531 0cb6 37       		.uleb128 0x37
 3532 0cb7 B8080000 		.4byte	0x8b8
 3533 0cbb 10000000 		.4byte	.LBB97
 3534 0cbf 12000000 		.4byte	.LBE97-.LBB97
 3535 0cc3 01       		.byte	0x1
 3536 0cc4 7A01     		.2byte	0x17a
 3537 0cc6 38       		.uleb128 0x38
 3538 0cc7 C4080000 		.4byte	0x8c4
 3539 0ccb 31       		.uleb128 0x31
 3540 0ccc 39080000 		.4byte	0x839
 3541 0cd0 12000000 		.4byte	.LBB99
 3542 0cd4 10000000 		.4byte	.LBE99-.LBB99
 3543 0cd8 01       		.byte	0x1
 3544 0cd9 54       		.byte	0x54
 3545 0cda 38       		.uleb128 0x38
 3546 0cdb 46080000 		.4byte	0x846
 3547 0cdf 00       		.byte	0
 3548 0ce0 00       		.byte	0
 3549 0ce1 00       		.byte	0
 3550 0ce2 39       		.uleb128 0x39
 3551 0ce3 A55A0000 		.4byte	.LASF1173
 3552 0ce7 01       		.byte	0x1
 3553 0ce8 7E01     		.2byte	0x17e
ARM GAS  /var/folders/f9/8bk2lnw15zn4cbgn6wrnb4lm0000gn/T//cc47W8rL.s 			page 82


 3554 0cea 00000000 		.4byte	.LFB216
 3555 0cee 2C000000 		.4byte	.LFE216-.LFB216
 3556 0cf2 01       		.uleb128 0x1
 3557 0cf3 9C       		.byte	0x9c
 3558 0cf4 420D0000 		.4byte	0xd42
 3559 0cf8 25       		.uleb128 0x25
 3560 0cf9 696400   		.ascii	"id\000"
 3561 0cfc 01       		.byte	0x1
 3562 0cfd 7E01     		.2byte	0x17e
 3563 0cff 26070000 		.4byte	0x726
 3564 0d03 F9040000 		.4byte	.LLST29
 3565 0d07 34       		.uleb128 0x34
 3566 0d08 1D300000 		.4byte	.LASF1174
 3567 0d0c 01       		.byte	0x1
 3568 0d0d 7E01     		.2byte	0x17e
 3569 0d0f 90000000 		.4byte	0x90
 3570 0d13 1A050000 		.4byte	.LLST30
 3571 0d17 35       		.uleb128 0x35
 3572 0d18 976F0000 		.4byte	.LASF1175
 3573 0d1c 01       		.byte	0x1
 3574 0d1d 8001     		.2byte	0x180
 3575 0d1f 90000000 		.4byte	0x90
 3576 0d23 46050000 		.4byte	.LLST31
 3577 0d27 37       		.uleb128 0x37
 3578 0d28 CF080000 		.4byte	0x8cf
 3579 0d2c 06000000 		.4byte	.LBB101
 3580 0d30 04000000 		.4byte	.LBE101-.LBB101
 3581 0d34 01       		.byte	0x1
 3582 0d35 8201     		.2byte	0x182
 3583 0d37 3A       		.uleb128 0x3a
 3584 0d38 0A000000 		.4byte	.LVL66
 3585 0d3c A7130000 		.4byte	0x13a7
 3586 0d40 00       		.byte	0
 3587 0d41 00       		.byte	0
 3588 0d42 3B       		.uleb128 0x3b
 3589 0d43 4A400000 		.4byte	.LASF1176
 3590 0d47 01       		.byte	0x1
 3591 0d48 8801     		.2byte	0x188
 3592 0d4a 90000000 		.4byte	0x90
 3593 0d4e 00000000 		.4byte	.LFB217
 3594 0d52 24000000 		.4byte	.LFE217-.LFB217
 3595 0d56 01       		.uleb128 0x1
 3596 0d57 9C       		.byte	0x9c
 3597 0d58 860D0000 		.4byte	0xd86
 3598 0d5c 25       		.uleb128 0x25
 3599 0d5d 696400   		.ascii	"id\000"
 3600 0d60 01       		.byte	0x1
 3601 0d61 8801     		.2byte	0x188
 3602 0d63 26070000 		.4byte	0x726
 3603 0d67 59050000 		.4byte	.LLST32
 3604 0d6b 37       		.uleb128 0x37
 3605 0d6c CF080000 		.4byte	0x8cf
 3606 0d70 04000000 		.4byte	.LBB103
 3607 0d74 04000000 		.4byte	.LBE103-.LBB103
 3608 0d78 01       		.byte	0x1
 3609 0d79 8A01     		.2byte	0x18a
 3610 0d7b 3A       		.uleb128 0x3a
ARM GAS  /var/folders/f9/8bk2lnw15zn4cbgn6wrnb4lm0000gn/T//cc47W8rL.s 			page 83


 3611 0d7c 08000000 		.4byte	.LVL71
 3612 0d80 A7130000 		.4byte	0x13a7
 3613 0d84 00       		.byte	0
 3614 0d85 00       		.byte	0
 3615 0d86 33       		.uleb128 0x33
 3616 0d87 84730000 		.4byte	.LASF1177
 3617 0d8b 01       		.byte	0x1
 3618 0d8c 8E01     		.2byte	0x18e
 3619 0d8e 77000000 		.4byte	0x77
 3620 0d92 00000000 		.4byte	.LFB218
 3621 0d96 24000000 		.4byte	.LFE218-.LFB218
 3622 0d9a 01       		.uleb128 0x1
 3623 0d9b 9C       		.byte	0x9c
 3624 0d9c D00D0000 		.4byte	0xdd0
 3625 0da0 25       		.uleb128 0x25
 3626 0da1 696400   		.ascii	"id\000"
 3627 0da4 01       		.byte	0x1
 3628 0da5 8E01     		.2byte	0x18e
 3629 0da7 26070000 		.4byte	0x726
 3630 0dab 7A050000 		.4byte	.LLST33
 3631 0daf 34       		.uleb128 0x34
 3632 0db0 91440000 		.4byte	.LASF1145
 3633 0db4 01       		.byte	0x1
 3634 0db5 8E01     		.2byte	0x18e
 3635 0db7 6C070000 		.4byte	0x76c
 3636 0dbb 9B050000 		.4byte	.LLST34
 3637 0dbf 27       		.uleb128 0x27
 3638 0dc0 69696300 		.ascii	"iic\000"
 3639 0dc4 01       		.byte	0x1
 3640 0dc5 9001     		.2byte	0x190
 3641 0dc7 0B0A0000 		.4byte	0xa0b
 3642 0dcb C7050000 		.4byte	.LLST35
 3643 0dcf 00       		.byte	0
 3644 0dd0 33       		.uleb128 0x33
 3645 0dd1 D0090000 		.4byte	.LASF1178
 3646 0dd5 01       		.byte	0x1
 3647 0dd6 9801     		.2byte	0x198
 3648 0dd8 6C070000 		.4byte	0x76c
 3649 0ddc 00000000 		.4byte	.LFB219
 3650 0de0 14000000 		.4byte	.LFE219-.LFB219
 3651 0de4 01       		.uleb128 0x1
 3652 0de5 9C       		.byte	0x9c
 3653 0de6 FA0D0000 		.4byte	0xdfa
 3654 0dea 25       		.uleb128 0x25
 3655 0deb 696400   		.ascii	"id\000"
 3656 0dee 01       		.byte	0x1
 3657 0def 9801     		.2byte	0x198
 3658 0df1 26070000 		.4byte	0x726
 3659 0df5 E5050000 		.4byte	.LLST36
 3660 0df9 00       		.byte	0
 3661 0dfa 33       		.uleb128 0x33
 3662 0dfb 1C3F0000 		.4byte	.LASF1179
 3663 0dff 01       		.byte	0x1
 3664 0e00 9E01     		.2byte	0x19e
 3665 0e02 77000000 		.4byte	0x77
 3666 0e06 00000000 		.4byte	.LFB220
 3667 0e0a 68000000 		.4byte	.LFE220-.LFB220
ARM GAS  /var/folders/f9/8bk2lnw15zn4cbgn6wrnb4lm0000gn/T//cc47W8rL.s 			page 84


 3668 0e0e 01       		.uleb128 0x1
 3669 0e0f 9C       		.byte	0x9c
 3670 0e10 D70E0000 		.4byte	0xed7
 3671 0e14 25       		.uleb128 0x25
 3672 0e15 696400   		.ascii	"id\000"
 3673 0e18 01       		.byte	0x1
 3674 0e19 9E01     		.2byte	0x19e
 3675 0e1b 26070000 		.4byte	0x726
 3676 0e1f 06060000 		.4byte	.LLST37
 3677 0e23 34       		.uleb128 0x34
 3678 0e24 45720000 		.4byte	.LASF1144
 3679 0e28 01       		.byte	0x1
 3680 0e29 9E01     		.2byte	0x19e
 3681 0e2b F4070000 		.4byte	0x7f4
 3682 0e2f 27060000 		.4byte	.LLST38
 3683 0e33 27       		.uleb128 0x27
 3684 0e34 69696300 		.ascii	"iic\000"
 3685 0e38 01       		.byte	0x1
 3686 0e39 A001     		.2byte	0x1a0
 3687 0e3b 0B0A0000 		.4byte	0xa0b
 3688 0e3f 5E060000 		.4byte	.LLST39
 3689 0e43 3C       		.uleb128 0x3c
 3690 0e44 F3080000 		.4byte	0x8f3
 3691 0e48 30000000 		.4byte	.LBB105
 3692 0e4c 04000000 		.4byte	.LBE105-.LBB105
 3693 0e50 01       		.byte	0x1
 3694 0e51 AE01     		.2byte	0x1ae
 3695 0e53 610E0000 		.4byte	0xe61
 3696 0e57 2E       		.uleb128 0x2e
 3697 0e58 03090000 		.4byte	0x903
 3698 0e5c 96060000 		.4byte	.LLST40
 3699 0e60 00       		.byte	0
 3700 0e61 3C       		.uleb128 0x3c
 3701 0e62 0F090000 		.4byte	0x90f
 3702 0e66 42000000 		.4byte	.LBB107
 3703 0e6a 08000000 		.4byte	.LBE107-.LBB107
 3704 0e6e 01       		.byte	0x1
 3705 0e6f B201     		.2byte	0x1b2
 3706 0e71 7F0E0000 		.4byte	0xe7f
 3707 0e75 2E       		.uleb128 0x2e
 3708 0e76 1B090000 		.4byte	0x91b
 3709 0e7a A9060000 		.4byte	.LLST41
 3710 0e7e 00       		.byte	0
 3711 0e7f 3C       		.uleb128 0x3c
 3712 0e80 DB080000 		.4byte	0x8db
 3713 0e84 58000000 		.4byte	.LBB109
 3714 0e88 10000000 		.4byte	.LBE109-.LBB109
 3715 0e8c 01       		.byte	0x1
 3716 0e8d A801     		.2byte	0x1a8
 3717 0e8f 9B0E0000 		.4byte	0xe9b
 3718 0e93 32       		.uleb128 0x32
 3719 0e94 E7080000 		.4byte	0x8e7
 3720 0e98 01       		.uleb128 0x1
 3721 0e99 53       		.byte	0x53
 3722 0e9a 00       		.byte	0
 3723 0e9b 3D       		.uleb128 0x3d
 3724 0e9c 16000000 		.4byte	.LVL85
ARM GAS  /var/folders/f9/8bk2lnw15zn4cbgn6wrnb4lm0000gn/T//cc47W8rL.s 			page 85


 3725 0ea0 B00E0000 		.4byte	0xeb0
 3726 0ea4 3E       		.uleb128 0x3e
 3727 0ea5 01       		.uleb128 0x1
 3728 0ea6 51       		.byte	0x51
 3729 0ea7 01       		.uleb128 0x1
 3730 0ea8 33       		.byte	0x33
 3731 0ea9 3E       		.uleb128 0x3e
 3732 0eaa 01       		.uleb128 0x1
 3733 0eab 50       		.byte	0x50
 3734 0eac 02       		.uleb128 0x2
 3735 0ead 76       		.byte	0x76
 3736 0eae 00       		.sleb128 0
 3737 0eaf 00       		.byte	0
 3738 0eb0 3D       		.uleb128 0x3d
 3739 0eb1 2A000000 		.4byte	.LVL86
 3740 0eb5 C50E0000 		.4byte	0xec5
 3741 0eb9 3E       		.uleb128 0x3e
 3742 0eba 01       		.uleb128 0x1
 3743 0ebb 51       		.byte	0x51
 3744 0ebc 01       		.uleb128 0x1
 3745 0ebd 31       		.byte	0x31
 3746 0ebe 3E       		.uleb128 0x3e
 3747 0ebf 01       		.uleb128 0x1
 3748 0ec0 50       		.byte	0x50
 3749 0ec1 02       		.uleb128 0x2
 3750 0ec2 76       		.byte	0x76
 3751 0ec3 00       		.sleb128 0
 3752 0ec4 00       		.byte	0
 3753 0ec5 3F       		.uleb128 0x3f
 3754 0ec6 52000000 		.4byte	.LVL90
 3755 0eca 3E       		.uleb128 0x3e
 3756 0ecb 01       		.uleb128 0x1
 3757 0ecc 51       		.byte	0x51
 3758 0ecd 01       		.uleb128 0x1
 3759 0ece 34       		.byte	0x34
 3760 0ecf 3E       		.uleb128 0x3e
 3761 0ed0 01       		.uleb128 0x1
 3762 0ed1 50       		.byte	0x50
 3763 0ed2 02       		.uleb128 0x2
 3764 0ed3 76       		.byte	0x76
 3765 0ed4 00       		.sleb128 0
 3766 0ed5 00       		.byte	0
 3767 0ed6 00       		.byte	0
 3768 0ed7 33       		.uleb128 0x33
 3769 0ed8 8C330000 		.4byte	.LASF1180
 3770 0edc 01       		.byte	0x1
 3771 0edd BA01     		.2byte	0x1ba
 3772 0edf 77000000 		.4byte	0x77
 3773 0ee3 00000000 		.4byte	.LFB221
 3774 0ee7 24000000 		.4byte	.LFE221-.LFB221
 3775 0eeb 01       		.uleb128 0x1
 3776 0eec 9C       		.byte	0x9c
 3777 0eed 560F0000 		.4byte	0xf56
 3778 0ef1 25       		.uleb128 0x25
 3779 0ef2 696400   		.ascii	"id\000"
 3780 0ef5 01       		.byte	0x1
 3781 0ef6 BA01     		.2byte	0x1ba
ARM GAS  /var/folders/f9/8bk2lnw15zn4cbgn6wrnb4lm0000gn/T//cc47W8rL.s 			page 86


 3782 0ef8 26070000 		.4byte	0x726
 3783 0efc BC060000 		.4byte	.LLST42
 3784 0f00 34       		.uleb128 0x34
 3785 0f01 F4600000 		.4byte	.LASF1117
 3786 0f05 01       		.byte	0x1
 3787 0f06 BA01     		.2byte	0x1ba
 3788 0f08 85000000 		.4byte	0x85
 3789 0f0c DD060000 		.4byte	.LLST43
 3790 0f10 34       		.uleb128 0x34
 3791 0f11 BD430000 		.4byte	.LASF1181
 3792 0f15 01       		.byte	0x1
 3793 0f16 BA01     		.2byte	0x1ba
 3794 0f18 EF060000 		.4byte	0x6ef
 3795 0f1c FE060000 		.4byte	.LLST44
 3796 0f20 25       		.uleb128 0x25
 3797 0f21 6C656E00 		.ascii	"len\000"
 3798 0f25 01       		.byte	0x1
 3799 0f26 BA01     		.2byte	0x1ba
 3800 0f28 85000000 		.4byte	0x85
 3801 0f2c 1F070000 		.4byte	.LLST45
 3802 0f30 28       		.uleb128 0x28
 3803 0f31 45720000 		.4byte	.LASF1144
 3804 0f35 01       		.byte	0x1
 3805 0f36 BC01     		.2byte	0x1bc
 3806 0f38 00070000 		.4byte	0x700
 3807 0f3c 02       		.uleb128 0x2
 3808 0f3d 91       		.byte	0x91
 3809 0f3e 58       		.sleb128 -40
 3810 0f3f 40       		.uleb128 0x40
 3811 0f40 18000000 		.4byte	.LVL99
 3812 0f44 FA0D0000 		.4byte	0xdfa
 3813 0f48 3E       		.uleb128 0x3e
 3814 0f49 01       		.uleb128 0x1
 3815 0f4a 51       		.byte	0x51
 3816 0f4b 02       		.uleb128 0x2
 3817 0f4c 7D       		.byte	0x7d
 3818 0f4d 00       		.sleb128 0
 3819 0f4e 3E       		.uleb128 0x3e
 3820 0f4f 01       		.uleb128 0x1
 3821 0f50 50       		.byte	0x50
 3822 0f51 02       		.uleb128 0x2
 3823 0f52 74       		.byte	0x74
 3824 0f53 00       		.sleb128 0
 3825 0f54 00       		.byte	0
 3826 0f55 00       		.byte	0
 3827 0f56 33       		.uleb128 0x33
 3828 0f57 C8520000 		.4byte	.LASF1182
 3829 0f5b 01       		.byte	0x1
 3830 0f5c C701     		.2byte	0x1c7
 3831 0f5e 77000000 		.4byte	0x77
 3832 0f62 00000000 		.4byte	.LFB222
 3833 0f66 30000000 		.4byte	.LFE222-.LFB222
 3834 0f6a 01       		.uleb128 0x1
 3835 0f6b 9C       		.byte	0x9c
 3836 0f6c E40F0000 		.4byte	0xfe4
 3837 0f70 25       		.uleb128 0x25
 3838 0f71 696400   		.ascii	"id\000"
ARM GAS  /var/folders/f9/8bk2lnw15zn4cbgn6wrnb4lm0000gn/T//cc47W8rL.s 			page 87


 3839 0f74 01       		.byte	0x1
 3840 0f75 C701     		.2byte	0x1c7
 3841 0f77 26070000 		.4byte	0x726
 3842 0f7b 40070000 		.4byte	.LLST46
 3843 0f7f 34       		.uleb128 0x34
 3844 0f80 F4600000 		.4byte	.LASF1117
 3845 0f84 01       		.byte	0x1
 3846 0f85 C701     		.2byte	0x1c7
 3847 0f87 85000000 		.4byte	0x85
 3848 0f8b 61070000 		.4byte	.LLST47
 3849 0f8f 25       		.uleb128 0x25
 3850 0f90 636D6400 		.ascii	"cmd\000"
 3851 0f94 01       		.byte	0x1
 3852 0f95 C701     		.2byte	0x1c7
 3853 0f97 85000000 		.4byte	0x85
 3854 0f9b 82070000 		.4byte	.LLST48
 3855 0f9f 34       		.uleb128 0x34
 3856 0fa0 BD430000 		.4byte	.LASF1181
 3857 0fa4 01       		.byte	0x1
 3858 0fa5 C701     		.2byte	0x1c7
 3859 0fa7 FA060000 		.4byte	0x6fa
 3860 0fab B9070000 		.4byte	.LLST49
 3861 0faf 41       		.uleb128 0x41
 3862 0fb0 6C656E00 		.ascii	"len\000"
 3863 0fb4 01       		.byte	0x1
 3864 0fb5 C701     		.2byte	0x1c7
 3865 0fb7 77000000 		.4byte	0x77
 3866 0fbb 02       		.uleb128 0x2
 3867 0fbc 91       		.byte	0x91
 3868 0fbd 00       		.sleb128 0
 3869 0fbe 28       		.uleb128 0x28
 3870 0fbf 45720000 		.4byte	.LASF1144
 3871 0fc3 01       		.byte	0x1
 3872 0fc4 C901     		.2byte	0x1c9
 3873 0fc6 00070000 		.4byte	0x700
 3874 0fca 02       		.uleb128 0x2
 3875 0fcb 91       		.byte	0x91
 3876 0fcc 58       		.sleb128 -40
 3877 0fcd 40       		.uleb128 0x40
 3878 0fce 24000000 		.4byte	.LVL104
 3879 0fd2 FA0D0000 		.4byte	0xdfa
 3880 0fd6 3E       		.uleb128 0x3e
 3881 0fd7 01       		.uleb128 0x1
 3882 0fd8 51       		.byte	0x51
 3883 0fd9 02       		.uleb128 0x2
 3884 0fda 74       		.byte	0x74
 3885 0fdb 00       		.sleb128 0
 3886 0fdc 3E       		.uleb128 0x3e
 3887 0fdd 01       		.uleb128 0x1
 3888 0fde 50       		.byte	0x50
 3889 0fdf 02       		.uleb128 0x2
 3890 0fe0 75       		.byte	0x75
 3891 0fe1 00       		.sleb128 0
 3892 0fe2 00       		.byte	0
 3893 0fe3 00       		.byte	0
 3894 0fe4 33       		.uleb128 0x33
 3895 0fe5 023B0000 		.4byte	.LASF1183
ARM GAS  /var/folders/f9/8bk2lnw15zn4cbgn6wrnb4lm0000gn/T//cc47W8rL.s 			page 88


 3896 0fe9 01       		.byte	0x1
 3897 0fea D401     		.2byte	0x1d4
 3898 0fec 77000000 		.4byte	0x77
 3899 0ff0 00000000 		.4byte	.LFB223
 3900 0ff4 24000000 		.4byte	.LFE223-.LFB223
 3901 0ff8 01       		.uleb128 0x1
 3902 0ff9 9C       		.byte	0x9c
 3903 0ffa 63100000 		.4byte	0x1063
 3904 0ffe 25       		.uleb128 0x25
 3905 0fff 696400   		.ascii	"id\000"
 3906 1002 01       		.byte	0x1
 3907 1003 D401     		.2byte	0x1d4
 3908 1005 26070000 		.4byte	0x726
 3909 1009 DA070000 		.4byte	.LLST50
 3910 100d 34       		.uleb128 0x34
 3911 100e F4600000 		.4byte	.LASF1117
 3912 1012 01       		.byte	0x1
 3913 1013 D401     		.2byte	0x1d4
 3914 1015 85000000 		.4byte	0x85
 3915 1019 FB070000 		.4byte	.LLST51
 3916 101d 34       		.uleb128 0x34
 3917 101e BD430000 		.4byte	.LASF1181
 3918 1022 01       		.byte	0x1
 3919 1023 D401     		.2byte	0x1d4
 3920 1025 FA060000 		.4byte	0x6fa
 3921 1029 1C080000 		.4byte	.LLST52
 3922 102d 25       		.uleb128 0x25
 3923 102e 6C656E00 		.ascii	"len\000"
 3924 1032 01       		.byte	0x1
 3925 1033 D401     		.2byte	0x1d4
 3926 1035 77000000 		.4byte	0x77
 3927 1039 3D080000 		.4byte	.LLST53
 3928 103d 28       		.uleb128 0x28
 3929 103e 45720000 		.4byte	.LASF1144
 3930 1042 01       		.byte	0x1
 3931 1043 D601     		.2byte	0x1d6
 3932 1045 00070000 		.4byte	0x700
 3933 1049 02       		.uleb128 0x2
 3934 104a 91       		.byte	0x91
 3935 104b 58       		.sleb128 -40
 3936 104c 40       		.uleb128 0x40
 3937 104d 18000000 		.4byte	.LVL109
 3938 1051 FA0D0000 		.4byte	0xdfa
 3939 1055 3E       		.uleb128 0x3e
 3940 1056 01       		.uleb128 0x1
 3941 1057 51       		.byte	0x51
 3942 1058 02       		.uleb128 0x2
 3943 1059 7D       		.byte	0x7d
 3944 105a 00       		.sleb128 0
 3945 105b 3E       		.uleb128 0x3e
 3946 105c 01       		.uleb128 0x1
 3947 105d 50       		.byte	0x50
 3948 105e 02       		.uleb128 0x2
 3949 105f 74       		.byte	0x74
 3950 1060 00       		.sleb128 0
 3951 1061 00       		.byte	0
 3952 1062 00       		.byte	0
ARM GAS  /var/folders/f9/8bk2lnw15zn4cbgn6wrnb4lm0000gn/T//cc47W8rL.s 			page 89


 3953 1063 33       		.uleb128 0x33
 3954 1064 0F280000 		.4byte	.LASF1184
 3955 1068 01       		.byte	0x1
 3956 1069 DF01     		.2byte	0x1df
 3957 106b 77000000 		.4byte	0x77
 3958 106f 00000000 		.4byte	.LFB224
 3959 1073 20000000 		.4byte	.LFE224-.LFB224
 3960 1077 01       		.uleb128 0x1
 3961 1078 9C       		.byte	0x9c
 3962 1079 C0100000 		.4byte	0x10c0
 3963 107d 25       		.uleb128 0x25
 3964 107e 696400   		.ascii	"id\000"
 3965 1081 01       		.byte	0x1
 3966 1082 DF01     		.2byte	0x1df
 3967 1084 26070000 		.4byte	0x726
 3968 1088 69080000 		.4byte	.LLST54
 3969 108c 37       		.uleb128 0x37
 3970 108d 27090000 		.4byte	0x927
 3971 1091 0A000000 		.4byte	.LBB111
 3972 1095 10000000 		.4byte	.LBE111-.LBB111
 3973 1099 01       		.byte	0x1
 3974 109a E101     		.2byte	0x1e1
 3975 109c 2E       		.uleb128 0x2e
 3976 109d 37090000 		.4byte	0x937
 3977 10a1 8A080000 		.4byte	.LLST55
 3978 10a5 2D       		.uleb128 0x2d
 3979 10a6 53080000 		.4byte	0x853
 3980 10aa 0A000000 		.4byte	.LBB113
 3981 10ae 98000000 		.4byte	.Ldebug_ranges0+0x98
 3982 10b2 01       		.byte	0x1
 3983 10b3 80       		.byte	0x80
 3984 10b4 2E       		.uleb128 0x2e
 3985 10b5 63080000 		.4byte	0x863
 3986 10b9 8A080000 		.4byte	.LLST55
 3987 10bd 00       		.byte	0
 3988 10be 00       		.byte	0
 3989 10bf 00       		.byte	0
 3990 10c0 24       		.uleb128 0x24
 3991 10c1 A3390000 		.4byte	.LASF1185
 3992 10c5 01       		.byte	0x1
 3993 10c6 E501     		.2byte	0x1e5
 3994 10c8 00000000 		.4byte	.LFB225
 3995 10cc 28000000 		.4byte	.LFE225-.LFB225
 3996 10d0 01       		.uleb128 0x1
 3997 10d1 9C       		.byte	0x9c
 3998 10d2 00110000 		.4byte	0x1100
 3999 10d6 25       		.uleb128 0x25
 4000 10d7 696400   		.ascii	"id\000"
 4001 10da 01       		.byte	0x1
 4002 10db E501     		.2byte	0x1e5
 4003 10dd 26070000 		.4byte	0x726
 4004 10e1 AF080000 		.4byte	.LLST57
 4005 10e5 3A       		.uleb128 0x3a
 4006 10e6 16000000 		.4byte	.LVL118
 4007 10ea 1C0A0000 		.4byte	0xa1c
 4008 10ee 3F       		.uleb128 0x3f
 4009 10ef 22000000 		.4byte	.LVL119
ARM GAS  /var/folders/f9/8bk2lnw15zn4cbgn6wrnb4lm0000gn/T//cc47W8rL.s 			page 90


 4010 10f3 3E       		.uleb128 0x3e
 4011 10f4 01       		.uleb128 0x1
 4012 10f5 51       		.byte	0x51
 4013 10f6 01       		.uleb128 0x1
 4014 10f7 32       		.byte	0x32
 4015 10f8 3E       		.uleb128 0x3e
 4016 10f9 01       		.uleb128 0x1
 4017 10fa 50       		.byte	0x50
 4018 10fb 02       		.uleb128 0x2
 4019 10fc 74       		.byte	0x74
 4020 10fd 00       		.sleb128 0
 4021 10fe 00       		.byte	0
 4022 10ff 00       		.byte	0
 4023 1100 24       		.uleb128 0x24
 4024 1101 17190000 		.4byte	.LASF1186
 4025 1105 01       		.byte	0x1
 4026 1106 5801     		.2byte	0x158
 4027 1108 00000000 		.4byte	.LFB213
 4028 110c 3C000000 		.4byte	.LFE213-.LFB213
 4029 1110 01       		.uleb128 0x1
 4030 1111 9C       		.byte	0x9c
 4031 1112 82110000 		.4byte	0x1182
 4032 1116 25       		.uleb128 0x25
 4033 1117 696400   		.ascii	"id\000"
 4034 111a 01       		.byte	0x1
 4035 111b 5801     		.2byte	0x158
 4036 111d 26070000 		.4byte	0x726
 4037 1121 D0080000 		.4byte	.LLST58
 4038 1125 34       		.uleb128 0x34
 4039 1126 91440000 		.4byte	.LASF1145
 4040 112a 01       		.byte	0x1
 4041 112b 5801     		.2byte	0x158
 4042 112d 60070000 		.4byte	0x760
 4043 1131 0A090000 		.4byte	.LLST59
 4044 1135 27       		.uleb128 0x27
 4045 1136 69696300 		.ascii	"iic\000"
 4046 113a 01       		.byte	0x1
 4047 113b 5A01     		.2byte	0x15a
 4048 113d 0B0A0000 		.4byte	0xa0b
 4049 1141 44090000 		.4byte	.LLST60
 4050 1145 28       		.uleb128 0x28
 4051 1146 750C0000 		.4byte	.LASF1164
 4052 114a 01       		.byte	0x1
 4053 114b 5B01     		.2byte	0x15b
 4054 114d 110A0000 		.4byte	0xa11
 4055 1151 03       		.uleb128 0x3
 4056 1152 74       		.byte	0x74
 4057 1153 14       		.sleb128 20
 4058 1154 9F       		.byte	0x9f
 4059 1155 42       		.uleb128 0x42
 4060 1156 9A090000 		.4byte	0x99a
 4061 115a 1E000000 		.4byte	.LBB117
 4062 115e B0000000 		.4byte	.Ldebug_ranges0+0xb0
 4063 1162 01       		.byte	0x1
 4064 1163 6501     		.2byte	0x165
 4065 1165 71110000 		.4byte	0x1171
 4066 1169 32       		.uleb128 0x32
ARM GAS  /var/folders/f9/8bk2lnw15zn4cbgn6wrnb4lm0000gn/T//cc47W8rL.s 			page 91


 4067 116a AB090000 		.4byte	0x9ab
 4068 116e 01       		.uleb128 0x1
 4069 116f 58       		.byte	0x58
 4070 1170 00       		.byte	0
 4071 1171 40       		.uleb128 0x40
 4072 1172 34000000 		.4byte	.LVL127
 4073 1176 C0100000 		.4byte	0x10c0
 4074 117a 3E       		.uleb128 0x3e
 4075 117b 01       		.uleb128 0x1
 4076 117c 50       		.byte	0x50
 4077 117d 02       		.uleb128 0x2
 4078 117e 78       		.byte	0x78
 4079 117f 00       		.sleb128 0
 4080 1180 00       		.byte	0
 4081 1181 00       		.byte	0
 4082 1182 24       		.uleb128 0x24
 4083 1183 59480000 		.4byte	.LASF1187
 4084 1187 01       		.byte	0x1
 4085 1188 ED01     		.2byte	0x1ed
 4086 118a 00000000 		.4byte	.LFB226
 4087 118e 78000000 		.4byte	.LFE226-.LFB226
 4088 1192 01       		.uleb128 0x1
 4089 1193 9C       		.byte	0x9c
 4090 1194 7B120000 		.4byte	0x127b
 4091 1198 25       		.uleb128 0x25
 4092 1199 696400   		.ascii	"id\000"
 4093 119c 01       		.byte	0x1
 4094 119d ED01     		.2byte	0x1ed
 4095 119f 26070000 		.4byte	0x726
 4096 11a3 AC090000 		.4byte	.LLST61
 4097 11a7 25       		.uleb128 0x25
 4098 11a8 73696400 		.ascii	"sid\000"
 4099 11ac 01       		.byte	0x1
 4100 11ad EE01     		.2byte	0x1ee
 4101 11af 59060000 		.4byte	0x659
 4102 11b3 CD090000 		.4byte	.LLST62
 4103 11b7 34       		.uleb128 0x34
 4104 11b8 45720000 		.4byte	.LASF1144
 4105 11bc 01       		.byte	0x1
 4106 11bd EF01     		.2byte	0x1ef
 4107 11bf F4070000 		.4byte	0x7f4
 4108 11c3 F9090000 		.4byte	.LLST63
 4109 11c7 34       		.uleb128 0x34
 4110 11c8 91440000 		.4byte	.LASF1145
 4111 11cc 01       		.byte	0x1
 4112 11cd F001     		.2byte	0x1f0
 4113 11cf 6C070000 		.4byte	0x76c
 4114 11d3 1A0A0000 		.4byte	.LLST64
 4115 11d7 34       		.uleb128 0x34
 4116 11d8 05340000 		.4byte	.LASF1188
 4117 11dc 01       		.byte	0x1
 4118 11dd F101     		.2byte	0x1f1
 4119 11df 85000000 		.4byte	0x85
 4120 11e3 3B0A0000 		.4byte	.LLST65
 4121 11e7 27       		.uleb128 0x27
 4122 11e8 69696300 		.ascii	"iic\000"
 4123 11ec 01       		.byte	0x1
ARM GAS  /var/folders/f9/8bk2lnw15zn4cbgn6wrnb4lm0000gn/T//cc47W8rL.s 			page 92


 4124 11ed F301     		.2byte	0x1f3
 4125 11ef 0B0A0000 		.4byte	0xa0b
 4126 11f3 670A0000 		.4byte	.LLST66
 4127 11f7 35       		.uleb128 0x35
 4128 11f8 322A0000 		.4byte	.LASF1189
 4129 11fc 01       		.byte	0x1
 4130 11fd F401     		.2byte	0x1f4
 4131 11ff 7B120000 		.4byte	0x127b
 4132 1203 850A0000 		.4byte	.LLST67
 4133 1207 42       		.uleb128 0x42
 4134 1208 43090000 		.4byte	0x943
 4135 120c 22000000 		.4byte	.LBB121
 4136 1210 C8000000 		.4byte	.Ldebug_ranges0+0xc8
 4137 1214 01       		.byte	0x1
 4138 1215 FA01     		.2byte	0x1fa
 4139 1217 62120000 		.4byte	0x1262
 4140 121b 2E       		.uleb128 0x2e
 4141 121c 70090000 		.4byte	0x970
 4142 1220 A50A0000 		.4byte	.LLST68
 4143 1224 2E       		.uleb128 0x2e
 4144 1225 65090000 		.4byte	0x965
 4145 1229 C50A0000 		.4byte	.LLST69
 4146 122d 2E       		.uleb128 0x2e
 4147 122e 5A090000 		.4byte	0x95a
 4148 1232 E30A0000 		.4byte	.LLST70
 4149 1236 2E       		.uleb128 0x2e
 4150 1237 4F090000 		.4byte	0x94f
 4151 123b 010B0000 		.4byte	.LLST71
 4152 123f 43       		.uleb128 0x43
 4153 1240 C8000000 		.4byte	.Ldebug_ranges0+0xc8
 4154 1244 44       		.uleb128 0x44
 4155 1245 7B090000 		.4byte	0x97b
 4156 1249 2B0B0000 		.4byte	.LLST72
 4157 124d 45       		.uleb128 0x45
 4158 124e 32000000 		.4byte	.LBB123
 4159 1252 0C000000 		.4byte	.LBE123-.LBB123
 4160 1256 44       		.uleb128 0x44
 4161 1257 87090000 		.4byte	0x987
 4162 125b 4D0B0000 		.4byte	.LLST73
 4163 125f 00       		.byte	0
 4164 1260 00       		.byte	0
 4165 1261 00       		.byte	0
 4166 1262 37       		.uleb128 0x37
 4167 1263 0F090000 		.4byte	0x90f
 4168 1267 60000000 		.4byte	.LBB130
 4169 126b 18000000 		.4byte	.LBE130-.LBB130
 4170 126f 01       		.byte	0x1
 4171 1270 FE01     		.2byte	0x1fe
 4172 1272 32       		.uleb128 0x32
 4173 1273 1B090000 		.4byte	0x91b
 4174 1277 01       		.uleb128 0x1
 4175 1278 52       		.byte	0x52
 4176 1279 00       		.byte	0
 4177 127a 00       		.byte	0
 4178 127b 14       		.uleb128 0x14
 4179 127c 04       		.byte	0x4
 4180 127d FA070000 		.4byte	0x7fa
ARM GAS  /var/folders/f9/8bk2lnw15zn4cbgn6wrnb4lm0000gn/T//cc47W8rL.s 			page 93


 4181 1281 24       		.uleb128 0x24
 4182 1282 E3280000 		.4byte	.LASF1190
 4183 1286 01       		.byte	0x1
 4184 1287 0402     		.2byte	0x204
 4185 1289 00000000 		.4byte	.LFB227
 4186 128d 68000000 		.4byte	.LFE227-.LFB227
 4187 1291 01       		.uleb128 0x1
 4188 1292 9C       		.byte	0x9c
 4189 1293 11130000 		.4byte	0x1311
 4190 1297 25       		.uleb128 0x25
 4191 1298 696400   		.ascii	"id\000"
 4192 129b 01       		.byte	0x1
 4193 129c 0402     		.2byte	0x204
 4194 129e 26070000 		.4byte	0x726
 4195 12a2 7D0B0000 		.4byte	.LLST74
 4196 12a6 27       		.uleb128 0x27
 4197 12a7 72657400 		.ascii	"ret\000"
 4198 12ab 01       		.byte	0x1
 4199 12ac 0602     		.2byte	0x206
 4200 12ae 77000000 		.4byte	0x77
 4201 12b2 B70B0000 		.4byte	.LLST75
 4202 12b6 27       		.uleb128 0x27
 4203 12b7 69696300 		.ascii	"iic\000"
 4204 12bb 01       		.byte	0x1
 4205 12bc 0702     		.2byte	0x207
 4206 12be 0B0A0000 		.4byte	0xa0b
 4207 12c2 D50B0000 		.4byte	.LLST76
 4208 12c6 46       		.uleb128 0x46
 4209 12c7 42000000 		.4byte	.LBB132
 4210 12cb 26000000 		.4byte	.LBE132-.LBB132
 4211 12cf FB120000 		.4byte	0x12fb
 4212 12d3 35       		.uleb128 0x35
 4213 12d4 322A0000 		.4byte	.LASF1189
 4214 12d8 01       		.byte	0x1
 4215 12d9 0B02     		.2byte	0x20b
 4216 12db 7B120000 		.4byte	0x127b
 4217 12df 0D0C0000 		.4byte	.LLST77
 4218 12e3 47       		.uleb128 0x47
 4219 12e4 73696400 		.ascii	"sid\000"
 4220 12e8 01       		.byte	0x1
 4221 12e9 0D02     		.2byte	0x20d
 4222 12eb 59060000 		.4byte	0x659
 4223 12ef 01       		.uleb128 0x1
 4224 12f0 50       		.byte	0x50
 4225 12f1 3A       		.uleb128 0x3a
 4226 12f2 48000000 		.4byte	.LVL158
 4227 12f6 A10A0000 		.4byte	0xaa1
 4228 12fa 00       		.byte	0
 4229 12fb 3A       		.uleb128 0x3a
 4230 12fc 28000000 		.4byte	.LVL150
 4231 1300 C30B0000 		.4byte	0xbc3
 4232 1304 3F       		.uleb128 0x3f
 4233 1305 3C000000 		.4byte	.LVL152
 4234 1309 3E       		.uleb128 0x3e
 4235 130a 01       		.uleb128 0x1
 4236 130b 50       		.byte	0x50
 4237 130c 02       		.uleb128 0x2
ARM GAS  /var/folders/f9/8bk2lnw15zn4cbgn6wrnb4lm0000gn/T//cc47W8rL.s 			page 94


 4238 130d 75       		.byte	0x75
 4239 130e 00       		.sleb128 0
 4240 130f 00       		.byte	0
 4241 1310 00       		.byte	0
 4242 1311 24       		.uleb128 0x24
 4243 1312 2B790000 		.4byte	.LASF1191
 4244 1316 01       		.byte	0x1
 4245 1317 1E02     		.2byte	0x21e
 4246 1319 00000000 		.4byte	.LFB228
 4247 131d 14000000 		.4byte	.LFE228-.LFB228
 4248 1321 01       		.uleb128 0x1
 4249 1322 9C       		.byte	0x9c
 4250 1323 37130000 		.4byte	0x1337
 4251 1327 25       		.uleb128 0x25
 4252 1328 696400   		.ascii	"id\000"
 4253 132b 01       		.byte	0x1
 4254 132c 1E02     		.2byte	0x21e
 4255 132e 26070000 		.4byte	0x726
 4256 1332 3D0C0000 		.4byte	.LLST78
 4257 1336 00       		.byte	0
 4258 1337 48       		.uleb128 0x48
 4259 1338 9A090000 		.4byte	0x99a
 4260 133c 00000000 		.4byte	.LFB229
 4261 1340 18000000 		.4byte	.LFE229-.LFB229
 4262 1344 01       		.uleb128 0x1
 4263 1345 9C       		.byte	0x9c
 4264 1346 54130000 		.4byte	0x1354
 4265 134a 2E       		.uleb128 0x2e
 4266 134b AB090000 		.4byte	0x9ab
 4267 134f 5E0C0000 		.4byte	.LLST79
 4268 1353 00       		.byte	0
 4269 1354 05       		.uleb128 0x5
 4270 1355 8E070000 		.4byte	0x78e
 4271 1359 64130000 		.4byte	0x1364
 4272 135d 06       		.uleb128 0x6
 4273 135e A9000000 		.4byte	0xa9
 4274 1362 00       		.byte	0
 4275 1363 00       		.byte	0
 4276 1364 49       		.uleb128 0x49
 4277 1365 69326300 		.ascii	"i2c\000"
 4278 1369 01       		.byte	0x1
 4279 136a 3F       		.byte	0x3f
 4280 136b 54130000 		.4byte	0x1354
 4281 136f 05       		.uleb128 0x5
 4282 1370 03       		.byte	0x3
 4283 1371 00000000 		.4byte	i2c
 4284 1375 05       		.uleb128 0x5
 4285 1376 FA070000 		.4byte	0x7fa
 4286 137a 8B130000 		.4byte	0x138b
 4287 137e 06       		.uleb128 0x6
 4288 137f A9000000 		.4byte	0xa9
 4289 1383 00       		.byte	0
 4290 1384 06       		.uleb128 0x6
 4291 1385 A9000000 		.4byte	0xa9
 4292 1389 04       		.byte	0x4
 4293 138a 00       		.byte	0
 4294 138b 4A       		.uleb128 0x4a
ARM GAS  /var/folders/f9/8bk2lnw15zn4cbgn6wrnb4lm0000gn/T//cc47W8rL.s 			page 95


 4295 138c 104C0000 		.4byte	.LASF1192
 4296 1390 01       		.byte	0x1
 4297 1391 43       		.byte	0x43
 4298 1392 75130000 		.4byte	0x1375
 4299 1396 05       		.uleb128 0x5
 4300 1397 03       		.byte	0x3
 4301 1398 00000000 		.4byte	i2c_slave
 4302 139c 4B       		.uleb128 0x4b
 4303 139d B7530000 		.4byte	.LASF1198
 4304 13a1 07       		.byte	0x7
 4305 13a2 D4       		.byte	0xd4
 4306 13a3 72050000 		.4byte	0x572
 4307 13a7 4C       		.uleb128 0x4c
 4308 13a8 B0400000 		.4byte	.LASF1199
 4309 13ac 02       		.byte	0x2
 4310 13ad 1302     		.2byte	0x213
 4311 13af 90000000 		.4byte	0x90
 4312 13b3 00       		.byte	0
 4313              		.section	.debug_abbrev,"",%progbits
 4314              	.Ldebug_abbrev0:
 4315 0000 01       		.uleb128 0x1
 4316 0001 11       		.uleb128 0x11
 4317 0002 01       		.byte	0x1
 4318 0003 25       		.uleb128 0x25
 4319 0004 0E       		.uleb128 0xe
 4320 0005 13       		.uleb128 0x13
 4321 0006 0B       		.uleb128 0xb
 4322 0007 03       		.uleb128 0x3
 4323 0008 0E       		.uleb128 0xe
 4324 0009 1B       		.uleb128 0x1b
 4325 000a 0E       		.uleb128 0xe
 4326 000b 55       		.uleb128 0x55
 4327 000c 17       		.uleb128 0x17
 4328 000d 11       		.uleb128 0x11
 4329 000e 01       		.uleb128 0x1
 4330 000f 10       		.uleb128 0x10
 4331 0010 17       		.uleb128 0x17
 4332 0011 9942     		.uleb128 0x2119
 4333 0013 17       		.uleb128 0x17
 4334 0014 00       		.byte	0
 4335 0015 00       		.byte	0
 4336 0016 02       		.uleb128 0x2
 4337 0017 24       		.uleb128 0x24
 4338 0018 00       		.byte	0
 4339 0019 0B       		.uleb128 0xb
 4340 001a 0B       		.uleb128 0xb
 4341 001b 3E       		.uleb128 0x3e
 4342 001c 0B       		.uleb128 0xb
 4343 001d 03       		.uleb128 0x3
 4344 001e 0E       		.uleb128 0xe
 4345 001f 00       		.byte	0
 4346 0020 00       		.byte	0
 4347 0021 03       		.uleb128 0x3
 4348 0022 16       		.uleb128 0x16
 4349 0023 00       		.byte	0
 4350 0024 03       		.uleb128 0x3
 4351 0025 0E       		.uleb128 0xe
ARM GAS  /var/folders/f9/8bk2lnw15zn4cbgn6wrnb4lm0000gn/T//cc47W8rL.s 			page 96


 4352 0026 3A       		.uleb128 0x3a
 4353 0027 0B       		.uleb128 0xb
 4354 0028 3B       		.uleb128 0x3b
 4355 0029 0B       		.uleb128 0xb
 4356 002a 49       		.uleb128 0x49
 4357 002b 13       		.uleb128 0x13
 4358 002c 00       		.byte	0
 4359 002d 00       		.byte	0
 4360 002e 04       		.uleb128 0x4
 4361 002f 24       		.uleb128 0x24
 4362 0030 00       		.byte	0
 4363 0031 0B       		.uleb128 0xb
 4364 0032 0B       		.uleb128 0xb
 4365 0033 3E       		.uleb128 0x3e
 4366 0034 0B       		.uleb128 0xb
 4367 0035 03       		.uleb128 0x3
 4368 0036 08       		.uleb128 0x8
 4369 0037 00       		.byte	0
 4370 0038 00       		.byte	0
 4371 0039 05       		.uleb128 0x5
 4372 003a 01       		.uleb128 0x1
 4373 003b 01       		.byte	0x1
 4374 003c 49       		.uleb128 0x49
 4375 003d 13       		.uleb128 0x13
 4376 003e 01       		.uleb128 0x1
 4377 003f 13       		.uleb128 0x13
 4378 0040 00       		.byte	0
 4379 0041 00       		.byte	0
 4380 0042 06       		.uleb128 0x6
 4381 0043 21       		.uleb128 0x21
 4382 0044 00       		.byte	0
 4383 0045 49       		.uleb128 0x49
 4384 0046 13       		.uleb128 0x13
 4385 0047 2F       		.uleb128 0x2f
 4386 0048 0B       		.uleb128 0xb
 4387 0049 00       		.byte	0
 4388 004a 00       		.byte	0
 4389 004b 07       		.uleb128 0x7
 4390 004c 26       		.uleb128 0x26
 4391 004d 00       		.byte	0
 4392 004e 49       		.uleb128 0x49
 4393 004f 13       		.uleb128 0x13
 4394 0050 00       		.byte	0
 4395 0051 00       		.byte	0
 4396 0052 08       		.uleb128 0x8
 4397 0053 35       		.uleb128 0x35
 4398 0054 00       		.byte	0
 4399 0055 49       		.uleb128 0x49
 4400 0056 13       		.uleb128 0x13
 4401 0057 00       		.byte	0
 4402 0058 00       		.byte	0
 4403 0059 09       		.uleb128 0x9
 4404 005a 13       		.uleb128 0x13
 4405 005b 01       		.byte	0x1
 4406 005c 0B       		.uleb128 0xb
 4407 005d 05       		.uleb128 0x5
 4408 005e 3A       		.uleb128 0x3a
ARM GAS  /var/folders/f9/8bk2lnw15zn4cbgn6wrnb4lm0000gn/T//cc47W8rL.s 			page 97


 4409 005f 0B       		.uleb128 0xb
 4410 0060 3B       		.uleb128 0x3b
 4411 0061 0B       		.uleb128 0xb
 4412 0062 01       		.uleb128 0x1
 4413 0063 13       		.uleb128 0x13
 4414 0064 00       		.byte	0
 4415 0065 00       		.byte	0
 4416 0066 0A       		.uleb128 0xa
 4417 0067 0D       		.uleb128 0xd
 4418 0068 00       		.byte	0
 4419 0069 03       		.uleb128 0x3
 4420 006a 0E       		.uleb128 0xe
 4421 006b 3A       		.uleb128 0x3a
 4422 006c 0B       		.uleb128 0xb
 4423 006d 3B       		.uleb128 0x3b
 4424 006e 0B       		.uleb128 0xb
 4425 006f 49       		.uleb128 0x49
 4426 0070 13       		.uleb128 0x13
 4427 0071 38       		.uleb128 0x38
 4428 0072 0B       		.uleb128 0xb
 4429 0073 00       		.byte	0
 4430 0074 00       		.byte	0
 4431 0075 0B       		.uleb128 0xb
 4432 0076 0D       		.uleb128 0xd
 4433 0077 00       		.byte	0
 4434 0078 03       		.uleb128 0x3
 4435 0079 0E       		.uleb128 0xe
 4436 007a 3A       		.uleb128 0x3a
 4437 007b 0B       		.uleb128 0xb
 4438 007c 3B       		.uleb128 0x3b
 4439 007d 0B       		.uleb128 0xb
 4440 007e 49       		.uleb128 0x49
 4441 007f 13       		.uleb128 0x13
 4442 0080 38       		.uleb128 0x38
 4443 0081 05       		.uleb128 0x5
 4444 0082 00       		.byte	0
 4445 0083 00       		.byte	0
 4446 0084 0C       		.uleb128 0xc
 4447 0085 04       		.uleb128 0x4
 4448 0086 01       		.byte	0x1
 4449 0087 03       		.uleb128 0x3
 4450 0088 0E       		.uleb128 0xe
 4451 0089 0B       		.uleb128 0xb
 4452 008a 0B       		.uleb128 0xb
 4453 008b 3A       		.uleb128 0x3a
 4454 008c 0B       		.uleb128 0xb
 4455 008d 3B       		.uleb128 0x3b
 4456 008e 0B       		.uleb128 0xb
 4457 008f 01       		.uleb128 0x1
 4458 0090 13       		.uleb128 0x13
 4459 0091 00       		.byte	0
 4460 0092 00       		.byte	0
 4461 0093 0D       		.uleb128 0xd
 4462 0094 28       		.uleb128 0x28
 4463 0095 00       		.byte	0
 4464 0096 03       		.uleb128 0x3
 4465 0097 0E       		.uleb128 0xe
ARM GAS  /var/folders/f9/8bk2lnw15zn4cbgn6wrnb4lm0000gn/T//cc47W8rL.s 			page 98


 4466 0098 1C       		.uleb128 0x1c
 4467 0099 0D       		.uleb128 0xd
 4468 009a 00       		.byte	0
 4469 009b 00       		.byte	0
 4470 009c 0E       		.uleb128 0xe
 4471 009d 16       		.uleb128 0x16
 4472 009e 00       		.byte	0
 4473 009f 03       		.uleb128 0x3
 4474 00a0 0E       		.uleb128 0xe
 4475 00a1 3A       		.uleb128 0x3a
 4476 00a2 0B       		.uleb128 0xb
 4477 00a3 3B       		.uleb128 0x3b
 4478 00a4 05       		.uleb128 0x5
 4479 00a5 49       		.uleb128 0x49
 4480 00a6 13       		.uleb128 0x13
 4481 00a7 00       		.byte	0
 4482 00a8 00       		.byte	0
 4483 00a9 0F       		.uleb128 0xf
 4484 00aa 13       		.uleb128 0x13
 4485 00ab 01       		.byte	0x1
 4486 00ac 0B       		.uleb128 0xb
 4487 00ad 0B       		.uleb128 0xb
 4488 00ae 3A       		.uleb128 0x3a
 4489 00af 0B       		.uleb128 0xb
 4490 00b0 3B       		.uleb128 0x3b
 4491 00b1 0B       		.uleb128 0xb
 4492 00b2 01       		.uleb128 0x1
 4493 00b3 13       		.uleb128 0x13
 4494 00b4 00       		.byte	0
 4495 00b5 00       		.byte	0
 4496 00b6 10       		.uleb128 0x10
 4497 00b7 0D       		.uleb128 0xd
 4498 00b8 00       		.byte	0
 4499 00b9 03       		.uleb128 0x3
 4500 00ba 08       		.uleb128 0x8
 4501 00bb 3A       		.uleb128 0x3a
 4502 00bc 0B       		.uleb128 0xb
 4503 00bd 3B       		.uleb128 0x3b
 4504 00be 0B       		.uleb128 0xb
 4505 00bf 49       		.uleb128 0x49
 4506 00c0 13       		.uleb128 0x13
 4507 00c1 38       		.uleb128 0x38
 4508 00c2 0B       		.uleb128 0xb
 4509 00c3 00       		.byte	0
 4510 00c4 00       		.byte	0
 4511 00c5 11       		.uleb128 0x11
 4512 00c6 04       		.uleb128 0x4
 4513 00c7 01       		.byte	0x1
 4514 00c8 0B       		.uleb128 0xb
 4515 00c9 0B       		.uleb128 0xb
 4516 00ca 3A       		.uleb128 0x3a
 4517 00cb 0B       		.uleb128 0xb
 4518 00cc 3B       		.uleb128 0x3b
 4519 00cd 0B       		.uleb128 0xb
 4520 00ce 01       		.uleb128 0x1
 4521 00cf 13       		.uleb128 0x13
 4522 00d0 00       		.byte	0
ARM GAS  /var/folders/f9/8bk2lnw15zn4cbgn6wrnb4lm0000gn/T//cc47W8rL.s 			page 99


 4523 00d1 00       		.byte	0
 4524 00d2 12       		.uleb128 0x12
 4525 00d3 13       		.uleb128 0x13
 4526 00d4 01       		.byte	0x1
 4527 00d5 0B       		.uleb128 0xb
 4528 00d6 0B       		.uleb128 0xb
 4529 00d7 3A       		.uleb128 0x3a
 4530 00d8 0B       		.uleb128 0xb
 4531 00d9 3B       		.uleb128 0x3b
 4532 00da 05       		.uleb128 0x5
 4533 00db 01       		.uleb128 0x1
 4534 00dc 13       		.uleb128 0x13
 4535 00dd 00       		.byte	0
 4536 00de 00       		.byte	0
 4537 00df 13       		.uleb128 0x13
 4538 00e0 0D       		.uleb128 0xd
 4539 00e1 00       		.byte	0
 4540 00e2 03       		.uleb128 0x3
 4541 00e3 0E       		.uleb128 0xe
 4542 00e4 3A       		.uleb128 0x3a
 4543 00e5 0B       		.uleb128 0xb
 4544 00e6 3B       		.uleb128 0x3b
 4545 00e7 05       		.uleb128 0x5
 4546 00e8 49       		.uleb128 0x49
 4547 00e9 13       		.uleb128 0x13
 4548 00ea 38       		.uleb128 0x38
 4549 00eb 0B       		.uleb128 0xb
 4550 00ec 00       		.byte	0
 4551 00ed 00       		.byte	0
 4552 00ee 14       		.uleb128 0x14
 4553 00ef 0F       		.uleb128 0xf
 4554 00f0 00       		.byte	0
 4555 00f1 0B       		.uleb128 0xb
 4556 00f2 0B       		.uleb128 0xb
 4557 00f3 49       		.uleb128 0x49
 4558 00f4 13       		.uleb128 0x13
 4559 00f5 00       		.byte	0
 4560 00f6 00       		.byte	0
 4561 00f7 15       		.uleb128 0x15
 4562 00f8 04       		.uleb128 0x4
 4563 00f9 01       		.byte	0x1
 4564 00fa 03       		.uleb128 0x3
 4565 00fb 0E       		.uleb128 0xe
 4566 00fc 0B       		.uleb128 0xb
 4567 00fd 0B       		.uleb128 0xb
 4568 00fe 3A       		.uleb128 0x3a
 4569 00ff 0B       		.uleb128 0xb
 4570 0100 3B       		.uleb128 0x3b
 4571 0101 05       		.uleb128 0x5
 4572 0102 01       		.uleb128 0x1
 4573 0103 13       		.uleb128 0x13
 4574 0104 00       		.byte	0
 4575 0105 00       		.byte	0
 4576 0106 16       		.uleb128 0x16
 4577 0107 04       		.uleb128 0x4
 4578 0108 01       		.byte	0x1
 4579 0109 0B       		.uleb128 0xb
ARM GAS  /var/folders/f9/8bk2lnw15zn4cbgn6wrnb4lm0000gn/T//cc47W8rL.s 			page 100


 4580 010a 0B       		.uleb128 0xb
 4581 010b 3A       		.uleb128 0x3a
 4582 010c 0B       		.uleb128 0xb
 4583 010d 3B       		.uleb128 0x3b
 4584 010e 05       		.uleb128 0x5
 4585 010f 01       		.uleb128 0x1
 4586 0110 13       		.uleb128 0x13
 4587 0111 00       		.byte	0
 4588 0112 00       		.byte	0
 4589 0113 17       		.uleb128 0x17
 4590 0114 15       		.uleb128 0x15
 4591 0115 01       		.byte	0x1
 4592 0116 27       		.uleb128 0x27
 4593 0117 19       		.uleb128 0x19
 4594 0118 01       		.uleb128 0x1
 4595 0119 13       		.uleb128 0x13
 4596 011a 00       		.byte	0
 4597 011b 00       		.byte	0
 4598 011c 18       		.uleb128 0x18
 4599 011d 05       		.uleb128 0x5
 4600 011e 00       		.byte	0
 4601 011f 49       		.uleb128 0x49
 4602 0120 13       		.uleb128 0x13
 4603 0121 00       		.byte	0
 4604 0122 00       		.byte	0
 4605 0123 19       		.uleb128 0x19
 4606 0124 13       		.uleb128 0x13
 4607 0125 01       		.byte	0x1
 4608 0126 03       		.uleb128 0x3
 4609 0127 0E       		.uleb128 0xe
 4610 0128 0B       		.uleb128 0xb
 4611 0129 0B       		.uleb128 0xb
 4612 012a 3A       		.uleb128 0x3a
 4613 012b 0B       		.uleb128 0xb
 4614 012c 3B       		.uleb128 0x3b
 4615 012d 0B       		.uleb128 0xb
 4616 012e 01       		.uleb128 0x1
 4617 012f 13       		.uleb128 0x13
 4618 0130 00       		.byte	0
 4619 0131 00       		.byte	0
 4620 0132 1A       		.uleb128 0x1a
 4621 0133 2E       		.uleb128 0x2e
 4622 0134 01       		.byte	0x1
 4623 0135 03       		.uleb128 0x3
 4624 0136 0E       		.uleb128 0xe
 4625 0137 3A       		.uleb128 0x3a
 4626 0138 0B       		.uleb128 0xb
 4627 0139 3B       		.uleb128 0x3b
 4628 013a 05       		.uleb128 0x5
 4629 013b 27       		.uleb128 0x27
 4630 013c 19       		.uleb128 0x19
 4631 013d 20       		.uleb128 0x20
 4632 013e 0B       		.uleb128 0xb
 4633 013f 01       		.uleb128 0x1
 4634 0140 13       		.uleb128 0x13
 4635 0141 00       		.byte	0
 4636 0142 00       		.byte	0
ARM GAS  /var/folders/f9/8bk2lnw15zn4cbgn6wrnb4lm0000gn/T//cc47W8rL.s 			page 101


 4637 0143 1B       		.uleb128 0x1b
 4638 0144 05       		.uleb128 0x5
 4639 0145 00       		.byte	0
 4640 0146 03       		.uleb128 0x3
 4641 0147 08       		.uleb128 0x8
 4642 0148 3A       		.uleb128 0x3a
 4643 0149 0B       		.uleb128 0xb
 4644 014a 3B       		.uleb128 0x3b
 4645 014b 05       		.uleb128 0x5
 4646 014c 49       		.uleb128 0x49
 4647 014d 13       		.uleb128 0x13
 4648 014e 00       		.byte	0
 4649 014f 00       		.byte	0
 4650 0150 1C       		.uleb128 0x1c
 4651 0151 2E       		.uleb128 0x2e
 4652 0152 01       		.byte	0x1
 4653 0153 03       		.uleb128 0x3
 4654 0154 0E       		.uleb128 0xe
 4655 0155 3A       		.uleb128 0x3a
 4656 0156 0B       		.uleb128 0xb
 4657 0157 3B       		.uleb128 0x3b
 4658 0158 0B       		.uleb128 0xb
 4659 0159 27       		.uleb128 0x27
 4660 015a 19       		.uleb128 0x19
 4661 015b 49       		.uleb128 0x49
 4662 015c 13       		.uleb128 0x13
 4663 015d 20       		.uleb128 0x20
 4664 015e 0B       		.uleb128 0xb
 4665 015f 01       		.uleb128 0x1
 4666 0160 13       		.uleb128 0x13
 4667 0161 00       		.byte	0
 4668 0162 00       		.byte	0
 4669 0163 1D       		.uleb128 0x1d
 4670 0164 05       		.uleb128 0x5
 4671 0165 00       		.byte	0
 4672 0166 03       		.uleb128 0x3
 4673 0167 0E       		.uleb128 0xe
 4674 0168 3A       		.uleb128 0x3a
 4675 0169 0B       		.uleb128 0xb
 4676 016a 3B       		.uleb128 0x3b
 4677 016b 0B       		.uleb128 0xb
 4678 016c 49       		.uleb128 0x49
 4679 016d 13       		.uleb128 0x13
 4680 016e 00       		.byte	0
 4681 016f 00       		.byte	0
 4682 0170 1E       		.uleb128 0x1e
 4683 0171 2E       		.uleb128 0x2e
 4684 0172 01       		.byte	0x1
 4685 0173 03       		.uleb128 0x3
 4686 0174 0E       		.uleb128 0xe
 4687 0175 3A       		.uleb128 0x3a
 4688 0176 0B       		.uleb128 0xb
 4689 0177 3B       		.uleb128 0x3b
 4690 0178 0B       		.uleb128 0xb
 4691 0179 27       		.uleb128 0x27
 4692 017a 19       		.uleb128 0x19
 4693 017b 20       		.uleb128 0x20
ARM GAS  /var/folders/f9/8bk2lnw15zn4cbgn6wrnb4lm0000gn/T//cc47W8rL.s 			page 102


 4694 017c 0B       		.uleb128 0xb
 4695 017d 01       		.uleb128 0x1
 4696 017e 13       		.uleb128 0x13
 4697 017f 00       		.byte	0
 4698 0180 00       		.byte	0
 4699 0181 1F       		.uleb128 0x1f
 4700 0182 05       		.uleb128 0x5
 4701 0183 00       		.byte	0
 4702 0184 03       		.uleb128 0x3
 4703 0185 08       		.uleb128 0x8
 4704 0186 3A       		.uleb128 0x3a
 4705 0187 0B       		.uleb128 0xb
 4706 0188 3B       		.uleb128 0x3b
 4707 0189 0B       		.uleb128 0xb
 4708 018a 49       		.uleb128 0x49
 4709 018b 13       		.uleb128 0x13
 4710 018c 00       		.byte	0
 4711 018d 00       		.byte	0
 4712 018e 20       		.uleb128 0x20
 4713 018f 2E       		.uleb128 0x2e
 4714 0190 00       		.byte	0
 4715 0191 03       		.uleb128 0x3
 4716 0192 0E       		.uleb128 0xe
 4717 0193 3A       		.uleb128 0x3a
 4718 0194 0B       		.uleb128 0xb
 4719 0195 3B       		.uleb128 0x3b
 4720 0196 0B       		.uleb128 0xb
 4721 0197 27       		.uleb128 0x27
 4722 0198 19       		.uleb128 0x19
 4723 0199 49       		.uleb128 0x49
 4724 019a 13       		.uleb128 0x13
 4725 019b 20       		.uleb128 0x20
 4726 019c 0B       		.uleb128 0xb
 4727 019d 00       		.byte	0
 4728 019e 00       		.byte	0
 4729 019f 21       		.uleb128 0x21
 4730 01a0 34       		.uleb128 0x34
 4731 01a1 00       		.byte	0
 4732 01a2 03       		.uleb128 0x3
 4733 01a3 0E       		.uleb128 0xe
 4734 01a4 3A       		.uleb128 0x3a
 4735 01a5 0B       		.uleb128 0xb
 4736 01a6 3B       		.uleb128 0x3b
 4737 01a7 0B       		.uleb128 0xb
 4738 01a8 49       		.uleb128 0x49
 4739 01a9 13       		.uleb128 0x13
 4740 01aa 00       		.byte	0
 4741 01ab 00       		.byte	0
 4742 01ac 22       		.uleb128 0x22
 4743 01ad 0B       		.uleb128 0xb
 4744 01ae 01       		.byte	0x1
 4745 01af 00       		.byte	0
 4746 01b0 00       		.byte	0
 4747 01b1 23       		.uleb128 0x23
 4748 01b2 2E       		.uleb128 0x2e
 4749 01b3 01       		.byte	0x1
 4750 01b4 3F       		.uleb128 0x3f
ARM GAS  /var/folders/f9/8bk2lnw15zn4cbgn6wrnb4lm0000gn/T//cc47W8rL.s 			page 103


 4751 01b5 19       		.uleb128 0x19
 4752 01b6 03       		.uleb128 0x3
 4753 01b7 0E       		.uleb128 0xe
 4754 01b8 3A       		.uleb128 0x3a
 4755 01b9 0B       		.uleb128 0xb
 4756 01ba 3B       		.uleb128 0x3b
 4757 01bb 05       		.uleb128 0x5
 4758 01bc 27       		.uleb128 0x27
 4759 01bd 19       		.uleb128 0x19
 4760 01be 49       		.uleb128 0x49
 4761 01bf 13       		.uleb128 0x13
 4762 01c0 20       		.uleb128 0x20
 4763 01c1 0B       		.uleb128 0xb
 4764 01c2 01       		.uleb128 0x1
 4765 01c3 13       		.uleb128 0x13
 4766 01c4 00       		.byte	0
 4767 01c5 00       		.byte	0
 4768 01c6 24       		.uleb128 0x24
 4769 01c7 2E       		.uleb128 0x2e
 4770 01c8 01       		.byte	0x1
 4771 01c9 3F       		.uleb128 0x3f
 4772 01ca 19       		.uleb128 0x19
 4773 01cb 03       		.uleb128 0x3
 4774 01cc 0E       		.uleb128 0xe
 4775 01cd 3A       		.uleb128 0x3a
 4776 01ce 0B       		.uleb128 0xb
 4777 01cf 3B       		.uleb128 0x3b
 4778 01d0 05       		.uleb128 0x5
 4779 01d1 27       		.uleb128 0x27
 4780 01d2 19       		.uleb128 0x19
 4781 01d3 11       		.uleb128 0x11
 4782 01d4 01       		.uleb128 0x1
 4783 01d5 12       		.uleb128 0x12
 4784 01d6 06       		.uleb128 0x6
 4785 01d7 40       		.uleb128 0x40
 4786 01d8 18       		.uleb128 0x18
 4787 01d9 9742     		.uleb128 0x2117
 4788 01db 19       		.uleb128 0x19
 4789 01dc 01       		.uleb128 0x1
 4790 01dd 13       		.uleb128 0x13
 4791 01de 00       		.byte	0
 4792 01df 00       		.byte	0
 4793 01e0 25       		.uleb128 0x25
 4794 01e1 05       		.uleb128 0x5
 4795 01e2 00       		.byte	0
 4796 01e3 03       		.uleb128 0x3
 4797 01e4 08       		.uleb128 0x8
 4798 01e5 3A       		.uleb128 0x3a
 4799 01e6 0B       		.uleb128 0xb
 4800 01e7 3B       		.uleb128 0x3b
 4801 01e8 05       		.uleb128 0x5
 4802 01e9 49       		.uleb128 0x49
 4803 01ea 13       		.uleb128 0x13
 4804 01eb 02       		.uleb128 0x2
 4805 01ec 17       		.uleb128 0x17
 4806 01ed 00       		.byte	0
 4807 01ee 00       		.byte	0
ARM GAS  /var/folders/f9/8bk2lnw15zn4cbgn6wrnb4lm0000gn/T//cc47W8rL.s 			page 104


 4808 01ef 26       		.uleb128 0x26
 4809 01f0 05       		.uleb128 0x5
 4810 01f1 00       		.byte	0
 4811 01f2 03       		.uleb128 0x3
 4812 01f3 0E       		.uleb128 0xe
 4813 01f4 3A       		.uleb128 0x3a
 4814 01f5 0B       		.uleb128 0xb
 4815 01f6 3B       		.uleb128 0x3b
 4816 01f7 05       		.uleb128 0x5
 4817 01f8 49       		.uleb128 0x49
 4818 01f9 13       		.uleb128 0x13
 4819 01fa 02       		.uleb128 0x2
 4820 01fb 18       		.uleb128 0x18
 4821 01fc 00       		.byte	0
 4822 01fd 00       		.byte	0
 4823 01fe 27       		.uleb128 0x27
 4824 01ff 34       		.uleb128 0x34
 4825 0200 00       		.byte	0
 4826 0201 03       		.uleb128 0x3
 4827 0202 08       		.uleb128 0x8
 4828 0203 3A       		.uleb128 0x3a
 4829 0204 0B       		.uleb128 0xb
 4830 0205 3B       		.uleb128 0x3b
 4831 0206 05       		.uleb128 0x5
 4832 0207 49       		.uleb128 0x49
 4833 0208 13       		.uleb128 0x13
 4834 0209 02       		.uleb128 0x2
 4835 020a 17       		.uleb128 0x17
 4836 020b 00       		.byte	0
 4837 020c 00       		.byte	0
 4838 020d 28       		.uleb128 0x28
 4839 020e 34       		.uleb128 0x34
 4840 020f 00       		.byte	0
 4841 0210 03       		.uleb128 0x3
 4842 0211 0E       		.uleb128 0xe
 4843 0212 3A       		.uleb128 0x3a
 4844 0213 0B       		.uleb128 0xb
 4845 0214 3B       		.uleb128 0x3b
 4846 0215 05       		.uleb128 0x5
 4847 0216 49       		.uleb128 0x49
 4848 0217 13       		.uleb128 0x13
 4849 0218 02       		.uleb128 0x2
 4850 0219 18       		.uleb128 0x18
 4851 021a 00       		.byte	0
 4852 021b 00       		.byte	0
 4853 021c 29       		.uleb128 0x29
 4854 021d 2E       		.uleb128 0x2e
 4855 021e 01       		.byte	0x1
 4856 021f 3F       		.uleb128 0x3f
 4857 0220 19       		.uleb128 0x19
 4858 0221 03       		.uleb128 0x3
 4859 0222 0E       		.uleb128 0xe
 4860 0223 3A       		.uleb128 0x3a
 4861 0224 0B       		.uleb128 0xb
 4862 0225 3B       		.uleb128 0x3b
 4863 0226 0B       		.uleb128 0xb
 4864 0227 27       		.uleb128 0x27
ARM GAS  /var/folders/f9/8bk2lnw15zn4cbgn6wrnb4lm0000gn/T//cc47W8rL.s 			page 105


 4865 0228 19       		.uleb128 0x19
 4866 0229 49       		.uleb128 0x49
 4867 022a 13       		.uleb128 0x13
 4868 022b 11       		.uleb128 0x11
 4869 022c 01       		.uleb128 0x1
 4870 022d 12       		.uleb128 0x12
 4871 022e 06       		.uleb128 0x6
 4872 022f 40       		.uleb128 0x40
 4873 0230 18       		.uleb128 0x18
 4874 0231 9742     		.uleb128 0x2117
 4875 0233 19       		.uleb128 0x19
 4876 0234 01       		.uleb128 0x1
 4877 0235 13       		.uleb128 0x13
 4878 0236 00       		.byte	0
 4879 0237 00       		.byte	0
 4880 0238 2A       		.uleb128 0x2a
 4881 0239 05       		.uleb128 0x5
 4882 023a 00       		.byte	0
 4883 023b 03       		.uleb128 0x3
 4884 023c 0E       		.uleb128 0xe
 4885 023d 3A       		.uleb128 0x3a
 4886 023e 0B       		.uleb128 0xb
 4887 023f 3B       		.uleb128 0x3b
 4888 0240 0B       		.uleb128 0xb
 4889 0241 49       		.uleb128 0x49
 4890 0242 13       		.uleb128 0x13
 4891 0243 02       		.uleb128 0x2
 4892 0244 17       		.uleb128 0x17
 4893 0245 00       		.byte	0
 4894 0246 00       		.byte	0
 4895 0247 2B       		.uleb128 0x2b
 4896 0248 05       		.uleb128 0x5
 4897 0249 00       		.byte	0
 4898 024a 03       		.uleb128 0x3
 4899 024b 0E       		.uleb128 0xe
 4900 024c 3A       		.uleb128 0x3a
 4901 024d 0B       		.uleb128 0xb
 4902 024e 3B       		.uleb128 0x3b
 4903 024f 0B       		.uleb128 0xb
 4904 0250 49       		.uleb128 0x49
 4905 0251 13       		.uleb128 0x13
 4906 0252 02       		.uleb128 0x2
 4907 0253 18       		.uleb128 0x18
 4908 0254 00       		.byte	0
 4909 0255 00       		.byte	0
 4910 0256 2C       		.uleb128 0x2c
 4911 0257 34       		.uleb128 0x34
 4912 0258 00       		.byte	0
 4913 0259 03       		.uleb128 0x3
 4914 025a 0E       		.uleb128 0xe
 4915 025b 3A       		.uleb128 0x3a
 4916 025c 0B       		.uleb128 0xb
 4917 025d 3B       		.uleb128 0x3b
 4918 025e 0B       		.uleb128 0xb
 4919 025f 49       		.uleb128 0x49
 4920 0260 13       		.uleb128 0x13
 4921 0261 02       		.uleb128 0x2
ARM GAS  /var/folders/f9/8bk2lnw15zn4cbgn6wrnb4lm0000gn/T//cc47W8rL.s 			page 106


 4922 0262 17       		.uleb128 0x17
 4923 0263 00       		.byte	0
 4924 0264 00       		.byte	0
 4925 0265 2D       		.uleb128 0x2d
 4926 0266 1D       		.uleb128 0x1d
 4927 0267 01       		.byte	0x1
 4928 0268 31       		.uleb128 0x31
 4929 0269 13       		.uleb128 0x13
 4930 026a 52       		.uleb128 0x52
 4931 026b 01       		.uleb128 0x1
 4932 026c 55       		.uleb128 0x55
 4933 026d 17       		.uleb128 0x17
 4934 026e 58       		.uleb128 0x58
 4935 026f 0B       		.uleb128 0xb
 4936 0270 59       		.uleb128 0x59
 4937 0271 0B       		.uleb128 0xb
 4938 0272 00       		.byte	0
 4939 0273 00       		.byte	0
 4940 0274 2E       		.uleb128 0x2e
 4941 0275 05       		.uleb128 0x5
 4942 0276 00       		.byte	0
 4943 0277 31       		.uleb128 0x31
 4944 0278 13       		.uleb128 0x13
 4945 0279 02       		.uleb128 0x2
 4946 027a 17       		.uleb128 0x17
 4947 027b 00       		.byte	0
 4948 027c 00       		.byte	0
 4949 027d 2F       		.uleb128 0x2f
 4950 027e 1D       		.uleb128 0x1d
 4951 027f 01       		.byte	0x1
 4952 0280 31       		.uleb128 0x31
 4953 0281 13       		.uleb128 0x13
 4954 0282 52       		.uleb128 0x52
 4955 0283 01       		.uleb128 0x1
 4956 0284 55       		.uleb128 0x55
 4957 0285 17       		.uleb128 0x17
 4958 0286 58       		.uleb128 0x58
 4959 0287 0B       		.uleb128 0xb
 4960 0288 59       		.uleb128 0x59
 4961 0289 0B       		.uleb128 0xb
 4962 028a 01       		.uleb128 0x1
 4963 028b 13       		.uleb128 0x13
 4964 028c 00       		.byte	0
 4965 028d 00       		.byte	0
 4966 028e 30       		.uleb128 0x30
 4967 028f 1D       		.uleb128 0x1d
 4968 0290 01       		.byte	0x1
 4969 0291 31       		.uleb128 0x31
 4970 0292 13       		.uleb128 0x13
 4971 0293 11       		.uleb128 0x11
 4972 0294 01       		.uleb128 0x1
 4973 0295 12       		.uleb128 0x12
 4974 0296 06       		.uleb128 0x6
 4975 0297 58       		.uleb128 0x58
 4976 0298 0B       		.uleb128 0xb
 4977 0299 59       		.uleb128 0x59
 4978 029a 0B       		.uleb128 0xb
ARM GAS  /var/folders/f9/8bk2lnw15zn4cbgn6wrnb4lm0000gn/T//cc47W8rL.s 			page 107


 4979 029b 01       		.uleb128 0x1
 4980 029c 13       		.uleb128 0x13
 4981 029d 00       		.byte	0
 4982 029e 00       		.byte	0
 4983 029f 31       		.uleb128 0x31
 4984 02a0 1D       		.uleb128 0x1d
 4985 02a1 01       		.byte	0x1
 4986 02a2 31       		.uleb128 0x31
 4987 02a3 13       		.uleb128 0x13
 4988 02a4 11       		.uleb128 0x11
 4989 02a5 01       		.uleb128 0x1
 4990 02a6 12       		.uleb128 0x12
 4991 02a7 06       		.uleb128 0x6
 4992 02a8 58       		.uleb128 0x58
 4993 02a9 0B       		.uleb128 0xb
 4994 02aa 59       		.uleb128 0x59
 4995 02ab 0B       		.uleb128 0xb
 4996 02ac 00       		.byte	0
 4997 02ad 00       		.byte	0
 4998 02ae 32       		.uleb128 0x32
 4999 02af 05       		.uleb128 0x5
 5000 02b0 00       		.byte	0
 5001 02b1 31       		.uleb128 0x31
 5002 02b2 13       		.uleb128 0x13
 5003 02b3 02       		.uleb128 0x2
 5004 02b4 18       		.uleb128 0x18
 5005 02b5 00       		.byte	0
 5006 02b6 00       		.byte	0
 5007 02b7 33       		.uleb128 0x33
 5008 02b8 2E       		.uleb128 0x2e
 5009 02b9 01       		.byte	0x1
 5010 02ba 3F       		.uleb128 0x3f
 5011 02bb 19       		.uleb128 0x19
 5012 02bc 03       		.uleb128 0x3
 5013 02bd 0E       		.uleb128 0xe
 5014 02be 3A       		.uleb128 0x3a
 5015 02bf 0B       		.uleb128 0xb
 5016 02c0 3B       		.uleb128 0x3b
 5017 02c1 05       		.uleb128 0x5
 5018 02c2 27       		.uleb128 0x27
 5019 02c3 19       		.uleb128 0x19
 5020 02c4 49       		.uleb128 0x49
 5021 02c5 13       		.uleb128 0x13
 5022 02c6 11       		.uleb128 0x11
 5023 02c7 01       		.uleb128 0x1
 5024 02c8 12       		.uleb128 0x12
 5025 02c9 06       		.uleb128 0x6
 5026 02ca 40       		.uleb128 0x40
 5027 02cb 18       		.uleb128 0x18
 5028 02cc 9742     		.uleb128 0x2117
 5029 02ce 19       		.uleb128 0x19
 5030 02cf 01       		.uleb128 0x1
 5031 02d0 13       		.uleb128 0x13
 5032 02d1 00       		.byte	0
 5033 02d2 00       		.byte	0
 5034 02d3 34       		.uleb128 0x34
 5035 02d4 05       		.uleb128 0x5
ARM GAS  /var/folders/f9/8bk2lnw15zn4cbgn6wrnb4lm0000gn/T//cc47W8rL.s 			page 108


 5036 02d5 00       		.byte	0
 5037 02d6 03       		.uleb128 0x3
 5038 02d7 0E       		.uleb128 0xe
 5039 02d8 3A       		.uleb128 0x3a
 5040 02d9 0B       		.uleb128 0xb
 5041 02da 3B       		.uleb128 0x3b
 5042 02db 05       		.uleb128 0x5
 5043 02dc 49       		.uleb128 0x49
 5044 02dd 13       		.uleb128 0x13
 5045 02de 02       		.uleb128 0x2
 5046 02df 17       		.uleb128 0x17
 5047 02e0 00       		.byte	0
 5048 02e1 00       		.byte	0
 5049 02e2 35       		.uleb128 0x35
 5050 02e3 34       		.uleb128 0x34
 5051 02e4 00       		.byte	0
 5052 02e5 03       		.uleb128 0x3
 5053 02e6 0E       		.uleb128 0xe
 5054 02e7 3A       		.uleb128 0x3a
 5055 02e8 0B       		.uleb128 0xb
 5056 02e9 3B       		.uleb128 0x3b
 5057 02ea 05       		.uleb128 0x5
 5058 02eb 49       		.uleb128 0x49
 5059 02ec 13       		.uleb128 0x13
 5060 02ed 02       		.uleb128 0x2
 5061 02ee 17       		.uleb128 0x17
 5062 02ef 00       		.byte	0
 5063 02f0 00       		.byte	0
 5064 02f1 36       		.uleb128 0x36
 5065 02f2 1D       		.uleb128 0x1d
 5066 02f3 01       		.byte	0x1
 5067 02f4 31       		.uleb128 0x31
 5068 02f5 13       		.uleb128 0x13
 5069 02f6 52       		.uleb128 0x52
 5070 02f7 01       		.uleb128 0x1
 5071 02f8 55       		.uleb128 0x55
 5072 02f9 17       		.uleb128 0x17
 5073 02fa 58       		.uleb128 0x58
 5074 02fb 0B       		.uleb128 0xb
 5075 02fc 59       		.uleb128 0x59
 5076 02fd 05       		.uleb128 0x5
 5077 02fe 00       		.byte	0
 5078 02ff 00       		.byte	0
 5079 0300 37       		.uleb128 0x37
 5080 0301 1D       		.uleb128 0x1d
 5081 0302 01       		.byte	0x1
 5082 0303 31       		.uleb128 0x31
 5083 0304 13       		.uleb128 0x13
 5084 0305 11       		.uleb128 0x11
 5085 0306 01       		.uleb128 0x1
 5086 0307 12       		.uleb128 0x12
 5087 0308 06       		.uleb128 0x6
 5088 0309 58       		.uleb128 0x58
 5089 030a 0B       		.uleb128 0xb
 5090 030b 59       		.uleb128 0x59
 5091 030c 05       		.uleb128 0x5
 5092 030d 00       		.byte	0
ARM GAS  /var/folders/f9/8bk2lnw15zn4cbgn6wrnb4lm0000gn/T//cc47W8rL.s 			page 109


 5093 030e 00       		.byte	0
 5094 030f 38       		.uleb128 0x38
 5095 0310 05       		.uleb128 0x5
 5096 0311 00       		.byte	0
 5097 0312 31       		.uleb128 0x31
 5098 0313 13       		.uleb128 0x13
 5099 0314 00       		.byte	0
 5100 0315 00       		.byte	0
 5101 0316 39       		.uleb128 0x39
 5102 0317 2E       		.uleb128 0x2e
 5103 0318 01       		.byte	0x1
 5104 0319 3F       		.uleb128 0x3f
 5105 031a 19       		.uleb128 0x19
 5106 031b 03       		.uleb128 0x3
 5107 031c 0E       		.uleb128 0xe
 5108 031d 3A       		.uleb128 0x3a
 5109 031e 0B       		.uleb128 0xb
 5110 031f 3B       		.uleb128 0x3b
 5111 0320 05       		.uleb128 0x5
 5112 0321 27       		.uleb128 0x27
 5113 0322 19       		.uleb128 0x19
 5114 0323 11       		.uleb128 0x11
 5115 0324 01       		.uleb128 0x1
 5116 0325 12       		.uleb128 0x12
 5117 0326 06       		.uleb128 0x6
 5118 0327 40       		.uleb128 0x40
 5119 0328 18       		.uleb128 0x18
 5120 0329 9642     		.uleb128 0x2116
 5121 032b 19       		.uleb128 0x19
 5122 032c 01       		.uleb128 0x1
 5123 032d 13       		.uleb128 0x13
 5124 032e 00       		.byte	0
 5125 032f 00       		.byte	0
 5126 0330 3A       		.uleb128 0x3a
 5127 0331 898201   		.uleb128 0x4109
 5128 0334 00       		.byte	0
 5129 0335 11       		.uleb128 0x11
 5130 0336 01       		.uleb128 0x1
 5131 0337 31       		.uleb128 0x31
 5132 0338 13       		.uleb128 0x13
 5133 0339 00       		.byte	0
 5134 033a 00       		.byte	0
 5135 033b 3B       		.uleb128 0x3b
 5136 033c 2E       		.uleb128 0x2e
 5137 033d 01       		.byte	0x1
 5138 033e 3F       		.uleb128 0x3f
 5139 033f 19       		.uleb128 0x19
 5140 0340 03       		.uleb128 0x3
 5141 0341 0E       		.uleb128 0xe
 5142 0342 3A       		.uleb128 0x3a
 5143 0343 0B       		.uleb128 0xb
 5144 0344 3B       		.uleb128 0x3b
 5145 0345 05       		.uleb128 0x5
 5146 0346 27       		.uleb128 0x27
 5147 0347 19       		.uleb128 0x19
 5148 0348 49       		.uleb128 0x49
 5149 0349 13       		.uleb128 0x13
ARM GAS  /var/folders/f9/8bk2lnw15zn4cbgn6wrnb4lm0000gn/T//cc47W8rL.s 			page 110


 5150 034a 11       		.uleb128 0x11
 5151 034b 01       		.uleb128 0x1
 5152 034c 12       		.uleb128 0x12
 5153 034d 06       		.uleb128 0x6
 5154 034e 40       		.uleb128 0x40
 5155 034f 18       		.uleb128 0x18
 5156 0350 9642     		.uleb128 0x2116
 5157 0352 19       		.uleb128 0x19
 5158 0353 01       		.uleb128 0x1
 5159 0354 13       		.uleb128 0x13
 5160 0355 00       		.byte	0
 5161 0356 00       		.byte	0
 5162 0357 3C       		.uleb128 0x3c
 5163 0358 1D       		.uleb128 0x1d
 5164 0359 01       		.byte	0x1
 5165 035a 31       		.uleb128 0x31
 5166 035b 13       		.uleb128 0x13
 5167 035c 11       		.uleb128 0x11
 5168 035d 01       		.uleb128 0x1
 5169 035e 12       		.uleb128 0x12
 5170 035f 06       		.uleb128 0x6
 5171 0360 58       		.uleb128 0x58
 5172 0361 0B       		.uleb128 0xb
 5173 0362 59       		.uleb128 0x59
 5174 0363 05       		.uleb128 0x5
 5175 0364 01       		.uleb128 0x1
 5176 0365 13       		.uleb128 0x13
 5177 0366 00       		.byte	0
 5178 0367 00       		.byte	0
 5179 0368 3D       		.uleb128 0x3d
 5180 0369 898201   		.uleb128 0x4109
 5181 036c 01       		.byte	0x1
 5182 036d 11       		.uleb128 0x11
 5183 036e 01       		.uleb128 0x1
 5184 036f 01       		.uleb128 0x1
 5185 0370 13       		.uleb128 0x13
 5186 0371 00       		.byte	0
 5187 0372 00       		.byte	0
 5188 0373 3E       		.uleb128 0x3e
 5189 0374 8A8201   		.uleb128 0x410a
 5190 0377 00       		.byte	0
 5191 0378 02       		.uleb128 0x2
 5192 0379 18       		.uleb128 0x18
 5193 037a 9142     		.uleb128 0x2111
 5194 037c 18       		.uleb128 0x18
 5195 037d 00       		.byte	0
 5196 037e 00       		.byte	0
 5197 037f 3F       		.uleb128 0x3f
 5198 0380 898201   		.uleb128 0x4109
 5199 0383 01       		.byte	0x1
 5200 0384 11       		.uleb128 0x11
 5201 0385 01       		.uleb128 0x1
 5202 0386 00       		.byte	0
 5203 0387 00       		.byte	0
 5204 0388 40       		.uleb128 0x40
 5205 0389 898201   		.uleb128 0x4109
 5206 038c 01       		.byte	0x1
ARM GAS  /var/folders/f9/8bk2lnw15zn4cbgn6wrnb4lm0000gn/T//cc47W8rL.s 			page 111


 5207 038d 11       		.uleb128 0x11
 5208 038e 01       		.uleb128 0x1
 5209 038f 31       		.uleb128 0x31
 5210 0390 13       		.uleb128 0x13
 5211 0391 00       		.byte	0
 5212 0392 00       		.byte	0
 5213 0393 41       		.uleb128 0x41
 5214 0394 05       		.uleb128 0x5
 5215 0395 00       		.byte	0
 5216 0396 03       		.uleb128 0x3
 5217 0397 08       		.uleb128 0x8
 5218 0398 3A       		.uleb128 0x3a
 5219 0399 0B       		.uleb128 0xb
 5220 039a 3B       		.uleb128 0x3b
 5221 039b 05       		.uleb128 0x5
 5222 039c 49       		.uleb128 0x49
 5223 039d 13       		.uleb128 0x13
 5224 039e 02       		.uleb128 0x2
 5225 039f 18       		.uleb128 0x18
 5226 03a0 00       		.byte	0
 5227 03a1 00       		.byte	0
 5228 03a2 42       		.uleb128 0x42
 5229 03a3 1D       		.uleb128 0x1d
 5230 03a4 01       		.byte	0x1
 5231 03a5 31       		.uleb128 0x31
 5232 03a6 13       		.uleb128 0x13
 5233 03a7 52       		.uleb128 0x52
 5234 03a8 01       		.uleb128 0x1
 5235 03a9 55       		.uleb128 0x55
 5236 03aa 17       		.uleb128 0x17
 5237 03ab 58       		.uleb128 0x58
 5238 03ac 0B       		.uleb128 0xb
 5239 03ad 59       		.uleb128 0x59
 5240 03ae 05       		.uleb128 0x5
 5241 03af 01       		.uleb128 0x1
 5242 03b0 13       		.uleb128 0x13
 5243 03b1 00       		.byte	0
 5244 03b2 00       		.byte	0
 5245 03b3 43       		.uleb128 0x43
 5246 03b4 0B       		.uleb128 0xb
 5247 03b5 01       		.byte	0x1
 5248 03b6 55       		.uleb128 0x55
 5249 03b7 17       		.uleb128 0x17
 5250 03b8 00       		.byte	0
 5251 03b9 00       		.byte	0
 5252 03ba 44       		.uleb128 0x44
 5253 03bb 34       		.uleb128 0x34
 5254 03bc 00       		.byte	0
 5255 03bd 31       		.uleb128 0x31
 5256 03be 13       		.uleb128 0x13
 5257 03bf 02       		.uleb128 0x2
 5258 03c0 17       		.uleb128 0x17
 5259 03c1 00       		.byte	0
 5260 03c2 00       		.byte	0
 5261 03c3 45       		.uleb128 0x45
 5262 03c4 0B       		.uleb128 0xb
 5263 03c5 01       		.byte	0x1
ARM GAS  /var/folders/f9/8bk2lnw15zn4cbgn6wrnb4lm0000gn/T//cc47W8rL.s 			page 112


 5264 03c6 11       		.uleb128 0x11
 5265 03c7 01       		.uleb128 0x1
 5266 03c8 12       		.uleb128 0x12
 5267 03c9 06       		.uleb128 0x6
 5268 03ca 00       		.byte	0
 5269 03cb 00       		.byte	0
 5270 03cc 46       		.uleb128 0x46
 5271 03cd 0B       		.uleb128 0xb
 5272 03ce 01       		.byte	0x1
 5273 03cf 11       		.uleb128 0x11
 5274 03d0 01       		.uleb128 0x1
 5275 03d1 12       		.uleb128 0x12
 5276 03d2 06       		.uleb128 0x6
 5277 03d3 01       		.uleb128 0x1
 5278 03d4 13       		.uleb128 0x13
 5279 03d5 00       		.byte	0
 5280 03d6 00       		.byte	0
 5281 03d7 47       		.uleb128 0x47
 5282 03d8 34       		.uleb128 0x34
 5283 03d9 00       		.byte	0
 5284 03da 03       		.uleb128 0x3
 5285 03db 08       		.uleb128 0x8
 5286 03dc 3A       		.uleb128 0x3a
 5287 03dd 0B       		.uleb128 0xb
 5288 03de 3B       		.uleb128 0x3b
 5289 03df 05       		.uleb128 0x5
 5290 03e0 49       		.uleb128 0x49
 5291 03e1 13       		.uleb128 0x13
 5292 03e2 02       		.uleb128 0x2
 5293 03e3 18       		.uleb128 0x18
 5294 03e4 00       		.byte	0
 5295 03e5 00       		.byte	0
 5296 03e6 48       		.uleb128 0x48
 5297 03e7 2E       		.uleb128 0x2e
 5298 03e8 01       		.byte	0x1
 5299 03e9 31       		.uleb128 0x31
 5300 03ea 13       		.uleb128 0x13
 5301 03eb 11       		.uleb128 0x11
 5302 03ec 01       		.uleb128 0x1
 5303 03ed 12       		.uleb128 0x12
 5304 03ee 06       		.uleb128 0x6
 5305 03ef 40       		.uleb128 0x40
 5306 03f0 18       		.uleb128 0x18
 5307 03f1 9742     		.uleb128 0x2117
 5308 03f3 19       		.uleb128 0x19
 5309 03f4 01       		.uleb128 0x1
 5310 03f5 13       		.uleb128 0x13
 5311 03f6 00       		.byte	0
 5312 03f7 00       		.byte	0
 5313 03f8 49       		.uleb128 0x49
 5314 03f9 34       		.uleb128 0x34
 5315 03fa 00       		.byte	0
 5316 03fb 03       		.uleb128 0x3
 5317 03fc 08       		.uleb128 0x8
 5318 03fd 3A       		.uleb128 0x3a
 5319 03fe 0B       		.uleb128 0xb
 5320 03ff 3B       		.uleb128 0x3b
ARM GAS  /var/folders/f9/8bk2lnw15zn4cbgn6wrnb4lm0000gn/T//cc47W8rL.s 			page 113


 5321 0400 0B       		.uleb128 0xb
 5322 0401 49       		.uleb128 0x49
 5323 0402 13       		.uleb128 0x13
 5324 0403 02       		.uleb128 0x2
 5325 0404 18       		.uleb128 0x18
 5326 0405 00       		.byte	0
 5327 0406 00       		.byte	0
 5328 0407 4A       		.uleb128 0x4a
 5329 0408 34       		.uleb128 0x34
 5330 0409 00       		.byte	0
 5331 040a 03       		.uleb128 0x3
 5332 040b 0E       		.uleb128 0xe
 5333 040c 3A       		.uleb128 0x3a
 5334 040d 0B       		.uleb128 0xb
 5335 040e 3B       		.uleb128 0x3b
 5336 040f 0B       		.uleb128 0xb
 5337 0410 49       		.uleb128 0x49
 5338 0411 13       		.uleb128 0x13
 5339 0412 02       		.uleb128 0x2
 5340 0413 18       		.uleb128 0x18
 5341 0414 00       		.byte	0
 5342 0415 00       		.byte	0
 5343 0416 4B       		.uleb128 0x4b
 5344 0417 34       		.uleb128 0x34
 5345 0418 00       		.byte	0
 5346 0419 03       		.uleb128 0x3
 5347 041a 0E       		.uleb128 0xe
 5348 041b 3A       		.uleb128 0x3a
 5349 041c 0B       		.uleb128 0xb
 5350 041d 3B       		.uleb128 0x3b
 5351 041e 0B       		.uleb128 0xb
 5352 041f 49       		.uleb128 0x49
 5353 0420 13       		.uleb128 0x13
 5354 0421 3F       		.uleb128 0x3f
 5355 0422 19       		.uleb128 0x19
 5356 0423 3C       		.uleb128 0x3c
 5357 0424 19       		.uleb128 0x19
 5358 0425 00       		.byte	0
 5359 0426 00       		.byte	0
 5360 0427 4C       		.uleb128 0x4c
 5361 0428 2E       		.uleb128 0x2e
 5362 0429 00       		.byte	0
 5363 042a 3F       		.uleb128 0x3f
 5364 042b 19       		.uleb128 0x19
 5365 042c 03       		.uleb128 0x3
 5366 042d 0E       		.uleb128 0xe
 5367 042e 3A       		.uleb128 0x3a
 5368 042f 0B       		.uleb128 0xb
 5369 0430 3B       		.uleb128 0x3b
 5370 0431 05       		.uleb128 0x5
 5371 0432 27       		.uleb128 0x27
 5372 0433 19       		.uleb128 0x19
 5373 0434 49       		.uleb128 0x49
 5374 0435 13       		.uleb128 0x13
 5375 0436 3C       		.uleb128 0x3c
 5376 0437 19       		.uleb128 0x19
 5377 0438 00       		.byte	0
ARM GAS  /var/folders/f9/8bk2lnw15zn4cbgn6wrnb4lm0000gn/T//cc47W8rL.s 			page 114


 5378 0439 00       		.byte	0
 5379 043a 00       		.byte	0
 5380              		.section	.debug_loc,"",%progbits
 5381              	.Ldebug_loc0:
 5382              	.LLST0:
 5383 0000 00000000 		.4byte	.LVL0
 5384 0004 04000000 		.4byte	.LVL1
 5385 0008 0100     		.2byte	0x1
 5386 000a 50       		.byte	0x50
 5387 000b 04000000 		.4byte	.LVL1
 5388 000f 06000000 		.4byte	.LVL2
 5389 0013 0400     		.2byte	0x4
 5390 0015 F3       		.byte	0xf3
 5391 0016 01       		.uleb128 0x1
 5392 0017 50       		.byte	0x50
 5393 0018 9F       		.byte	0x9f
 5394 0019 06000000 		.4byte	.LVL2
 5395 001d 0A000000 		.4byte	.LVL3
 5396 0021 0100     		.2byte	0x1
 5397 0023 50       		.byte	0x50
 5398 0024 0A000000 		.4byte	.LVL3
 5399 0028 20000000 		.4byte	.LFE212
 5400 002c 0400     		.2byte	0x4
 5401 002e F3       		.byte	0xf3
 5402 002f 01       		.uleb128 0x1
 5403 0030 50       		.byte	0x50
 5404 0031 9F       		.byte	0x9f
 5405 0032 00000000 		.4byte	0
 5406 0036 00000000 		.4byte	0
 5407              	.LLST1:
 5408 003a 00000000 		.4byte	.LVL0
 5409 003e 04000000 		.4byte	.LVL1
 5410 0042 0E00     		.2byte	0xe
 5411 0044 70       		.byte	0x70
 5412 0045 00       		.sleb128 0
 5413 0046 08       		.byte	0x8
 5414 0047 FF       		.byte	0xff
 5415 0048 1A       		.byte	0x1a
 5416 0049 4C       		.byte	0x4c
 5417 004a 1E       		.byte	0x1e
 5418 004b 03       		.byte	0x3
 5419 004c 00000000 		.4byte	i2c
 5420 0050 22       		.byte	0x22
 5421 0051 9F       		.byte	0x9f
 5422 0052 06000000 		.4byte	.LVL2
 5423 0056 0A000000 		.4byte	.LVL3
 5424 005a 0E00     		.2byte	0xe
 5425 005c 70       		.byte	0x70
 5426 005d 00       		.sleb128 0
 5427 005e 08       		.byte	0x8
 5428 005f FF       		.byte	0xff
 5429 0060 1A       		.byte	0x1a
 5430 0061 4C       		.byte	0x4c
 5431 0062 1E       		.byte	0x1e
 5432 0063 03       		.byte	0x3
 5433 0064 00000000 		.4byte	i2c
 5434 0068 22       		.byte	0x22
ARM GAS  /var/folders/f9/8bk2lnw15zn4cbgn6wrnb4lm0000gn/T//cc47W8rL.s 			page 115


 5435 0069 9F       		.byte	0x9f
 5436 006a 00000000 		.4byte	0
 5437 006e 00000000 		.4byte	0
 5438              	.LLST2:
 5439 0072 00000000 		.4byte	.LVL5
 5440 0076 06000000 		.4byte	.LVL6
 5441 007a 0100     		.2byte	0x1
 5442 007c 50       		.byte	0x50
 5443 007d 06000000 		.4byte	.LVL6
 5444 0081 44000000 		.4byte	.LVL11
 5445 0085 0100     		.2byte	0x1
 5446 0087 53       		.byte	0x53
 5447 0088 44000000 		.4byte	.LVL11
 5448 008c 4E000000 		.4byte	.LVL13
 5449 0090 0400     		.2byte	0x4
 5450 0092 F3       		.byte	0xf3
 5451 0093 01       		.uleb128 0x1
 5452 0094 50       		.byte	0x50
 5453 0095 9F       		.byte	0x9f
 5454 0096 4E000000 		.4byte	.LVL13
 5455 009a 5A000000 		.4byte	.LVL15
 5456 009e 0100     		.2byte	0x1
 5457 00a0 53       		.byte	0x53
 5458 00a1 5A000000 		.4byte	.LVL15
 5459 00a5 5E000000 		.4byte	.LVL16
 5460 00a9 0400     		.2byte	0x4
 5461 00ab F3       		.byte	0xf3
 5462 00ac 01       		.uleb128 0x1
 5463 00ad 50       		.byte	0x50
 5464 00ae 9F       		.byte	0x9f
 5465 00af 5E000000 		.4byte	.LVL16
 5466 00b3 BC000000 		.4byte	.LVL20
 5467 00b7 0100     		.2byte	0x1
 5468 00b9 53       		.byte	0x53
 5469 00ba BC000000 		.4byte	.LVL20
 5470 00be BE000000 		.4byte	.LVL21
 5471 00c2 0400     		.2byte	0x4
 5472 00c4 F3       		.byte	0xf3
 5473 00c5 01       		.uleb128 0x1
 5474 00c6 50       		.byte	0x50
 5475 00c7 9F       		.byte	0x9f
 5476 00c8 BE000000 		.4byte	.LVL21
 5477 00cc F0000000 		.4byte	.LFE209
 5478 00d0 0100     		.2byte	0x1
 5479 00d2 53       		.byte	0x53
 5480 00d3 00000000 		.4byte	0
 5481 00d7 00000000 		.4byte	0
 5482              	.LLST3:
 5483 00db 00000000 		.4byte	.LVL5
 5484 00df 18000000 		.4byte	.LVL7
 5485 00e3 0300     		.2byte	0x3
 5486 00e5 08       		.byte	0x8
 5487 00e6 3C       		.byte	0x3c
 5488 00e7 9F       		.byte	0x9f
 5489 00e8 18000000 		.4byte	.LVL7
 5490 00ec 32000000 		.4byte	.LVL9
 5491 00f0 0100     		.2byte	0x1
ARM GAS  /var/folders/f9/8bk2lnw15zn4cbgn6wrnb4lm0000gn/T//cc47W8rL.s 			page 116


 5492 00f2 52       		.byte	0x52
 5493 00f3 32000000 		.4byte	.LVL9
 5494 00f7 4C000000 		.4byte	.LVL12
 5495 00fb 0100     		.2byte	0x1
 5496 00fd 54       		.byte	0x54
 5497 00fe 4E000000 		.4byte	.LVL13
 5498 0102 52000000 		.4byte	.LVL14
 5499 0106 0300     		.2byte	0x3
 5500 0108 08       		.byte	0x8
 5501 0109 3C       		.byte	0x3c
 5502 010a 9F       		.byte	0x9f
 5503 010b 52000000 		.4byte	.LVL14
 5504 010f 5A000000 		.4byte	.LVL15
 5505 0113 0300     		.2byte	0x3
 5506 0115 08       		.byte	0x8
 5507 0116 2C       		.byte	0x2c
 5508 0117 9F       		.byte	0x9f
 5509 0118 5E000000 		.4byte	.LVL16
 5510 011c 96000000 		.4byte	.LVL17
 5511 0120 0300     		.2byte	0x3
 5512 0122 08       		.byte	0x8
 5513 0123 3C       		.byte	0x3c
 5514 0124 9F       		.byte	0x9f
 5515 0125 96000000 		.4byte	.LVL17
 5516 0129 98000000 		.4byte	.LVL18
 5517 012d 0300     		.2byte	0x3
 5518 012f 08       		.byte	0x8
 5519 0130 2C       		.byte	0x2c
 5520 0131 9F       		.byte	0x9f
 5521 0132 98000000 		.4byte	.LVL18
 5522 0136 B4000000 		.4byte	.LVL19
 5523 013a 0300     		.2byte	0x3
 5524 013c 08       		.byte	0x8
 5525 013d 3C       		.byte	0x3c
 5526 013e 9F       		.byte	0x9f
 5527 013f B4000000 		.4byte	.LVL19
 5528 0143 BC000000 		.4byte	.LVL20
 5529 0147 0100     		.2byte	0x1
 5530 0149 54       		.byte	0x54
 5531 014a BE000000 		.4byte	.LVL21
 5532 014e CA000000 		.4byte	.LVL22
 5533 0152 0100     		.2byte	0x1
 5534 0154 52       		.byte	0x52
 5535 0155 CA000000 		.4byte	.LVL22
 5536 0159 E8000000 		.4byte	.LVL23
 5537 015d 0300     		.2byte	0x3
 5538 015f 08       		.byte	0x8
 5539 0160 3C       		.byte	0x3c
 5540 0161 9F       		.byte	0x9f
 5541 0162 E8000000 		.4byte	.LVL23
 5542 0166 F0000000 		.4byte	.LFE209
 5543 016a 0300     		.2byte	0x3
 5544 016c 08       		.byte	0x8
 5545 016d 2C       		.byte	0x2c
 5546 016e 9F       		.byte	0x9f
 5547 016f 00000000 		.4byte	0
 5548 0173 00000000 		.4byte	0
ARM GAS  /var/folders/f9/8bk2lnw15zn4cbgn6wrnb4lm0000gn/T//cc47W8rL.s 			page 117


 5549              	.LLST5:
 5550 0177 00000000 		.4byte	.LVL24
 5551 017b 1E000000 		.4byte	.LVL25
 5552 017f 0100     		.2byte	0x1
 5553 0181 50       		.byte	0x50
 5554 0182 1E000000 		.4byte	.LVL25
 5555 0186 20000000 		.4byte	.LVL26
 5556 018a 0400     		.2byte	0x4
 5557 018c F3       		.byte	0xf3
 5558 018d 01       		.uleb128 0x1
 5559 018e 50       		.byte	0x50
 5560 018f 9F       		.byte	0x9f
 5561 0190 20000000 		.4byte	.LVL26
 5562 0194 2C000000 		.4byte	.LVL27
 5563 0198 0100     		.2byte	0x1
 5564 019a 50       		.byte	0x50
 5565 019b 2C000000 		.4byte	.LVL27
 5566 019f 74000000 		.4byte	.LVL38
 5567 01a3 0100     		.2byte	0x1
 5568 01a5 52       		.byte	0x52
 5569 01a6 74000000 		.4byte	.LVL38
 5570 01aa 86000000 		.4byte	.LFE210
 5571 01ae 0400     		.2byte	0x4
 5572 01b0 F3       		.byte	0xf3
 5573 01b1 01       		.uleb128 0x1
 5574 01b2 50       		.byte	0x50
 5575 01b3 9F       		.byte	0x9f
 5576 01b4 00000000 		.4byte	0
 5577 01b8 00000000 		.4byte	0
 5578              	.LLST7:
 5579 01bc 2E000000 		.4byte	.LVL28
 5580 01c0 76000000 		.4byte	.LVL39
 5581 01c4 0100     		.2byte	0x1
 5582 01c6 53       		.byte	0x53
 5583 01c7 00000000 		.4byte	0
 5584 01cb 00000000 		.4byte	0
 5585              	.LLST8:
 5586 01cf 2E000000 		.4byte	.LVL28
 5587 01d3 74000000 		.4byte	.LVL38
 5588 01d7 0100     		.2byte	0x1
 5589 01d9 52       		.byte	0x52
 5590 01da 74000000 		.4byte	.LVL38
 5591 01de 86000000 		.4byte	.LFE210
 5592 01e2 0400     		.2byte	0x4
 5593 01e4 F3       		.byte	0xf3
 5594 01e5 01       		.uleb128 0x1
 5595 01e6 50       		.byte	0x50
 5596 01e7 9F       		.byte	0x9f
 5597 01e8 00000000 		.4byte	0
 5598 01ec 00000000 		.4byte	0
 5599              	.LLST9:
 5600 01f0 36000000 		.4byte	.LVL29
 5601 01f4 3A000000 		.4byte	.LVL30
 5602 01f8 0500     		.2byte	0x5
 5603 01fa 70       		.byte	0x70
 5604 01fb 00       		.sleb128 0
 5605 01fc 31       		.byte	0x31
ARM GAS  /var/folders/f9/8bk2lnw15zn4cbgn6wrnb4lm0000gn/T//cc47W8rL.s 			page 118


 5606 01fd 21       		.byte	0x21
 5607 01fe 9F       		.byte	0x9f
 5608 01ff 00000000 		.4byte	0
 5609 0203 00000000 		.4byte	0
 5610              	.LLST10:
 5611 0207 36000000 		.4byte	.LVL29
 5612 020b 76000000 		.4byte	.LVL39
 5613 020f 0100     		.2byte	0x1
 5614 0211 53       		.byte	0x53
 5615 0212 00000000 		.4byte	0
 5616 0216 00000000 		.4byte	0
 5617              	.LLST11:
 5618 021a 36000000 		.4byte	.LVL29
 5619 021e 3C000000 		.4byte	.LVL31
 5620 0222 0100     		.2byte	0x1
 5621 0224 54       		.byte	0x54
 5622 0225 00000000 		.4byte	0
 5623 0229 00000000 		.4byte	0
 5624              	.LLST12:
 5625 022d 4C000000 		.4byte	.LVL32
 5626 0231 50000000 		.4byte	.LVL34
 5627 0235 0500     		.2byte	0x5
 5628 0237 70       		.byte	0x70
 5629 0238 00       		.sleb128 0
 5630 0239 31       		.byte	0x31
 5631 023a 21       		.byte	0x21
 5632 023b 9F       		.byte	0x9f
 5633 023c 00000000 		.4byte	0
 5634 0240 00000000 		.4byte	0
 5635              	.LLST13:
 5636 0244 4C000000 		.4byte	.LVL32
 5637 0248 76000000 		.4byte	.LVL39
 5638 024c 0100     		.2byte	0x1
 5639 024e 53       		.byte	0x53
 5640 024f 00000000 		.4byte	0
 5641 0253 00000000 		.4byte	0
 5642              	.LLST14:
 5643 0257 4C000000 		.4byte	.LVL32
 5644 025b 4E000000 		.4byte	.LVL33
 5645 025f 0100     		.2byte	0x1
 5646 0261 54       		.byte	0x54
 5647 0262 00000000 		.4byte	0
 5648 0266 00000000 		.4byte	0
 5649              	.LLST15:
 5650 026a 60000000 		.4byte	.LVL35
 5651 026e 64000000 		.4byte	.LVL37
 5652 0272 0500     		.2byte	0x5
 5653 0274 70       		.byte	0x70
 5654 0275 00       		.sleb128 0
 5655 0276 31       		.byte	0x31
 5656 0277 21       		.byte	0x21
 5657 0278 9F       		.byte	0x9f
 5658 0279 00000000 		.4byte	0
 5659 027d 00000000 		.4byte	0
 5660              	.LLST16:
 5661 0281 60000000 		.4byte	.LVL35
 5662 0285 76000000 		.4byte	.LVL39
ARM GAS  /var/folders/f9/8bk2lnw15zn4cbgn6wrnb4lm0000gn/T//cc47W8rL.s 			page 119


 5663 0289 0100     		.2byte	0x1
 5664 028b 53       		.byte	0x53
 5665 028c 00000000 		.4byte	0
 5666 0290 00000000 		.4byte	0
 5667              	.LLST17:
 5668 0294 60000000 		.4byte	.LVL35
 5669 0298 62000000 		.4byte	.LVL36
 5670 029c 0100     		.2byte	0x1
 5671 029e 54       		.byte	0x54
 5672 029f 00000000 		.4byte	0
 5673 02a3 00000000 		.4byte	0
 5674              	.LLST18:
 5675 02a7 74000000 		.4byte	.LVL38
 5676 02ab 76000000 		.4byte	.LVL39
 5677 02af 0100     		.2byte	0x1
 5678 02b1 53       		.byte	0x53
 5679 02b2 00000000 		.4byte	0
 5680 02b6 00000000 		.4byte	0
 5681              	.LLST19:
 5682 02ba 74000000 		.4byte	.LVL38
 5683 02be 7A000000 		.4byte	.LVL40
 5684 02c2 0100     		.2byte	0x1
 5685 02c4 50       		.byte	0x50
 5686 02c5 00000000 		.4byte	0
 5687 02c9 00000000 		.4byte	0
 5688              	.LLST20:
 5689 02cd 00000000 		.4byte	.LVL41
 5690 02d1 0A000000 		.4byte	.LVL43
 5691 02d5 0100     		.2byte	0x1
 5692 02d7 50       		.byte	0x50
 5693 02d8 0A000000 		.4byte	.LVL43
 5694 02dc AC000000 		.4byte	.LFE211
 5695 02e0 0100     		.2byte	0x1
 5696 02e2 53       		.byte	0x53
 5697 02e3 00000000 		.4byte	0
 5698 02e7 00000000 		.4byte	0
 5699              	.LLST21:
 5700 02eb 00000000 		.4byte	.LVL41
 5701 02ef 38000000 		.4byte	.LVL44
 5702 02f3 0100     		.2byte	0x1
 5703 02f5 51       		.byte	0x51
 5704 02f6 38000000 		.4byte	.LVL44
 5705 02fa 42000000 		.4byte	.LVL46
 5706 02fe 0400     		.2byte	0x4
 5707 0300 F3       		.byte	0xf3
 5708 0301 01       		.uleb128 0x1
 5709 0302 51       		.byte	0x51
 5710 0303 9F       		.byte	0x9f
 5711 0304 42000000 		.4byte	.LVL46
 5712 0308 52000000 		.4byte	.LVL47
 5713 030c 0100     		.2byte	0x1
 5714 030e 51       		.byte	0x51
 5715 030f 52000000 		.4byte	.LVL47
 5716 0313 58000000 		.4byte	.LVL48
 5717 0317 0400     		.2byte	0x4
 5718 0319 F3       		.byte	0xf3
 5719 031a 01       		.uleb128 0x1
ARM GAS  /var/folders/f9/8bk2lnw15zn4cbgn6wrnb4lm0000gn/T//cc47W8rL.s 			page 120


 5720 031b 51       		.byte	0x51
 5721 031c 9F       		.byte	0x9f
 5722 031d 58000000 		.4byte	.LVL48
 5723 0321 6E000000 		.4byte	.LVL50
 5724 0325 0100     		.2byte	0x1
 5725 0327 51       		.byte	0x51
 5726 0328 6E000000 		.4byte	.LVL50
 5727 032c 74000000 		.4byte	.LVL51
 5728 0330 0400     		.2byte	0x4
 5729 0332 F3       		.byte	0xf3
 5730 0333 01       		.uleb128 0x1
 5731 0334 51       		.byte	0x51
 5732 0335 9F       		.byte	0x9f
 5733 0336 74000000 		.4byte	.LVL51
 5734 033a 7E000000 		.4byte	.LVL52
 5735 033e 0100     		.2byte	0x1
 5736 0340 51       		.byte	0x51
 5737 0341 7E000000 		.4byte	.LVL52
 5738 0345 86000000 		.4byte	.LVL53
 5739 0349 0400     		.2byte	0x4
 5740 034b F3       		.byte	0xf3
 5741 034c 01       		.uleb128 0x1
 5742 034d 51       		.byte	0x51
 5743 034e 9F       		.byte	0x9f
 5744 034f 86000000 		.4byte	.LVL53
 5745 0353 88000000 		.4byte	.LVL54
 5746 0357 0100     		.2byte	0x1
 5747 0359 51       		.byte	0x51
 5748 035a 88000000 		.4byte	.LVL54
 5749 035e 8E000000 		.4byte	.LVL55
 5750 0362 0400     		.2byte	0x4
 5751 0364 F3       		.byte	0xf3
 5752 0365 01       		.uleb128 0x1
 5753 0366 51       		.byte	0x51
 5754 0367 9F       		.byte	0x9f
 5755 0368 8E000000 		.4byte	.LVL55
 5756 036c 90000000 		.4byte	.LVL56
 5757 0370 0100     		.2byte	0x1
 5758 0372 51       		.byte	0x51
 5759 0373 90000000 		.4byte	.LVL56
 5760 0377 9E000000 		.4byte	.LVL58
 5761 037b 0400     		.2byte	0x4
 5762 037d F3       		.byte	0xf3
 5763 037e 01       		.uleb128 0x1
 5764 037f 51       		.byte	0x51
 5765 0380 9F       		.byte	0x9f
 5766 0381 9E000000 		.4byte	.LVL58
 5767 0385 A0000000 		.4byte	.LVL59
 5768 0389 0100     		.2byte	0x1
 5769 038b 51       		.byte	0x51
 5770 038c A0000000 		.4byte	.LVL59
 5771 0390 AC000000 		.4byte	.LFE211
 5772 0394 0400     		.2byte	0x4
 5773 0396 F3       		.byte	0xf3
 5774 0397 01       		.uleb128 0x1
 5775 0398 51       		.byte	0x51
 5776 0399 9F       		.byte	0x9f
ARM GAS  /var/folders/f9/8bk2lnw15zn4cbgn6wrnb4lm0000gn/T//cc47W8rL.s 			page 121


 5777 039a 00000000 		.4byte	0
 5778 039e 00000000 		.4byte	0
 5779              	.LLST22:
 5780 03a2 00000000 		.4byte	.LVL41
 5781 03a6 3C000000 		.4byte	.LVL45
 5782 03aa 0300     		.2byte	0x3
 5783 03ac 08       		.byte	0x8
 5784 03ad 3C       		.byte	0x3c
 5785 03ae 9F       		.byte	0x9f
 5786 03af 3C000000 		.4byte	.LVL45
 5787 03b3 42000000 		.4byte	.LVL46
 5788 03b7 0100     		.2byte	0x1
 5789 03b9 52       		.byte	0x52
 5790 03ba 42000000 		.4byte	.LVL46
 5791 03be 74000000 		.4byte	.LVL51
 5792 03c2 0300     		.2byte	0x3
 5793 03c4 08       		.byte	0x8
 5794 03c5 3C       		.byte	0x3c
 5795 03c6 9F       		.byte	0x9f
 5796 03c7 74000000 		.4byte	.LVL51
 5797 03cb 86000000 		.4byte	.LVL53
 5798 03cf 0300     		.2byte	0x3
 5799 03d1 08       		.byte	0x8
 5800 03d2 38       		.byte	0x38
 5801 03d3 9F       		.byte	0x9f
 5802 03d4 86000000 		.4byte	.LVL53
 5803 03d8 96000000 		.4byte	.LVL57
 5804 03dc 0300     		.2byte	0x3
 5805 03de 08       		.byte	0x8
 5806 03df 3C       		.byte	0x3c
 5807 03e0 9F       		.byte	0x9f
 5808 03e1 96000000 		.4byte	.LVL57
 5809 03e5 9E000000 		.4byte	.LVL58
 5810 03e9 0300     		.2byte	0x3
 5811 03eb 08       		.byte	0x8
 5812 03ec 38       		.byte	0x38
 5813 03ed 9F       		.byte	0x9f
 5814 03ee 9E000000 		.4byte	.LVL58
 5815 03f2 AC000000 		.4byte	.LFE211
 5816 03f6 0300     		.2byte	0x3
 5817 03f8 08       		.byte	0x8
 5818 03f9 3C       		.byte	0x3c
 5819 03fa 9F       		.byte	0x9f
 5820 03fb 00000000 		.4byte	0
 5821 03ff 00000000 		.4byte	0
 5822              	.LLST23:
 5823 0403 00000000 		.4byte	.LVL41
 5824 0407 3C000000 		.4byte	.LVL45
 5825 040b 0200     		.2byte	0x2
 5826 040d 30       		.byte	0x30
 5827 040e 9F       		.byte	0x9f
 5828 040f 3C000000 		.4byte	.LVL45
 5829 0413 42000000 		.4byte	.LVL46
 5830 0417 0100     		.2byte	0x1
 5831 0419 50       		.byte	0x50
 5832 041a 42000000 		.4byte	.LVL46
 5833 041e 68000000 		.4byte	.LVL49
ARM GAS  /var/folders/f9/8bk2lnw15zn4cbgn6wrnb4lm0000gn/T//cc47W8rL.s 			page 122


 5834 0422 0200     		.2byte	0x2
 5835 0424 30       		.byte	0x30
 5836 0425 9F       		.byte	0x9f
 5837 0426 68000000 		.4byte	.LVL49
 5838 042a 74000000 		.4byte	.LVL51
 5839 042e 0200     		.2byte	0x2
 5840 0430 35       		.byte	0x35
 5841 0431 9F       		.byte	0x9f
 5842 0432 74000000 		.4byte	.LVL51
 5843 0436 86000000 		.4byte	.LVL53
 5844 043a 0200     		.2byte	0x2
 5845 043c 32       		.byte	0x32
 5846 043d 9F       		.byte	0x9f
 5847 043e 86000000 		.4byte	.LVL53
 5848 0442 96000000 		.4byte	.LVL57
 5849 0446 0200     		.2byte	0x2
 5850 0448 30       		.byte	0x30
 5851 0449 9F       		.byte	0x9f
 5852 044a 96000000 		.4byte	.LVL57
 5853 044e 9E000000 		.4byte	.LVL58
 5854 0452 0200     		.2byte	0x2
 5855 0454 32       		.byte	0x32
 5856 0455 9F       		.byte	0x9f
 5857 0456 9E000000 		.4byte	.LVL58
 5858 045a AC000000 		.4byte	.LFE211
 5859 045e 0200     		.2byte	0x2
 5860 0460 35       		.byte	0x35
 5861 0461 9F       		.byte	0x9f
 5862 0462 00000000 		.4byte	0
 5863 0466 00000000 		.4byte	0
 5864              	.LLST24:
 5865 046a 04000000 		.4byte	.LVL42
 5866 046e 0A000000 		.4byte	.LVL43
 5867 0472 0100     		.2byte	0x1
 5868 0474 50       		.byte	0x50
 5869 0475 0A000000 		.4byte	.LVL43
 5870 0479 AC000000 		.4byte	.LFE211
 5871 047d 0100     		.2byte	0x1
 5872 047f 53       		.byte	0x53
 5873 0480 00000000 		.4byte	0
 5874 0484 00000000 		.4byte	0
 5875              	.LLST25:
 5876 0488 00000000 		.4byte	.LVL60
 5877 048c 08000000 		.4byte	.LVL61
 5878 0490 0100     		.2byte	0x1
 5879 0492 50       		.byte	0x50
 5880 0493 08000000 		.4byte	.LVL61
 5881 0497 30000000 		.4byte	.LFE214
 5882 049b 0400     		.2byte	0x4
 5883 049d F3       		.byte	0xf3
 5884 049e 01       		.uleb128 0x1
 5885 049f 50       		.byte	0x50
 5886 04a0 9F       		.byte	0x9f
 5887 04a1 00000000 		.4byte	0
 5888 04a5 00000000 		.4byte	0
 5889              	.LLST26:
 5890 04a9 00000000 		.4byte	.LVL60
ARM GAS  /var/folders/f9/8bk2lnw15zn4cbgn6wrnb4lm0000gn/T//cc47W8rL.s 			page 123


 5891 04ad 08000000 		.4byte	.LVL61
 5892 04b1 0100     		.2byte	0x1
 5893 04b3 50       		.byte	0x50
 5894 04b4 00000000 		.4byte	0
 5895 04b8 00000000 		.4byte	0
 5896              	.LLST27:
 5897 04bc 00000000 		.4byte	.LVL60
 5898 04c0 08000000 		.4byte	.LVL61
 5899 04c4 0A00     		.2byte	0xa
 5900 04c6 70       		.byte	0x70
 5901 04c7 00       		.sleb128 0
 5902 04c8 4C       		.byte	0x4c
 5903 04c9 1E       		.byte	0x1e
 5904 04ca 03       		.byte	0x3
 5905 04cb 04000000 		.4byte	i2c+4
 5906 04cf 22       		.byte	0x22
 5907 04d0 00000000 		.4byte	0
 5908 04d4 00000000 		.4byte	0
 5909              	.LLST28:
 5910 04d8 00000000 		.4byte	.LVL62
 5911 04dc 08000000 		.4byte	.LVL63
 5912 04e0 0100     		.2byte	0x1
 5913 04e2 50       		.byte	0x50
 5914 04e3 08000000 		.4byte	.LVL63
 5915 04e7 2C000000 		.4byte	.LFE215
 5916 04eb 0400     		.2byte	0x4
 5917 04ed F3       		.byte	0xf3
 5918 04ee 01       		.uleb128 0x1
 5919 04ef 50       		.byte	0x50
 5920 04f0 9F       		.byte	0x9f
 5921 04f1 00000000 		.4byte	0
 5922 04f5 00000000 		.4byte	0
 5923              	.LLST29:
 5924 04f9 00000000 		.4byte	.LVL65
 5925 04fd 09000000 		.4byte	.LVL66-1
 5926 0501 0100     		.2byte	0x1
 5927 0503 50       		.byte	0x50
 5928 0504 09000000 		.4byte	.LVL66-1
 5929 0508 2C000000 		.4byte	.LFE216
 5930 050c 0400     		.2byte	0x4
 5931 050e F3       		.byte	0xf3
 5932 050f 01       		.uleb128 0x1
 5933 0510 50       		.byte	0x50
 5934 0511 9F       		.byte	0x9f
 5935 0512 00000000 		.4byte	0
 5936 0516 00000000 		.4byte	0
 5937              	.LLST30:
 5938 051a 00000000 		.4byte	.LVL65
 5939 051e 09000000 		.4byte	.LVL66-1
 5940 0522 0100     		.2byte	0x1
 5941 0524 51       		.byte	0x51
 5942 0525 09000000 		.4byte	.LVL66-1
 5943 0529 24000000 		.4byte	.LVL69
 5944 052d 0100     		.2byte	0x1
 5945 052f 55       		.byte	0x55
 5946 0530 24000000 		.4byte	.LVL69
 5947 0534 2C000000 		.4byte	.LFE216
ARM GAS  /var/folders/f9/8bk2lnw15zn4cbgn6wrnb4lm0000gn/T//cc47W8rL.s 			page 124


 5948 0538 0400     		.2byte	0x4
 5949 053a F3       		.byte	0xf3
 5950 053b 01       		.uleb128 0x1
 5951 053c 51       		.byte	0x51
 5952 053d 9F       		.byte	0x9f
 5953 053e 00000000 		.4byte	0
 5954 0542 00000000 		.4byte	0
 5955              	.LLST31:
 5956 0546 10000000 		.4byte	.LVL67
 5957 054a 22000000 		.4byte	.LVL68
 5958 054e 0100     		.2byte	0x1
 5959 0550 50       		.byte	0x50
 5960 0551 00000000 		.4byte	0
 5961 0555 00000000 		.4byte	0
 5962              	.LLST32:
 5963 0559 00000000 		.4byte	.LVL70
 5964 055d 07000000 		.4byte	.LVL71-1
 5965 0561 0100     		.2byte	0x1
 5966 0563 50       		.byte	0x50
 5967 0564 07000000 		.4byte	.LVL71-1
 5968 0568 24000000 		.4byte	.LFE217
 5969 056c 0400     		.2byte	0x4
 5970 056e F3       		.byte	0xf3
 5971 056f 01       		.uleb128 0x1
 5972 0570 50       		.byte	0x50
 5973 0571 9F       		.byte	0x9f
 5974 0572 00000000 		.4byte	0
 5975 0576 00000000 		.4byte	0
 5976              	.LLST33:
 5977 057a 00000000 		.4byte	.LVL73
 5978 057e 04000000 		.4byte	.LVL74
 5979 0582 0100     		.2byte	0x1
 5980 0584 50       		.byte	0x50
 5981 0585 04000000 		.4byte	.LVL74
 5982 0589 24000000 		.4byte	.LFE218
 5983 058d 0400     		.2byte	0x4
 5984 058f F3       		.byte	0xf3
 5985 0590 01       		.uleb128 0x1
 5986 0591 50       		.byte	0x50
 5987 0592 9F       		.byte	0x9f
 5988 0593 00000000 		.4byte	0
 5989 0597 00000000 		.4byte	0
 5990              	.LLST34:
 5991 059b 00000000 		.4byte	.LVL73
 5992 059f 18000000 		.4byte	.LVL77
 5993 05a3 0100     		.2byte	0x1
 5994 05a5 51       		.byte	0x51
 5995 05a6 18000000 		.4byte	.LVL77
 5996 05aa 1A000000 		.4byte	.LVL78
 5997 05ae 0400     		.2byte	0x4
 5998 05b0 F3       		.byte	0xf3
 5999 05b1 01       		.uleb128 0x1
 6000 05b2 51       		.byte	0x51
 6001 05b3 9F       		.byte	0x9f
 6002 05b4 1A000000 		.4byte	.LVL78
 6003 05b8 24000000 		.4byte	.LFE218
 6004 05bc 0100     		.2byte	0x1
ARM GAS  /var/folders/f9/8bk2lnw15zn4cbgn6wrnb4lm0000gn/T//cc47W8rL.s 			page 125


 6005 05be 51       		.byte	0x51
 6006 05bf 00000000 		.4byte	0
 6007 05c3 00000000 		.4byte	0
 6008              	.LLST35:
 6009 05c7 0A000000 		.4byte	.LVL75
 6010 05cb 12000000 		.4byte	.LVL76
 6011 05cf 0100     		.2byte	0x1
 6012 05d1 50       		.byte	0x50
 6013 05d2 1A000000 		.4byte	.LVL78
 6014 05d6 1E000000 		.4byte	.LVL79
 6015 05da 0100     		.2byte	0x1
 6016 05dc 50       		.byte	0x50
 6017 05dd 00000000 		.4byte	0
 6018 05e1 00000000 		.4byte	0
 6019              	.LLST36:
 6020 05e5 00000000 		.4byte	.LVL80
 6021 05e9 04000000 		.4byte	.LVL81
 6022 05ed 0100     		.2byte	0x1
 6023 05ef 50       		.byte	0x50
 6024 05f0 04000000 		.4byte	.LVL81
 6025 05f4 14000000 		.4byte	.LFE219
 6026 05f8 0400     		.2byte	0x4
 6027 05fa F3       		.byte	0xf3
 6028 05fb 01       		.uleb128 0x1
 6029 05fc 50       		.byte	0x50
 6030 05fd 9F       		.byte	0x9f
 6031 05fe 00000000 		.4byte	0
 6032 0602 00000000 		.4byte	0
 6033              	.LLST37:
 6034 0606 00000000 		.4byte	.LVL82
 6035 060a 15000000 		.4byte	.LVL85-1
 6036 060e 0100     		.2byte	0x1
 6037 0610 50       		.byte	0x50
 6038 0611 15000000 		.4byte	.LVL85-1
 6039 0615 68000000 		.4byte	.LFE220
 6040 0619 0400     		.2byte	0x4
 6041 061b F3       		.byte	0xf3
 6042 061c 01       		.uleb128 0x1
 6043 061d 50       		.byte	0x50
 6044 061e 9F       		.byte	0x9f
 6045 061f 00000000 		.4byte	0
 6046 0623 00000000 		.4byte	0
 6047              	.LLST38:
 6048 0627 00000000 		.4byte	.LVL82
 6049 062b 12000000 		.4byte	.LVL84
 6050 062f 0100     		.2byte	0x1
 6051 0631 51       		.byte	0x51
 6052 0632 12000000 		.4byte	.LVL84
 6053 0636 54000000 		.4byte	.LVL93
 6054 063a 0100     		.2byte	0x1
 6055 063c 57       		.byte	0x57
 6056 063d 54000000 		.4byte	.LVL93
 6057 0641 56000000 		.4byte	.LVL94
 6058 0645 0400     		.2byte	0x4
 6059 0647 F3       		.byte	0xf3
 6060 0648 01       		.uleb128 0x1
 6061 0649 51       		.byte	0x51
ARM GAS  /var/folders/f9/8bk2lnw15zn4cbgn6wrnb4lm0000gn/T//cc47W8rL.s 			page 126


 6062 064a 9F       		.byte	0x9f
 6063 064b 56000000 		.4byte	.LVL94
 6064 064f 68000000 		.4byte	.LFE220
 6065 0653 0100     		.2byte	0x1
 6066 0655 57       		.byte	0x57
 6067 0656 00000000 		.4byte	0
 6068 065a 00000000 		.4byte	0
 6069              	.LLST39:
 6070 065e 0C000000 		.4byte	.LVL83
 6071 0662 54000000 		.4byte	.LVL91
 6072 0666 0100     		.2byte	0x1
 6073 0668 55       		.byte	0x55
 6074 0669 54000000 		.4byte	.LVL91
 6075 066d 54000000 		.4byte	.LVL92
 6076 0671 1000     		.2byte	0x10
 6077 0673 76       		.byte	0x76
 6078 0674 00       		.sleb128 0
 6079 0675 33       		.byte	0x33
 6080 0676 24       		.byte	0x24
 6081 0677 76       		.byte	0x76
 6082 0678 00       		.sleb128 0
 6083 0679 1C       		.byte	0x1c
 6084 067a 32       		.byte	0x32
 6085 067b 24       		.byte	0x24
 6086 067c 03       		.byte	0x3
 6087 067d 00000000 		.4byte	.LANCHOR0
 6088 0681 22       		.byte	0x22
 6089 0682 9F       		.byte	0x9f
 6090 0683 56000000 		.4byte	.LVL94
 6091 0687 68000000 		.4byte	.LFE220
 6092 068b 0100     		.2byte	0x1
 6093 068d 55       		.byte	0x55
 6094 068e 00000000 		.4byte	0
 6095 0692 00000000 		.4byte	0
 6096              	.LLST40:
 6097 0696 32000000 		.4byte	.LVL87
 6098 069a 51000000 		.4byte	.LVL90-1
 6099 069e 0100     		.2byte	0x1
 6100 06a0 52       		.byte	0x52
 6101 06a1 00000000 		.4byte	0
 6102 06a5 00000000 		.4byte	0
 6103              	.LLST41:
 6104 06a9 42000000 		.4byte	.LVL88
 6105 06ad 4A000000 		.4byte	.LVL89
 6106 06b1 0100     		.2byte	0x1
 6107 06b3 52       		.byte	0x52
 6108 06b4 00000000 		.4byte	0
 6109 06b8 00000000 		.4byte	0
 6110              	.LLST42:
 6111 06bc 00000000 		.4byte	.LVL96
 6112 06c0 10000000 		.4byte	.LVL98
 6113 06c4 0100     		.2byte	0x1
 6114 06c6 50       		.byte	0x50
 6115 06c7 10000000 		.4byte	.LVL98
 6116 06cb 24000000 		.4byte	.LFE221
 6117 06cf 0400     		.2byte	0x4
 6118 06d1 F3       		.byte	0xf3
ARM GAS  /var/folders/f9/8bk2lnw15zn4cbgn6wrnb4lm0000gn/T//cc47W8rL.s 			page 127


 6119 06d2 01       		.uleb128 0x1
 6120 06d3 50       		.byte	0x50
 6121 06d4 9F       		.byte	0x9f
 6122 06d5 00000000 		.4byte	0
 6123 06d9 00000000 		.4byte	0
 6124              	.LLST43:
 6125 06dd 00000000 		.4byte	.LVL96
 6126 06e1 10000000 		.4byte	.LVL98
 6127 06e5 0100     		.2byte	0x1
 6128 06e7 51       		.byte	0x51
 6129 06e8 10000000 		.4byte	.LVL98
 6130 06ec 24000000 		.4byte	.LFE221
 6131 06f0 0400     		.2byte	0x4
 6132 06f2 F3       		.byte	0xf3
 6133 06f3 01       		.uleb128 0x1
 6134 06f4 51       		.byte	0x51
 6135 06f5 9F       		.byte	0x9f
 6136 06f6 00000000 		.4byte	0
 6137 06fa 00000000 		.4byte	0
 6138              	.LLST44:
 6139 06fe 00000000 		.4byte	.LVL96
 6140 0702 10000000 		.4byte	.LVL98
 6141 0706 0100     		.2byte	0x1
 6142 0708 52       		.byte	0x52
 6143 0709 10000000 		.4byte	.LVL98
 6144 070d 24000000 		.4byte	.LFE221
 6145 0711 0400     		.2byte	0x4
 6146 0713 F3       		.byte	0xf3
 6147 0714 01       		.uleb128 0x1
 6148 0715 52       		.byte	0x52
 6149 0716 9F       		.byte	0x9f
 6150 0717 00000000 		.4byte	0
 6151 071b 00000000 		.4byte	0
 6152              	.LLST45:
 6153 071f 00000000 		.4byte	.LVL96
 6154 0723 08000000 		.4byte	.LVL97
 6155 0727 0100     		.2byte	0x1
 6156 0729 53       		.byte	0x53
 6157 072a 08000000 		.4byte	.LVL97
 6158 072e 24000000 		.4byte	.LFE221
 6159 0732 0400     		.2byte	0x4
 6160 0734 F3       		.byte	0xf3
 6161 0735 01       		.uleb128 0x1
 6162 0736 53       		.byte	0x53
 6163 0737 9F       		.byte	0x9f
 6164 0738 00000000 		.4byte	0
 6165 073c 00000000 		.4byte	0
 6166              	.LLST46:
 6167 0740 00000000 		.4byte	.LVL100
 6168 0744 0A000000 		.4byte	.LVL101
 6169 0748 0100     		.2byte	0x1
 6170 074a 50       		.byte	0x50
 6171 074b 0A000000 		.4byte	.LVL101
 6172 074f 30000000 		.4byte	.LFE222
 6173 0753 0400     		.2byte	0x4
 6174 0755 F3       		.byte	0xf3
 6175 0756 01       		.uleb128 0x1
ARM GAS  /var/folders/f9/8bk2lnw15zn4cbgn6wrnb4lm0000gn/T//cc47W8rL.s 			page 128


 6176 0757 50       		.byte	0x50
 6177 0758 9F       		.byte	0x9f
 6178 0759 00000000 		.4byte	0
 6179 075d 00000000 		.4byte	0
 6180              	.LLST47:
 6181 0761 00000000 		.4byte	.LVL100
 6182 0765 1C000000 		.4byte	.LVL103
 6183 0769 0100     		.2byte	0x1
 6184 076b 51       		.byte	0x51
 6185 076c 1C000000 		.4byte	.LVL103
 6186 0770 30000000 		.4byte	.LFE222
 6187 0774 0400     		.2byte	0x4
 6188 0776 F3       		.byte	0xf3
 6189 0777 01       		.uleb128 0x1
 6190 0778 51       		.byte	0x51
 6191 0779 9F       		.byte	0x9f
 6192 077a 00000000 		.4byte	0
 6193 077e 00000000 		.4byte	0
 6194              	.LLST48:
 6195 0782 00000000 		.4byte	.LVL100
 6196 0786 12000000 		.4byte	.LVL102
 6197 078a 0100     		.2byte	0x1
 6198 078c 52       		.byte	0x52
 6199 078d 12000000 		.4byte	.LVL102
 6200 0791 1C000000 		.4byte	.LVL103
 6201 0795 0200     		.2byte	0x2
 6202 0797 70       		.byte	0x70
 6203 0798 00       		.sleb128 0
 6204 0799 1C000000 		.4byte	.LVL103
 6205 079d 2E000000 		.4byte	.LVL105
 6206 07a1 0200     		.2byte	0x2
 6207 07a3 7D       		.byte	0x7d
 6208 07a4 07       		.sleb128 7
 6209 07a5 2E000000 		.4byte	.LVL105
 6210 07a9 30000000 		.4byte	.LFE222
 6211 07ad 0200     		.2byte	0x2
 6212 07af 91       		.byte	0x91
 6213 07b0 57       		.sleb128 -41
 6214 07b1 00000000 		.4byte	0
 6215 07b5 00000000 		.4byte	0
 6216              	.LLST49:
 6217 07b9 00000000 		.4byte	.LVL100
 6218 07bd 1C000000 		.4byte	.LVL103
 6219 07c1 0100     		.2byte	0x1
 6220 07c3 53       		.byte	0x53
 6221 07c4 1C000000 		.4byte	.LVL103
 6222 07c8 30000000 		.4byte	.LFE222
 6223 07cc 0400     		.2byte	0x4
 6224 07ce F3       		.byte	0xf3
 6225 07cf 01       		.uleb128 0x1
 6226 07d0 53       		.byte	0x53
 6227 07d1 9F       		.byte	0x9f
 6228 07d2 00000000 		.4byte	0
 6229 07d6 00000000 		.4byte	0
 6230              	.LLST50:
 6231 07da 00000000 		.4byte	.LVL106
 6232 07de 10000000 		.4byte	.LVL108
ARM GAS  /var/folders/f9/8bk2lnw15zn4cbgn6wrnb4lm0000gn/T//cc47W8rL.s 			page 129


 6233 07e2 0100     		.2byte	0x1
 6234 07e4 50       		.byte	0x50
 6235 07e5 10000000 		.4byte	.LVL108
 6236 07e9 24000000 		.4byte	.LFE223
 6237 07ed 0400     		.2byte	0x4
 6238 07ef F3       		.byte	0xf3
 6239 07f0 01       		.uleb128 0x1
 6240 07f1 50       		.byte	0x50
 6241 07f2 9F       		.byte	0x9f
 6242 07f3 00000000 		.4byte	0
 6243 07f7 00000000 		.4byte	0
 6244              	.LLST51:
 6245 07fb 00000000 		.4byte	.LVL106
 6246 07ff 10000000 		.4byte	.LVL108
 6247 0803 0100     		.2byte	0x1
 6248 0805 51       		.byte	0x51
 6249 0806 10000000 		.4byte	.LVL108
 6250 080a 24000000 		.4byte	.LFE223
 6251 080e 0400     		.2byte	0x4
 6252 0810 F3       		.byte	0xf3
 6253 0811 01       		.uleb128 0x1
 6254 0812 51       		.byte	0x51
 6255 0813 9F       		.byte	0x9f
 6256 0814 00000000 		.4byte	0
 6257 0818 00000000 		.4byte	0
 6258              	.LLST52:
 6259 081c 00000000 		.4byte	.LVL106
 6260 0820 10000000 		.4byte	.LVL108
 6261 0824 0100     		.2byte	0x1
 6262 0826 52       		.byte	0x52
 6263 0827 10000000 		.4byte	.LVL108
 6264 082b 24000000 		.4byte	.LFE223
 6265 082f 0400     		.2byte	0x4
 6266 0831 F3       		.byte	0xf3
 6267 0832 01       		.uleb128 0x1
 6268 0833 52       		.byte	0x52
 6269 0834 9F       		.byte	0x9f
 6270 0835 00000000 		.4byte	0
 6271 0839 00000000 		.4byte	0
 6272              	.LLST53:
 6273 083d 00000000 		.4byte	.LVL106
 6274 0841 08000000 		.4byte	.LVL107
 6275 0845 0100     		.2byte	0x1
 6276 0847 53       		.byte	0x53
 6277 0848 08000000 		.4byte	.LVL107
 6278 084c 22000000 		.4byte	.LVL110
 6279 0850 0100     		.2byte	0x1
 6280 0852 55       		.byte	0x55
 6281 0853 22000000 		.4byte	.LVL110
 6282 0857 24000000 		.4byte	.LFE223
 6283 085b 0400     		.2byte	0x4
 6284 085d F3       		.byte	0xf3
 6285 085e 01       		.uleb128 0x1
 6286 085f 53       		.byte	0x53
 6287 0860 9F       		.byte	0x9f
 6288 0861 00000000 		.4byte	0
 6289 0865 00000000 		.4byte	0
ARM GAS  /var/folders/f9/8bk2lnw15zn4cbgn6wrnb4lm0000gn/T//cc47W8rL.s 			page 130


 6290              	.LLST54:
 6291 0869 00000000 		.4byte	.LVL111
 6292 086d 04000000 		.4byte	.LVL112
 6293 0871 0100     		.2byte	0x1
 6294 0873 50       		.byte	0x50
 6295 0874 04000000 		.4byte	.LVL112
 6296 0878 20000000 		.4byte	.LFE224
 6297 087c 0400     		.2byte	0x4
 6298 087e F3       		.byte	0xf3
 6299 087f 01       		.uleb128 0x1
 6300 0880 50       		.byte	0x50
 6301 0881 9F       		.byte	0x9f
 6302 0882 00000000 		.4byte	0
 6303 0886 00000000 		.4byte	0
 6304              	.LLST55:
 6305 088a 0A000000 		.4byte	.LVL113
 6306 088e 0E000000 		.4byte	.LVL114
 6307 0892 0100     		.2byte	0x1
 6308 0894 53       		.byte	0x53
 6309 0895 0E000000 		.4byte	.LVL114
 6310 0899 14000000 		.4byte	.LVL115
 6311 089d 0800     		.2byte	0x8
 6312 089f 70       		.byte	0x70
 6313 08a0 00       		.sleb128 0
 6314 08a1 03       		.byte	0x3
 6315 08a2 00000000 		.4byte	.LANCHOR0
 6316 08a6 22       		.byte	0x22
 6317 08a7 00000000 		.4byte	0
 6318 08ab 00000000 		.4byte	0
 6319              	.LLST57:
 6320 08af 00000000 		.4byte	.LVL116
 6321 08b3 12000000 		.4byte	.LVL117
 6322 08b7 0100     		.2byte	0x1
 6323 08b9 50       		.byte	0x50
 6324 08ba 12000000 		.4byte	.LVL117
 6325 08be 28000000 		.4byte	.LFE225
 6326 08c2 0400     		.2byte	0x4
 6327 08c4 F3       		.byte	0xf3
 6328 08c5 01       		.uleb128 0x1
 6329 08c6 50       		.byte	0x50
 6330 08c7 9F       		.byte	0x9f
 6331 08c8 00000000 		.4byte	0
 6332 08cc 00000000 		.4byte	0
 6333              	.LLST58:
 6334 08d0 00000000 		.4byte	.LVL120
 6335 08d4 0C000000 		.4byte	.LVL121
 6336 08d8 0100     		.2byte	0x1
 6337 08da 50       		.byte	0x50
 6338 08db 0C000000 		.4byte	.LVL121
 6339 08df 12000000 		.4byte	.LVL123
 6340 08e3 0400     		.2byte	0x4
 6341 08e5 F3       		.byte	0xf3
 6342 08e6 01       		.uleb128 0x1
 6343 08e7 50       		.byte	0x50
 6344 08e8 9F       		.byte	0x9f
 6345 08e9 12000000 		.4byte	.LVL123
 6346 08ed 20000000 		.4byte	.LVL125
ARM GAS  /var/folders/f9/8bk2lnw15zn4cbgn6wrnb4lm0000gn/T//cc47W8rL.s 			page 131


 6347 08f1 0100     		.2byte	0x1
 6348 08f3 50       		.byte	0x50
 6349 08f4 20000000 		.4byte	.LVL125
 6350 08f8 3C000000 		.4byte	.LFE213
 6351 08fc 0400     		.2byte	0x4
 6352 08fe F3       		.byte	0xf3
 6353 08ff 01       		.uleb128 0x1
 6354 0900 50       		.byte	0x50
 6355 0901 9F       		.byte	0x9f
 6356 0902 00000000 		.4byte	0
 6357 0906 00000000 		.4byte	0
 6358              	.LLST59:
 6359 090a 00000000 		.4byte	.LVL120
 6360 090e 0C000000 		.4byte	.LVL121
 6361 0912 0100     		.2byte	0x1
 6362 0914 51       		.byte	0x51
 6363 0915 0C000000 		.4byte	.LVL121
 6364 0919 12000000 		.4byte	.LVL123
 6365 091d 0400     		.2byte	0x4
 6366 091f F3       		.byte	0xf3
 6367 0920 01       		.uleb128 0x1
 6368 0921 51       		.byte	0x51
 6369 0922 9F       		.byte	0x9f
 6370 0923 12000000 		.4byte	.LVL123
 6371 0927 20000000 		.4byte	.LVL125
 6372 092b 0100     		.2byte	0x1
 6373 092d 51       		.byte	0x51
 6374 092e 20000000 		.4byte	.LVL125
 6375 0932 3C000000 		.4byte	.LFE213
 6376 0936 0400     		.2byte	0x4
 6377 0938 F3       		.byte	0xf3
 6378 0939 01       		.uleb128 0x1
 6379 093a 51       		.byte	0x51
 6380 093b 9F       		.byte	0x9f
 6381 093c 00000000 		.4byte	0
 6382 0940 00000000 		.4byte	0
 6383              	.LLST60:
 6384 0944 00000000 		.4byte	.LVL120
 6385 0948 0C000000 		.4byte	.LVL121
 6386 094c 0E00     		.2byte	0xe
 6387 094e 70       		.byte	0x70
 6388 094f 00       		.sleb128 0
 6389 0950 08       		.byte	0x8
 6390 0951 FF       		.byte	0xff
 6391 0952 1A       		.byte	0x1a
 6392 0953 4C       		.byte	0x4c
 6393 0954 1E       		.byte	0x1e
 6394 0955 03       		.byte	0x3
 6395 0956 00000000 		.4byte	i2c
 6396 095a 22       		.byte	0x22
 6397 095b 9F       		.byte	0x9f
 6398 095c 0C000000 		.4byte	.LVL121
 6399 0960 0C000000 		.4byte	.LVL122
 6400 0964 0E00     		.2byte	0xe
 6401 0966 78       		.byte	0x78
 6402 0967 00       		.sleb128 0
 6403 0968 08       		.byte	0x8
ARM GAS  /var/folders/f9/8bk2lnw15zn4cbgn6wrnb4lm0000gn/T//cc47W8rL.s 			page 132


 6404 0969 FF       		.byte	0xff
 6405 096a 1A       		.byte	0x1a
 6406 096b 4C       		.byte	0x4c
 6407 096c 1E       		.byte	0x1e
 6408 096d 03       		.byte	0x3
 6409 096e 00000000 		.4byte	i2c
 6410 0972 22       		.byte	0x22
 6411 0973 9F       		.byte	0x9f
 6412 0974 12000000 		.4byte	.LVL123
 6413 0978 20000000 		.4byte	.LVL125
 6414 097c 0E00     		.2byte	0xe
 6415 097e 70       		.byte	0x70
 6416 097f 00       		.sleb128 0
 6417 0980 08       		.byte	0x8
 6418 0981 FF       		.byte	0xff
 6419 0982 1A       		.byte	0x1a
 6420 0983 4C       		.byte	0x4c
 6421 0984 1E       		.byte	0x1e
 6422 0985 03       		.byte	0x3
 6423 0986 00000000 		.4byte	i2c
 6424 098a 22       		.byte	0x22
 6425 098b 9F       		.byte	0x9f
 6426 098c 20000000 		.4byte	.LVL125
 6427 0990 3C000000 		.4byte	.LFE213
 6428 0994 0E00     		.2byte	0xe
 6429 0996 78       		.byte	0x78
 6430 0997 00       		.sleb128 0
 6431 0998 08       		.byte	0x8
 6432 0999 FF       		.byte	0xff
 6433 099a 1A       		.byte	0x1a
 6434 099b 4C       		.byte	0x4c
 6435 099c 1E       		.byte	0x1e
 6436 099d 03       		.byte	0x3
 6437 099e 00000000 		.4byte	i2c
 6438 09a2 22       		.byte	0x22
 6439 09a3 9F       		.byte	0x9f
 6440 09a4 00000000 		.4byte	0
 6441 09a8 00000000 		.4byte	0
 6442              	.LLST61:
 6443 09ac 00000000 		.4byte	.LVL128
 6444 09b0 14000000 		.4byte	.LVL132
 6445 09b4 0100     		.2byte	0x1
 6446 09b6 50       		.byte	0x50
 6447 09b7 14000000 		.4byte	.LVL132
 6448 09bb 78000000 		.4byte	.LFE226
 6449 09bf 0400     		.2byte	0x4
 6450 09c1 F3       		.byte	0xf3
 6451 09c2 01       		.uleb128 0x1
 6452 09c3 50       		.byte	0x50
 6453 09c4 9F       		.byte	0x9f
 6454 09c5 00000000 		.4byte	0
 6455 09c9 00000000 		.4byte	0
 6456              	.LLST62:
 6457 09cd 00000000 		.4byte	.LVL128
 6458 09d1 50000000 		.4byte	.LVL142
 6459 09d5 0100     		.2byte	0x1
 6460 09d7 51       		.byte	0x51
ARM GAS  /var/folders/f9/8bk2lnw15zn4cbgn6wrnb4lm0000gn/T//cc47W8rL.s 			page 133


 6461 09d8 50000000 		.4byte	.LVL142
 6462 09dc 5A000000 		.4byte	.LVL144
 6463 09e0 0400     		.2byte	0x4
 6464 09e2 F3       		.byte	0xf3
 6465 09e3 01       		.uleb128 0x1
 6466 09e4 51       		.byte	0x51
 6467 09e5 9F       		.byte	0x9f
 6468 09e6 5A000000 		.4byte	.LVL144
 6469 09ea 78000000 		.4byte	.LFE226
 6470 09ee 0100     		.2byte	0x1
 6471 09f0 51       		.byte	0x51
 6472 09f1 00000000 		.4byte	0
 6473 09f5 00000000 		.4byte	0
 6474              	.LLST63:
 6475 09f9 00000000 		.4byte	.LVL128
 6476 09fd 2C000000 		.4byte	.LVL137
 6477 0a01 0100     		.2byte	0x1
 6478 0a03 52       		.byte	0x52
 6479 0a04 2C000000 		.4byte	.LVL137
 6480 0a08 78000000 		.4byte	.LFE226
 6481 0a0c 0400     		.2byte	0x4
 6482 0a0e F3       		.byte	0xf3
 6483 0a0f 01       		.uleb128 0x1
 6484 0a10 52       		.byte	0x52
 6485 0a11 9F       		.byte	0x9f
 6486 0a12 00000000 		.4byte	0
 6487 0a16 00000000 		.4byte	0
 6488              	.LLST64:
 6489 0a1a 00000000 		.4byte	.LVL128
 6490 0a1e 26000000 		.4byte	.LVL136
 6491 0a22 0100     		.2byte	0x1
 6492 0a24 53       		.byte	0x53
 6493 0a25 26000000 		.4byte	.LVL136
 6494 0a29 78000000 		.4byte	.LFE226
 6495 0a2d 0400     		.2byte	0x4
 6496 0a2f F3       		.byte	0xf3
 6497 0a30 01       		.uleb128 0x1
 6498 0a31 53       		.byte	0x53
 6499 0a32 9F       		.byte	0x9f
 6500 0a33 00000000 		.4byte	0
 6501 0a37 00000000 		.4byte	0
 6502              	.LLST65:
 6503 0a3b 00000000 		.4byte	.LVL128
 6504 0a3f 04000000 		.4byte	.LVL129
 6505 0a43 0200     		.2byte	0x2
 6506 0a45 91       		.byte	0x91
 6507 0a46 00       		.sleb128 0
 6508 0a47 04000000 		.4byte	.LVL129
 6509 0a4b 08000000 		.4byte	.LVL130
 6510 0a4f 0200     		.2byte	0x2
 6511 0a51 74       		.byte	0x74
 6512 0a52 00       		.sleb128 0
 6513 0a53 08000000 		.4byte	.LVL130
 6514 0a57 78000000 		.4byte	.LFE226
 6515 0a5b 0200     		.2byte	0x2
 6516 0a5d 7D       		.byte	0x7d
 6517 0a5e 10       		.sleb128 16
ARM GAS  /var/folders/f9/8bk2lnw15zn4cbgn6wrnb4lm0000gn/T//cc47W8rL.s 			page 134


 6518 0a5f 00000000 		.4byte	0
 6519 0a63 00000000 		.4byte	0
 6520              	.LLST66:
 6521 0a67 10000000 		.4byte	.LVL131
 6522 0a6b 58000000 		.4byte	.LVL143
 6523 0a6f 0100     		.2byte	0x1
 6524 0a71 54       		.byte	0x54
 6525 0a72 5A000000 		.4byte	.LVL144
 6526 0a76 78000000 		.4byte	.LFE226
 6527 0a7a 0100     		.2byte	0x1
 6528 0a7c 54       		.byte	0x54
 6529 0a7d 00000000 		.4byte	0
 6530 0a81 00000000 		.4byte	0
 6531              	.LLST67:
 6532 0a85 1C000000 		.4byte	.LVL133
 6533 0a89 1E000000 		.4byte	.LVL134
 6534 0a8d 0100     		.2byte	0x1
 6535 0a8f 50       		.byte	0x50
 6536 0a90 1E000000 		.4byte	.LVL134
 6537 0a94 24000000 		.4byte	.LVL135
 6538 0a98 0300     		.2byte	0x3
 6539 0a9a 70       		.byte	0x70
 6540 0a9b 78       		.sleb128 -8
 6541 0a9c 9F       		.byte	0x9f
 6542 0a9d 00000000 		.4byte	0
 6543 0aa1 00000000 		.4byte	0
 6544              	.LLST68:
 6545 0aa5 2C000000 		.4byte	.LVL137
 6546 0aa9 3E000000 		.4byte	.LVL141
 6547 0aad 0200     		.2byte	0x2
 6548 0aaf 7D       		.byte	0x7d
 6549 0ab0 10       		.sleb128 16
 6550 0ab1 5A000000 		.4byte	.LVL144
 6551 0ab5 5E000000 		.4byte	.LVL145
 6552 0ab9 0200     		.2byte	0x2
 6553 0abb 7D       		.byte	0x7d
 6554 0abc 10       		.sleb128 16
 6555 0abd 00000000 		.4byte	0
 6556 0ac1 00000000 		.4byte	0
 6557              	.LLST69:
 6558 0ac5 2C000000 		.4byte	.LVL137
 6559 0ac9 3E000000 		.4byte	.LVL141
 6560 0acd 0100     		.2byte	0x1
 6561 0acf 52       		.byte	0x52
 6562 0ad0 5A000000 		.4byte	.LVL144
 6563 0ad4 5E000000 		.4byte	.LVL145
 6564 0ad8 0100     		.2byte	0x1
 6565 0ada 52       		.byte	0x52
 6566 0adb 00000000 		.4byte	0
 6567 0adf 00000000 		.4byte	0
 6568              	.LLST70:
 6569 0ae3 2C000000 		.4byte	.LVL137
 6570 0ae7 3E000000 		.4byte	.LVL141
 6571 0aeb 0100     		.2byte	0x1
 6572 0aed 51       		.byte	0x51
 6573 0aee 5A000000 		.4byte	.LVL144
 6574 0af2 5E000000 		.4byte	.LVL145
ARM GAS  /var/folders/f9/8bk2lnw15zn4cbgn6wrnb4lm0000gn/T//cc47W8rL.s 			page 135


 6575 0af6 0100     		.2byte	0x1
 6576 0af8 51       		.byte	0x51
 6577 0af9 00000000 		.4byte	0
 6578 0afd 00000000 		.4byte	0
 6579              	.LLST71:
 6580 0b01 2C000000 		.4byte	.LVL137
 6581 0b05 36000000 		.4byte	.LVL139
 6582 0b09 0100     		.2byte	0x1
 6583 0b0b 53       		.byte	0x53
 6584 0b0c 36000000 		.4byte	.LVL139
 6585 0b10 3E000000 		.4byte	.LVL141
 6586 0b14 0200     		.2byte	0x2
 6587 0b16 74       		.byte	0x74
 6588 0b17 00       		.sleb128 0
 6589 0b18 5A000000 		.4byte	.LVL144
 6590 0b1c 5E000000 		.4byte	.LVL145
 6591 0b20 0100     		.2byte	0x1
 6592 0b22 53       		.byte	0x53
 6593 0b23 00000000 		.4byte	0
 6594 0b27 00000000 		.4byte	0
 6595              	.LLST72:
 6596 0b2b 2C000000 		.4byte	.LVL137
 6597 0b2f 3E000000 		.4byte	.LVL141
 6598 0b33 0300     		.2byte	0x3
 6599 0b35 71       		.byte	0x71
 6600 0b36 7F       		.sleb128 -1
 6601 0b37 9F       		.byte	0x9f
 6602 0b38 5A000000 		.4byte	.LVL144
 6603 0b3c 5E000000 		.4byte	.LVL145
 6604 0b40 0300     		.2byte	0x3
 6605 0b42 71       		.byte	0x71
 6606 0b43 7F       		.sleb128 -1
 6607 0b44 9F       		.byte	0x9f
 6608 0b45 00000000 		.4byte	0
 6609 0b49 00000000 		.4byte	0
 6610              	.LLST73:
 6611 0b4d 32000000 		.4byte	.LVL138
 6612 0b51 36000000 		.4byte	.LVL139
 6613 0b55 0300     		.2byte	0x3
 6614 0b57 73       		.byte	0x73
 6615 0b58 20       		.sleb128 32
 6616 0b59 9F       		.byte	0x9f
 6617 0b5a 36000000 		.4byte	.LVL139
 6618 0b5e 3C000000 		.4byte	.LVL140
 6619 0b62 0100     		.2byte	0x1
 6620 0b64 53       		.byte	0x53
 6621 0b65 3C000000 		.4byte	.LVL140
 6622 0b69 3E000000 		.4byte	.LVL141
 6623 0b6d 0600     		.2byte	0x6
 6624 0b6f 74       		.byte	0x74
 6625 0b70 00       		.sleb128 0
 6626 0b71 06       		.byte	0x6
 6627 0b72 23       		.byte	0x23
 6628 0b73 20       		.uleb128 0x20
 6629 0b74 9F       		.byte	0x9f
 6630 0b75 00000000 		.4byte	0
 6631 0b79 00000000 		.4byte	0
ARM GAS  /var/folders/f9/8bk2lnw15zn4cbgn6wrnb4lm0000gn/T//cc47W8rL.s 			page 136


 6632              	.LLST74:
 6633 0b7d 00000000 		.4byte	.LVL147
 6634 0b81 14000000 		.4byte	.LVL149
 6635 0b85 0100     		.2byte	0x1
 6636 0b87 50       		.byte	0x50
 6637 0b88 14000000 		.4byte	.LVL149
 6638 0b8c 42000000 		.4byte	.LVL156
 6639 0b90 0400     		.2byte	0x4
 6640 0b92 F3       		.byte	0xf3
 6641 0b93 01       		.uleb128 0x1
 6642 0b94 50       		.byte	0x50
 6643 0b95 9F       		.byte	0x9f
 6644 0b96 42000000 		.4byte	.LVL156
 6645 0b9a 44000000 		.4byte	.LVL157
 6646 0b9e 0100     		.2byte	0x1
 6647 0ba0 50       		.byte	0x50
 6648 0ba1 44000000 		.4byte	.LVL157
 6649 0ba5 68000000 		.4byte	.LFE227
 6650 0ba9 0400     		.2byte	0x4
 6651 0bab F3       		.byte	0xf3
 6652 0bac 01       		.uleb128 0x1
 6653 0bad 50       		.byte	0x50
 6654 0bae 9F       		.byte	0x9f
 6655 0baf 00000000 		.4byte	0
 6656 0bb3 00000000 		.4byte	0
 6657              	.LLST75:
 6658 0bb7 28000000 		.4byte	.LVL150
 6659 0bbb 3A000000 		.4byte	.LVL151
 6660 0bbf 0100     		.2byte	0x1
 6661 0bc1 50       		.byte	0x50
 6662 0bc2 3E000000 		.4byte	.LVL155
 6663 0bc6 42000000 		.4byte	.LVL156
 6664 0bca 0100     		.2byte	0x1
 6665 0bcc 50       		.byte	0x50
 6666 0bcd 00000000 		.4byte	0
 6667 0bd1 00000000 		.4byte	0
 6668              	.LLST76:
 6669 0bd5 0C000000 		.4byte	.LVL148
 6670 0bd9 3C000000 		.4byte	.LVL153
 6671 0bdd 0100     		.2byte	0x1
 6672 0bdf 54       		.byte	0x54
 6673 0be0 3C000000 		.4byte	.LVL153
 6674 0be4 3C000000 		.4byte	.LVL154
 6675 0be8 1000     		.2byte	0x10
 6676 0bea 75       		.byte	0x75
 6677 0beb 00       		.sleb128 0
 6678 0bec 33       		.byte	0x33
 6679 0bed 24       		.byte	0x24
 6680 0bee 75       		.byte	0x75
 6681 0bef 00       		.sleb128 0
 6682 0bf0 1C       		.byte	0x1c
 6683 0bf1 32       		.byte	0x32
 6684 0bf2 24       		.byte	0x24
 6685 0bf3 03       		.byte	0x3
 6686 0bf4 00000000 		.4byte	.LANCHOR0
 6687 0bf8 22       		.byte	0x22
 6688 0bf9 9F       		.byte	0x9f
ARM GAS  /var/folders/f9/8bk2lnw15zn4cbgn6wrnb4lm0000gn/T//cc47W8rL.s 			page 137


 6689 0bfa 3E000000 		.4byte	.LVL155
 6690 0bfe 68000000 		.4byte	.LFE227
 6691 0c02 0100     		.2byte	0x1
 6692 0c04 54       		.byte	0x54
 6693 0c05 00000000 		.4byte	0
 6694 0c09 00000000 		.4byte	0
 6695              	.LLST77:
 6696 0c0d 54000000 		.4byte	.LVL159
 6697 0c11 58000000 		.4byte	.LVL160
 6698 0c15 0100     		.2byte	0x1
 6699 0c17 52       		.byte	0x52
 6700 0c18 58000000 		.4byte	.LVL160
 6701 0c1c 68000000 		.4byte	.LFE227
 6702 0c20 1300     		.2byte	0x13
 6703 0c22 75       		.byte	0x75
 6704 0c23 00       		.sleb128 0
 6705 0c24 32       		.byte	0x32
 6706 0c25 24       		.byte	0x24
 6707 0c26 75       		.byte	0x75
 6708 0c27 00       		.sleb128 0
 6709 0c28 22       		.byte	0x22
 6710 0c29 70       		.byte	0x70
 6711 0c2a 00       		.sleb128 0
 6712 0c2b 22       		.byte	0x22
 6713 0c2c 33       		.byte	0x33
 6714 0c2d 24       		.byte	0x24
 6715 0c2e 03       		.byte	0x3
 6716 0c2f 00000000 		.4byte	.LANCHOR1
 6717 0c33 22       		.byte	0x22
 6718 0c34 9F       		.byte	0x9f
 6719 0c35 00000000 		.4byte	0
 6720 0c39 00000000 		.4byte	0
 6721              	.LLST78:
 6722 0c3d 00000000 		.4byte	.LVL161
 6723 0c41 04000000 		.4byte	.LVL162
 6724 0c45 0100     		.2byte	0x1
 6725 0c47 50       		.byte	0x50
 6726 0c48 04000000 		.4byte	.LVL162
 6727 0c4c 14000000 		.4byte	.LFE228
 6728 0c50 0400     		.2byte	0x4
 6729 0c52 F3       		.byte	0xf3
 6730 0c53 01       		.uleb128 0x1
 6731 0c54 50       		.byte	0x50
 6732 0c55 9F       		.byte	0x9f
 6733 0c56 00000000 		.4byte	0
 6734 0c5a 00000000 		.4byte	0
 6735              	.LLST79:
 6736 0c5e 00000000 		.4byte	.LVL163
 6737 0c62 04000000 		.4byte	.LVL164
 6738 0c66 0100     		.2byte	0x1
 6739 0c68 50       		.byte	0x50
 6740 0c69 04000000 		.4byte	.LVL164
 6741 0c6d 18000000 		.4byte	.LFE229
 6742 0c71 0400     		.2byte	0x4
 6743 0c73 F3       		.byte	0xf3
 6744 0c74 01       		.uleb128 0x1
 6745 0c75 50       		.byte	0x50
ARM GAS  /var/folders/f9/8bk2lnw15zn4cbgn6wrnb4lm0000gn/T//cc47W8rL.s 			page 138


 6746 0c76 9F       		.byte	0x9f
 6747 0c77 00000000 		.4byte	0
 6748 0c7b 00000000 		.4byte	0
 6749              		.section	.debug_aranges,"",%progbits
 6750 0000 BC000000 		.4byte	0xbc
 6751 0004 0200     		.2byte	0x2
 6752 0006 00000000 		.4byte	.Ldebug_info0
 6753 000a 04       		.byte	0x4
 6754 000b 00       		.byte	0
 6755 000c 0000     		.2byte	0
 6756 000e 0000     		.2byte	0
 6757 0010 00000000 		.4byte	.LFB212
 6758 0014 20000000 		.4byte	.LFE212-.LFB212
 6759 0018 00000000 		.4byte	.LFB209
 6760 001c F0000000 		.4byte	.LFE209-.LFB209
 6761 0020 00000000 		.4byte	.LFB210
 6762 0024 86000000 		.4byte	.LFE210-.LFB210
 6763 0028 00000000 		.4byte	.LFB211
 6764 002c AC000000 		.4byte	.LFE211-.LFB211
 6765 0030 00000000 		.4byte	.LFB214
 6766 0034 30000000 		.4byte	.LFE214-.LFB214
 6767 0038 00000000 		.4byte	.LFB215
 6768 003c 2C000000 		.4byte	.LFE215-.LFB215
 6769 0040 00000000 		.4byte	.LFB216
 6770 0044 2C000000 		.4byte	.LFE216-.LFB216
 6771 0048 00000000 		.4byte	.LFB217
 6772 004c 24000000 		.4byte	.LFE217-.LFB217
 6773 0050 00000000 		.4byte	.LFB218
 6774 0054 24000000 		.4byte	.LFE218-.LFB218
 6775 0058 00000000 		.4byte	.LFB219
 6776 005c 14000000 		.4byte	.LFE219-.LFB219
 6777 0060 00000000 		.4byte	.LFB220
 6778 0064 68000000 		.4byte	.LFE220-.LFB220
 6779 0068 00000000 		.4byte	.LFB221
 6780 006c 24000000 		.4byte	.LFE221-.LFB221
 6781 0070 00000000 		.4byte	.LFB222
 6782 0074 30000000 		.4byte	.LFE222-.LFB222
 6783 0078 00000000 		.4byte	.LFB223
 6784 007c 24000000 		.4byte	.LFE223-.LFB223
 6785 0080 00000000 		.4byte	.LFB224
 6786 0084 20000000 		.4byte	.LFE224-.LFB224
 6787 0088 00000000 		.4byte	.LFB225
 6788 008c 28000000 		.4byte	.LFE225-.LFB225
 6789 0090 00000000 		.4byte	.LFB213
 6790 0094 3C000000 		.4byte	.LFE213-.LFB213
 6791 0098 00000000 		.4byte	.LFB226
 6792 009c 78000000 		.4byte	.LFE226-.LFB226
 6793 00a0 00000000 		.4byte	.LFB227
 6794 00a4 68000000 		.4byte	.LFE227-.LFB227
 6795 00a8 00000000 		.4byte	.LFB228
 6796 00ac 14000000 		.4byte	.LFE228-.LFB228
 6797 00b0 00000000 		.4byte	.LFB229
 6798 00b4 18000000 		.4byte	.LFE229-.LFB229
 6799 00b8 00000000 		.4byte	0
 6800 00bc 00000000 		.4byte	0
 6801              		.section	.debug_ranges,"",%progbits
 6802              	.Ldebug_ranges0:
ARM GAS  /var/folders/f9/8bk2lnw15zn4cbgn6wrnb4lm0000gn/T//cc47W8rL.s 			page 139


 6803 0000 00000000 		.4byte	.LBB51
 6804 0004 02000000 		.4byte	.LBE51
 6805 0008 04000000 		.4byte	.LBB55
 6806 000c 06000000 		.4byte	.LBE55
 6807 0010 08000000 		.4byte	.LBB56
 6808 0014 0A000000 		.4byte	.LBE56
 6809 0018 00000000 		.4byte	0
 6810 001c 00000000 		.4byte	0
 6811 0020 00000000 		.4byte	.LBB69
 6812 0024 04000000 		.4byte	.LBE69
 6813 0028 08000000 		.4byte	.LBB72
 6814 002c 0A000000 		.4byte	.LBE72
 6815 0030 00000000 		.4byte	0
 6816 0034 00000000 		.4byte	0
 6817 0038 2A000000 		.4byte	.LBB73
 6818 003c 2C000000 		.4byte	.LBE73
 6819 0040 2E000000 		.4byte	.LBB84
 6820 0044 86000000 		.4byte	.LBE84
 6821 0048 00000000 		.4byte	0
 6822 004c 00000000 		.4byte	0
 6823 0050 04000000 		.4byte	.LBB85
 6824 0054 06000000 		.4byte	.LBE85
 6825 0058 08000000 		.4byte	.LBB88
 6826 005c 0C000000 		.4byte	.LBE88
 6827 0060 00000000 		.4byte	0
 6828 0064 00000000 		.4byte	0
 6829 0068 02000000 		.4byte	.LBB89
 6830 006c 1C000000 		.4byte	.LBE89
 6831 0070 1E000000 		.4byte	.LBB96
 6832 0074 20000000 		.4byte	.LBE96
 6833 0078 00000000 		.4byte	0
 6834 007c 00000000 		.4byte	0
 6835 0080 0C000000 		.4byte	.LBB91
 6836 0084 1C000000 		.4byte	.LBE91
 6837 0088 1E000000 		.4byte	.LBB94
 6838 008c 20000000 		.4byte	.LBE94
 6839 0090 00000000 		.4byte	0
 6840 0094 00000000 		.4byte	0
 6841 0098 0A000000 		.4byte	.LBB113
 6842 009c 0E000000 		.4byte	.LBE113
 6843 00a0 10000000 		.4byte	.LBB116
 6844 00a4 12000000 		.4byte	.LBE116
 6845 00a8 00000000 		.4byte	0
 6846 00ac 00000000 		.4byte	0
 6847 00b0 1E000000 		.4byte	.LBB117
 6848 00b4 20000000 		.4byte	.LBE117
 6849 00b8 26000000 		.4byte	.LBB120
 6850 00bc 2A000000 		.4byte	.LBE120
 6851 00c0 00000000 		.4byte	0
 6852 00c4 00000000 		.4byte	0
 6853 00c8 22000000 		.4byte	.LBB121
 6854 00cc 24000000 		.4byte	.LBE121
 6855 00d0 26000000 		.4byte	.LBB127
 6856 00d4 2A000000 		.4byte	.LBE127
 6857 00d8 2C000000 		.4byte	.LBB128
 6858 00dc 3E000000 		.4byte	.LBE128
 6859 00e0 5A000000 		.4byte	.LBB129
ARM GAS  /var/folders/f9/8bk2lnw15zn4cbgn6wrnb4lm0000gn/T//cc47W8rL.s 			page 140


 6860 00e4 5E000000 		.4byte	.LBE129
 6861 00e8 00000000 		.4byte	0
 6862 00ec 00000000 		.4byte	0
 6863 00f0 00000000 		.4byte	.LFB212
 6864 00f4 20000000 		.4byte	.LFE212
 6865 00f8 00000000 		.4byte	.LFB209
 6866 00fc F0000000 		.4byte	.LFE209
 6867 0100 00000000 		.4byte	.LFB210
 6868 0104 86000000 		.4byte	.LFE210
 6869 0108 00000000 		.4byte	.LFB211
 6870 010c AC000000 		.4byte	.LFE211
 6871 0110 00000000 		.4byte	.LFB214
 6872 0114 30000000 		.4byte	.LFE214
 6873 0118 00000000 		.4byte	.LFB215
 6874 011c 2C000000 		.4byte	.LFE215
 6875 0120 00000000 		.4byte	.LFB216
 6876 0124 2C000000 		.4byte	.LFE216
 6877 0128 00000000 		.4byte	.LFB217
 6878 012c 24000000 		.4byte	.LFE217
 6879 0130 00000000 		.4byte	.LFB218
 6880 0134 24000000 		.4byte	.LFE218
 6881 0138 00000000 		.4byte	.LFB219
 6882 013c 14000000 		.4byte	.LFE219
 6883 0140 00000000 		.4byte	.LFB220
 6884 0144 68000000 		.4byte	.LFE220
 6885 0148 00000000 		.4byte	.LFB221
 6886 014c 24000000 		.4byte	.LFE221
 6887 0150 00000000 		.4byte	.LFB222
 6888 0154 30000000 		.4byte	.LFE222
 6889 0158 00000000 		.4byte	.LFB223
 6890 015c 24000000 		.4byte	.LFE223
 6891 0160 00000000 		.4byte	.LFB224
 6892 0164 20000000 		.4byte	.LFE224
 6893 0168 00000000 		.4byte	.LFB225
 6894 016c 28000000 		.4byte	.LFE225
 6895 0170 00000000 		.4byte	.LFB213
 6896 0174 3C000000 		.4byte	.LFE213
 6897 0178 00000000 		.4byte	.LFB226
 6898 017c 78000000 		.4byte	.LFE226
 6899 0180 00000000 		.4byte	.LFB227
 6900 0184 68000000 		.4byte	.LFE227
 6901 0188 00000000 		.4byte	.LFB228
 6902 018c 14000000 		.4byte	.LFE228
 6903 0190 00000000 		.4byte	.LFB229
 6904 0194 18000000 		.4byte	.LFE229
 6905 0198 00000000 		.4byte	0
 6906 019c 00000000 		.4byte	0
 6907              		.section	.debug_macro,"",%progbits
 6908              	.Ldebug_macro0:
 6909 0000 0400     		.2byte	0x4
 6910 0002 02       		.byte	0x2
 6911 0003 00000000 		.4byte	.Ldebug_line0
 6912 0007 07       		.byte	0x7
 6913 0008 00000000 		.4byte	.Ldebug_macro1
 6914 000c 03       		.byte	0x3
 6915 000d 00       		.uleb128 0
 6916 000e 01       		.uleb128 0x1
ARM GAS  /var/folders/f9/8bk2lnw15zn4cbgn6wrnb4lm0000gn/T//cc47W8rL.s 			page 141


 6917 000f 03       		.byte	0x3
 6918 0010 20       		.uleb128 0x20
 6919 0011 07       		.uleb128 0x7
 6920 0012 05       		.byte	0x5
 6921 0013 1E       		.uleb128 0x1e
 6922 0014 C9770000 		.4byte	.LASF341
 6923              		.file 8 "../../lpc_chip_11cxx_lib/inc/lpc_types.h"
 6924 0018 03       		.byte	0x3
 6925 0019 20       		.uleb128 0x20
 6926 001a 08       		.uleb128 0x8
 6927 001b 05       		.byte	0x5
 6928 001c 21       		.uleb128 0x21
 6929 001d 94220000 		.4byte	.LASF342
 6930              		.file 9 "/usr/local/Cellar/gcc-arm-none-eabi/20140805/lib/gcc/arm-none-eabi/4.8.4/include/stdint.h
 6931 0021 03       		.byte	0x3
 6932 0022 23       		.uleb128 0x23
 6933 0023 09       		.uleb128 0x9
 6934 0024 03       		.byte	0x3
 6935 0025 09       		.uleb128 0x9
 6936 0026 04       		.uleb128 0x4
 6937 0027 05       		.byte	0x5
 6938 0028 0A       		.uleb128 0xa
 6939 0029 7C1D0000 		.4byte	.LASF343
 6940 002d 03       		.byte	0x3
 6941 002e 0C       		.uleb128 0xc
 6942 002f 03       		.uleb128 0x3
 6943 0030 05       		.byte	0x5
 6944 0031 06       		.uleb128 0x6
 6945 0032 C14E0000 		.4byte	.LASF344
 6946              		.file 10 "/usr/local/Cellar/gcc-arm-none-eabi/20140805/arm-none-eabi/include/sys/features.h"
 6947 0036 03       		.byte	0x3
 6948 0037 08       		.uleb128 0x8
 6949 0038 0A       		.uleb128 0xa
 6950 0039 07       		.byte	0x7
 6951 003a 00000000 		.4byte	.Ldebug_macro2
 6952 003e 04       		.byte	0x4
 6953 003f 07       		.byte	0x7
 6954 0040 00000000 		.4byte	.Ldebug_macro3
 6955 0044 04       		.byte	0x4
 6956 0045 07       		.byte	0x7
 6957 0046 00000000 		.4byte	.Ldebug_macro4
 6958 004a 04       		.byte	0x4
 6959 004b 05       		.byte	0x5
 6960 004c 0D       		.uleb128 0xd
 6961 004d 80640000 		.4byte	.LASF434
 6962 0051 04       		.byte	0x4
 6963              		.file 11 "/usr/local/Cellar/gcc-arm-none-eabi/20140805/lib/gcc/arm-none-eabi/4.8.4/include/stdbool
 6964 0052 03       		.byte	0x3
 6965 0053 24       		.uleb128 0x24
 6966 0054 0B       		.uleb128 0xb
 6967 0055 07       		.byte	0x7
 6968 0056 00000000 		.4byte	.Ldebug_macro5
 6969 005a 04       		.byte	0x4
 6970 005b 07       		.byte	0x7
 6971 005c 00000000 		.4byte	.Ldebug_macro6
 6972 0060 04       		.byte	0x4
 6973              		.file 12 "../../lpc_chip_11cxx_lib/inc/sys_config.h"
ARM GAS  /var/folders/f9/8bk2lnw15zn4cbgn6wrnb4lm0000gn/T//cc47W8rL.s 			page 142


 6974 0061 03       		.byte	0x3
 6975 0062 21       		.uleb128 0x21
 6976 0063 0C       		.uleb128 0xc
 6977 0064 07       		.byte	0x7
 6978 0065 00000000 		.4byte	.Ldebug_macro7
 6979 0069 04       		.byte	0x4
 6980              		.file 13 "../../lpc_chip_11cxx_lib/inc/cmsis.h"
 6981 006a 03       		.byte	0x3
 6982 006b 22       		.uleb128 0x22
 6983 006c 0D       		.uleb128 0xd
 6984 006d 05       		.byte	0x5
 6985 006e 1E       		.uleb128 0x1e
 6986 006f C84D0000 		.4byte	.LASF458
 6987              		.file 14 "../../lpc_chip_11cxx_lib/inc/cmsis_11cxx.h"
 6988 0073 03       		.byte	0x3
 6989 0074 2E       		.uleb128 0x2e
 6990 0075 0E       		.uleb128 0xe
 6991 0076 07       		.byte	0x7
 6992 0077 00000000 		.4byte	.Ldebug_macro8
 6993 007b 04       		.byte	0x4
 6994              		.file 15 "../../lpc_chip_11cxx_lib/inc/core_cm0.h"
 6995 007c 03       		.byte	0x3
 6996 007d 3E       		.uleb128 0x3e
 6997 007e 0F       		.uleb128 0xf
 6998 007f 07       		.byte	0x7
 6999 0080 00000000 		.4byte	.Ldebug_macro9
 7000              		.file 16 "../../lpc_chip_11cxx_lib/inc/core_cmInstr.h"
 7001 0084 03       		.byte	0x3
 7002 0085 70       		.uleb128 0x70
 7003 0086 10       		.uleb128 0x10
 7004 0087 05       		.byte	0x5
 7005 0088 19       		.uleb128 0x19
 7006 0089 051E0000 		.4byte	.LASF472
 7007 008d 04       		.byte	0x4
 7008              		.file 17 "../../lpc_chip_11cxx_lib/inc/core_cmFunc.h"
 7009 008e 03       		.byte	0x3
 7010 008f 71       		.uleb128 0x71
 7011 0090 11       		.uleb128 0x11
 7012 0091 05       		.byte	0x5
 7013 0092 19       		.uleb128 0x19
 7014 0093 5F6E0000 		.4byte	.LASF473
 7015 0097 04       		.byte	0x4
 7016 0098 07       		.byte	0x7
 7017 0099 00000000 		.4byte	.Ldebug_macro10
 7018 009d 04       		.byte	0x4
 7019 009e 04       		.byte	0x4
 7020 009f 07       		.byte	0x7
 7021 00a0 00000000 		.4byte	.Ldebug_macro11
 7022              		.file 18 "../../lpc_chip_11cxx_lib/inc/pmu_11xx.h"
 7023 00a4 03       		.byte	0x3
 7024 00a5 E901     		.uleb128 0xe9
 7025 00a7 12       		.uleb128 0x12
 7026 00a8 07       		.byte	0x7
 7027 00a9 00000000 		.4byte	.Ldebug_macro12
 7028 00ad 04       		.byte	0x4
 7029              		.file 19 "../../lpc_chip_11cxx_lib/inc/fmc_11xx.h"
 7030 00ae 03       		.byte	0x3
ARM GAS  /var/folders/f9/8bk2lnw15zn4cbgn6wrnb4lm0000gn/T//cc47W8rL.s 			page 143


 7031 00af EA01     		.uleb128 0xea
 7032 00b1 13       		.uleb128 0x13
 7033 00b2 05       		.byte	0x5
 7034 00b3 21       		.uleb128 0x21
 7035 00b4 7C660000 		.4byte	.LASF603
 7036 00b8 04       		.byte	0x4
 7037 00b9 03       		.byte	0x3
 7038 00ba EB01     		.uleb128 0xeb
 7039 00bc 05       		.uleb128 0x5
 7040 00bd 07       		.byte	0x7
 7041 00be 00000000 		.4byte	.Ldebug_macro13
 7042 00c2 04       		.byte	0x4
 7043 00c3 03       		.byte	0x3
 7044 00c4 EC01     		.uleb128 0xec
 7045 00c6 02       		.uleb128 0x2
 7046 00c7 07       		.byte	0x7
 7047 00c8 00000000 		.4byte	.Ldebug_macro14
 7048 00cc 04       		.byte	0x4
 7049              		.file 20 "../../lpc_chip_11cxx_lib/inc/iocon_11xx.h"
 7050 00cd 03       		.byte	0x3
 7051 00ce ED01     		.uleb128 0xed
 7052 00d0 14       		.uleb128 0x14
 7053 00d1 07       		.byte	0x7
 7054 00d2 00000000 		.4byte	.Ldebug_macro15
 7055 00d6 04       		.byte	0x4
 7056              		.file 21 "../../lpc_chip_11cxx_lib/inc/timer_11xx.h"
 7057 00d7 03       		.byte	0x3
 7058 00d8 EE01     		.uleb128 0xee
 7059 00da 15       		.uleb128 0x15
 7060 00db 07       		.byte	0x7
 7061 00dc 00000000 		.4byte	.Ldebug_macro16
 7062 00e0 04       		.byte	0x4
 7063              		.file 22 "../../lpc_chip_11cxx_lib/inc/uart_11xx.h"
 7064 00e1 03       		.byte	0x3
 7065 00e2 EF01     		.uleb128 0xef
 7066 00e4 16       		.uleb128 0x16
 7067 00e5 05       		.byte	0x5
 7068 00e6 21       		.uleb128 0x21
 7069 00e7 33250000 		.4byte	.LASF687
 7070              		.file 23 "../../lpc_chip_11cxx_lib/inc/ring_buffer.h"
 7071 00eb 03       		.byte	0x3
 7072 00ec 23       		.uleb128 0x23
 7073 00ed 17       		.uleb128 0x17
 7074 00ee 07       		.byte	0x7
 7075 00ef 00000000 		.4byte	.Ldebug_macro17
 7076 00f3 04       		.byte	0x4
 7077 00f4 07       		.byte	0x7
 7078 00f5 00000000 		.4byte	.Ldebug_macro18
 7079 00f9 04       		.byte	0x4
 7080              		.file 24 "../../lpc_chip_11cxx_lib/inc/wwdt_11xx.h"
 7081 00fa 03       		.byte	0x3
 7082 00fb F001     		.uleb128 0xf0
 7083 00fd 18       		.uleb128 0x18
 7084 00fe 07       		.byte	0x7
 7085 00ff 00000000 		.4byte	.Ldebug_macro19
 7086 0103 04       		.byte	0x4
 7087              		.file 25 "../../lpc_chip_11cxx_lib/inc/ssp_11xx.h"
ARM GAS  /var/folders/f9/8bk2lnw15zn4cbgn6wrnb4lm0000gn/T//cc47W8rL.s 			page 144


 7088 0104 03       		.byte	0x3
 7089 0105 F101     		.uleb128 0xf1
 7090 0107 19       		.uleb128 0x19
 7091 0108 07       		.byte	0x7
 7092 0109 00000000 		.4byte	.Ldebug_macro20
 7093 010d 04       		.byte	0x4
 7094              		.file 26 "../../lpc_chip_11cxx_lib/inc/romapi_11xx.h"
 7095 010e 03       		.byte	0x3
 7096 010f F201     		.uleb128 0xf2
 7097 0111 1A       		.uleb128 0x1a
 7098 0112 05       		.byte	0x5
 7099 0113 21       		.uleb128 0x21
 7100 0114 4B2D0000 		.4byte	.LASF840
 7101              		.file 27 "../../lpc_chip_11cxx_lib/inc/error.h"
 7102 0118 03       		.byte	0x3
 7103 0119 23       		.uleb128 0x23
 7104 011a 1B       		.uleb128 0x1b
 7105 011b 07       		.byte	0x7
 7106 011c 00000000 		.4byte	.Ldebug_macro21
 7107 0120 04       		.byte	0x4
 7108 0121 04       		.byte	0x4
 7109              		.file 28 "../../lpc_chip_11cxx_lib/inc/adc_11xx.h"
 7110 0122 03       		.byte	0x3
 7111 0123 F601     		.uleb128 0xf6
 7112 0125 1C       		.uleb128 0x1c
 7113 0126 07       		.byte	0x7
 7114 0127 00000000 		.4byte	.Ldebug_macro22
 7115 012b 04       		.byte	0x4
 7116              		.file 29 "../../lpc_chip_11cxx_lib/inc/gpio_11xx_2.h"
 7117 012c 03       		.byte	0x3
 7118 012d FF01     		.uleb128 0xff
 7119 012f 1D       		.uleb128 0x1d
 7120 0130 05       		.byte	0x5
 7121 0131 22       		.uleb128 0x22
 7122 0132 A6370000 		.4byte	.LASF863
 7123 0136 04       		.byte	0x4
 7124 0137 03       		.byte	0x3
 7125 0138 8C02     		.uleb128 0x10c
 7126 013a 06       		.uleb128 0x6
 7127 013b 07       		.byte	0x7
 7128 013c 00000000 		.4byte	.Ldebug_macro23
 7129 0140 04       		.byte	0x4
 7130              		.file 30 "../../lpc_chip_11cxx_lib/inc/ccand_11xx.h"
 7131 0141 03       		.byte	0x3
 7132 0142 8F02     		.uleb128 0x10f
 7133 0144 1E       		.uleb128 0x1e
 7134 0145 07       		.byte	0x7
 7135 0146 00000000 		.4byte	.Ldebug_macro24
 7136 014a 04       		.byte	0x4
 7137 014b 04       		.byte	0x4
 7138 014c 05       		.byte	0x5
 7139 014d 29       		.uleb128 0x29
 7140 014e EC700000 		.4byte	.LASF988
 7141 0152 05       		.byte	0x5
 7142 0153 2A       		.uleb128 0x2a
 7143 0154 A6460000 		.4byte	.LASF989
 7144 0158 05       		.byte	0x5
ARM GAS  /var/folders/f9/8bk2lnw15zn4cbgn6wrnb4lm0000gn/T//cc47W8rL.s 			page 145


 7145 0159 2B       		.uleb128 0x2b
 7146 015a EF680000 		.4byte	.LASF990
 7147 015e 04       		.byte	0x4
 7148 015f 00       		.byte	0
 7149              		.section	.debug_macro,"G",%progbits,wm4.0.121fbee677f1a8a7d8c40a6e8762ca43,comdat
 7150              	.Ldebug_macro1:
 7151 0000 0400     		.2byte	0x4
 7152 0002 00       		.byte	0
 7153 0003 05       		.byte	0x5
 7154 0004 00       		.uleb128 0
 7155 0005 D9490000 		.4byte	.LASF0
 7156 0009 05       		.byte	0x5
 7157 000a 00       		.uleb128 0
 7158 000b 63090000 		.4byte	.LASF1
 7159 000f 05       		.byte	0x5
 7160 0010 00       		.uleb128 0
 7161 0011 47360000 		.4byte	.LASF2
 7162 0015 05       		.byte	0x5
 7163 0016 00       		.uleb128 0
 7164 0017 745F0000 		.4byte	.LASF3
 7165 001b 05       		.byte	0x5
 7166 001c 00       		.uleb128 0
 7167 001d E21C0000 		.4byte	.LASF4
 7168 0021 05       		.byte	0x5
 7169 0022 00       		.uleb128 0
 7170 0023 21470000 		.4byte	.LASF5
 7171 0027 05       		.byte	0x5
 7172 0028 00       		.uleb128 0
 7173 0029 51660000 		.4byte	.LASF6
 7174 002d 05       		.byte	0x5
 7175 002e 00       		.uleb128 0
 7176 002f C41F0000 		.4byte	.LASF7
 7177 0033 05       		.byte	0x5
 7178 0034 00       		.uleb128 0
 7179 0035 E5550000 		.4byte	.LASF8
 7180 0039 05       		.byte	0x5
 7181 003a 00       		.uleb128 0
 7182 003b 203A0000 		.4byte	.LASF9
 7183 003f 05       		.byte	0x5
 7184 0040 00       		.uleb128 0
 7185 0041 9E770000 		.4byte	.LASF10
 7186 0045 05       		.byte	0x5
 7187 0046 00       		.uleb128 0
 7188 0047 53030000 		.4byte	.LASF11
 7189 004b 05       		.byte	0x5
 7190 004c 00       		.uleb128 0
 7191 004d EC3A0000 		.4byte	.LASF12
 7192 0051 05       		.byte	0x5
 7193 0052 00       		.uleb128 0
 7194 0053 91590000 		.4byte	.LASF13
 7195 0057 05       		.byte	0x5
 7196 0058 00       		.uleb128 0
 7197 0059 7F6E0000 		.4byte	.LASF14
 7198 005d 05       		.byte	0x5
 7199 005e 00       		.uleb128 0
 7200 005f 12180000 		.4byte	.LASF15
 7201 0063 05       		.byte	0x5
ARM GAS  /var/folders/f9/8bk2lnw15zn4cbgn6wrnb4lm0000gn/T//cc47W8rL.s 			page 146


 7202 0064 00       		.uleb128 0
 7203 0065 88040000 		.4byte	.LASF16
 7204 0069 05       		.byte	0x5
 7205 006a 00       		.uleb128 0
 7206 006b 065A0000 		.4byte	.LASF17
 7207 006f 05       		.byte	0x5
 7208 0070 00       		.uleb128 0
 7209 0071 89670000 		.4byte	.LASF18
 7210 0075 05       		.byte	0x5
 7211 0076 00       		.uleb128 0
 7212 0077 58180000 		.4byte	.LASF19
 7213 007b 05       		.byte	0x5
 7214 007c 00       		.uleb128 0
 7215 007d 00230000 		.4byte	.LASF20
 7216 0081 05       		.byte	0x5
 7217 0082 00       		.uleb128 0
 7218 0083 80630000 		.4byte	.LASF21
 7219 0087 05       		.byte	0x5
 7220 0088 00       		.uleb128 0
 7221 0089 BB410000 		.4byte	.LASF22
 7222 008d 05       		.byte	0x5
 7223 008e 00       		.uleb128 0
 7224 008f DC4E0000 		.4byte	.LASF23
 7225 0093 05       		.byte	0x5
 7226 0094 00       		.uleb128 0
 7227 0095 42560000 		.4byte	.LASF24
 7228 0099 05       		.byte	0x5
 7229 009a 00       		.uleb128 0
 7230 009b 140E0000 		.4byte	.LASF25
 7231 009f 05       		.byte	0x5
 7232 00a0 00       		.uleb128 0
 7233 00a1 DF050000 		.4byte	.LASF26
 7234 00a5 05       		.byte	0x5
 7235 00a6 00       		.uleb128 0
 7236 00a7 96430000 		.4byte	.LASF27
 7237 00ab 05       		.byte	0x5
 7238 00ac 00       		.uleb128 0
 7239 00ad E7240000 		.4byte	.LASF28
 7240 00b1 05       		.byte	0x5
 7241 00b2 00       		.uleb128 0
 7242 00b3 96150000 		.4byte	.LASF29
 7243 00b7 05       		.byte	0x5
 7244 00b8 00       		.uleb128 0
 7245 00b9 BE750000 		.4byte	.LASF30
 7246 00bd 05       		.byte	0x5
 7247 00be 00       		.uleb128 0
 7248 00bf F9560000 		.4byte	.LASF31
 7249 00c3 05       		.byte	0x5
 7250 00c4 00       		.uleb128 0
 7251 00c5 65230000 		.4byte	.LASF32
 7252 00c9 05       		.byte	0x5
 7253 00ca 00       		.uleb128 0
 7254 00cb 97440000 		.4byte	.LASF33
 7255 00cf 05       		.byte	0x5
 7256 00d0 00       		.uleb128 0
 7257 00d1 855F0000 		.4byte	.LASF34
 7258 00d5 05       		.byte	0x5
ARM GAS  /var/folders/f9/8bk2lnw15zn4cbgn6wrnb4lm0000gn/T//cc47W8rL.s 			page 147


 7259 00d6 00       		.uleb128 0
 7260 00d7 B0470000 		.4byte	.LASF35
 7261 00db 05       		.byte	0x5
 7262 00dc 00       		.uleb128 0
 7263 00dd 32620000 		.4byte	.LASF36
 7264 00e1 05       		.byte	0x5
 7265 00e2 00       		.uleb128 0
 7266 00e3 75170000 		.4byte	.LASF37
 7267 00e7 05       		.byte	0x5
 7268 00e8 00       		.uleb128 0
 7269 00e9 F9380000 		.4byte	.LASF38
 7270 00ed 05       		.byte	0x5
 7271 00ee 00       		.uleb128 0
 7272 00ef 79060000 		.4byte	.LASF39
 7273 00f3 05       		.byte	0x5
 7274 00f4 00       		.uleb128 0
 7275 00f5 8E070000 		.4byte	.LASF40
 7276 00f9 05       		.byte	0x5
 7277 00fa 00       		.uleb128 0
 7278 00fb B1770000 		.4byte	.LASF41
 7279 00ff 05       		.byte	0x5
 7280 0100 00       		.uleb128 0
 7281 0101 8B410000 		.4byte	.LASF42
 7282 0105 05       		.byte	0x5
 7283 0106 00       		.uleb128 0
 7284 0107 354A0000 		.4byte	.LASF43
 7285 010b 05       		.byte	0x5
 7286 010c 00       		.uleb128 0
 7287 010d A8360000 		.4byte	.LASF44
 7288 0111 05       		.byte	0x5
 7289 0112 00       		.uleb128 0
 7290 0113 2E6D0000 		.4byte	.LASF45
 7291 0117 05       		.byte	0x5
 7292 0118 00       		.uleb128 0
 7293 0119 C9630000 		.4byte	.LASF46
 7294 011d 05       		.byte	0x5
 7295 011e 00       		.uleb128 0
 7296 011f AB150000 		.4byte	.LASF47
 7297 0123 05       		.byte	0x5
 7298 0124 00       		.uleb128 0
 7299 0125 5F720000 		.4byte	.LASF48
 7300 0129 05       		.byte	0x5
 7301 012a 00       		.uleb128 0
 7302 012b 02550000 		.4byte	.LASF49
 7303 012f 05       		.byte	0x5
 7304 0130 00       		.uleb128 0
 7305 0131 6C790000 		.4byte	.LASF50
 7306 0135 05       		.byte	0x5
 7307 0136 00       		.uleb128 0
 7308 0137 97120000 		.4byte	.LASF51
 7309 013b 05       		.byte	0x5
 7310 013c 00       		.uleb128 0
 7311 013d 33580000 		.4byte	.LASF52
 7312 0141 05       		.byte	0x5
 7313 0142 00       		.uleb128 0
 7314 0143 3D5F0000 		.4byte	.LASF53
 7315 0147 05       		.byte	0x5
ARM GAS  /var/folders/f9/8bk2lnw15zn4cbgn6wrnb4lm0000gn/T//cc47W8rL.s 			page 148


 7316 0148 00       		.uleb128 0
 7317 0149 5B390000 		.4byte	.LASF54
 7318 014d 05       		.byte	0x5
 7319 014e 00       		.uleb128 0
 7320 014f DA140000 		.4byte	.LASF55
 7321 0153 05       		.byte	0x5
 7322 0154 00       		.uleb128 0
 7323 0155 D3570000 		.4byte	.LASF56
 7324 0159 05       		.byte	0x5
 7325 015a 00       		.uleb128 0
 7326 015b 863A0000 		.4byte	.LASF57
 7327 015f 05       		.byte	0x5
 7328 0160 00       		.uleb128 0
 7329 0161 AE090000 		.4byte	.LASF58
 7330 0165 05       		.byte	0x5
 7331 0166 00       		.uleb128 0
 7332 0167 CE370000 		.4byte	.LASF59
 7333 016b 05       		.byte	0x5
 7334 016c 00       		.uleb128 0
 7335 016d 2C700000 		.4byte	.LASF60
 7336 0171 05       		.byte	0x5
 7337 0172 00       		.uleb128 0
 7338 0173 B1570000 		.4byte	.LASF61
 7339 0177 05       		.byte	0x5
 7340 0178 00       		.uleb128 0
 7341 0179 1D240000 		.4byte	.LASF62
 7342 017d 05       		.byte	0x5
 7343 017e 00       		.uleb128 0
 7344 017f 1E620000 		.4byte	.LASF63
 7345 0183 05       		.byte	0x5
 7346 0184 00       		.uleb128 0
 7347 0185 55620000 		.4byte	.LASF64
 7348 0189 05       		.byte	0x5
 7349 018a 00       		.uleb128 0
 7350 018b 06240000 		.4byte	.LASF65
 7351 018f 05       		.byte	0x5
 7352 0190 00       		.uleb128 0
 7353 0191 2B0F0000 		.4byte	.LASF66
 7354 0195 05       		.byte	0x5
 7355 0196 00       		.uleb128 0
 7356 0197 B4670000 		.4byte	.LASF67
 7357 019b 05       		.byte	0x5
 7358 019c 00       		.uleb128 0
 7359 019d 44390000 		.4byte	.LASF68
 7360 01a1 05       		.byte	0x5
 7361 01a2 00       		.uleb128 0
 7362 01a3 95690000 		.4byte	.LASF69
 7363 01a7 05       		.byte	0x5
 7364 01a8 00       		.uleb128 0
 7365 01a9 7D010000 		.4byte	.LASF70
 7366 01ad 05       		.byte	0x5
 7367 01ae 00       		.uleb128 0
 7368 01af 86140000 		.4byte	.LASF71
 7369 01b3 05       		.byte	0x5
 7370 01b4 00       		.uleb128 0
 7371 01b5 183E0000 		.4byte	.LASF72
 7372 01b9 05       		.byte	0x5
ARM GAS  /var/folders/f9/8bk2lnw15zn4cbgn6wrnb4lm0000gn/T//cc47W8rL.s 			page 149


 7373 01ba 00       		.uleb128 0
 7374 01bb 435B0000 		.4byte	.LASF73
 7375 01bf 05       		.byte	0x5
 7376 01c0 00       		.uleb128 0
 7377 01c1 A3710000 		.4byte	.LASF74
 7378 01c5 05       		.byte	0x5
 7379 01c6 00       		.uleb128 0
 7380 01c7 96610000 		.4byte	.LASF75
 7381 01cb 05       		.byte	0x5
 7382 01cc 00       		.uleb128 0
 7383 01cd F55C0000 		.4byte	.LASF76
 7384 01d1 05       		.byte	0x5
 7385 01d2 00       		.uleb128 0
 7386 01d3 B8100000 		.4byte	.LASF77
 7387 01d7 05       		.byte	0x5
 7388 01d8 00       		.uleb128 0
 7389 01d9 2D410000 		.4byte	.LASF78
 7390 01dd 05       		.byte	0x5
 7391 01de 00       		.uleb128 0
 7392 01df F05E0000 		.4byte	.LASF79
 7393 01e3 05       		.byte	0x5
 7394 01e4 00       		.uleb128 0
 7395 01e5 7E150000 		.4byte	.LASF80
 7396 01e9 05       		.byte	0x5
 7397 01ea 00       		.uleb128 0
 7398 01eb 534B0000 		.4byte	.LASF81
 7399 01ef 05       		.byte	0x5
 7400 01f0 00       		.uleb128 0
 7401 01f1 B52E0000 		.4byte	.LASF82
 7402 01f5 05       		.byte	0x5
 7403 01f6 00       		.uleb128 0
 7404 01f7 D5160000 		.4byte	.LASF83
 7405 01fb 05       		.byte	0x5
 7406 01fc 00       		.uleb128 0
 7407 01fd 03100000 		.4byte	.LASF84
 7408 0201 05       		.byte	0x5
 7409 0202 00       		.uleb128 0
 7410 0203 BF390000 		.4byte	.LASF85
 7411 0207 05       		.byte	0x5
 7412 0208 00       		.uleb128 0
 7413 0209 E7290000 		.4byte	.LASF86
 7414 020d 05       		.byte	0x5
 7415 020e 00       		.uleb128 0
 7416 020f 9C780000 		.4byte	.LASF87
 7417 0213 05       		.byte	0x5
 7418 0214 00       		.uleb128 0
 7419 0215 EE640000 		.4byte	.LASF88
 7420 0219 05       		.byte	0x5
 7421 021a 00       		.uleb128 0
 7422 021b 293E0000 		.4byte	.LASF89
 7423 021f 05       		.byte	0x5
 7424 0220 00       		.uleb128 0
 7425 0221 B00A0000 		.4byte	.LASF90
 7426 0225 05       		.byte	0x5
 7427 0226 00       		.uleb128 0
 7428 0227 9F300000 		.4byte	.LASF91
 7429 022b 05       		.byte	0x5
ARM GAS  /var/folders/f9/8bk2lnw15zn4cbgn6wrnb4lm0000gn/T//cc47W8rL.s 			page 150


 7430 022c 00       		.uleb128 0
 7431 022d D7510000 		.4byte	.LASF92
 7432 0231 05       		.byte	0x5
 7433 0232 00       		.uleb128 0
 7434 0233 08650000 		.4byte	.LASF93
 7435 0237 05       		.byte	0x5
 7436 0238 00       		.uleb128 0
 7437 0239 CB760000 		.4byte	.LASF94
 7438 023d 05       		.byte	0x5
 7439 023e 00       		.uleb128 0
 7440 023f C05F0000 		.4byte	.LASF95
 7441 0243 05       		.byte	0x5
 7442 0244 00       		.uleb128 0
 7443 0245 DB250000 		.4byte	.LASF96
 7444 0249 05       		.byte	0x5
 7445 024a 00       		.uleb128 0
 7446 024b B05B0000 		.4byte	.LASF97
 7447 024f 05       		.byte	0x5
 7448 0250 00       		.uleb128 0
 7449 0251 09640000 		.4byte	.LASF98
 7450 0255 05       		.byte	0x5
 7451 0256 00       		.uleb128 0
 7452 0257 EF780000 		.4byte	.LASF99
 7453 025b 05       		.byte	0x5
 7454 025c 00       		.uleb128 0
 7455 025d 7F070000 		.4byte	.LASF100
 7456 0261 05       		.byte	0x5
 7457 0262 00       		.uleb128 0
 7458 0263 E6580000 		.4byte	.LASF101
 7459 0267 05       		.byte	0x5
 7460 0268 00       		.uleb128 0
 7461 0269 B3650000 		.4byte	.LASF102
 7462 026d 05       		.byte	0x5
 7463 026e 00       		.uleb128 0
 7464 026f 7C680000 		.4byte	.LASF103
 7465 0273 05       		.byte	0x5
 7466 0274 00       		.uleb128 0
 7467 0275 64290000 		.4byte	.LASF104
 7468 0279 05       		.byte	0x5
 7469 027a 00       		.uleb128 0
 7470 027b B1500000 		.4byte	.LASF105
 7471 027f 05       		.byte	0x5
 7472 0280 00       		.uleb128 0
 7473 0281 69540000 		.4byte	.LASF106
 7474 0285 05       		.byte	0x5
 7475 0286 00       		.uleb128 0
 7476 0287 16510000 		.4byte	.LASF107
 7477 028b 05       		.byte	0x5
 7478 028c 00       		.uleb128 0
 7479 028d 1B160000 		.4byte	.LASF108
 7480 0291 05       		.byte	0x5
 7481 0292 00       		.uleb128 0
 7482 0293 A0000000 		.4byte	.LASF109
 7483 0297 05       		.byte	0x5
 7484 0298 00       		.uleb128 0
 7485 0299 90310000 		.4byte	.LASF110
 7486 029d 05       		.byte	0x5
ARM GAS  /var/folders/f9/8bk2lnw15zn4cbgn6wrnb4lm0000gn/T//cc47W8rL.s 			page 151


 7487 029e 00       		.uleb128 0
 7488 029f DE200000 		.4byte	.LASF111
 7489 02a3 05       		.byte	0x5
 7490 02a4 00       		.uleb128 0
 7491 02a5 A8730000 		.4byte	.LASF112
 7492 02a9 05       		.byte	0x5
 7493 02aa 00       		.uleb128 0
 7494 02ab CF780000 		.4byte	.LASF113
 7495 02af 05       		.byte	0x5
 7496 02b0 00       		.uleb128 0
 7497 02b1 92130000 		.4byte	.LASF114
 7498 02b5 05       		.byte	0x5
 7499 02b6 00       		.uleb128 0
 7500 02b7 3F480000 		.4byte	.LASF115
 7501 02bb 05       		.byte	0x5
 7502 02bc 00       		.uleb128 0
 7503 02bd 72470000 		.4byte	.LASF116
 7504 02c1 05       		.byte	0x5
 7505 02c2 00       		.uleb128 0
 7506 02c3 D8470000 		.4byte	.LASF117
 7507 02c7 05       		.byte	0x5
 7508 02c8 00       		.uleb128 0
 7509 02c9 3F460000 		.4byte	.LASF118
 7510 02cd 05       		.byte	0x5
 7511 02ce 00       		.uleb128 0
 7512 02cf BA3E0000 		.4byte	.LASF119
 7513 02d3 05       		.byte	0x5
 7514 02d4 00       		.uleb128 0
 7515 02d5 553A0000 		.4byte	.LASF120
 7516 02d9 05       		.byte	0x5
 7517 02da 00       		.uleb128 0
 7518 02db A2470000 		.4byte	.LASF121
 7519 02df 05       		.byte	0x5
 7520 02e0 00       		.uleb128 0
 7521 02e1 28460000 		.4byte	.LASF122
 7522 02e5 05       		.byte	0x5
 7523 02e6 00       		.uleb128 0
 7524 02e7 6B1A0000 		.4byte	.LASF123
 7525 02eb 05       		.byte	0x5
 7526 02ec 00       		.uleb128 0
 7527 02ed FE170000 		.4byte	.LASF124
 7528 02f1 05       		.byte	0x5
 7529 02f2 00       		.uleb128 0
 7530 02f3 185F0000 		.4byte	.LASF125
 7531 02f7 05       		.byte	0x5
 7532 02f8 00       		.uleb128 0
 7533 02f9 C71A0000 		.4byte	.LASF126
 7534 02fd 05       		.byte	0x5
 7535 02fe 00       		.uleb128 0
 7536 02ff 9A3D0000 		.4byte	.LASF127
 7537 0303 05       		.byte	0x5
 7538 0304 00       		.uleb128 0
 7539 0305 87240000 		.4byte	.LASF128
 7540 0309 05       		.byte	0x5
 7541 030a 00       		.uleb128 0
 7542 030b 0B2A0000 		.4byte	.LASF129
 7543 030f 05       		.byte	0x5
ARM GAS  /var/folders/f9/8bk2lnw15zn4cbgn6wrnb4lm0000gn/T//cc47W8rL.s 			page 152


 7544 0310 00       		.uleb128 0
 7545 0311 A4280000 		.4byte	.LASF130
 7546 0315 05       		.byte	0x5
 7547 0316 00       		.uleb128 0
 7548 0317 64060000 		.4byte	.LASF131
 7549 031b 05       		.byte	0x5
 7550 031c 00       		.uleb128 0
 7551 031d 02350000 		.4byte	.LASF132
 7552 0321 05       		.byte	0x5
 7553 0322 00       		.uleb128 0
 7554 0323 581C0000 		.4byte	.LASF133
 7555 0327 05       		.byte	0x5
 7556 0328 00       		.uleb128 0
 7557 0329 840E0000 		.4byte	.LASF134
 7558 032d 05       		.byte	0x5
 7559 032e 00       		.uleb128 0
 7560 032f 1F040000 		.4byte	.LASF135
 7561 0333 05       		.byte	0x5
 7562 0334 00       		.uleb128 0
 7563 0335 7C520000 		.4byte	.LASF136
 7564 0339 05       		.byte	0x5
 7565 033a 00       		.uleb128 0
 7566 033b D4770000 		.4byte	.LASF137
 7567 033f 05       		.byte	0x5
 7568 0340 00       		.uleb128 0
 7569 0341 C9200000 		.4byte	.LASF138
 7570 0345 05       		.byte	0x5
 7571 0346 00       		.uleb128 0
 7572 0347 9F040000 		.4byte	.LASF139
 7573 034b 05       		.byte	0x5
 7574 034c 00       		.uleb128 0
 7575 034d 12680000 		.4byte	.LASF140
 7576 0351 05       		.byte	0x5
 7577 0352 00       		.uleb128 0
 7578 0353 C9720000 		.4byte	.LASF141
 7579 0357 05       		.byte	0x5
 7580 0358 00       		.uleb128 0
 7581 0359 23140000 		.4byte	.LASF142
 7582 035d 05       		.byte	0x5
 7583 035e 00       		.uleb128 0
 7584 035f BB340000 		.4byte	.LASF143
 7585 0363 05       		.byte	0x5
 7586 0364 00       		.uleb128 0
 7587 0365 5A6C0000 		.4byte	.LASF144
 7588 0369 05       		.byte	0x5
 7589 036a 00       		.uleb128 0
 7590 036b 32270000 		.4byte	.LASF145
 7591 036f 05       		.byte	0x5
 7592 0370 00       		.uleb128 0
 7593 0371 A4660000 		.4byte	.LASF146
 7594 0375 05       		.byte	0x5
 7595 0376 00       		.uleb128 0
 7596 0377 BF600000 		.4byte	.LASF147
 7597 037b 05       		.byte	0x5
 7598 037c 00       		.uleb128 0
 7599 037d 2B070000 		.4byte	.LASF148
 7600 0381 05       		.byte	0x5
ARM GAS  /var/folders/f9/8bk2lnw15zn4cbgn6wrnb4lm0000gn/T//cc47W8rL.s 			page 153


 7601 0382 00       		.uleb128 0
 7602 0383 30710000 		.4byte	.LASF149
 7603 0387 05       		.byte	0x5
 7604 0388 00       		.uleb128 0
 7605 0389 12070000 		.4byte	.LASF150
 7606 038d 05       		.byte	0x5
 7607 038e 00       		.uleb128 0
 7608 038f 6D350000 		.4byte	.LASF151
 7609 0393 05       		.byte	0x5
 7610 0394 00       		.uleb128 0
 7611 0395 AA260000 		.4byte	.LASF152
 7612 0399 05       		.byte	0x5
 7613 039a 00       		.uleb128 0
 7614 039b 23450000 		.4byte	.LASF153
 7615 039f 05       		.byte	0x5
 7616 03a0 00       		.uleb128 0
 7617 03a1 3D000000 		.4byte	.LASF154
 7618 03a5 05       		.byte	0x5
 7619 03a6 00       		.uleb128 0
 7620 03a7 943E0000 		.4byte	.LASF155
 7621 03ab 05       		.byte	0x5
 7622 03ac 00       		.uleb128 0
 7623 03ad B6640000 		.4byte	.LASF156
 7624 03b1 05       		.byte	0x5
 7625 03b2 00       		.uleb128 0
 7626 03b3 EF250000 		.4byte	.LASF157
 7627 03b7 05       		.byte	0x5
 7628 03b8 00       		.uleb128 0
 7629 03b9 BF3B0000 		.4byte	.LASF158
 7630 03bd 05       		.byte	0x5
 7631 03be 00       		.uleb128 0
 7632 03bf F7530000 		.4byte	.LASF159
 7633 03c3 05       		.byte	0x5
 7634 03c4 00       		.uleb128 0
 7635 03c5 BA450000 		.4byte	.LASF160
 7636 03c9 05       		.byte	0x5
 7637 03ca 00       		.uleb128 0
 7638 03cb 9C110000 		.4byte	.LASF161
 7639 03cf 05       		.byte	0x5
 7640 03d0 00       		.uleb128 0
 7641 03d1 834E0000 		.4byte	.LASF162
 7642 03d5 05       		.byte	0x5
 7643 03d6 00       		.uleb128 0
 7644 03d7 B0250000 		.4byte	.LASF163
 7645 03db 05       		.byte	0x5
 7646 03dc 00       		.uleb128 0
 7647 03dd 00370000 		.4byte	.LASF164
 7648 03e1 05       		.byte	0x5
 7649 03e2 00       		.uleb128 0
 7650 03e3 8D050000 		.4byte	.LASF165
 7651 03e7 05       		.byte	0x5
 7652 03e8 00       		.uleb128 0
 7653 03e9 80110000 		.4byte	.LASF166
 7654 03ed 05       		.byte	0x5
 7655 03ee 00       		.uleb128 0
 7656 03ef 3D0F0000 		.4byte	.LASF167
 7657 03f3 05       		.byte	0x5
ARM GAS  /var/folders/f9/8bk2lnw15zn4cbgn6wrnb4lm0000gn/T//cc47W8rL.s 			page 154


 7658 03f4 00       		.uleb128 0
 7659 03f5 9C020000 		.4byte	.LASF168
 7660 03f9 05       		.byte	0x5
 7661 03fa 00       		.uleb128 0
 7662 03fb B2520000 		.4byte	.LASF169
 7663 03ff 05       		.byte	0x5
 7664 0400 00       		.uleb128 0
 7665 0401 01490000 		.4byte	.LASF170
 7666 0405 05       		.byte	0x5
 7667 0406 00       		.uleb128 0
 7668 0407 0D060000 		.4byte	.LASF171
 7669 040b 05       		.byte	0x5
 7670 040c 00       		.uleb128 0
 7671 040d 4F530000 		.4byte	.LASF172
 7672 0411 05       		.byte	0x5
 7673 0412 00       		.uleb128 0
 7674 0413 CA190000 		.4byte	.LASF173
 7675 0417 05       		.byte	0x5
 7676 0418 00       		.uleb128 0
 7677 0419 D2710000 		.4byte	.LASF174
 7678 041d 05       		.byte	0x5
 7679 041e 00       		.uleb128 0
 7680 041f 28310000 		.4byte	.LASF175
 7681 0423 05       		.byte	0x5
 7682 0424 00       		.uleb128 0
 7683 0425 3C4B0000 		.4byte	.LASF176
 7684 0429 05       		.byte	0x5
 7685 042a 00       		.uleb128 0
 7686 042b A0140000 		.4byte	.LASF177
 7687 042f 05       		.byte	0x5
 7688 0430 00       		.uleb128 0
 7689 0431 ED1E0000 		.4byte	.LASF178
 7690 0435 05       		.byte	0x5
 7691 0436 00       		.uleb128 0
 7692 0437 F0630000 		.4byte	.LASF179
 7693 043b 05       		.byte	0x5
 7694 043c 00       		.uleb128 0
 7695 043d E0010000 		.4byte	.LASF180
 7696 0441 05       		.byte	0x5
 7697 0442 00       		.uleb128 0
 7698 0443 88390000 		.4byte	.LASF181
 7699 0447 05       		.byte	0x5
 7700 0448 00       		.uleb128 0
 7701 0449 E6620000 		.4byte	.LASF182
 7702 044d 05       		.byte	0x5
 7703 044e 00       		.uleb128 0
 7704 044f 62010000 		.4byte	.LASF183
 7705 0453 05       		.byte	0x5
 7706 0454 00       		.uleb128 0
 7707 0455 D9740000 		.4byte	.LASF184
 7708 0459 05       		.byte	0x5
 7709 045a 00       		.uleb128 0
 7710 045b 02360000 		.4byte	.LASF185
 7711 045f 05       		.byte	0x5
 7712 0460 00       		.uleb128 0
 7713 0461 46760000 		.4byte	.LASF186
 7714 0465 05       		.byte	0x5
ARM GAS  /var/folders/f9/8bk2lnw15zn4cbgn6wrnb4lm0000gn/T//cc47W8rL.s 			page 155


 7715 0466 00       		.uleb128 0
 7716 0467 D00D0000 		.4byte	.LASF187
 7717 046b 05       		.byte	0x5
 7718 046c 00       		.uleb128 0
 7719 046d E0310000 		.4byte	.LASF188
 7720 0471 05       		.byte	0x5
 7721 0472 00       		.uleb128 0
 7722 0473 C8250000 		.4byte	.LASF189
 7723 0477 05       		.byte	0x5
 7724 0478 00       		.uleb128 0
 7725 0479 36260000 		.4byte	.LASF190
 7726 047d 05       		.byte	0x5
 7727 047e 00       		.uleb128 0
 7728 047f EB0A0000 		.4byte	.LASF191
 7729 0483 05       		.byte	0x5
 7730 0484 00       		.uleb128 0
 7731 0485 59310000 		.4byte	.LASF192
 7732 0489 05       		.byte	0x5
 7733 048a 00       		.uleb128 0
 7734 048b 3C1C0000 		.4byte	.LASF193
 7735 048f 05       		.byte	0x5
 7736 0490 00       		.uleb128 0
 7737 0491 D4550000 		.4byte	.LASF194
 7738 0495 05       		.byte	0x5
 7739 0496 00       		.uleb128 0
 7740 0497 EA040000 		.4byte	.LASF195
 7741 049b 05       		.byte	0x5
 7742 049c 00       		.uleb128 0
 7743 049d 01460000 		.4byte	.LASF196
 7744 04a1 05       		.byte	0x5
 7745 04a2 00       		.uleb128 0
 7746 04a3 10380000 		.4byte	.LASF197
 7747 04a7 05       		.byte	0x5
 7748 04a8 00       		.uleb128 0
 7749 04a9 A0650000 		.4byte	.LASF198
 7750 04ad 05       		.byte	0x5
 7751 04ae 00       		.uleb128 0
 7752 04af 90510000 		.4byte	.LASF199
 7753 04b3 05       		.byte	0x5
 7754 04b4 00       		.uleb128 0
 7755 04b5 57790000 		.4byte	.LASF200
 7756 04b9 05       		.byte	0x5
 7757 04ba 00       		.uleb128 0
 7758 04bb 8C420000 		.4byte	.LASF201
 7759 04bf 05       		.byte	0x5
 7760 04c0 00       		.uleb128 0
 7761 04c1 FB3D0000 		.4byte	.LASF202
 7762 04c5 05       		.byte	0x5
 7763 04c6 00       		.uleb128 0
 7764 04c7 A8410000 		.4byte	.LASF203
 7765 04cb 05       		.byte	0x5
 7766 04cc 00       		.uleb128 0
 7767 04cd E5510000 		.4byte	.LASF204
 7768 04d1 05       		.byte	0x5
 7769 04d2 00       		.uleb128 0
 7770 04d3 66030000 		.4byte	.LASF205
 7771 04d7 05       		.byte	0x5
ARM GAS  /var/folders/f9/8bk2lnw15zn4cbgn6wrnb4lm0000gn/T//cc47W8rL.s 			page 156


 7772 04d8 00       		.uleb128 0
 7773 04d9 84490000 		.4byte	.LASF206
 7774 04dd 05       		.byte	0x5
 7775 04de 00       		.uleb128 0
 7776 04df 734C0000 		.4byte	.LASF207
 7777 04e3 05       		.byte	0x5
 7778 04e4 00       		.uleb128 0
 7779 04e5 BF0C0000 		.4byte	.LASF208
 7780 04e9 05       		.byte	0x5
 7781 04ea 00       		.uleb128 0
 7782 04eb 18790000 		.4byte	.LASF209
 7783 04ef 05       		.byte	0x5
 7784 04f0 00       		.uleb128 0
 7785 04f1 BB5A0000 		.4byte	.LASF210
 7786 04f5 05       		.byte	0x5
 7787 04f6 00       		.uleb128 0
 7788 04f7 F0670000 		.4byte	.LASF211
 7789 04fb 05       		.byte	0x5
 7790 04fc 00       		.uleb128 0
 7791 04fd 35630000 		.4byte	.LASF212
 7792 0501 05       		.byte	0x5
 7793 0502 00       		.uleb128 0
 7794 0503 0B730000 		.4byte	.LASF213
 7795 0507 05       		.byte	0x5
 7796 0508 00       		.uleb128 0
 7797 0509 906E0000 		.4byte	.LASF214
 7798 050d 05       		.byte	0x5
 7799 050e 00       		.uleb128 0
 7800 050f AB6B0000 		.4byte	.LASF215
 7801 0513 05       		.byte	0x5
 7802 0514 00       		.uleb128 0
 7803 0515 FE600000 		.4byte	.LASF216
 7804 0519 05       		.byte	0x5
 7805 051a 00       		.uleb128 0
 7806 051b 6B5D0000 		.4byte	.LASF217
 7807 051f 05       		.byte	0x5
 7808 0520 00       		.uleb128 0
 7809 0521 75090000 		.4byte	.LASF218
 7810 0525 05       		.byte	0x5
 7811 0526 00       		.uleb128 0
 7812 0527 2A3C0000 		.4byte	.LASF219
 7813 052b 05       		.byte	0x5
 7814 052c 00       		.uleb128 0
 7815 052d 186E0000 		.4byte	.LASF220
 7816 0531 05       		.byte	0x5
 7817 0532 00       		.uleb128 0
 7818 0533 73160000 		.4byte	.LASF221
 7819 0537 05       		.byte	0x5
 7820 0538 00       		.uleb128 0
 7821 0539 F36A0000 		.4byte	.LASF222
 7822 053d 05       		.byte	0x5
 7823 053e 00       		.uleb128 0
 7824 053f F0790000 		.4byte	.LASF223
 7825 0543 05       		.byte	0x5
 7826 0544 00       		.uleb128 0
 7827 0545 6C570000 		.4byte	.LASF224
 7828 0549 05       		.byte	0x5
ARM GAS  /var/folders/f9/8bk2lnw15zn4cbgn6wrnb4lm0000gn/T//cc47W8rL.s 			page 157


 7829 054a 00       		.uleb128 0
 7830 054b 0A580000 		.4byte	.LASF225
 7831 054f 05       		.byte	0x5
 7832 0550 00       		.uleb128 0
 7833 0551 03620000 		.4byte	.LASF226
 7834 0555 05       		.byte	0x5
 7835 0556 00       		.uleb128 0
 7836 0557 5F6F0000 		.4byte	.LASF227
 7837 055b 05       		.byte	0x5
 7838 055c 00       		.uleb128 0
 7839 055d F92B0000 		.4byte	.LASF228
 7840 0561 05       		.byte	0x5
 7841 0562 00       		.uleb128 0
 7842 0563 D8460000 		.4byte	.LASF229
 7843 0567 05       		.byte	0x5
 7844 0568 00       		.uleb128 0
 7845 0569 164F0000 		.4byte	.LASF230
 7846 056d 05       		.byte	0x5
 7847 056e 00       		.uleb128 0
 7848 056f 70050000 		.4byte	.LASF231
 7849 0573 05       		.byte	0x5
 7850 0574 00       		.uleb128 0
 7851 0575 A1600000 		.4byte	.LASF232
 7852 0579 05       		.byte	0x5
 7853 057a 00       		.uleb128 0
 7854 057b E8120000 		.4byte	.LASF233
 7855 057f 05       		.byte	0x5
 7856 0580 00       		.uleb128 0
 7857 0581 DC640000 		.4byte	.LASF234
 7858 0585 05       		.byte	0x5
 7859 0586 00       		.uleb128 0
 7860 0587 C5030000 		.4byte	.LASF235
 7861 058b 05       		.byte	0x5
 7862 058c 00       		.uleb128 0
 7863 058d 80540000 		.4byte	.LASF236
 7864 0591 05       		.byte	0x5
 7865 0592 00       		.uleb128 0
 7866 0593 B2700000 		.4byte	.LASF237
 7867 0597 05       		.byte	0x5
 7868 0598 00       		.uleb128 0
 7869 0599 D63D0000 		.4byte	.LASF238
 7870 059d 05       		.byte	0x5
 7871 059e 00       		.uleb128 0
 7872 059f 76130000 		.4byte	.LASF239
 7873 05a3 05       		.byte	0x5
 7874 05a4 00       		.uleb128 0
 7875 05a5 092F0000 		.4byte	.LASF240
 7876 05a9 05       		.byte	0x5
 7877 05aa 00       		.uleb128 0
 7878 05ab 7C020000 		.4byte	.LASF241
 7879 05af 05       		.byte	0x5
 7880 05b0 00       		.uleb128 0
 7881 05b1 1A2B0000 		.4byte	.LASF242
 7882 05b5 05       		.byte	0x5
 7883 05b6 00       		.uleb128 0
 7884 05b7 C12C0000 		.4byte	.LASF243
 7885 05bb 05       		.byte	0x5
ARM GAS  /var/folders/f9/8bk2lnw15zn4cbgn6wrnb4lm0000gn/T//cc47W8rL.s 			page 158


 7886 05bc 00       		.uleb128 0
 7887 05bd 1E640000 		.4byte	.LASF244
 7888 05c1 05       		.byte	0x5
 7889 05c2 00       		.uleb128 0
 7890 05c3 F06B0000 		.4byte	.LASF245
 7891 05c7 05       		.byte	0x5
 7892 05c8 00       		.uleb128 0
 7893 05c9 3C080000 		.4byte	.LASF246
 7894 05cd 05       		.byte	0x5
 7895 05ce 00       		.uleb128 0
 7896 05cf A4220000 		.4byte	.LASF247
 7897 05d3 05       		.byte	0x5
 7898 05d4 00       		.uleb128 0
 7899 05d5 9E680000 		.4byte	.LASF248
 7900 05d9 05       		.byte	0x5
 7901 05da 00       		.uleb128 0
 7902 05db AC560000 		.4byte	.LASF249
 7903 05df 05       		.byte	0x5
 7904 05e0 00       		.uleb128 0
 7905 05e1 723E0000 		.4byte	.LASF250
 7906 05e5 05       		.byte	0x5
 7907 05e6 00       		.uleb128 0
 7908 05e7 745A0000 		.4byte	.LASF251
 7909 05eb 05       		.byte	0x5
 7910 05ec 00       		.uleb128 0
 7911 05ed CD700000 		.4byte	.LASF252
 7912 05f1 05       		.byte	0x5
 7913 05f2 00       		.uleb128 0
 7914 05f3 DC5E0000 		.4byte	.LASF253
 7915 05f7 05       		.byte	0x5
 7916 05f8 00       		.uleb128 0
 7917 05f9 EF370000 		.4byte	.LASF254
 7918 05fd 05       		.byte	0x5
 7919 05fe 00       		.uleb128 0
 7920 05ff 12530000 		.4byte	.LASF255
 7921 0603 05       		.byte	0x5
 7922 0604 00       		.uleb128 0
 7923 0605 F3310000 		.4byte	.LASF256
 7924 0609 05       		.byte	0x5
 7925 060a 00       		.uleb128 0
 7926 060b 72590000 		.4byte	.LASF257
 7927 060f 05       		.byte	0x5
 7928 0610 00       		.uleb128 0
 7929 0611 14220000 		.4byte	.LASF258
 7930 0615 05       		.byte	0x5
 7931 0616 00       		.uleb128 0
 7932 0617 9D6A0000 		.4byte	.LASF259
 7933 061b 05       		.byte	0x5
 7934 061c 00       		.uleb128 0
 7935 061d 027A0000 		.4byte	.LASF260
 7936 0621 05       		.byte	0x5
 7937 0622 00       		.uleb128 0
 7938 0623 05050000 		.4byte	.LASF261
 7939 0627 05       		.byte	0x5
 7940 0628 00       		.uleb128 0
 7941 0629 89720000 		.4byte	.LASF262
 7942 062d 05       		.byte	0x5
ARM GAS  /var/folders/f9/8bk2lnw15zn4cbgn6wrnb4lm0000gn/T//cc47W8rL.s 			page 159


 7943 062e 00       		.uleb128 0
 7944 062f AE690000 		.4byte	.LASF263
 7945 0633 05       		.byte	0x5
 7946 0634 00       		.uleb128 0
 7947 0635 555E0000 		.4byte	.LASF264
 7948 0639 05       		.byte	0x5
 7949 063a 00       		.uleb128 0
 7950 063b D6730000 		.4byte	.LASF265
 7951 063f 05       		.byte	0x5
 7952 0640 00       		.uleb128 0
 7953 0641 D92B0000 		.4byte	.LASF266
 7954 0645 05       		.byte	0x5
 7955 0646 00       		.uleb128 0
 7956 0647 560E0000 		.4byte	.LASF267
 7957 064b 05       		.byte	0x5
 7958 064c 00       		.uleb128 0
 7959 064d D1050000 		.4byte	.LASF268
 7960 0651 05       		.byte	0x5
 7961 0652 00       		.uleb128 0
 7962 0653 7E570000 		.4byte	.LASF269
 7963 0657 05       		.byte	0x5
 7964 0658 00       		.uleb128 0
 7965 0659 E65A0000 		.4byte	.LASF270
 7966 065d 05       		.byte	0x5
 7967 065e 00       		.uleb128 0
 7968 065f FD200000 		.4byte	.LASF271
 7969 0663 05       		.byte	0x5
 7970 0664 00       		.uleb128 0
 7971 0665 C3020000 		.4byte	.LASF272
 7972 0669 05       		.byte	0x5
 7973 066a 00       		.uleb128 0
 7974 066b 94480000 		.4byte	.LASF273
 7975 066f 05       		.byte	0x5
 7976 0670 00       		.uleb128 0
 7977 0671 453E0000 		.4byte	.LASF274
 7978 0675 05       		.byte	0x5
 7979 0676 00       		.uleb128 0
 7980 0677 AF0E0000 		.4byte	.LASF275
 7981 067b 05       		.byte	0x5
 7982 067c 00       		.uleb128 0
 7983 067d 655F0000 		.4byte	.LASF276
 7984 0681 05       		.byte	0x5
 7985 0682 00       		.uleb128 0
 7986 0683 040E0000 		.4byte	.LASF277
 7987 0687 05       		.byte	0x5
 7988 0688 00       		.uleb128 0
 7989 0689 2E5F0000 		.4byte	.LASF278
 7990 068d 05       		.byte	0x5
 7991 068e 00       		.uleb128 0
 7992 068f B7440000 		.4byte	.LASF279
 7993 0693 05       		.byte	0x5
 7994 0694 00       		.uleb128 0
 7995 0695 706E0000 		.4byte	.LASF280
 7996 0699 05       		.byte	0x5
 7997 069a 00       		.uleb128 0
 7998 069b 01590000 		.4byte	.LASF281
 7999 069f 05       		.byte	0x5
ARM GAS  /var/folders/f9/8bk2lnw15zn4cbgn6wrnb4lm0000gn/T//cc47W8rL.s 			page 160


 8000 06a0 00       		.uleb128 0
 8001 06a1 2B5D0000 		.4byte	.LASF282
 8002 06a5 05       		.byte	0x5
 8003 06a6 00       		.uleb128 0
 8004 06a7 AB240000 		.4byte	.LASF283
 8005 06ab 05       		.byte	0x5
 8006 06ac 00       		.uleb128 0
 8007 06ad 26400000 		.4byte	.LASF284
 8008 06b1 05       		.byte	0x5
 8009 06b2 00       		.uleb128 0
 8010 06b3 5C5D0000 		.4byte	.LASF285
 8011 06b7 05       		.byte	0x5
 8012 06b8 00       		.uleb128 0
 8013 06b9 32360000 		.4byte	.LASF286
 8014 06bd 05       		.byte	0x5
 8015 06be 00       		.uleb128 0
 8016 06bf 27280000 		.4byte	.LASF287
 8017 06c3 05       		.byte	0x5
 8018 06c4 00       		.uleb128 0
 8019 06c5 05770000 		.4byte	.LASF288
 8020 06c9 05       		.byte	0x5
 8021 06ca 00       		.uleb128 0
 8022 06cb 682D0000 		.4byte	.LASF289
 8023 06cf 05       		.byte	0x5
 8024 06d0 00       		.uleb128 0
 8025 06d1 5D4F0000 		.4byte	.LASF290
 8026 06d5 05       		.byte	0x5
 8027 06d6 00       		.uleb128 0
 8028 06d7 6F000000 		.4byte	.LASF291
 8029 06db 05       		.byte	0x5
 8030 06dc 00       		.uleb128 0
 8031 06dd 85700000 		.4byte	.LASF292
 8032 06e1 05       		.byte	0x5
 8033 06e2 00       		.uleb128 0
 8034 06e3 A04B0000 		.4byte	.LASF293
 8035 06e7 05       		.byte	0x5
 8036 06e8 00       		.uleb128 0
 8037 06e9 9C230000 		.4byte	.LASF294
 8038 06ed 05       		.byte	0x5
 8039 06ee 00       		.uleb128 0
 8040 06ef FE140000 		.4byte	.LASF295
 8041 06f3 05       		.byte	0x5
 8042 06f4 00       		.uleb128 0
 8043 06f5 FD650000 		.4byte	.LASF296
 8044 06f9 05       		.byte	0x5
 8045 06fa 00       		.uleb128 0
 8046 06fb 740E0000 		.4byte	.LASF297
 8047 06ff 05       		.byte	0x5
 8048 0700 00       		.uleb128 0
 8049 0701 8D6A0000 		.4byte	.LASF298
 8050 0705 05       		.byte	0x5
 8051 0706 00       		.uleb128 0
 8052 0707 D1620000 		.4byte	.LASF299
 8053 070b 05       		.byte	0x5
 8054 070c 00       		.uleb128 0
 8055 070d 5B320000 		.4byte	.LASF300
 8056 0711 05       		.byte	0x5
ARM GAS  /var/folders/f9/8bk2lnw15zn4cbgn6wrnb4lm0000gn/T//cc47W8rL.s 			page 161


 8057 0712 00       		.uleb128 0
 8058 0713 34400000 		.4byte	.LASF301
 8059 0717 05       		.byte	0x5
 8060 0718 00       		.uleb128 0
 8061 0719 E05F0000 		.4byte	.LASF302
 8062 071d 05       		.byte	0x5
 8063 071e 00       		.uleb128 0
 8064 071f CB150000 		.4byte	.LASF303
 8065 0723 05       		.byte	0x5
 8066 0724 00       		.uleb128 0
 8067 0725 394C0000 		.4byte	.LASF304
 8068 0729 05       		.byte	0x5
 8069 072a 00       		.uleb128 0
 8070 072b F8390000 		.4byte	.LASF305
 8071 072f 05       		.byte	0x5
 8072 0730 00       		.uleb128 0
 8073 0731 871C0000 		.4byte	.LASF306
 8074 0735 05       		.byte	0x5
 8075 0736 00       		.uleb128 0
 8076 0737 E9000000 		.4byte	.LASF307
 8077 073b 05       		.byte	0x5
 8078 073c 00       		.uleb128 0
 8079 073d 6F2B0000 		.4byte	.LASF308
 8080 0741 05       		.byte	0x5
 8081 0742 00       		.uleb128 0
 8082 0743 A35F0000 		.4byte	.LASF309
 8083 0747 05       		.byte	0x5
 8084 0748 00       		.uleb128 0
 8085 0749 543E0000 		.4byte	.LASF310
 8086 074d 05       		.byte	0x5
 8087 074e 00       		.uleb128 0
 8088 074f 14250000 		.4byte	.LASF311
 8089 0753 05       		.byte	0x5
 8090 0754 00       		.uleb128 0
 8091 0755 0C2C0000 		.4byte	.LASF312
 8092 0759 05       		.byte	0x5
 8093 075a 00       		.uleb128 0
 8094 075b 5B520000 		.4byte	.LASF313
 8095 075f 05       		.byte	0x5
 8096 0760 00       		.uleb128 0
 8097 0761 DC350000 		.4byte	.LASF314
 8098 0765 05       		.byte	0x5
 8099 0766 00       		.uleb128 0
 8100 0767 49230000 		.4byte	.LASF315
 8101 076b 05       		.byte	0x5
 8102 076c 00       		.uleb128 0
 8103 076d CA410000 		.4byte	.LASF316
 8104 0771 05       		.byte	0x5
 8105 0772 00       		.uleb128 0
 8106 0773 3D6B0000 		.4byte	.LASF317
 8107 0777 05       		.byte	0x5
 8108 0778 00       		.uleb128 0
 8109 0779 E6650000 		.4byte	.LASF318
 8110 077d 05       		.byte	0x5
 8111 077e 00       		.uleb128 0
 8112 077f E84C0000 		.4byte	.LASF319
 8113 0783 05       		.byte	0x5
ARM GAS  /var/folders/f9/8bk2lnw15zn4cbgn6wrnb4lm0000gn/T//cc47W8rL.s 			page 162


 8114 0784 00       		.uleb128 0
 8115 0785 4E120000 		.4byte	.LASF320
 8116 0789 05       		.byte	0x5
 8117 078a 00       		.uleb128 0
 8118 078b 93060000 		.4byte	.LASF321
 8119 078f 05       		.byte	0x5
 8120 0790 00       		.uleb128 0
 8121 0791 1E4D0000 		.4byte	.LASF322
 8122 0795 05       		.byte	0x5
 8123 0796 00       		.uleb128 0
 8124 0797 3D5A0000 		.4byte	.LASF323
 8125 079b 05       		.byte	0x5
 8126 079c 00       		.uleb128 0
 8127 079d 0E570000 		.4byte	.LASF324
 8128 07a1 05       		.byte	0x5
 8129 07a2 00       		.uleb128 0
 8130 07a3 5F730000 		.4byte	.LASF325
 8131 07a7 05       		.byte	0x5
 8132 07a8 00       		.uleb128 0
 8133 07a9 9A500000 		.4byte	.LASF326
 8134 07ad 05       		.byte	0x5
 8135 07ae 00       		.uleb128 0
 8136 07af 4E690000 		.4byte	.LASF327
 8137 07b3 05       		.byte	0x5
 8138 07b4 00       		.uleb128 0
 8139 07b5 125E0000 		.4byte	.LASF328
 8140 07b9 05       		.byte	0x5
 8141 07ba 00       		.uleb128 0
 8142 07bb EC360000 		.4byte	.LASF329
 8143 07bf 05       		.byte	0x5
 8144 07c0 00       		.uleb128 0
 8145 07c1 47100000 		.4byte	.LASF330
 8146 07c5 05       		.byte	0x5
 8147 07c6 00       		.uleb128 0
 8148 07c7 E95C0000 		.4byte	.LASF331
 8149 07cb 05       		.byte	0x5
 8150 07cc 00       		.uleb128 0
 8151 07cd A3050000 		.4byte	.LASF332
 8152 07d1 05       		.byte	0x5
 8153 07d2 00       		.uleb128 0
 8154 07d3 5D160000 		.4byte	.LASF333
 8155 07d7 05       		.byte	0x5
 8156 07d8 00       		.uleb128 0
 8157 07d9 6E630000 		.4byte	.LASF334
 8158 07dd 05       		.byte	0x5
 8159 07de 00       		.uleb128 0
 8160 07df 112E0000 		.4byte	.LASF335
 8161 07e3 05       		.byte	0x5
 8162 07e4 00       		.uleb128 0
 8163 07e5 326C0000 		.4byte	.LASF336
 8164 07e9 05       		.byte	0x5
 8165 07ea 00       		.uleb128 0
 8166 07eb C8380000 		.4byte	.LASF337
 8167 07ef 05       		.byte	0x5
 8168 07f0 00       		.uleb128 0
 8169 07f1 E95D0000 		.4byte	.LASF338
 8170 07f5 05       		.byte	0x5
ARM GAS  /var/folders/f9/8bk2lnw15zn4cbgn6wrnb4lm0000gn/T//cc47W8rL.s 			page 163


 8171 07f6 00       		.uleb128 0
 8172 07f7 AB210000 		.4byte	.LASF339
 8173 07fb 05       		.byte	0x5
 8174 07fc 00       		.uleb128 0
 8175 07fd 6A6D0000 		.4byte	.LASF340
 8176 0801 00       		.byte	0
 8177              		.section	.debug_macro,"G",%progbits,wm4.features.h.22.6a4ca7cd053637cc1d0db6c16f39b2d7,comdat
 8178              	.Ldebug_macro2:
 8179 0000 0400     		.2byte	0x4
 8180 0002 00       		.byte	0
 8181 0003 05       		.byte	0x5
 8182 0004 16       		.uleb128 0x16
 8183 0005 D8000000 		.4byte	.LASF345
 8184 0009 05       		.byte	0x5
 8185 000a 1F       		.uleb128 0x1f
 8186 000b FA120000 		.4byte	.LASF346
 8187 000f 05       		.byte	0x5
 8188 0010 26       		.uleb128 0x26
 8189 0011 376A0000 		.4byte	.LASF347
 8190 0015 00       		.byte	0
 8191              		.section	.debug_macro,"G",%progbits,wm4._default_types.h.15.8b2cb27e528498f8ff711db085d6e489,comda
 8192              	.Ldebug_macro3:
 8193 0000 0400     		.2byte	0x4
 8194 0002 00       		.byte	0
 8195 0003 05       		.byte	0x5
 8196 0004 0F       		.uleb128 0xf
 8197 0005 81430000 		.4byte	.LASF348
 8198 0009 05       		.byte	0x5
 8199 000a 1D       		.uleb128 0x1d
 8200 000b 24180000 		.4byte	.LASF349
 8201 000f 05       		.byte	0x5
 8202 0010 27       		.uleb128 0x27
 8203 0011 95260000 		.4byte	.LASF350
 8204 0015 05       		.byte	0x5
 8205 0016 39       		.uleb128 0x39
 8206 0017 7A1E0000 		.4byte	.LASF351
 8207 001b 05       		.byte	0x5
 8208 001c 4F       		.uleb128 0x4f
 8209 001d E2530000 		.4byte	.LASF352
 8210 0021 05       		.byte	0x5
 8211 0022 6A       		.uleb128 0x6a
 8212 0023 EF490000 		.4byte	.LASF353
 8213 0027 05       		.byte	0x5
 8214 0028 8001     		.uleb128 0x80
 8215 002a 6B140000 		.4byte	.LASF354
 8216 002e 05       		.byte	0x5
 8217 002f 9201     		.uleb128 0x92
 8218 0031 86600000 		.4byte	.LASF355
 8219 0035 05       		.byte	0x5
 8220 0036 A001     		.uleb128 0xa0
 8221 0038 A8420000 		.4byte	.LASF356
 8222 003c 06       		.byte	0x6
 8223 003d B201     		.uleb128 0xb2
 8224 003f C1530000 		.4byte	.LASF357
 8225 0043 00       		.byte	0
 8226              		.section	.debug_macro,"G",%progbits,wm4.stdint.h.20.796e373797e732130a803d4c0338fa1b,comdat
 8227              	.Ldebug_macro4:
ARM GAS  /var/folders/f9/8bk2lnw15zn4cbgn6wrnb4lm0000gn/T//cc47W8rL.s 			page 164


 8228 0000 0400     		.2byte	0x4
 8229 0002 00       		.byte	0
 8230 0003 05       		.byte	0x5
 8231 0004 14       		.uleb128 0x14
 8232 0005 65430000 		.4byte	.LASF358
 8233 0009 05       		.byte	0x5
 8234 000a 1E       		.uleb128 0x1e
 8235 000b C1590000 		.4byte	.LASF359
 8236 000f 05       		.byte	0x5
 8237 0010 25       		.uleb128 0x25
 8238 0011 43680000 		.4byte	.LASF360
 8239 0015 05       		.byte	0x5
 8240 0016 2B       		.uleb128 0x2b
 8241 0017 03270000 		.4byte	.LASF361
 8242 001b 05       		.byte	0x5
 8243 001c 31       		.uleb128 0x31
 8244 001d 80710000 		.4byte	.LASF362
 8245 0021 05       		.byte	0x5
 8246 0022 37       		.uleb128 0x37
 8247 0023 163C0000 		.4byte	.LASF363
 8248 0027 05       		.byte	0x5
 8249 0028 3D       		.uleb128 0x3d
 8250 0029 002B0000 		.4byte	.LASF364
 8251 002d 05       		.byte	0x5
 8252 002e 43       		.uleb128 0x43
 8253 002f EB130000 		.4byte	.LASF365
 8254 0033 05       		.byte	0x5
 8255 0034 49       		.uleb128 0x49
 8256 0035 41320000 		.4byte	.LASF366
 8257 0039 05       		.byte	0x5
 8258 003a 4F       		.uleb128 0x4f
 8259 003b 20690000 		.4byte	.LASF367
 8260 003f 05       		.byte	0x5
 8261 0040 55       		.uleb128 0x55
 8262 0041 4D3D0000 		.4byte	.LASF368
 8263 0045 05       		.byte	0x5
 8264 0046 61       		.uleb128 0x61
 8265 0047 904A0000 		.4byte	.LASF369
 8266 004b 05       		.byte	0x5
 8267 004c 6B       		.uleb128 0x6b
 8268 004d F1440000 		.4byte	.LASF370
 8269 0051 05       		.byte	0x5
 8270 0052 75       		.uleb128 0x75
 8271 0053 1E0D0000 		.4byte	.LASF371
 8272 0057 05       		.byte	0x5
 8273 0058 7F       		.uleb128 0x7f
 8274 0059 72210000 		.4byte	.LASF372
 8275 005d 05       		.byte	0x5
 8276 005e C201     		.uleb128 0xc2
 8277 0060 B32D0000 		.4byte	.LASF373
 8278 0064 05       		.byte	0x5
 8279 0065 C301     		.uleb128 0xc3
 8280 0067 506D0000 		.4byte	.LASF374
 8281 006b 05       		.byte	0x5
 8282 006c C401     		.uleb128 0xc4
 8283 006e 301D0000 		.4byte	.LASF375
 8284 0072 05       		.byte	0x5
ARM GAS  /var/folders/f9/8bk2lnw15zn4cbgn6wrnb4lm0000gn/T//cc47W8rL.s 			page 165


 8285 0073 DA01     		.uleb128 0xda
 8286 0075 1D330000 		.4byte	.LASF376
 8287 0079 05       		.byte	0x5
 8288 007a DB01     		.uleb128 0xdb
 8289 007c 104E0000 		.4byte	.LASF377
 8290 0080 05       		.byte	0x5
 8291 0081 DC01     		.uleb128 0xdc
 8292 0083 5D170000 		.4byte	.LASF378
 8293 0087 05       		.byte	0x5
 8294 0088 E401     		.uleb128 0xe4
 8295 008a 53680000 		.4byte	.LASF379
 8296 008e 05       		.byte	0x5
 8297 008f E501     		.uleb128 0xe5
 8298 0091 FE280000 		.4byte	.LASF380
 8299 0095 05       		.byte	0x5
 8300 0096 E601     		.uleb128 0xe6
 8301 0098 39160000 		.4byte	.LASF381
 8302 009c 05       		.byte	0x5
 8303 009d F001     		.uleb128 0xf0
 8304 009f F14D0000 		.4byte	.LASF382
 8305 00a3 05       		.byte	0x5
 8306 00a4 F101     		.uleb128 0xf1
 8307 00a6 612F0000 		.4byte	.LASF383
 8308 00aa 05       		.byte	0x5
 8309 00ab F201     		.uleb128 0xf2
 8310 00ad 772D0000 		.4byte	.LASF384
 8311 00b1 05       		.byte	0x5
 8312 00b2 FA01     		.uleb128 0xfa
 8313 00b4 F9410000 		.4byte	.LASF385
 8314 00b8 05       		.byte	0x5
 8315 00b9 FB01     		.uleb128 0xfb
 8316 00bb 60490000 		.4byte	.LASF386
 8317 00bf 05       		.byte	0x5
 8318 00c0 FC01     		.uleb128 0xfc
 8319 00c2 DA5B0000 		.4byte	.LASF387
 8320 00c6 05       		.byte	0x5
 8321 00c7 8602     		.uleb128 0x106
 8322 00c9 F35D0000 		.4byte	.LASF388
 8323 00cd 05       		.byte	0x5
 8324 00ce 8702     		.uleb128 0x107
 8325 00d0 BE3D0000 		.4byte	.LASF389
 8326 00d4 05       		.byte	0x5
 8327 00d5 8802     		.uleb128 0x108
 8328 00d7 5B0C0000 		.4byte	.LASF390
 8329 00db 05       		.byte	0x5
 8330 00dc 9602     		.uleb128 0x116
 8331 00de 3A640000 		.4byte	.LASF391
 8332 00e2 05       		.byte	0x5
 8333 00e3 9702     		.uleb128 0x117
 8334 00e5 101F0000 		.4byte	.LASF392
 8335 00e9 05       		.byte	0x5
 8336 00ea 9802     		.uleb128 0x118
 8337 00ec E1660000 		.4byte	.LASF393
 8338 00f0 05       		.byte	0x5
 8339 00f1 A802     		.uleb128 0x128
 8340 00f3 32660000 		.4byte	.LASF394
 8341 00f7 05       		.byte	0x5
ARM GAS  /var/folders/f9/8bk2lnw15zn4cbgn6wrnb4lm0000gn/T//cc47W8rL.s 			page 166


 8342 00f8 A902     		.uleb128 0x129
 8343 00fa 70040000 		.4byte	.LASF395
 8344 00fe 05       		.byte	0x5
 8345 00ff AA02     		.uleb128 0x12a
 8346 0101 C04A0000 		.4byte	.LASF396
 8347 0105 05       		.byte	0x5
 8348 0106 B802     		.uleb128 0x138
 8349 0108 97170000 		.4byte	.LASF397
 8350 010c 05       		.byte	0x5
 8351 010d B902     		.uleb128 0x139
 8352 010f 5A0D0000 		.4byte	.LASF398
 8353 0113 05       		.byte	0x5
 8354 0114 BA02     		.uleb128 0x13a
 8355 0116 BB660000 		.4byte	.LASF399
 8356 011a 05       		.byte	0x5
 8357 011b C802     		.uleb128 0x148
 8358 011d FA460000 		.4byte	.LASF400
 8359 0121 05       		.byte	0x5
 8360 0122 C902     		.uleb128 0x149
 8361 0124 B5320000 		.4byte	.LASF401
 8362 0128 05       		.byte	0x5
 8363 0129 CA02     		.uleb128 0x14a
 8364 012b 19170000 		.4byte	.LASF402
 8365 012f 05       		.byte	0x5
 8366 0130 D802     		.uleb128 0x158
 8367 0132 171E0000 		.4byte	.LASF403
 8368 0136 05       		.byte	0x5
 8369 0137 D902     		.uleb128 0x159
 8370 0139 B6300000 		.4byte	.LASF404
 8371 013d 05       		.byte	0x5
 8372 013e DA02     		.uleb128 0x15a
 8373 0140 2A120000 		.4byte	.LASF405
 8374 0144 05       		.byte	0x5
 8375 0145 E802     		.uleb128 0x168
 8376 0147 AC270000 		.4byte	.LASF406
 8377 014b 05       		.byte	0x5
 8378 014c E902     		.uleb128 0x169
 8379 014e 3A5D0000 		.4byte	.LASF407
 8380 0152 05       		.byte	0x5
 8381 0153 EA02     		.uleb128 0x16a
 8382 0155 DE540000 		.4byte	.LASF408
 8383 0159 05       		.byte	0x5
 8384 015a F802     		.uleb128 0x178
 8385 015c 984E0000 		.4byte	.LASF409
 8386 0160 05       		.byte	0x5
 8387 0161 F902     		.uleb128 0x179
 8388 0163 D2450000 		.4byte	.LASF410
 8389 0167 05       		.byte	0x5
 8390 0168 FA02     		.uleb128 0x17a
 8391 016a C2430000 		.4byte	.LASF411
 8392 016e 05       		.byte	0x5
 8393 016f 8803     		.uleb128 0x188
 8394 0171 96400000 		.4byte	.LASF412
 8395 0175 05       		.byte	0x5
 8396 0176 8903     		.uleb128 0x189
 8397 0178 184A0000 		.4byte	.LASF413
 8398 017c 05       		.byte	0x5
ARM GAS  /var/folders/f9/8bk2lnw15zn4cbgn6wrnb4lm0000gn/T//cc47W8rL.s 			page 167


 8399 017d 9103     		.uleb128 0x191
 8400 017f 7E2E0000 		.4byte	.LASF414
 8401 0183 05       		.byte	0x5
 8402 0184 9903     		.uleb128 0x199
 8403 0186 5F560000 		.4byte	.LASF415
 8404 018a 05       		.byte	0x5
 8405 018b 9F03     		.uleb128 0x19f
 8406 018d A82F0000 		.4byte	.LASF416
 8407 0191 05       		.byte	0x5
 8408 0192 A003     		.uleb128 0x1a0
 8409 0194 C34C0000 		.4byte	.LASF417
 8410 0198 05       		.byte	0x5
 8411 0199 A403     		.uleb128 0x1a4
 8412 019b EA590000 		.4byte	.LASF418
 8413 019f 05       		.byte	0x5
 8414 01a0 A803     		.uleb128 0x1a8
 8415 01a2 C6230000 		.4byte	.LASF419
 8416 01a6 05       		.byte	0x5
 8417 01a7 AB03     		.uleb128 0x1ab
 8418 01a9 02120000 		.4byte	.LASF420
 8419 01ad 05       		.byte	0x5
 8420 01ae AE03     		.uleb128 0x1ae
 8421 01b0 FE500000 		.4byte	.LASF421
 8422 01b4 05       		.byte	0x5
 8423 01b5 B303     		.uleb128 0x1b3
 8424 01b7 81230000 		.4byte	.LASF422
 8425 01bb 05       		.byte	0x5
 8426 01bc B803     		.uleb128 0x1b8
 8427 01be D1020000 		.4byte	.LASF423
 8428 01c2 05       		.byte	0x5
 8429 01c3 BF03     		.uleb128 0x1bf
 8430 01c5 B8370000 		.4byte	.LASF424
 8431 01c9 05       		.byte	0x5
 8432 01ca C003     		.uleb128 0x1c0
 8433 01cc 9C670000 		.4byte	.LASF425
 8434 01d0 05       		.byte	0x5
 8435 01d1 CB03     		.uleb128 0x1cb
 8436 01d3 960D0000 		.4byte	.LASF426
 8437 01d7 05       		.byte	0x5
 8438 01d8 CC03     		.uleb128 0x1cc
 8439 01da A36E0000 		.4byte	.LASF427
 8440 01de 05       		.byte	0x5
 8441 01df D703     		.uleb128 0x1d7
 8442 01e1 DC600000 		.4byte	.LASF428
 8443 01e5 05       		.byte	0x5
 8444 01e6 D803     		.uleb128 0x1d8
 8445 01e8 55460000 		.4byte	.LASF429
 8446 01ec 05       		.byte	0x5
 8447 01ed E403     		.uleb128 0x1e4
 8448 01ef 05330000 		.4byte	.LASF430
 8449 01f3 05       		.byte	0x5
 8450 01f4 E503     		.uleb128 0x1e5
 8451 01f6 C25E0000 		.4byte	.LASF431
 8452 01fa 05       		.byte	0x5
 8453 01fb F403     		.uleb128 0x1f4
 8454 01fd AC230000 		.4byte	.LASF432
 8455 0201 05       		.byte	0x5
ARM GAS  /var/folders/f9/8bk2lnw15zn4cbgn6wrnb4lm0000gn/T//cc47W8rL.s 			page 168


 8456 0202 F503     		.uleb128 0x1f5
 8457 0204 9B530000 		.4byte	.LASF433
 8458 0208 00       		.byte	0
 8459              		.section	.debug_macro,"G",%progbits,wm4.stdbool.h.29.1c9ee6859ce8145f7838a4f2549ccec2,comdat
 8460              	.Ldebug_macro5:
 8461 0000 0400     		.2byte	0x4
 8462 0002 00       		.byte	0
 8463 0003 05       		.byte	0x5
 8464 0004 1D       		.uleb128 0x1d
 8465 0005 316E0000 		.4byte	.LASF435
 8466 0009 05       		.byte	0x5
 8467 000a 21       		.uleb128 0x21
 8468 000b C4780000 		.4byte	.LASF436
 8469 000f 05       		.byte	0x5
 8470 0010 22       		.uleb128 0x22
 8471 0011 894B0000 		.4byte	.LASF437
 8472 0015 05       		.byte	0x5
 8473 0016 23       		.uleb128 0x23
 8474 0017 8E2B0000 		.4byte	.LASF438
 8475 001b 05       		.byte	0x5
 8476 001c 30       		.uleb128 0x30
 8477 001d E5730000 		.4byte	.LASF439
 8478 0021 00       		.byte	0
 8479              		.section	.debug_macro,"G",%progbits,wm4.lpc_types.h.63.860ba57581a002825766a7c2ac00d549,comdat
 8480              	.Ldebug_macro6:
 8481 0000 0400     		.2byte	0x4
 8482 0002 00       		.byte	0
 8483 0003 05       		.byte	0x5
 8484 0004 3F       		.uleb128 0x3f
 8485 0005 01080000 		.4byte	.LASF440
 8486 0009 05       		.byte	0x5
 8487 000a 45       		.uleb128 0x45
 8488 000b 89080000 		.4byte	.LASF441
 8489 000f 06       		.byte	0x6
 8490 0010 66       		.uleb128 0x66
 8491 0011 D7600000 		.4byte	.LASF442
 8492 0015 05       		.byte	0x5
 8493 0016 68       		.uleb128 0x68
 8494 0017 372B0000 		.4byte	.LASF443
 8495 001b 06       		.byte	0x6
 8496 001c 6E       		.uleb128 0x6e
 8497 001d E2290000 		.4byte	.LASF444
 8498 0021 05       		.byte	0x5
 8499 0022 70       		.uleb128 0x70
 8500 0023 701C0000 		.4byte	.LASF445
 8501 0027 06       		.byte	0x6
 8502 0028 7F       		.uleb128 0x7f
 8503 0029 87310000 		.4byte	.LASF446
 8504 002d 05       		.byte	0x5
 8505 002e 8101     		.uleb128 0x81
 8506 0030 D56C0000 		.4byte	.LASF447
 8507 0034 05       		.byte	0x5
 8508 0035 8501     		.uleb128 0x85
 8509 0037 94520000 		.4byte	.LASF448
 8510 003b 05       		.byte	0x5
 8511 003c 8901     		.uleb128 0x89
 8512 003e BF6A0000 		.4byte	.LASF449
ARM GAS  /var/folders/f9/8bk2lnw15zn4cbgn6wrnb4lm0000gn/T//cc47W8rL.s 			page 169


 8513 0042 05       		.byte	0x5
 8514 0043 8C01     		.uleb128 0x8c
 8515 0045 D0220000 		.4byte	.LASF450
 8516 0049 05       		.byte	0x5
 8517 004a 8E01     		.uleb128 0x8e
 8518 004c 2B380000 		.4byte	.LASF451
 8519 0050 05       		.byte	0x5
 8520 0051 9101     		.uleb128 0x91
 8521 0053 D70A0000 		.4byte	.LASF452
 8522 0057 05       		.byte	0x5
 8523 0058 9401     		.uleb128 0x94
 8524 005a C3650000 		.4byte	.LASF453
 8525 005e 05       		.byte	0x5
 8526 005f 9701     		.uleb128 0x97
 8527 0061 B6490000 		.4byte	.LASF454
 8528 0065 05       		.byte	0x5
 8529 0066 D001     		.uleb128 0xd0
 8530 0068 EC690000 		.4byte	.LASF455
 8531 006c 00       		.byte	0
 8532              		.section	.debug_macro,"G",%progbits,wm4.sys_config.h.31.9f234e9c90333d233c7e647ebe63e928,comdat
 8533              	.Ldebug_macro7:
 8534 0000 0400     		.2byte	0x4
 8535 0002 00       		.byte	0
 8536 0003 05       		.byte	0x5
 8537 0004 1F       		.uleb128 0x1f
 8538 0005 503B0000 		.4byte	.LASF456
 8539 0009 05       		.byte	0x5
 8540 000a 26       		.uleb128 0x26
 8541 000b C51B0000 		.4byte	.LASF457
 8542 000f 00       		.byte	0
 8543              		.section	.debug_macro,"G",%progbits,wm4.cmsis_11cxx.h.33.407e9bbb5d170cd1552d3f7dc3fd5c42,comdat
 8544              	.Ldebug_macro8:
 8545 0000 0400     		.2byte	0x4
 8546 0002 00       		.byte	0
 8547 0003 05       		.byte	0x5
 8548 0004 21       		.uleb128 0x21
 8549 0005 6A740000 		.4byte	.LASF459
 8550 0009 05       		.byte	0x5
 8551 000a 8801     		.uleb128 0x88
 8552 000c E9380000 		.4byte	.LASF460
 8553 0010 05       		.byte	0x5
 8554 0011 8901     		.uleb128 0x89
 8555 0013 F16F0000 		.4byte	.LASF461
 8556 0017 05       		.byte	0x5
 8557 0018 8A01     		.uleb128 0x8a
 8558 001a 11520000 		.4byte	.LASF462
 8559 001e 00       		.byte	0
 8560              		.section	.debug_macro,"G",%progbits,wm4.core_cm0.h.32.192d13cfa8b31e63c86621de62eb153f,comdat
 8561              	.Ldebug_macro9:
 8562 0000 0400     		.2byte	0x4
 8563 0002 00       		.byte	0
 8564 0003 05       		.byte	0x5
 8565 0004 20       		.uleb128 0x20
 8566 0005 81120000 		.4byte	.LASF463
 8567 0009 05       		.byte	0x5
 8568 000a 38       		.uleb128 0x38
 8569 000b DE500000 		.4byte	.LASF464
ARM GAS  /var/folders/f9/8bk2lnw15zn4cbgn6wrnb4lm0000gn/T//cc47W8rL.s 			page 170


 8570 000f 05       		.byte	0x5
 8571 0010 39       		.uleb128 0x39
 8572 0011 1E6B0000 		.4byte	.LASF465
 8573 0015 05       		.byte	0x5
 8574 0016 3A       		.uleb128 0x3a
 8575 0017 341F0000 		.4byte	.LASF466
 8576 001b 05       		.byte	0x5
 8577 001c 3D       		.uleb128 0x3d
 8578 001d E72B0000 		.4byte	.LASF467
 8579 0021 05       		.byte	0x5
 8580 0022 4B       		.uleb128 0x4b
 8581 0023 B60F0000 		.4byte	.LASF468
 8582 0027 05       		.byte	0x5
 8583 0028 4C       		.uleb128 0x4c
 8584 0029 8C780000 		.4byte	.LASF469
 8585 002d 05       		.byte	0x5
 8586 002e 4D       		.uleb128 0x4d
 8587 002f 173D0000 		.4byte	.LASF470
 8588 0033 05       		.byte	0x5
 8589 0034 58       		.uleb128 0x58
 8590 0035 B26A0000 		.4byte	.LASF471
 8591 0039 00       		.byte	0
 8592              		.section	.debug_macro,"G",%progbits,wm4.core_cm0.h.120.f4257ea7d0bce0cbabffe223e23b2fd4,comdat
 8593              	.Ldebug_macro10:
 8594 0000 0400     		.2byte	0x4
 8595 0002 00       		.byte	0
 8596 0003 05       		.byte	0x5
 8597 0004 78       		.uleb128 0x78
 8598 0005 EB740000 		.4byte	.LASF474
 8599 0009 05       		.byte	0x5
 8600 000a 9701     		.uleb128 0x97
 8601 000c 613B0000 		.4byte	.LASF475
 8602 0010 05       		.byte	0x5
 8603 0011 9901     		.uleb128 0x99
 8604 0013 542F0000 		.4byte	.LASF476
 8605 0017 05       		.byte	0x5
 8606 0018 9A01     		.uleb128 0x9a
 8607 001a 4F670000 		.4byte	.LASF477
 8608 001e 05       		.byte	0x5
 8609 001f B002     		.uleb128 0x130
 8610 0021 33430000 		.4byte	.LASF478
 8611 0025 05       		.byte	0x5
 8612 0026 B102     		.uleb128 0x131
 8613 0028 1F730000 		.4byte	.LASF479
 8614 002c 05       		.byte	0x5
 8615 002d B302     		.uleb128 0x133
 8616 002f 2A5B0000 		.4byte	.LASF480
 8617 0033 05       		.byte	0x5
 8618 0034 B402     		.uleb128 0x134
 8619 0036 6F460000 		.4byte	.LASF481
 8620 003a 05       		.byte	0x5
 8621 003b B602     		.uleb128 0x136
 8622 003d BF210000 		.4byte	.LASF482
 8623 0041 05       		.byte	0x5
 8624 0042 B702     		.uleb128 0x137
 8625 0044 84030000 		.4byte	.LASF483
 8626 0048 05       		.byte	0x5
ARM GAS  /var/folders/f9/8bk2lnw15zn4cbgn6wrnb4lm0000gn/T//cc47W8rL.s 			page 171


 8627 0049 B902     		.uleb128 0x139
 8628 004b 7A290000 		.4byte	.LASF484
 8629 004f 05       		.byte	0x5
 8630 0050 BA02     		.uleb128 0x13a
 8631 0052 F91A0000 		.4byte	.LASF485
 8632 0056 05       		.byte	0x5
 8633 0057 BC02     		.uleb128 0x13c
 8634 0059 FE3C0000 		.4byte	.LASF486
 8635 005d 05       		.byte	0x5
 8636 005e BD02     		.uleb128 0x13d
 8637 0060 5A340000 		.4byte	.LASF487
 8638 0064 05       		.byte	0x5
 8639 0065 C002     		.uleb128 0x140
 8640 0067 50500000 		.4byte	.LASF488
 8641 006b 05       		.byte	0x5
 8642 006c C102     		.uleb128 0x141
 8643 006e 91290000 		.4byte	.LASF489
 8644 0072 05       		.byte	0x5
 8645 0073 C302     		.uleb128 0x143
 8646 0075 1E2F0000 		.4byte	.LASF490
 8647 0079 05       		.byte	0x5
 8648 007a C402     		.uleb128 0x144
 8649 007c B1610000 		.4byte	.LASF491
 8650 0080 05       		.byte	0x5
 8651 0081 C602     		.uleb128 0x146
 8652 0083 29680000 		.4byte	.LASF492
 8653 0087 05       		.byte	0x5
 8654 0088 C702     		.uleb128 0x147
 8655 008a 6D280000 		.4byte	.LASF493
 8656 008e 05       		.byte	0x5
 8657 008f C902     		.uleb128 0x149
 8658 0091 EF090000 		.4byte	.LASF494
 8659 0095 05       		.byte	0x5
 8660 0096 CA02     		.uleb128 0x14a
 8661 0098 7D4F0000 		.4byte	.LASF495
 8662 009c 05       		.byte	0x5
 8663 009d CC02     		.uleb128 0x14c
 8664 009f 4F3C0000 		.4byte	.LASF496
 8665 00a3 05       		.byte	0x5
 8666 00a4 CD02     		.uleb128 0x14d
 8667 00a6 45020000 		.4byte	.LASF497
 8668 00aa 05       		.byte	0x5
 8669 00ab CF02     		.uleb128 0x14f
 8670 00ad 35500000 		.4byte	.LASF498
 8671 00b1 05       		.byte	0x5
 8672 00b2 D002     		.uleb128 0x150
 8673 00b4 39380000 		.4byte	.LASF499
 8674 00b8 05       		.byte	0x5
 8675 00b9 D202     		.uleb128 0x152
 8676 00bb 55040000 		.4byte	.LASF500
 8677 00bf 05       		.byte	0x5
 8678 00c0 D302     		.uleb128 0x153
 8679 00c2 34350000 		.4byte	.LASF501
 8680 00c6 05       		.byte	0x5
 8681 00c7 D502     		.uleb128 0x155
 8682 00c9 962B0000 		.4byte	.LASF502
 8683 00cd 05       		.byte	0x5
ARM GAS  /var/folders/f9/8bk2lnw15zn4cbgn6wrnb4lm0000gn/T//cc47W8rL.s 			page 172


 8684 00ce D602     		.uleb128 0x156
 8685 00d0 522C0000 		.4byte	.LASF503
 8686 00d4 05       		.byte	0x5
 8687 00d5 D802     		.uleb128 0x158
 8688 00d7 47270000 		.4byte	.LASF504
 8689 00db 05       		.byte	0x5
 8690 00dc D902     		.uleb128 0x159
 8691 00de AE1D0000 		.4byte	.LASF505
 8692 00e2 05       		.byte	0x5
 8693 00e3 DC02     		.uleb128 0x15c
 8694 00e5 02160000 		.4byte	.LASF506
 8695 00e9 05       		.byte	0x5
 8696 00ea DD02     		.uleb128 0x15d
 8697 00ec 52330000 		.4byte	.LASF507
 8698 00f0 05       		.byte	0x5
 8699 00f1 DF02     		.uleb128 0x15f
 8700 00f3 0C0C0000 		.4byte	.LASF508
 8701 00f7 05       		.byte	0x5
 8702 00f8 E002     		.uleb128 0x160
 8703 00fa 0E780000 		.4byte	.LASF509
 8704 00fe 05       		.byte	0x5
 8705 00ff E202     		.uleb128 0x162
 8706 0101 B2680000 		.4byte	.LASF510
 8707 0105 05       		.byte	0x5
 8708 0106 E302     		.uleb128 0x163
 8709 0108 A91C0000 		.4byte	.LASF511
 8710 010c 05       		.byte	0x5
 8711 010d E502     		.uleb128 0x165
 8712 010f 382F0000 		.4byte	.LASF512
 8713 0113 05       		.byte	0x5
 8714 0114 E602     		.uleb128 0x166
 8715 0116 EC710000 		.4byte	.LASF513
 8716 011a 05       		.byte	0x5
 8717 011b E802     		.uleb128 0x168
 8718 011d 2D740000 		.4byte	.LASF514
 8719 0121 05       		.byte	0x5
 8720 0122 E902     		.uleb128 0x169
 8721 0124 02030000 		.4byte	.LASF515
 8722 0128 05       		.byte	0x5
 8723 0129 EC02     		.uleb128 0x16c
 8724 012b 2D4F0000 		.4byte	.LASF516
 8725 012f 05       		.byte	0x5
 8726 0130 ED02     		.uleb128 0x16d
 8727 0132 5D770000 		.4byte	.LASF517
 8728 0136 05       		.byte	0x5
 8729 0137 EF02     		.uleb128 0x16f
 8730 0139 4E280000 		.4byte	.LASF518
 8731 013d 05       		.byte	0x5
 8732 013e F002     		.uleb128 0x170
 8733 0140 F9190000 		.4byte	.LASF519
 8734 0144 05       		.byte	0x5
 8735 0145 F202     		.uleb128 0x172
 8736 0147 D0260000 		.4byte	.LASF520
 8737 014b 05       		.byte	0x5
 8738 014c F302     		.uleb128 0x173
 8739 014e D71F0000 		.4byte	.LASF521
 8740 0152 05       		.byte	0x5
ARM GAS  /var/folders/f9/8bk2lnw15zn4cbgn6wrnb4lm0000gn/T//cc47W8rL.s 			page 173


 8741 0153 F602     		.uleb128 0x176
 8742 0155 FA690000 		.4byte	.LASF522
 8743 0159 05       		.byte	0x5
 8744 015a F702     		.uleb128 0x177
 8745 015c 830F0000 		.4byte	.LASF523
 8746 0160 05       		.byte	0x5
 8747 0161 F902     		.uleb128 0x179
 8748 0163 5C750000 		.4byte	.LASF524
 8749 0167 05       		.byte	0x5
 8750 0168 FA02     		.uleb128 0x17a
 8751 016a 2B060000 		.4byte	.LASF525
 8752 016e 05       		.byte	0x5
 8753 016f FD02     		.uleb128 0x17d
 8754 0171 48650000 		.4byte	.LASF526
 8755 0175 05       		.byte	0x5
 8756 0176 FE02     		.uleb128 0x17e
 8757 0178 4A550000 		.4byte	.LASF527
 8758 017c 05       		.byte	0x5
 8759 017d 9403     		.uleb128 0x194
 8760 017f E22A0000 		.4byte	.LASF528
 8761 0183 05       		.byte	0x5
 8762 0184 9503     		.uleb128 0x195
 8763 0186 6C6B0000 		.4byte	.LASF529
 8764 018a 05       		.byte	0x5
 8765 018b 9703     		.uleb128 0x197
 8766 018d 060B0000 		.4byte	.LASF530
 8767 0191 05       		.byte	0x5
 8768 0192 9803     		.uleb128 0x198
 8769 0194 31050000 		.4byte	.LASF531
 8770 0198 05       		.byte	0x5
 8771 0199 9A03     		.uleb128 0x19a
 8772 019b 66120000 		.4byte	.LASF532
 8773 019f 05       		.byte	0x5
 8774 01a0 9B03     		.uleb128 0x19b
 8775 01a2 995C0000 		.4byte	.LASF533
 8776 01a6 05       		.byte	0x5
 8777 01a7 9D03     		.uleb128 0x19d
 8778 01a9 9E1B0000 		.4byte	.LASF534
 8779 01ad 05       		.byte	0x5
 8780 01ae 9E03     		.uleb128 0x19e
 8781 01b0 98620000 		.4byte	.LASF535
 8782 01b4 05       		.byte	0x5
 8783 01b5 A103     		.uleb128 0x1a1
 8784 01b7 34690000 		.4byte	.LASF536
 8785 01bb 05       		.byte	0x5
 8786 01bc A203     		.uleb128 0x1a2
 8787 01be 28610000 		.4byte	.LASF537
 8788 01c2 05       		.byte	0x5
 8789 01c3 A503     		.uleb128 0x1a5
 8790 01c5 0D540000 		.4byte	.LASF538
 8791 01c9 05       		.byte	0x5
 8792 01ca A603     		.uleb128 0x1a6
 8793 01cc C1480000 		.4byte	.LASF539
 8794 01d0 05       		.byte	0x5
 8795 01d1 A903     		.uleb128 0x1a9
 8796 01d3 E8610000 		.4byte	.LASF540
 8797 01d7 05       		.byte	0x5
ARM GAS  /var/folders/f9/8bk2lnw15zn4cbgn6wrnb4lm0000gn/T//cc47W8rL.s 			page 174


 8798 01d8 AA03     		.uleb128 0x1aa
 8799 01da 60200000 		.4byte	.LASF541
 8800 01de 05       		.byte	0x5
 8801 01df AC03     		.uleb128 0x1ac
 8802 01e1 F90E0000 		.4byte	.LASF542
 8803 01e5 05       		.byte	0x5
 8804 01e6 AD03     		.uleb128 0x1ad
 8805 01e8 4E700000 		.4byte	.LASF543
 8806 01ec 05       		.byte	0x5
 8807 01ed AF03     		.uleb128 0x1af
 8808 01ef 15370000 		.4byte	.LASF544
 8809 01f3 05       		.byte	0x5
 8810 01f4 B003     		.uleb128 0x1b0
 8811 01f6 9E540000 		.4byte	.LASF545
 8812 01fa 05       		.byte	0x5
 8813 01fb C603     		.uleb128 0x1c6
 8814 01fd BF510000 		.4byte	.LASF546
 8815 0201 05       		.byte	0x5
 8816 0202 C703     		.uleb128 0x1c7
 8817 0204 73370000 		.4byte	.LASF547
 8818 0208 05       		.byte	0x5
 8819 0209 C803     		.uleb128 0x1c8
 8820 020b 264E0000 		.4byte	.LASF548
 8821 020f 05       		.byte	0x5
 8822 0210 C903     		.uleb128 0x1c9
 8823 0212 47220000 		.4byte	.LASF549
 8824 0216 05       		.byte	0x5
 8825 0217 CB03     		.uleb128 0x1cb
 8826 0219 0E5D0000 		.4byte	.LASF550
 8827 021d 05       		.byte	0x5
 8828 021e CC03     		.uleb128 0x1cc
 8829 0220 C7670000 		.4byte	.LASF551
 8830 0224 05       		.byte	0x5
 8831 0225 CD03     		.uleb128 0x1cd
 8832 0227 3B450000 		.4byte	.LASF552
 8833 022b 05       		.byte	0x5
 8834 022c E903     		.uleb128 0x1e9
 8835 022e 60400000 		.4byte	.LASF553
 8836 0232 05       		.byte	0x5
 8837 0233 EA03     		.uleb128 0x1ea
 8838 0235 395C0000 		.4byte	.LASF554
 8839 0239 05       		.byte	0x5
 8840 023a EB03     		.uleb128 0x1eb
 8841 023c C7440000 		.4byte	.LASF555
 8842 0240 00       		.byte	0
 8843              		.section	.debug_macro,"G",%progbits,wm4.chip.h.116.857da603c399e979152c31968de4baae,comdat
 8844              	.Ldebug_macro11:
 8845 0000 0400     		.2byte	0x4
 8846 0002 00       		.byte	0
 8847 0003 05       		.byte	0x5
 8848 0004 74       		.uleb128 0x74
 8849 0005 A3740000 		.4byte	.LASF556
 8850 0009 05       		.byte	0x5
 8851 000a 75       		.uleb128 0x75
 8852 000b A5010000 		.4byte	.LASF557
 8853 000f 05       		.byte	0x5
 8854 0010 76       		.uleb128 0x76
ARM GAS  /var/folders/f9/8bk2lnw15zn4cbgn6wrnb4lm0000gn/T//cc47W8rL.s 			page 175


 8855 0011 646A0000 		.4byte	.LASF558
 8856 0015 05       		.byte	0x5
 8857 0016 77       		.uleb128 0x77
 8858 0017 A45E0000 		.4byte	.LASF559
 8859 001b 05       		.byte	0x5
 8860 001c 78       		.uleb128 0x78
 8861 001d D5270000 		.4byte	.LASF560
 8862 0021 05       		.byte	0x5
 8863 0022 79       		.uleb128 0x79
 8864 0023 64080000 		.4byte	.LASF561
 8865 0027 05       		.byte	0x5
 8866 0028 7A       		.uleb128 0x7a
 8867 0029 B3050000 		.4byte	.LASF562
 8868 002d 05       		.byte	0x5
 8869 002e 7B       		.uleb128 0x7b
 8870 002f 946D0000 		.4byte	.LASF563
 8871 0033 05       		.byte	0x5
 8872 0034 7C       		.uleb128 0x7c
 8873 0035 9B6C0000 		.4byte	.LASF564
 8874 0039 05       		.byte	0x5
 8875 003a 7D       		.uleb128 0x7d
 8876 003b E9150000 		.4byte	.LASF565
 8877 003f 05       		.byte	0x5
 8878 0040 7E       		.uleb128 0x7e
 8879 0041 353D0000 		.4byte	.LASF566
 8880 0045 05       		.byte	0x5
 8881 0046 7F       		.uleb128 0x7f
 8882 0047 DF410000 		.4byte	.LASF567
 8883 004b 05       		.byte	0x5
 8884 004c 8001     		.uleb128 0x80
 8885 004e 564D0000 		.4byte	.LASF568
 8886 0052 05       		.byte	0x5
 8887 0053 8101     		.uleb128 0x81
 8888 0055 BE000000 		.4byte	.LASF569
 8889 0059 05       		.byte	0x5
 8890 005a 8201     		.uleb128 0x82
 8891 005c 9A2E0000 		.4byte	.LASF570
 8892 0060 05       		.byte	0x5
 8893 0061 8301     		.uleb128 0x83
 8894 0063 76750000 		.4byte	.LASF571
 8895 0067 05       		.byte	0x5
 8896 0068 8401     		.uleb128 0x84
 8897 006a E02D0000 		.4byte	.LASF572
 8898 006e 05       		.byte	0x5
 8899 006f 8501     		.uleb128 0x85
 8900 0071 660A0000 		.4byte	.LASF573
 8901 0075 05       		.byte	0x5
 8902 0076 9001     		.uleb128 0x90
 8903 0078 AB5D0000 		.4byte	.LASF574
 8904 007c 05       		.byte	0x5
 8905 007d 9101     		.uleb128 0x91
 8906 007f 5F300000 		.4byte	.LASF575
 8907 0083 05       		.byte	0x5
 8908 0084 9301     		.uleb128 0x93
 8909 0086 EC3B0000 		.4byte	.LASF576
 8910 008a 05       		.byte	0x5
 8911 008b 9401     		.uleb128 0x94
ARM GAS  /var/folders/f9/8bk2lnw15zn4cbgn6wrnb4lm0000gn/T//cc47W8rL.s 			page 176


 8912 008d 96320000 		.4byte	.LASF577
 8913 0091 05       		.byte	0x5
 8914 0092 9701     		.uleb128 0x97
 8915 0094 146C0000 		.4byte	.LASF578
 8916 0098 05       		.byte	0x5
 8917 0099 9801     		.uleb128 0x98
 8918 009b 8B210000 		.4byte	.LASF579
 8919 009f 05       		.byte	0x5
 8920 00a0 9B01     		.uleb128 0x9b
 8921 00a2 5F2A0000 		.4byte	.LASF580
 8922 00a6 05       		.byte	0x5
 8923 00a7 9E01     		.uleb128 0x9e
 8924 00a9 715C0000 		.4byte	.LASF581
 8925 00ad 05       		.byte	0x5
 8926 00ae 9F01     		.uleb128 0x9f
 8927 00b0 DA760000 		.4byte	.LASF582
 8928 00b4 05       		.byte	0x5
 8929 00b5 A001     		.uleb128 0xa0
 8930 00b7 A9350000 		.4byte	.LASF583
 8931 00bb 05       		.byte	0x5
 8932 00bc A101     		.uleb128 0xa1
 8933 00be 11390000 		.4byte	.LASF584
 8934 00c2 05       		.byte	0x5
 8935 00c3 A201     		.uleb128 0xa2
 8936 00c5 E6160000 		.4byte	.LASF585
 8937 00c9 05       		.byte	0x5
 8938 00ca A301     		.uleb128 0xa3
 8939 00cc 904C0000 		.4byte	.LASF586
 8940 00d0 05       		.byte	0x5
 8941 00d1 A401     		.uleb128 0xa4
 8942 00d3 4A2B0000 		.4byte	.LASF587
 8943 00d7 05       		.byte	0x5
 8944 00d8 B101     		.uleb128 0xb1
 8945 00da 67780000 		.4byte	.LASF588
 8946 00de 05       		.byte	0x5
 8947 00df B201     		.uleb128 0xb2
 8948 00e1 871D0000 		.4byte	.LASF589
 8949 00e5 05       		.byte	0x5
 8950 00e6 B301     		.uleb128 0xb3
 8951 00e8 B9310000 		.4byte	.LASF590
 8952 00ec 05       		.byte	0x5
 8953 00ed B401     		.uleb128 0xb4
 8954 00ef 66530000 		.4byte	.LASF591
 8955 00f3 05       		.byte	0x5
 8956 00f4 B501     		.uleb128 0xb5
 8957 00f6 B9240000 		.4byte	.LASF592
 8958 00fa 05       		.byte	0x5
 8959 00fb B701     		.uleb128 0xb7
 8960 00fd BD3C0000 		.4byte	.LASF593
 8961 0101 05       		.byte	0x5
 8962 0102 B801     		.uleb128 0xb8
 8963 0104 4E130000 		.4byte	.LASF594
 8964 0108 05       		.byte	0x5
 8965 0109 BA01     		.uleb128 0xba
 8966 010b A06F0000 		.4byte	.LASF595
 8967 010f 05       		.byte	0x5
 8968 0110 C101     		.uleb128 0xc1
ARM GAS  /var/folders/f9/8bk2lnw15zn4cbgn6wrnb4lm0000gn/T//cc47W8rL.s 			page 177


 8969 0112 66220000 		.4byte	.LASF596
 8970 0116 05       		.byte	0x5
 8971 0117 C401     		.uleb128 0xc4
 8972 0119 163B0000 		.4byte	.LASF597
 8973 011d 00       		.byte	0
 8974              		.section	.debug_macro,"G",%progbits,wm4.pmu_11xx.h.33.1d6b708881441cb98d19b8bab3caa180,comdat
 8975              	.Ldebug_macro12:
 8976 0000 0400     		.2byte	0x4
 8977 0002 00       		.byte	0
 8978 0003 05       		.byte	0x5
 8979 0004 21       		.uleb128 0x21
 8980 0005 644C0000 		.4byte	.LASF598
 8981 0009 05       		.byte	0x5
 8982 000a 4D       		.uleb128 0x4d
 8983 000b 305E0000 		.4byte	.LASF599
 8984 000f 05       		.byte	0x5
 8985 0010 53       		.uleb128 0x53
 8986 0011 BE330000 		.4byte	.LASF600
 8987 0015 05       		.byte	0x5
 8988 0016 55       		.uleb128 0x55
 8989 0017 7B6F0000 		.4byte	.LASF601
 8990 001b 05       		.byte	0x5
 8991 001c 56       		.uleb128 0x56
 8992 001d 516B0000 		.4byte	.LASF602
 8993 0021 00       		.byte	0
 8994              		.section	.debug_macro,"G",%progbits,wm4.sysctl_11xx.h.33.ae61a1181e608f8409883008e291930c,comdat
 8995              	.Ldebug_macro13:
 8996 0000 0400     		.2byte	0x4
 8997 0002 00       		.byte	0
 8998 0003 05       		.byte	0x5
 8999 0004 21       		.uleb128 0x21
 9000 0005 1C6D0000 		.4byte	.LASF604
 9001 0009 05       		.byte	0x5
 9002 000a BC01     		.uleb128 0xbc
 9003 000c C8010000 		.4byte	.LASF605
 9004 0010 05       		.byte	0x5
 9005 0011 BD01     		.uleb128 0xbd
 9006 0013 64070000 		.4byte	.LASF606
 9007 0017 05       		.byte	0x5
 9008 0018 BE01     		.uleb128 0xbe
 9009 001a 662E0000 		.4byte	.LASF607
 9010 001e 05       		.byte	0x5
 9011 001f BF01     		.uleb128 0xbf
 9012 0021 046D0000 		.4byte	.LASF608
 9013 0025 05       		.byte	0x5
 9014 0026 C001     		.uleb128 0xc0
 9015 0028 F45F0000 		.4byte	.LASF609
 9016 002c 05       		.byte	0x5
 9017 002d C501     		.uleb128 0xc5
 9018 002f C2170000 		.4byte	.LASF610
 9019 0033 05       		.byte	0x5
 9020 0034 A904     		.uleb128 0x229
 9021 0036 8D270000 		.4byte	.LASF611
 9022 003a 05       		.byte	0x5
 9023 003b AA04     		.uleb128 0x22a
 9024 003d 5C5B0000 		.4byte	.LASF612
 9025 0041 05       		.byte	0x5
ARM GAS  /var/folders/f9/8bk2lnw15zn4cbgn6wrnb4lm0000gn/T//cc47W8rL.s 			page 178


 9026 0042 C904     		.uleb128 0x249
 9027 0044 3D6E0000 		.4byte	.LASF613
 9028 0048 05       		.byte	0x5
 9029 0049 CA04     		.uleb128 0x24a
 9030 004b AA720000 		.4byte	.LASF614
 9031 004f 05       		.byte	0x5
 9032 0050 CB04     		.uleb128 0x24b
 9033 0052 52370000 		.4byte	.LASF615
 9034 0056 05       		.byte	0x5
 9035 0057 CC04     		.uleb128 0x24c
 9036 0059 E40F0000 		.4byte	.LASF616
 9037 005d 05       		.byte	0x5
 9038 005e CD04     		.uleb128 0x24d
 9039 0060 EB570000 		.4byte	.LASF617
 9040 0064 05       		.byte	0x5
 9041 0065 CE04     		.uleb128 0x24e
 9042 0067 A13F0000 		.4byte	.LASF618
 9043 006b 05       		.byte	0x5
 9044 006c CF04     		.uleb128 0x24f
 9045 006e CD680000 		.4byte	.LASF619
 9046 0072 05       		.byte	0x5
 9047 0073 D004     		.uleb128 0x250
 9048 0075 085B0000 		.4byte	.LASF620
 9049 0079 05       		.byte	0x5
 9050 007a F104     		.uleb128 0x271
 9051 007c AC6D0000 		.4byte	.LASF621
 9052 0080 05       		.byte	0x5
 9053 0081 F204     		.uleb128 0x272
 9054 0083 EF4B0000 		.4byte	.LASF622
 9055 0087 05       		.byte	0x5
 9056 0088 F304     		.uleb128 0x273
 9057 008a F81C0000 		.4byte	.LASF623
 9058 008e 05       		.byte	0x5
 9059 008f F504     		.uleb128 0x275
 9060 0091 70440000 		.4byte	.LASF624
 9061 0095 05       		.byte	0x5
 9062 0096 F704     		.uleb128 0x277
 9063 0098 7D100000 		.4byte	.LASF625
 9064 009c 05       		.byte	0x5
 9065 009d F804     		.uleb128 0x278
 9066 009f 260A0000 		.4byte	.LASF626
 9067 00a3 05       		.byte	0x5
 9068 00a4 F904     		.uleb128 0x279
 9069 00a6 96450000 		.4byte	.LASF627
 9070 00aa 05       		.byte	0x5
 9071 00ab FA04     		.uleb128 0x27a
 9072 00ad 0D4B0000 		.4byte	.LASF628
 9073 00b1 00       		.byte	0
 9074              		.section	.debug_macro,"G",%progbits,wm4.clock_11xx.h.33.23290a9e2ed919e3a6958d25130bc848,comdat
 9075              	.Ldebug_macro14:
 9076 0000 0400     		.2byte	0x4
 9077 0002 00       		.byte	0
 9078 0003 05       		.byte	0x5
 9079 0004 21       		.uleb128 0x21
 9080 0005 7D690000 		.4byte	.LASF629
 9081 0009 05       		.byte	0x5
 9082 000a 2D       		.uleb128 0x2d
ARM GAS  /var/folders/f9/8bk2lnw15zn4cbgn6wrnb4lm0000gn/T//cc47W8rL.s 			page 179


 9083 000b 7B610000 		.4byte	.LASF630
 9084 000f 00       		.byte	0
 9085              		.section	.debug_macro,"G",%progbits,wm4.iocon_11xx.h.33.25e2b3cde122df23fb07b984cb4f3a93,comdat
 9086              	.Ldebug_macro15:
 9087 0000 0400     		.2byte	0x4
 9088 0002 00       		.byte	0
 9089 0003 05       		.byte	0x5
 9090 0004 21       		.uleb128 0x21
 9091 0005 F02C0000 		.4byte	.LASF631
 9092 0009 05       		.byte	0x5
 9093 000a A601     		.uleb128 0xa6
 9094 000c AB340000 		.4byte	.LASF632
 9095 0010 05       		.byte	0x5
 9096 0011 A701     		.uleb128 0xa7
 9097 0013 20090000 		.4byte	.LASF633
 9098 0017 05       		.byte	0x5
 9099 0018 A801     		.uleb128 0xa8
 9100 001a 6A190000 		.4byte	.LASF634
 9101 001e 05       		.byte	0x5
 9102 001f A901     		.uleb128 0xa9
 9103 0021 205E0000 		.4byte	.LASF635
 9104 0025 05       		.byte	0x5
 9105 0026 AA01     		.uleb128 0xaa
 9106 0028 904B0000 		.4byte	.LASF636
 9107 002c 05       		.byte	0x5
 9108 002d AB01     		.uleb128 0xab
 9109 002f E8390000 		.4byte	.LASF637
 9110 0033 05       		.byte	0x5
 9111 0034 AC01     		.uleb128 0xac
 9112 0036 C0260000 		.4byte	.LASF638
 9113 003a 05       		.byte	0x5
 9114 003b AD01     		.uleb128 0xad
 9115 003d 1A120000 		.4byte	.LASF639
 9116 0041 05       		.byte	0x5
 9117 0042 AE01     		.uleb128 0xae
 9118 0044 72250000 		.4byte	.LASF640
 9119 0048 05       		.byte	0x5
 9120 0049 AF01     		.uleb128 0xaf
 9121 004b 284D0000 		.4byte	.LASF641
 9122 004f 05       		.byte	0x5
 9123 0050 B001     		.uleb128 0xb0
 9124 0052 31600000 		.4byte	.LASF642
 9125 0056 05       		.byte	0x5
 9126 0057 B101     		.uleb128 0xb1
 9127 0059 B3710000 		.4byte	.LASF643
 9128 005d 05       		.byte	0x5
 9129 005e B201     		.uleb128 0xb2
 9130 0060 454F0000 		.4byte	.LASF644
 9131 0064 05       		.byte	0x5
 9132 0065 B301     		.uleb128 0xb3
 9133 0067 E8220000 		.4byte	.LASF645
 9134 006b 05       		.byte	0x5
 9135 006c B401     		.uleb128 0xb4
 9136 006e C7530000 		.4byte	.LASF646
 9137 0072 05       		.byte	0x5
 9138 0073 B501     		.uleb128 0xb5
 9139 0075 A7070000 		.4byte	.LASF647
ARM GAS  /var/folders/f9/8bk2lnw15zn4cbgn6wrnb4lm0000gn/T//cc47W8rL.s 			page 180


 9140 0079 05       		.byte	0x5
 9141 007a B601     		.uleb128 0xb6
 9142 007c 9E100000 		.4byte	.LASF648
 9143 0080 05       		.byte	0x5
 9144 0081 B701     		.uleb128 0xb7
 9145 0083 65640000 		.4byte	.LASF649
 9146 0087 05       		.byte	0x5
 9147 0088 B801     		.uleb128 0xb8
 9148 008a 2C650000 		.4byte	.LASF650
 9149 008e 05       		.byte	0x5
 9150 008f B901     		.uleb128 0xb9
 9151 0091 6D240000 		.4byte	.LASF651
 9152 0095 05       		.byte	0x5
 9153 0096 BA01     		.uleb128 0xba
 9154 0098 BB140000 		.4byte	.LASF652
 9155 009c 05       		.byte	0x5
 9156 009d C001     		.uleb128 0xc0
 9157 009f 230B0000 		.4byte	.LASF653
 9158 00a3 05       		.byte	0x5
 9159 00a4 C101     		.uleb128 0xc1
 9160 00a6 5D670000 		.4byte	.LASF654
 9161 00aa 05       		.byte	0x5
 9162 00ab C201     		.uleb128 0xc2
 9163 00ad 74600000 		.4byte	.LASF655
 9164 00b1 05       		.byte	0x5
 9165 00b2 C301     		.uleb128 0xc3
 9166 00b4 2F770000 		.4byte	.LASF656
 9167 00b8 05       		.byte	0x5
 9168 00b9 C401     		.uleb128 0xc4
 9169 00bb 10200000 		.4byte	.LASF657
 9170 00bf 05       		.byte	0x5
 9171 00c0 C501     		.uleb128 0xc5
 9172 00c2 EC170000 		.4byte	.LASF658
 9173 00c6 05       		.byte	0x5
 9174 00c7 C601     		.uleb128 0xc6
 9175 00c9 EB180000 		.4byte	.LASF659
 9176 00cd 05       		.byte	0x5
 9177 00ce C701     		.uleb128 0xc7
 9178 00d0 C2460000 		.4byte	.LASF660
 9179 00d4 05       		.byte	0x5
 9180 00d5 C801     		.uleb128 0xc8
 9181 00d7 C0160000 		.4byte	.LASF661
 9182 00db 05       		.byte	0x5
 9183 00dc C901     		.uleb128 0xc9
 9184 00de 36550000 		.4byte	.LASF662
 9185 00e2 05       		.byte	0x5
 9186 00e3 CA01     		.uleb128 0xca
 9187 00e5 8E470000 		.4byte	.LASF663
 9188 00e9 05       		.byte	0x5
 9189 00ea CB01     		.uleb128 0xcb
 9190 00ec E5230000 		.4byte	.LASF664
 9191 00f0 05       		.byte	0x5
 9192 00f1 CC01     		.uleb128 0xcc
 9193 00f3 02440000 		.4byte	.LASF665
 9194 00f7 05       		.byte	0x5
 9195 00f8 CD01     		.uleb128 0xcd
 9196 00fa 416C0000 		.4byte	.LASF666
ARM GAS  /var/folders/f9/8bk2lnw15zn4cbgn6wrnb4lm0000gn/T//cc47W8rL.s 			page 181


 9197 00fe 05       		.byte	0x5
 9198 00ff CE01     		.uleb128 0xce
 9199 0101 D06D0000 		.4byte	.LASF667
 9200 0105 05       		.byte	0x5
 9201 0106 CF01     		.uleb128 0xcf
 9202 0108 91530000 		.4byte	.LASF668
 9203 010c 05       		.byte	0x5
 9204 010d D001     		.uleb128 0xd0
 9205 010f 975D0000 		.4byte	.LASF669
 9206 0113 05       		.byte	0x5
 9207 0114 D101     		.uleb128 0xd1
 9208 0116 DA4A0000 		.4byte	.LASF670
 9209 011a 05       		.byte	0x5
 9210 011b D201     		.uleb128 0xd2
 9211 011d FA3E0000 		.4byte	.LASF671
 9212 0121 05       		.byte	0x5
 9213 0122 D301     		.uleb128 0xd3
 9214 0124 4D260000 		.4byte	.LASF672
 9215 0128 05       		.byte	0x5
 9216 0129 D401     		.uleb128 0xd4
 9217 012b 37320000 		.4byte	.LASF673
 9218 012f 05       		.byte	0x5
 9219 0130 D501     		.uleb128 0xd5
 9220 0132 5D780000 		.4byte	.LASF674
 9221 0136 00       		.byte	0
 9222              		.section	.debug_macro,"G",%progbits,wm4.timer_11xx.h.33.c92f50a9325789ee6a8ffd6248980d70,comdat
 9223              	.Ldebug_macro16:
 9224 0000 0400     		.2byte	0x4
 9225 0002 00       		.byte	0
 9226 0003 05       		.byte	0x5
 9227 0004 21       		.uleb128 0x21
 9228 0005 836D0000 		.4byte	.LASF675
 9229 0009 05       		.byte	0x5
 9230 000a 40       		.uleb128 0x40
 9231 000b D0080000 		.4byte	.LASF676
 9232 000f 05       		.byte	0x5
 9233 0010 43       		.uleb128 0x43
 9234 0011 82360000 		.4byte	.LASF677
 9235 0015 05       		.byte	0x5
 9236 0016 45       		.uleb128 0x45
 9237 0017 1F2D0000 		.4byte	.LASF678
 9238 001b 05       		.byte	0x5
 9239 001c 48       		.uleb128 0x48
 9240 001d 24100000 		.4byte	.LASF679
 9241 0021 05       		.byte	0x5
 9242 0022 4A       		.uleb128 0x4a
 9243 0023 B04B0000 		.4byte	.LASF680
 9244 0027 05       		.byte	0x5
 9245 0028 4D       		.uleb128 0x4d
 9246 0029 2C210000 		.4byte	.LASF681
 9247 002d 05       		.byte	0x5
 9248 002e 4F       		.uleb128 0x4f
 9249 002f 912C0000 		.4byte	.LASF682
 9250 0033 05       		.byte	0x5
 9251 0034 51       		.uleb128 0x51
 9252 0035 12590000 		.4byte	.LASF683
 9253 0039 05       		.byte	0x5
ARM GAS  /var/folders/f9/8bk2lnw15zn4cbgn6wrnb4lm0000gn/T//cc47W8rL.s 			page 182


 9254 003a 54       		.uleb128 0x54
 9255 003b 18440000 		.4byte	.LASF684
 9256 003f 05       		.byte	0x5
 9257 0040 56       		.uleb128 0x56
 9258 0041 E5420000 		.4byte	.LASF685
 9259 0045 05       		.byte	0x5
 9260 0046 58       		.uleb128 0x58
 9261 0047 5F760000 		.4byte	.LASF686
 9262 004b 00       		.byte	0
 9263              		.section	.debug_macro,"G",%progbits,wm4.ring_buffer.h.33.ffd8153954783612f9c626df1ed9e770,comdat
 9264              	.Ldebug_macro17:
 9265 0000 0400     		.2byte	0x4
 9266 0002 00       		.byte	0
 9267 0003 05       		.byte	0x5
 9268 0004 21       		.uleb128 0x21
 9269 0005 88500000 		.4byte	.LASF688
 9270 0009 05       		.byte	0x5
 9271 000a 39       		.uleb128 0x39
 9272 000b 4C150000 		.4byte	.LASF689
 9273 000f 05       		.byte	0x5
 9274 0010 3F       		.uleb128 0x3f
 9275 0011 4F3F0000 		.4byte	.LASF690
 9276 0015 00       		.byte	0
 9277              		.section	.debug_macro,"G",%progbits,wm4.uart_11xx.h.98.fe68b709973730a4fba3f3ce60c5c312,comdat
 9278              	.Ldebug_macro18:
 9279 0000 0400     		.2byte	0x4
 9280 0002 00       		.byte	0
 9281 0003 05       		.byte	0x5
 9282 0004 62       		.uleb128 0x62
 9283 0005 F92D0000 		.4byte	.LASF691
 9284 0009 05       		.byte	0x5
 9285 000a 67       		.uleb128 0x67
 9286 000b 2A520000 		.4byte	.LASF692
 9287 000f 05       		.byte	0x5
 9288 0010 68       		.uleb128 0x68
 9289 0011 CD6F0000 		.4byte	.LASF693
 9290 0015 05       		.byte	0x5
 9291 0016 6D       		.uleb128 0x6d
 9292 0017 27540000 		.4byte	.LASF694
 9293 001b 05       		.byte	0x5
 9294 001c 6E       		.uleb128 0x6e
 9295 001d B22B0000 		.4byte	.LASF695
 9296 0021 05       		.byte	0x5
 9297 0022 73       		.uleb128 0x73
 9298 0023 50540000 		.4byte	.LASF696
 9299 0027 05       		.byte	0x5
 9300 0028 74       		.uleb128 0x74
 9301 0029 46490000 		.4byte	.LASF697
 9302 002d 05       		.byte	0x5
 9303 002e 75       		.uleb128 0x75
 9304 002f 0A450000 		.4byte	.LASF698
 9305 0033 05       		.byte	0x5
 9306 0034 76       		.uleb128 0x76
 9307 0035 54570000 		.4byte	.LASF699
 9308 0039 05       		.byte	0x5
 9309 003a 77       		.uleb128 0x77
 9310 003b 8B660000 		.4byte	.LASF700
ARM GAS  /var/folders/f9/8bk2lnw15zn4cbgn6wrnb4lm0000gn/T//cc47W8rL.s 			page 183


 9311 003f 05       		.byte	0x5
 9312 0040 78       		.uleb128 0x78
 9313 0041 B0190000 		.4byte	.LASF701
 9314 0045 05       		.byte	0x5
 9315 0046 79       		.uleb128 0x79
 9316 0047 6F670000 		.4byte	.LASF702
 9317 004b 05       		.byte	0x5
 9318 004c 7A       		.uleb128 0x7a
 9319 004d A8590000 		.4byte	.LASF703
 9320 0051 05       		.byte	0x5
 9321 0052 7B       		.uleb128 0x7b
 9322 0053 841A0000 		.4byte	.LASF704
 9323 0057 05       		.byte	0x5
 9324 0058 7C       		.uleb128 0x7c
 9325 0059 8A090000 		.4byte	.LASF705
 9326 005d 05       		.byte	0x5
 9327 005e 8101     		.uleb128 0x81
 9328 0060 45290000 		.4byte	.LASF706
 9329 0064 05       		.byte	0x5
 9330 0065 8201     		.uleb128 0x82
 9331 0067 1D320000 		.4byte	.LASF707
 9332 006b 05       		.byte	0x5
 9333 006c 8301     		.uleb128 0x83
 9334 006e 30090000 		.4byte	.LASF708
 9335 0072 05       		.byte	0x5
 9336 0073 8401     		.uleb128 0x84
 9337 0075 8F790000 		.4byte	.LASF709
 9338 0079 05       		.byte	0x5
 9339 007a 8501     		.uleb128 0x85
 9340 007c EA260000 		.4byte	.LASF710
 9341 0080 05       		.byte	0x5
 9342 0081 8801     		.uleb128 0x88
 9343 0083 301B0000 		.4byte	.LASF711
 9344 0087 05       		.byte	0x5
 9345 0088 8901     		.uleb128 0x89
 9346 008a 7E5B0000 		.4byte	.LASF712
 9347 008e 05       		.byte	0x5
 9348 008f 8A01     		.uleb128 0x8a
 9349 0091 7A450000 		.4byte	.LASF713
 9350 0095 05       		.byte	0x5
 9351 0096 8B01     		.uleb128 0x8b
 9352 0098 DE330000 		.4byte	.LASF714
 9353 009c 05       		.byte	0x5
 9354 009d 8C01     		.uleb128 0x8c
 9355 009f 090A0000 		.4byte	.LASF715
 9356 00a3 05       		.byte	0x5
 9357 00a4 8D01     		.uleb128 0x8d
 9358 00a6 E90B0000 		.4byte	.LASF716
 9359 00aa 05       		.byte	0x5
 9360 00ab 9201     		.uleb128 0x92
 9361 00ad 50190000 		.4byte	.LASF717
 9362 00b1 05       		.byte	0x5
 9363 00b2 9301     		.uleb128 0x93
 9364 00b4 64660000 		.4byte	.LASF718
 9365 00b8 05       		.byte	0x5
 9366 00b9 9401     		.uleb128 0x94
 9367 00bb 93340000 		.4byte	.LASF719
ARM GAS  /var/folders/f9/8bk2lnw15zn4cbgn6wrnb4lm0000gn/T//cc47W8rL.s 			page 184


 9368 00bf 05       		.byte	0x5
 9369 00c0 9501     		.uleb128 0x95
 9370 00c2 82650000 		.4byte	.LASF720
 9371 00c6 05       		.byte	0x5
 9372 00c7 9601     		.uleb128 0x96
 9373 00c9 2F220000 		.4byte	.LASF721
 9374 00cd 05       		.byte	0x5
 9375 00ce 9801     		.uleb128 0x98
 9376 00d0 980E0000 		.4byte	.LASF722
 9377 00d4 05       		.byte	0x5
 9378 00d5 9B01     		.uleb128 0x9b
 9379 00d7 290C0000 		.4byte	.LASF723
 9380 00db 05       		.byte	0x5
 9381 00dc 9C01     		.uleb128 0x9c
 9382 00de 3F110000 		.4byte	.LASF724
 9383 00e2 05       		.byte	0x5
 9384 00e3 9D01     		.uleb128 0x9d
 9385 00e5 A52A0000 		.4byte	.LASF725
 9386 00e9 05       		.byte	0x5
 9387 00ea 9E01     		.uleb128 0x9e
 9388 00ec 833C0000 		.4byte	.LASF726
 9389 00f0 05       		.byte	0x5
 9390 00f1 A401     		.uleb128 0xa4
 9391 00f3 F3270000 		.4byte	.LASF727
 9392 00f7 05       		.byte	0x5
 9393 00f8 A501     		.uleb128 0xa5
 9394 00fa 5C600000 		.4byte	.LASF728
 9395 00fe 05       		.byte	0x5
 9396 00ff A601     		.uleb128 0xa6
 9397 0101 62510000 		.4byte	.LASF729
 9398 0105 05       		.byte	0x5
 9399 0106 A701     		.uleb128 0xa7
 9400 0108 CA290000 		.4byte	.LASF730
 9401 010c 05       		.byte	0x5
 9402 010d A801     		.uleb128 0xa8
 9403 010f D5320000 		.4byte	.LASF731
 9404 0113 05       		.byte	0x5
 9405 0114 AB01     		.uleb128 0xab
 9406 0116 2E230000 		.4byte	.LASF732
 9407 011a 05       		.byte	0x5
 9408 011b AC01     		.uleb128 0xac
 9409 011d 3C790000 		.4byte	.LASF733
 9410 0121 05       		.byte	0x5
 9411 0122 AD01     		.uleb128 0xad
 9412 0124 343F0000 		.4byte	.LASF734
 9413 0128 05       		.byte	0x5
 9414 0129 B001     		.uleb128 0xb0
 9415 012b 396F0000 		.4byte	.LASF735
 9416 012f 05       		.byte	0x5
 9417 0130 B101     		.uleb128 0xb1
 9418 0132 D24B0000 		.4byte	.LASF736
 9419 0136 05       		.byte	0x5
 9420 0137 B201     		.uleb128 0xb2
 9421 0139 D44D0000 		.4byte	.LASF737
 9422 013d 05       		.byte	0x5
 9423 013e B301     		.uleb128 0xb3
 9424 0140 1D670000 		.4byte	.LASF738
ARM GAS  /var/folders/f9/8bk2lnw15zn4cbgn6wrnb4lm0000gn/T//cc47W8rL.s 			page 185


 9425 0144 05       		.byte	0x5
 9426 0145 B401     		.uleb128 0xb4
 9427 0147 6E410000 		.4byte	.LASF739
 9428 014b 05       		.byte	0x5
 9429 014c B501     		.uleb128 0xb5
 9430 014e 43200000 		.4byte	.LASF740
 9431 0152 05       		.byte	0x5
 9432 0153 B601     		.uleb128 0xb6
 9433 0155 E7020000 		.4byte	.LASF741
 9434 0159 05       		.byte	0x5
 9435 015a B701     		.uleb128 0xb7
 9436 015c EB1D0000 		.4byte	.LASF742
 9437 0160 05       		.byte	0x5
 9438 0161 B801     		.uleb128 0xb8
 9439 0163 043F0000 		.4byte	.LASF743
 9440 0167 05       		.byte	0x5
 9441 0168 BD01     		.uleb128 0xbd
 9442 016a CF040000 		.4byte	.LASF744
 9443 016e 05       		.byte	0x5
 9444 016f BE01     		.uleb128 0xbe
 9445 0171 72380000 		.4byte	.LASF745
 9446 0175 05       		.byte	0x5
 9447 0176 BF01     		.uleb128 0xbf
 9448 0178 6C180000 		.4byte	.LASF746
 9449 017c 05       		.byte	0x5
 9450 017d C001     		.uleb128 0xc0
 9451 017f 5A110000 		.4byte	.LASF747
 9452 0183 05       		.byte	0x5
 9453 0184 C101     		.uleb128 0xc1
 9454 0186 01040000 		.4byte	.LASF748
 9455 018a 05       		.byte	0x5
 9456 018b C201     		.uleb128 0xc2
 9457 018d 980A0000 		.4byte	.LASF749
 9458 0191 05       		.byte	0x5
 9459 0192 C701     		.uleb128 0xc7
 9460 0194 0B480000 		.4byte	.LASF750
 9461 0198 05       		.byte	0x5
 9462 0199 C801     		.uleb128 0xc8
 9463 019b 4B710000 		.4byte	.LASF751
 9464 019f 05       		.byte	0x5
 9465 01a0 C901     		.uleb128 0xc9
 9466 01a2 1B1D0000 		.4byte	.LASF752
 9467 01a6 05       		.byte	0x5
 9468 01a7 CA01     		.uleb128 0xca
 9469 01a9 ED340000 		.4byte	.LASF753
 9470 01ad 05       		.byte	0x5
 9471 01ae CB01     		.uleb128 0xcb
 9472 01b0 19230000 		.4byte	.LASF754
 9473 01b4 05       		.byte	0x5
 9474 01b5 CC01     		.uleb128 0xcc
 9475 01b7 00190000 		.4byte	.LASF755
 9476 01bb 05       		.byte	0x5
 9477 01bc CD01     		.uleb128 0xcd
 9478 01be 59440000 		.4byte	.LASF756
 9479 01c2 05       		.byte	0x5
 9480 01c3 CE01     		.uleb128 0xce
 9481 01c5 206A0000 		.4byte	.LASF757
ARM GAS  /var/folders/f9/8bk2lnw15zn4cbgn6wrnb4lm0000gn/T//cc47W8rL.s 			page 186


 9482 01c9 05       		.byte	0x5
 9483 01ca CF01     		.uleb128 0xcf
 9484 01cc FB060000 		.4byte	.LASF758
 9485 01d0 05       		.byte	0x5
 9486 01d1 D001     		.uleb128 0xd0
 9487 01d3 7E0D0000 		.4byte	.LASF759
 9488 01d7 05       		.byte	0x5
 9489 01d8 D101     		.uleb128 0xd1
 9490 01da 693C0000 		.4byte	.LASF760
 9491 01de 05       		.byte	0x5
 9492 01df D601     		.uleb128 0xd6
 9493 01e1 E6430000 		.4byte	.LASF761
 9494 01e5 05       		.byte	0x5
 9495 01e6 D701     		.uleb128 0xd7
 9496 01e8 FC6D0000 		.4byte	.LASF762
 9497 01ec 05       		.byte	0x5
 9498 01ed D801     		.uleb128 0xd8
 9499 01ef E6030000 		.4byte	.LASF763
 9500 01f3 05       		.byte	0x5
 9501 01f4 D901     		.uleb128 0xd9
 9502 01f6 CC400000 		.4byte	.LASF764
 9503 01fa 05       		.byte	0x5
 9504 01fb DA01     		.uleb128 0xda
 9505 01fd 1B7A0000 		.4byte	.LASF765
 9506 0201 05       		.byte	0x5
 9507 0202 DB01     		.uleb128 0xdb
 9508 0204 39530000 		.4byte	.LASF766
 9509 0208 05       		.byte	0x5
 9510 0209 DC01     		.uleb128 0xdc
 9511 020b D45C0000 		.4byte	.LASF767
 9512 020f 05       		.byte	0x5
 9513 0210 DD01     		.uleb128 0xdd
 9514 0212 AE780000 		.4byte	.LASF768
 9515 0216 05       		.byte	0x5
 9516 0217 DE01     		.uleb128 0xde
 9517 0219 401E0000 		.4byte	.LASF769
 9518 021d 05       		.byte	0x5
 9519 021e E301     		.uleb128 0xe3
 9520 0220 47300000 		.4byte	.LASF770
 9521 0224 05       		.byte	0x5
 9522 0225 E401     		.uleb128 0xe4
 9523 0227 29420000 		.4byte	.LASF771
 9524 022b 05       		.byte	0x5
 9525 022c E501     		.uleb128 0xe5
 9526 022e CA5D0000 		.4byte	.LASF772
 9527 0232 05       		.byte	0x5
 9528 0233 E601     		.uleb128 0xe6
 9529 0235 21480000 		.4byte	.LASF773
 9530 0239 05       		.byte	0x5
 9531 023a E701     		.uleb128 0xe7
 9532 023c 57260000 		.4byte	.LASF774
 9533 0240 05       		.byte	0x5
 9534 0241 E801     		.uleb128 0xe8
 9535 0243 B6040000 		.4byte	.LASF775
 9536 0247 05       		.byte	0x5
 9537 0248 ED01     		.uleb128 0xed
 9538 024a 9E3C0000 		.4byte	.LASF776
ARM GAS  /var/folders/f9/8bk2lnw15zn4cbgn6wrnb4lm0000gn/T//cc47W8rL.s 			page 187


 9539 024e 05       		.byte	0x5
 9540 024f EE01     		.uleb128 0xee
 9541 0251 BF0E0000 		.4byte	.LASF777
 9542 0255 05       		.byte	0x5
 9543 0256 EF01     		.uleb128 0xef
 9544 0258 F52F0000 		.4byte	.LASF778
 9545 025c 05       		.byte	0x5
 9546 025d F001     		.uleb128 0xf0
 9547 025f 38180000 		.4byte	.LASF779
 9548 0263 05       		.byte	0x5
 9549 0264 F201     		.uleb128 0xf2
 9550 0266 CB360000 		.4byte	.LASF780
 9551 026a 05       		.byte	0x5
 9552 026b F301     		.uleb128 0xf3
 9553 026d 1A4C0000 		.4byte	.LASF781
 9554 0271 05       		.byte	0x5
 9555 0272 F601     		.uleb128 0xf6
 9556 0274 A3480000 		.4byte	.LASF782
 9557 0278 05       		.byte	0x5
 9558 0279 FB01     		.uleb128 0xfb
 9559 027b 611E0000 		.4byte	.LASF783
 9560 027f 05       		.byte	0x5
 9561 0280 FC01     		.uleb128 0xfc
 9562 0282 88350000 		.4byte	.LASF784
 9563 0286 05       		.byte	0x5
 9564 0287 FD01     		.uleb128 0xfd
 9565 0289 BB740000 		.4byte	.LASF785
 9566 028d 05       		.byte	0x5
 9567 028e FE01     		.uleb128 0xfe
 9568 0290 E22E0000 		.4byte	.LASF786
 9569 0294 05       		.byte	0x5
 9570 0295 FF01     		.uleb128 0xff
 9571 0297 130F0000 		.4byte	.LASF787
 9572 029b 05       		.byte	0x5
 9573 029c 8402     		.uleb128 0x104
 9574 029e E43C0000 		.4byte	.LASF788
 9575 02a2 05       		.byte	0x5
 9576 02a3 8902     		.uleb128 0x109
 9577 02a5 E8400000 		.4byte	.LASF789
 9578 02a9 05       		.byte	0x5
 9579 02aa 8A02     		.uleb128 0x10a
 9580 02ac 1B6F0000 		.4byte	.LASF790
 9581 02b0 05       		.byte	0x5
 9582 02b1 8B02     		.uleb128 0x10b
 9583 02b3 7E300000 		.4byte	.LASF791
 9584 02b7 05       		.byte	0x5
 9585 02b8 8C02     		.uleb128 0x10c
 9586 02ba AA550000 		.4byte	.LASF792
 9587 02be 05       		.byte	0x5
 9588 02bf 8D02     		.uleb128 0x10d
 9589 02c1 F1300000 		.4byte	.LASF793
 9590 02c5 05       		.byte	0x5
 9591 02c6 9202     		.uleb128 0x112
 9592 02c8 842A0000 		.4byte	.LASF794
 9593 02cc 05       		.byte	0x5
 9594 02cd 9302     		.uleb128 0x113
 9595 02cf 73620000 		.4byte	.LASF795
ARM GAS  /var/folders/f9/8bk2lnw15zn4cbgn6wrnb4lm0000gn/T//cc47W8rL.s 			page 188


 9596 02d3 05       		.byte	0x5
 9597 02d4 9402     		.uleb128 0x114
 9598 02d6 4B090000 		.4byte	.LASF796
 9599 02da 05       		.byte	0x5
 9600 02db 9902     		.uleb128 0x119
 9601 02dd CC0F0000 		.4byte	.LASF797
 9602 02e1 05       		.byte	0x5
 9603 02e2 9A02     		.uleb128 0x11a
 9604 02e4 A9060000 		.4byte	.LASF798
 9605 02e8 05       		.byte	0x5
 9606 02e9 9F02     		.uleb128 0x11f
 9607 02eb 215A0000 		.4byte	.LASF799
 9608 02ef 05       		.byte	0x5
 9609 02f0 A002     		.uleb128 0x120
 9610 02f2 2F370000 		.4byte	.LASF800
 9611 02f6 05       		.byte	0x5
 9612 02f7 A102     		.uleb128 0x121
 9613 02f9 A91F0000 		.4byte	.LASF801
 9614 02fd 05       		.byte	0x5
 9615 02fe A202     		.uleb128 0x122
 9616 0300 634E0000 		.4byte	.LASF802
 9617 0304 05       		.byte	0x5
 9618 0305 A302     		.uleb128 0x123
 9619 0307 EE470000 		.4byte	.LASF803
 9620 030b 05       		.byte	0x5
 9621 030c A402     		.uleb128 0x124
 9622 030e D9750000 		.4byte	.LASF804
 9623 0312 05       		.byte	0x5
 9624 0313 A502     		.uleb128 0x125
 9625 0315 DF520000 		.4byte	.LASF805
 9626 0319 00       		.byte	0
 9627              		.section	.debug_macro,"G",%progbits,wm4.wwdt_11xx.h.33.5768344983cb842df69cc91ea86cabb0,comdat
 9628              	.Ldebug_macro19:
 9629 0000 0400     		.2byte	0x4
 9630 0002 00       		.byte	0
 9631 0003 05       		.byte	0x5
 9632 0004 21       		.uleb128 0x21
 9633 0005 DD100000 		.4byte	.LASF806
 9634 0009 05       		.byte	0x5
 9635 000a 4B       		.uleb128 0x4b
 9636 000b A4630000 		.4byte	.LASF807
 9637 000f 05       		.byte	0x5
 9638 0010 4D       		.uleb128 0x4d
 9639 0011 2B010000 		.4byte	.LASF808
 9640 0015 05       		.byte	0x5
 9641 0016 4F       		.uleb128 0x4f
 9642 0017 19560000 		.4byte	.LASF809
 9643 001b 05       		.byte	0x5
 9644 001c 51       		.uleb128 0x51
 9645 001d 743B0000 		.4byte	.LASF810
 9646 0021 05       		.byte	0x5
 9647 0022 53       		.uleb128 0x53
 9648 0023 08750000 		.4byte	.LASF811
 9649 0027 05       		.byte	0x5
 9650 0028 55       		.uleb128 0x55
 9651 0029 43410000 		.4byte	.LASF812
 9652 002d 00       		.byte	0
ARM GAS  /var/folders/f9/8bk2lnw15zn4cbgn6wrnb4lm0000gn/T//cc47W8rL.s 			page 189


 9653              		.section	.debug_macro,"G",%progbits,wm4.ssp_11xx.h.33.af054d3d65f4cb0c078be40bb872ec37,comdat
 9654              	.Ldebug_macro20:
 9655 0000 0400     		.2byte	0x4
 9656 0002 00       		.byte	0
 9657 0003 05       		.byte	0x5
 9658 0004 21       		.uleb128 0x21
 9659 0005 CA2B0000 		.4byte	.LASF813
 9660 0009 05       		.byte	0x5
 9661 000a 40       		.uleb128 0x40
 9662 000b 684A0000 		.4byte	.LASF814
 9663 000f 05       		.byte	0x5
 9664 0010 42       		.uleb128 0x42
 9665 0011 D5060000 		.4byte	.LASF815
 9666 0015 05       		.byte	0x5
 9667 0016 44       		.uleb128 0x44
 9668 0017 20290000 		.4byte	.LASF816
 9669 001b 05       		.byte	0x5
 9670 001c 46       		.uleb128 0x46
 9671 001d 61270000 		.4byte	.LASF817
 9672 0021 05       		.byte	0x5
 9673 0022 49       		.uleb128 0x49
 9674 0023 C0560000 		.4byte	.LASF818
 9675 0027 05       		.byte	0x5
 9676 0028 4A       		.uleb128 0x4a
 9677 0029 E8080000 		.4byte	.LASF819
 9678 002d 05       		.byte	0x5
 9679 002e 4D       		.uleb128 0x4d
 9680 002f DD210000 		.4byte	.LASF820
 9681 0033 05       		.byte	0x5
 9682 0034 4E       		.uleb128 0x4e
 9683 0035 0E340000 		.4byte	.LASF821
 9684 0039 05       		.byte	0x5
 9685 003a 51       		.uleb128 0x51
 9686 003b 591B0000 		.4byte	.LASF822
 9687 003f 05       		.byte	0x5
 9688 0040 53       		.uleb128 0x53
 9689 0041 B5110000 		.4byte	.LASF823
 9690 0045 05       		.byte	0x5
 9691 0046 55       		.uleb128 0x55
 9692 0047 B5110000 		.4byte	.LASF823
 9693 004b 05       		.byte	0x5
 9694 004c 58       		.uleb128 0x58
 9695 004d 591B0000 		.4byte	.LASF822
 9696 0051 05       		.byte	0x5
 9697 0052 5F       		.uleb128 0x5f
 9698 0053 EF4F0000 		.4byte	.LASF824
 9699 0057 05       		.byte	0x5
 9700 0058 61       		.uleb128 0x61
 9701 0059 D41B0000 		.4byte	.LASF825
 9702 005d 05       		.byte	0x5
 9703 005e 63       		.uleb128 0x63
 9704 005f DB110000 		.4byte	.LASF826
 9705 0063 05       		.byte	0x5
 9706 0064 64       		.uleb128 0x64
 9707 0065 8D380000 		.4byte	.LASF827
 9708 0069 05       		.byte	0x5
 9709 006a 67       		.uleb128 0x67
ARM GAS  /var/folders/f9/8bk2lnw15zn4cbgn6wrnb4lm0000gn/T//cc47W8rL.s 			page 190


 9710 006b E44A0000 		.4byte	.LASF828
 9711 006f 05       		.byte	0x5
 9712 0070 69       		.uleb128 0x69
 9713 0071 A7760000 		.4byte	.LASF829
 9714 0075 05       		.byte	0x5
 9715 0076 6C       		.uleb128 0x6c
 9716 0077 99750000 		.4byte	.LASF830
 9717 007b 05       		.byte	0x5
 9718 007c 72       		.uleb128 0x72
 9719 007d 22200000 		.4byte	.LASF831
 9720 0081 05       		.byte	0x5
 9721 0082 79       		.uleb128 0x79
 9722 0083 5A690000 		.4byte	.LASF832
 9723 0087 05       		.byte	0x5
 9724 0088 7C       		.uleb128 0x7c
 9725 0089 40070000 		.4byte	.LASF833
 9726 008d 05       		.byte	0x5
 9727 008e C503     		.uleb128 0x1c5
 9728 0090 B36C0000 		.4byte	.LASF834
 9729 0094 05       		.byte	0x5
 9730 0095 C603     		.uleb128 0x1c6
 9731 0097 72320000 		.4byte	.LASF835
 9732 009b 05       		.byte	0x5
 9733 009c CF03     		.uleb128 0x1cf
 9734 009e 4F1A0000 		.4byte	.LASF836
 9735 00a2 05       		.byte	0x5
 9736 00a3 D003     		.uleb128 0x1d0
 9737 00a5 4C1D0000 		.4byte	.LASF837
 9738 00a9 05       		.byte	0x5
 9739 00aa D303     		.uleb128 0x1d3
 9740 00ac EE770000 		.4byte	.LASF838
 9741 00b0 05       		.byte	0x5
 9742 00b1 D403     		.uleb128 0x1d4
 9743 00b3 D83E0000 		.4byte	.LASF839
 9744 00b7 00       		.byte	0
 9745              		.section	.debug_macro,"G",%progbits,wm4.error.h.38.ae74fe1dd9d19c80c505f1fda144fce8,comdat
 9746              	.Ldebug_macro21:
 9747 0000 0400     		.2byte	0x4
 9748 0002 00       		.byte	0
 9749 0003 05       		.byte	0x5
 9750 0004 26       		.uleb128 0x26
 9751 0005 6C4F0000 		.4byte	.LASF841
 9752 0009 05       		.byte	0x5
 9753 000a 8401     		.uleb128 0x84
 9754 000c C9070000 		.4byte	.LASF842
 9755 0010 00       		.byte	0
 9756              		.section	.debug_macro,"G",%progbits,wm4.adc_11xx.h.33.6ce7433ac6b30df70a6993d01dbd513f,comdat
 9757              	.Ldebug_macro22:
 9758 0000 0400     		.2byte	0x4
 9759 0002 00       		.byte	0
 9760 0003 05       		.byte	0x5
 9761 0004 21       		.uleb128 0x21
 9762 0005 871B0000 		.4byte	.LASF843
 9763 0009 05       		.byte	0x5
 9764 000a 2F       		.uleb128 0x2f
 9765 000b 006F0000 		.4byte	.LASF844
 9766 000f 05       		.byte	0x5
ARM GAS  /var/folders/f9/8bk2lnw15zn4cbgn6wrnb4lm0000gn/T//cc47W8rL.s 			page 191


 9767 0010 40       		.uleb128 0x40
 9768 0011 04700000 		.4byte	.LASF845
 9769 0015 05       		.byte	0x5
 9770 0016 41       		.uleb128 0x41
 9771 0017 6D480000 		.4byte	.LASF846
 9772 001b 05       		.byte	0x5
 9773 001c 43       		.uleb128 0x43
 9774 001d DF3F0000 		.4byte	.LASF847
 9775 0021 05       		.byte	0x5
 9776 0022 44       		.uleb128 0x44
 9777 0023 FC3F0000 		.4byte	.LASF848
 9778 0027 05       		.byte	0x5
 9779 0028 45       		.uleb128 0x45
 9780 0029 CC3A0000 		.4byte	.LASF849
 9781 002d 05       		.byte	0x5
 9782 002e 46       		.uleb128 0x46
 9783 002f AA790000 		.4byte	.LASF850
 9784 0033 05       		.byte	0x5
 9785 0034 47       		.uleb128 0x47
 9786 0035 2B760000 		.4byte	.LASF851
 9787 0039 05       		.byte	0x5
 9788 003a 48       		.uleb128 0x48
 9789 003b 6B730000 		.4byte	.LASF852
 9790 003f 05       		.byte	0x5
 9791 0040 49       		.uleb128 0x49
 9792 0041 845E0000 		.4byte	.LASF853
 9793 0045 05       		.byte	0x5
 9794 0046 4A       		.uleb128 0x4a
 9795 0047 9E1A0000 		.4byte	.LASF854
 9796 004b 05       		.byte	0x5
 9797 004c 4B       		.uleb128 0x4b
 9798 004d 0D210000 		.4byte	.LASF855
 9799 0051 05       		.byte	0x5
 9800 0052 4C       		.uleb128 0x4c
 9801 0053 69420000 		.4byte	.LASF856
 9802 0057 05       		.byte	0x5
 9803 0058 4D       		.uleb128 0x4d
 9804 0059 3B170000 		.4byte	.LASF857
 9805 005d 05       		.byte	0x5
 9806 005e 4E       		.uleb128 0x4e
 9807 005f 33510000 		.4byte	.LASF858
 9808 0063 05       		.byte	0x5
 9809 0064 4F       		.uleb128 0x4f
 9810 0065 9B3B0000 		.4byte	.LASF859
 9811 0069 05       		.byte	0x5
 9812 006a 50       		.uleb128 0x50
 9813 006b 635E0000 		.4byte	.LASF860
 9814 006f 05       		.byte	0x5
 9815 0070 51       		.uleb128 0x51
 9816 0071 F7510000 		.4byte	.LASF861
 9817 0075 05       		.byte	0x5
 9818 0076 52       		.uleb128 0x52
 9819 0077 5C580000 		.4byte	.LASF862
 9820 007b 00       		.byte	0
 9821              		.section	.debug_macro,"G",%progbits,wm4.i2c_11xx.h.33.2b506d1350e00a8c26e8bf006a5f9390,comdat
 9822              	.Ldebug_macro23:
 9823 0000 0400     		.2byte	0x4
ARM GAS  /var/folders/f9/8bk2lnw15zn4cbgn6wrnb4lm0000gn/T//cc47W8rL.s 			page 192


 9824 0002 00       		.byte	0
 9825 0003 05       		.byte	0x5
 9826 0004 21       		.uleb128 0x21
 9827 0005 116A0000 		.4byte	.LASF864
 9828 0009 05       		.byte	0x5
 9829 000a 46       		.uleb128 0x46
 9830 000b 650E0000 		.4byte	.LASF865
 9831 000f 05       		.byte	0x5
 9832 0010 47       		.uleb128 0x47
 9833 0011 746D0000 		.4byte	.LASF866
 9834 0015 05       		.byte	0x5
 9835 0016 48       		.uleb128 0x48
 9836 0017 2B1C0000 		.4byte	.LASF867
 9837 001b 05       		.byte	0x5
 9838 001c 49       		.uleb128 0x49
 9839 001d AE0C0000 		.4byte	.LASF868
 9840 0021 05       		.byte	0x5
 9841 0022 4E       		.uleb128 0x4e
 9842 0023 07670000 		.4byte	.LASF869
 9843 0027 05       		.byte	0x5
 9844 0028 53       		.uleb128 0x53
 9845 0029 D8300000 		.4byte	.LASF870
 9846 002d 05       		.byte	0x5
 9847 002e 54       		.uleb128 0x54
 9848 002f 7F0A0000 		.4byte	.LASF871
 9849 0033 05       		.byte	0x5
 9850 0034 55       		.uleb128 0x55
 9851 0035 00000000 		.4byte	.LASF872
 9852 0039 05       		.byte	0x5
 9853 003a 56       		.uleb128 0x56
 9854 003b 302E0000 		.4byte	.LASF873
 9855 003f 05       		.byte	0x5
 9856 0040 57       		.uleb128 0x57
 9857 0041 DE0E0000 		.4byte	.LASF874
 9858 0045 05       		.byte	0x5
 9859 0046 5C       		.uleb128 0x5c
 9860 0047 2F750000 		.4byte	.LASF875
 9861 004b 05       		.byte	0x5
 9862 004c 5D       		.uleb128 0x5d
 9863 004d 3F0C0000 		.4byte	.LASF876
 9864 0051 05       		.byte	0x5
 9865 0052 5E       		.uleb128 0x5e
 9866 0053 A2510000 		.4byte	.LASF877
 9867 0057 05       		.byte	0x5
 9868 0058 5F       		.uleb128 0x5f
 9869 0059 910C0000 		.4byte	.LASF878
 9870 005d 05       		.byte	0x5
 9871 005e 60       		.uleb128 0x60
 9872 005f 18260000 		.4byte	.LASF879
 9873 0063 05       		.byte	0x5
 9874 0064 65       		.uleb128 0x65
 9875 0065 524A0000 		.4byte	.LASF880
 9876 0069 05       		.byte	0x5
 9877 006a 66       		.uleb128 0x66
 9878 006b 7A510000 		.4byte	.LASF881
 9879 006f 05       		.byte	0x5
 9880 0070 67       		.uleb128 0x67
ARM GAS  /var/folders/f9/8bk2lnw15zn4cbgn6wrnb4lm0000gn/T//cc47W8rL.s 			page 193


 9881 0071 7A0C0000 		.4byte	.LASF882
 9882 0075 05       		.byte	0x5
 9883 0076 68       		.uleb128 0x68
 9884 0077 4A5A0000 		.4byte	.LASF883
 9885 007b 05       		.byte	0x5
 9886 007c 69       		.uleb128 0x69
 9887 007d 714B0000 		.4byte	.LASF884
 9888 0081 05       		.byte	0x5
 9889 0082 6E       		.uleb128 0x6e
 9890 0083 D1790000 		.4byte	.LASF885
 9891 0087 05       		.byte	0x5
 9892 0088 6F       		.uleb128 0x6f
 9893 0089 464E0000 		.4byte	.LASF886
 9894 008d 05       		.byte	0x5
 9895 008e 74       		.uleb128 0x74
 9896 008f B13A0000 		.4byte	.LASF887
 9897 0093 05       		.byte	0x5
 9898 0094 75       		.uleb128 0x75
 9899 0095 7A190000 		.4byte	.LASF888
 9900 0099 05       		.byte	0x5
 9901 009a 7A       		.uleb128 0x7a
 9902 009b 27490000 		.4byte	.LASF889
 9903 009f 05       		.byte	0x5
 9904 00a0 7B       		.uleb128 0x7b
 9905 00a1 2E1A0000 		.4byte	.LASF890
 9906 00a5 05       		.byte	0x5
 9907 00a6 7C       		.uleb128 0x7c
 9908 00a7 8E250000 		.4byte	.LASF891
 9909 00ab 05       		.byte	0x5
 9910 00ac 7D       		.uleb128 0x7d
 9911 00ad 1A000000 		.4byte	.LASF892
 9912 00b1 05       		.byte	0x5
 9913 00b2 7E       		.uleb128 0x7e
 9914 00b3 D42F0000 		.4byte	.LASF893
 9915 00b7 05       		.byte	0x5
 9916 00b8 7F       		.uleb128 0x7f
 9917 00b9 333A0000 		.4byte	.LASF894
 9918 00bd 05       		.byte	0x5
 9919 00be 8001     		.uleb128 0x80
 9920 00c0 091C0000 		.4byte	.LASF895
 9921 00c4 05       		.byte	0x5
 9922 00c5 8501     		.uleb128 0x85
 9923 00c7 1A020000 		.4byte	.LASF896
 9924 00cb 05       		.byte	0x5
 9925 00cc 8601     		.uleb128 0x86
 9926 00ce 14500000 		.4byte	.LASF897
 9927 00d2 05       		.byte	0x5
 9928 00d3 8701     		.uleb128 0x87
 9929 00d5 302C0000 		.4byte	.LASF898
 9930 00d9 05       		.byte	0x5
 9931 00da 8801     		.uleb128 0x88
 9932 00dc 0F600000 		.4byte	.LASF899
 9933 00e0 05       		.byte	0x5
 9934 00e1 8901     		.uleb128 0x89
 9935 00e3 18150000 		.4byte	.LASF900
 9936 00e7 05       		.byte	0x5
 9937 00e8 8A01     		.uleb128 0x8a
ARM GAS  /var/folders/f9/8bk2lnw15zn4cbgn6wrnb4lm0000gn/T//cc47W8rL.s 			page 194


 9938 00ea FD0C0000 		.4byte	.LASF901
 9939 00ee 05       		.byte	0x5
 9940 00ef 8B01     		.uleb128 0x8b
 9941 00f1 ED100000 		.4byte	.LASF902
 9942 00f5 05       		.byte	0x5
 9943 00f6 9001     		.uleb128 0x90
 9944 00f8 912D0000 		.4byte	.LASF903
 9945 00fc 05       		.byte	0x5
 9946 00fd 9101     		.uleb128 0x91
 9947 00ff 05740000 		.4byte	.LASF904
 9948 0103 05       		.byte	0x5
 9949 0104 9301     		.uleb128 0x93
 9950 0106 0D660000 		.4byte	.LASF905
 9951 010a 05       		.byte	0x5
 9952 010b 9401     		.uleb128 0x94
 9953 010d 9C4D0000 		.4byte	.LASF906
 9954 0111 05       		.byte	0x5
 9955 0112 9601     		.uleb128 0x96
 9956 0114 54100000 		.4byte	.LASF907
 9957 0118 05       		.byte	0x5
 9958 0119 9701     		.uleb128 0x97
 9959 011b D30C0000 		.4byte	.LASF908
 9960 011f 05       		.byte	0x5
 9961 0120 9801     		.uleb128 0x98
 9962 0122 BE130000 		.4byte	.LASF909
 9963 0126 05       		.byte	0x5
 9964 0127 9901     		.uleb128 0x99
 9965 0129 BA120000 		.4byte	.LASF910
 9966 012d 05       		.byte	0x5
 9967 012e 9A01     		.uleb128 0x9a
 9968 0130 792F0000 		.4byte	.LASF911
 9969 0134 05       		.byte	0x5
 9970 0135 A001     		.uleb128 0xa0
 9971 0137 AE0D0000 		.4byte	.LASF912
 9972 013b 05       		.byte	0x5
 9973 013c A101     		.uleb128 0xa1
 9974 013e 744D0000 		.4byte	.LASF913
 9975 0142 05       		.byte	0x5
 9976 0143 A301     		.uleb128 0xa3
 9977 0145 87180000 		.4byte	.LASF914
 9978 0149 05       		.byte	0x5
 9979 014a A401     		.uleb128 0xa4
 9980 014c F44E0000 		.4byte	.LASF915
 9981 0150 05       		.byte	0x5
 9982 0151 A501     		.uleb128 0xa5
 9983 0153 BD6E0000 		.4byte	.LASF916
 9984 0157 05       		.byte	0x5
 9985 0158 A601     		.uleb128 0xa6
 9986 015a 27300000 		.4byte	.LASF917
 9987 015e 05       		.byte	0x5
 9988 015f AB01     		.uleb128 0xab
 9989 0161 39570000 		.4byte	.LASF918
 9990 0165 05       		.byte	0x5
 9991 0166 AC01     		.uleb128 0xac
 9992 0168 D1690000 		.4byte	.LASF919
 9993 016c 05       		.byte	0x5
 9994 016d B201     		.uleb128 0xb2
ARM GAS  /var/folders/f9/8bk2lnw15zn4cbgn6wrnb4lm0000gn/T//cc47W8rL.s 			page 195


 9995 016f 50000000 		.4byte	.LASF920
 9996 0173 05       		.byte	0x5
 9997 0174 B301     		.uleb128 0xb3
 9998 0176 60710000 		.4byte	.LASF921
 9999 017a 05       		.byte	0x5
 10000 017b B401     		.uleb128 0xb4
 10001 017d C3420000 		.4byte	.LASF922
 10002 0181 05       		.byte	0x5
 10003 0182 B501     		.uleb128 0xb5
 10004 0184 012D0000 		.4byte	.LASF923
 10005 0188 05       		.byte	0x5
 10006 0189 BA01     		.uleb128 0xba
 10007 018b 4B740000 		.4byte	.LASF924
 10008 018f 05       		.byte	0x5
 10009 0190 BF01     		.uleb128 0xbf
 10010 0192 94640000 		.4byte	.LASF925
 10011 0196 05       		.byte	0x5
 10012 0197 C001     		.uleb128 0xc0
 10013 0199 19350000 		.4byte	.LASF926
 10014 019d 05       		.byte	0x5
 10015 019e C501     		.uleb128 0xc5
 10016 01a0 75560000 		.4byte	.LASF927
 10017 01a4 05       		.byte	0x5
 10018 01a5 CA01     		.uleb128 0xca
 10019 01a7 94700000 		.4byte	.LASF928
 10020 01ab 05       		.byte	0x5
 10021 01ac CF01     		.uleb128 0xcf
 10022 01ae 04410000 		.4byte	.LASF929
 10023 01b2 05       		.byte	0x5
 10024 01b3 D401     		.uleb128 0xd4
 10025 01b5 53590000 		.4byte	.LASF930
 10026 01b9 05       		.byte	0x5
 10027 01ba D501     		.uleb128 0xd5
 10028 01bc 317A0000 		.4byte	.LASF931
 10029 01c0 05       		.byte	0x5
 10030 01c1 D601     		.uleb128 0xd6
 10031 01c3 813F0000 		.4byte	.LASF932
 10032 01c7 05       		.byte	0x5
 10033 01c8 DB01     		.uleb128 0xdb
 10034 01ca A6520000 		.4byte	.LASF933
 10035 01ce 05       		.byte	0x5
 10036 01cf DC01     		.uleb128 0xdc
 10037 01d1 615A0000 		.4byte	.LASF934
 10038 01d5 05       		.byte	0x5
 10039 01d6 DD01     		.uleb128 0xdd
 10040 01d8 18010000 		.4byte	.LASF935
 10041 01dc 05       		.byte	0x5
 10042 01dd DE01     		.uleb128 0xde
 10043 01df B0380000 		.4byte	.LASF936
 10044 01e3 05       		.byte	0x5
 10045 01e4 DF01     		.uleb128 0xdf
 10046 01e6 41590000 		.4byte	.LASF937
 10047 01ea 05       		.byte	0x5
 10048 01eb E001     		.uleb128 0xe0
 10049 01ed 3C280000 		.4byte	.LASF938
 10050 01f1 05       		.byte	0x5
 10051 01f2 E101     		.uleb128 0xe1
ARM GAS  /var/folders/f9/8bk2lnw15zn4cbgn6wrnb4lm0000gn/T//cc47W8rL.s 			page 196


 10052 01f4 07670000 		.4byte	.LASF869
 10053 01f8 05       		.byte	0x5
 10054 01f9 E301     		.uleb128 0xe3
 10055 01fb BC690000 		.4byte	.LASF939
 10056 01ff 05       		.byte	0x5
 10057 0200 E401     		.uleb128 0xe4
 10058 0202 9F160000 		.4byte	.LASF940
 10059 0206 05       		.byte	0x5
 10060 0207 E601     		.uleb128 0xe6
 10061 0209 673D0000 		.4byte	.LASF941
 10062 020d 05       		.byte	0x5
 10063 020e EB01     		.uleb128 0xeb
 10064 0210 BF4F0000 		.4byte	.LASF942
 10065 0214 05       		.byte	0x5
 10066 0215 EC01     		.uleb128 0xec
 10067 0217 99200000 		.4byte	.LASF943
 10068 021b 00       		.byte	0
 10069              		.section	.debug_macro,"G",%progbits,wm4.ccand_11xx.h.33.99627f4b529fecdc77b0877ab6fe5266,comdat
 10070              	.Ldebug_macro24:
 10071 0000 0400     		.2byte	0x4
 10072 0002 00       		.byte	0
 10073 0003 05       		.byte	0x5
 10074 0004 21       		.uleb128 0x21
 10075 0005 7E000000 		.4byte	.LASF944
 10076 0009 05       		.byte	0x5
 10077 000a 6E       		.uleb128 0x6e
 10078 000b D42C0000 		.4byte	.LASF945
 10079 000f 05       		.byte	0x5
 10080 0010 6F       		.uleb128 0x6f
 10081 0011 43250000 		.4byte	.LASF946
 10082 0015 05       		.byte	0x5
 10083 0016 70       		.uleb128 0x70
 10084 0017 C33F0000 		.4byte	.LASF947
 10085 001b 05       		.byte	0x5
 10086 001c 71       		.uleb128 0x71
 10087 001d 8B760000 		.4byte	.LASF948
 10088 0021 05       		.byte	0x5
 10089 0022 72       		.uleb128 0x72
 10090 0023 34190000 		.4byte	.LASF949
 10091 0027 05       		.byte	0x5
 10092 0028 73       		.uleb128 0x73
 10093 0029 560F0000 		.4byte	.LASF950
 10094 002d 05       		.byte	0x5
 10095 002e 74       		.uleb128 0x74
 10096 002f 14770000 		.4byte	.LASF951
 10097 0033 05       		.byte	0x5
 10098 0034 75       		.uleb128 0x75
 10099 0035 4A2E0000 		.4byte	.LASF952
 10100 0039 05       		.byte	0x5
 10101 003a 76       		.uleb128 0x76
 10102 003b 29720000 		.4byte	.LASF953
 10103 003f 05       		.byte	0x5
 10104 0040 77       		.uleb128 0x77
 10105 0041 3E440000 		.4byte	.LASF954
 10106 0045 05       		.byte	0x5
 10107 0046 7C       		.uleb128 0x7c
 10108 0047 DD1A0000 		.4byte	.LASF955
ARM GAS  /var/folders/f9/8bk2lnw15zn4cbgn6wrnb4lm0000gn/T//cc47W8rL.s 			page 197


 10109 004b 05       		.byte	0x5
 10110 004c 7D       		.uleb128 0x7d
 10111 004d 16270000 		.4byte	.LASF956
 10112 0051 05       		.byte	0x5
 10113 0052 7E       		.uleb128 0x7e
 10114 0053 66650000 		.4byte	.LASF957
 10115 0057 05       		.byte	0x5
 10116 0058 7F       		.uleb128 0x7f
 10117 0059 41770000 		.4byte	.LASF958
 10118 005d 05       		.byte	0x5
 10119 005e 9101     		.uleb128 0x91
 10120 0060 54210000 		.4byte	.LASF959
 10121 0064 05       		.byte	0x5
 10122 0065 9201     		.uleb128 0x92
 10123 0067 DA6D0000 		.4byte	.LASF960
 10124 006b 05       		.byte	0x5
 10125 006c 9301     		.uleb128 0x93
 10126 006e 2E040000 		.4byte	.LASF961
 10127 0072 05       		.byte	0x5
 10128 0073 9401     		.uleb128 0x94
 10129 0075 370D0000 		.4byte	.LASF962
 10130 0079 05       		.byte	0x5
 10131 007a 9501     		.uleb128 0x95
 10132 007c F8550000 		.4byte	.LASF963
 10133 0080 05       		.byte	0x5
 10134 0081 9601     		.uleb128 0x96
 10135 0083 75260000 		.4byte	.LASF964
 10136 0087 05       		.byte	0x5
 10137 0088 9701     		.uleb128 0x97
 10138 008a 7C740000 		.4byte	.LASF965
 10139 008e 05       		.byte	0x5
 10140 008f 9801     		.uleb128 0x98
 10141 0091 C02A0000 		.4byte	.LASF966
 10142 0095 05       		.byte	0x5
 10143 0096 9901     		.uleb128 0x99
 10144 0098 89550000 		.4byte	.LASF967
 10145 009c 05       		.byte	0x5
 10146 009d 9A01     		.uleb128 0x9a
 10147 009f FF130000 		.4byte	.LASF968
 10148 00a3 05       		.byte	0x5
 10149 00a4 9B01     		.uleb128 0x9b
 10150 00a6 38340000 		.4byte	.LASF969
 10151 00aa 05       		.byte	0x5
 10152 00ab 9C01     		.uleb128 0x9c
 10153 00ad 861F0000 		.4byte	.LASF970
 10154 00b1 05       		.byte	0x5
 10155 00b2 9D01     		.uleb128 0x9d
 10156 00b4 0B760000 		.4byte	.LASF971
 10157 00b8 05       		.byte	0x5
 10158 00b9 9E01     		.uleb128 0x9e
 10159 00bb 6B500000 		.4byte	.LASF972
 10160 00bf 05       		.byte	0x5
 10161 00c0 9F01     		.uleb128 0x9f
 10162 00c2 5B450000 		.4byte	.LASF973
 10163 00c6 05       		.byte	0x5
 10164 00c7 A901     		.uleb128 0xa9
 10165 00c9 485E0000 		.4byte	.LASF974
ARM GAS  /var/folders/f9/8bk2lnw15zn4cbgn6wrnb4lm0000gn/T//cc47W8rL.s 			page 198


 10166 00cd 05       		.byte	0x5
 10167 00ce AA01     		.uleb128 0xaa
 10168 00d0 4C520000 		.4byte	.LASF975
 10169 00d4 05       		.byte	0x5
 10170 00d5 AB01     		.uleb128 0xab
 10171 00d7 C1220000 		.4byte	.LASF976
 10172 00db 05       		.byte	0x5
 10173 00dc AC01     		.uleb128 0xac
 10174 00de 474D0000 		.4byte	.LASF977
 10175 00e2 05       		.byte	0x5
 10176 00e3 AD01     		.uleb128 0xad
 10177 00e5 52140000 		.4byte	.LASF978
 10178 00e9 05       		.byte	0x5
 10179 00ea AE01     		.uleb128 0xae
 10180 00ec D9390000 		.4byte	.LASF979
 10181 00f0 05       		.byte	0x5
 10182 00f1 AF01     		.uleb128 0xaf
 10183 00f3 EB460000 		.4byte	.LASF980
 10184 00f7 05       		.byte	0x5
 10185 00f8 C401     		.uleb128 0xc4
 10186 00fa 98190000 		.4byte	.LASF981
 10187 00fe 05       		.byte	0x5
 10188 00ff C501     		.uleb128 0xc5
 10189 0101 54630000 		.4byte	.LASF982
 10190 0105 05       		.byte	0x5
 10191 0106 C601     		.uleb128 0xc6
 10192 0108 4A0A0000 		.4byte	.LASF983
 10193 010c 05       		.byte	0x5
 10194 010d C901     		.uleb128 0xc9
 10195 010f 50430000 		.4byte	.LASF984
 10196 0113 05       		.byte	0x5
 10197 0114 CA01     		.uleb128 0xca
 10198 0116 E93D0000 		.4byte	.LASF985
 10199 011a 05       		.byte	0x5
 10200 011b CB01     		.uleb128 0xcb
 10201 011d 5F250000 		.4byte	.LASF986
 10202 0121 05       		.byte	0x5
 10203 0122 E501     		.uleb128 0xe5
 10204 0124 005C0000 		.4byte	.LASF987
 10205 0128 00       		.byte	0
 10206              		.section	.debug_line,"",%progbits
 10207              	.Ldebug_line0:
 10208 0000 A4060000 		.section	.debug_str,"MS",%progbits,1
 10208      02003103 
 10208      00000201 
 10208      FB0E0D00 
 10208      01010101 
 10209              	.LASF872:
 10210 0000 4932435F 		.ascii	"I2C_I2CONSET_STO ((0x10))\000"
 10210      4932434F 
 10210      4E534554 
 10210      5F53544F 
 10210      20282830 
 10211              	.LASF892:
 10212 001a 4932435F 		.ascii	"I2C_I2STAT_M_TX_SLAW_NACK ((0x20))\000"
 10212      49325354 
 10212      41545F4D 
ARM GAS  /var/folders/f9/8bk2lnw15zn4cbgn6wrnb4lm0000gn/T//cc47W8rL.s 			page 199


 10212      5F54585F 
 10212      534C4157 
 10213              	.LASF154:
 10214 003d 5F5F4445 		.ascii	"__DECIMAL_DIG__ 17\000"
 10214      43494D41 
 10214      4C5F4449 
 10214      475F5F20 
 10214      313700
 10215              	.LASF920:
 10216 0050 4932435F 		.ascii	"I2C_I2MMCTRL_MM_ENA ((1 << 0))\000"
 10216      49324D4D 
 10216      4354524C 
 10216      5F4D4D5F 
 10216      454E4120 
 10217              	.LASF291:
 10218 006f 5F5F5548 		.ascii	"__UHA_FBIT__ 8\000"
 10218      415F4642 
 10218      49545F5F 
 10218      203800
 10219              	.LASF944:
 10220 007e 5F5F4343 		.ascii	"__CCAND_11XX_H_ \000"
 10220      414E445F 
 10220      31315858 
 10220      5F485F20 
 10220      00
 10221              	.LASF1071:
 10222 008f 53595343 		.ascii	"SYSCTL_CLOCK_SYS\000"
 10222      544C5F43 
 10222      4C4F434B 
 10222      5F535953 
 10222      00
 10223              	.LASF109:
 10224 00a0 5F5F494E 		.ascii	"__INT_FAST32_MAX__ 2147483647\000"
 10224      545F4641 
 10224      53543332 
 10224      5F4D4158 
 10224      5F5F2032 
 10225              	.LASF569:
 10226 00be 4C50435F 		.ascii	"LPC_IOCON_BASE 0x40044000\000"
 10226      494F434F 
 10226      4E5F4241 
 10226      53452030 
 10226      78343030 
 10227              	.LASF345:
 10228 00d8 5F535953 		.ascii	"_SYS_FEATURES_H \000"
 10228      5F464541 
 10228      54555245 
 10228      535F4820 
 10228      00
 10229              	.LASF307:
 10230 00e9 5F5F4743 		.ascii	"__GCC_ATOMIC_WCHAR_T_LOCK_FREE 1\000"
 10230      435F4154 
 10230      4F4D4943 
 10230      5F574348 
 10230      41525F54 
 10231              	.LASF1159:
 10232 010a 69734D61 		.ascii	"isMasterState\000"
ARM GAS  /var/folders/f9/8bk2lnw15zn4cbgn6wrnb4lm0000gn/T//cc47W8rL.s 			page 200


 10232      73746572 
 10232      53746174 
 10232      6500
 10233              	.LASF935:
 10234 0118 4932435F 		.ascii	"I2C_BYTE_RECV 0x02\000"
 10234      42595445 
 10234      5F524543 
 10234      56203078 
 10234      303200
 10235              	.LASF808:
 10236 012b 57574454 		.ascii	"WWDT_WDMOD_WDEN ((uint32_t) (1 << 0))\000"
 10236      5F57444D 
 10236      4F445F57 
 10236      44454E20 
 10236      28287569 
 10237              	.LASF1073:
 10238 0151 53595343 		.ascii	"SYSCTL_CLOCK_RAM\000"
 10238      544C5F43 
 10238      4C4F434B 
 10238      5F52414D 
 10238      00
 10239              	.LASF183:
 10240 0162 5F5F5346 		.ascii	"__SFRACT_FBIT__ 7\000"
 10240      52414354 
 10240      5F464249 
 10240      545F5F20 
 10240      3700
 10241              	.LASF1006:
 10242 0174 73697A65 		.ascii	"sizetype\000"
 10242      74797065 
 10242      00
 10243              	.LASF70:
 10244 017d 5F5F4C4F 		.ascii	"__LONG_LONG_MAX__ 9223372036854775807LL\000"
 10244      4E475F4C 
 10244      4F4E475F 
 10244      4D41585F 
 10244      5F203932 
 10245              	.LASF557:
 10246 01a5 4C50435F 		.ascii	"LPC_WWDT_BASE 0x40004000\000"
 10246      57574454 
 10246      5F424153 
 10246      45203078 
 10246      34303030 
 10247              	.LASF1094:
 10248 01be 53434C48 		.ascii	"SCLH\000"
 10248      00
 10249              	.LASF1095:
 10250 01c3 53434C4C 		.ascii	"SCLL\000"
 10250      00
 10251              	.LASF605:
 10252 01c8 53595343 		.ascii	"SYSCTL_RST_POR (1 << 0)\000"
 10252      544C5F52 
 10252      53545F50 
 10252      4F522028 
 10252      31203C3C 
 10253              	.LASF180:
 10254 01e0 5F5F4445 		.ascii	"__DEC128_MAX__ 9.999999999999999999999999999999999E"
ARM GAS  /var/folders/f9/8bk2lnw15zn4cbgn6wrnb4lm0000gn/T//cc47W8rL.s 			page 201


 10254      43313238 
 10254      5F4D4158 
 10254      5F5F2039 
 10254      2E393939 
 10255 0213 36313434 		.ascii	"6144DL\000"
 10255      444C00
 10256              	.LASF896:
 10257 021a 4932435F 		.ascii	"I2C_I2STAT_M_RX_START ((0x08))\000"
 10257      49325354 
 10257      41545F4D 
 10257      5F52585F 
 10257      53544152 
 10258              	.LASF1149:
 10259 0239 67657443 		.ascii	"getCurState\000"
 10259      75725374 
 10259      61746500 
 10260              	.LASF497:
 10261 0245 5343425F 		.ascii	"SCB_ICSR_PENDSTCLR_Msk (1UL << SCB_ICSR_PENDSTCLR_P"
 10261      49435352 
 10261      5F50454E 
 10261      44535443 
 10261      4C525F4D 
 10262 0278 6F732900 		.ascii	"os)\000"
 10263              	.LASF241:
 10264 027c 5F5F5541 		.ascii	"__UACCUM_MAX__ 0XFFFFFFFFP-16UK\000"
 10264      4343554D 
 10264      5F4D4158 
 10264      5F5F2030 
 10264      58464646 
 10265              	.LASF168:
 10266 029c 5F5F4445 		.ascii	"__DEC32_SUBNORMAL_MIN__ 0.000001E-95DF\000"
 10266      4333325F 
 10266      5355424E 
 10266      4F524D41 
 10266      4C5F4D49 
 10267              	.LASF272:
 10268 02c3 5F5F5451 		.ascii	"__TQ_IBIT__ 0\000"
 10268      5F494249 
 10268      545F5F20 
 10268      3000
 10269              	.LASF423:
 10270 02d1 57494E54 		.ascii	"WINT_MIN __WINT_MIN__\000"
 10270      5F4D494E 
 10270      205F5F57 
 10270      494E545F 
 10270      4D494E5F 
 10271              	.LASF741:
 10272 02e7 55415254 		.ascii	"UART_LCR_BREAK_EN (1 << 6)\000"
 10272      5F4C4352 
 10272      5F425245 
 10272      414B5F45 
 10272      4E202831 
 10273              	.LASF515:
 10274 0302 5343425F 		.ascii	"SCB_AIRCR_VECTCLRACTIVE_Msk (1UL << SCB_AIRCR_VECTC"
 10274      41495243 
 10274      525F5645 
 10274      4354434C 
ARM GAS  /var/folders/f9/8bk2lnw15zn4cbgn6wrnb4lm0000gn/T//cc47W8rL.s 			page 202


 10274      52414354 
 10275 0335 4C524143 		.ascii	"LRACTIVE_Pos)\000"
 10275      54495645 
 10275      5F506F73 
 10275      2900
 10276              	.LASF1156:
 10277 0343 73746172 		.ascii	"startMasterXfer\000"
 10277      744D6173 
 10277      74657258 
 10277      66657200 
 10278              	.LASF11:
 10279 0353 5F5F4154 		.ascii	"__ATOMIC_CONSUME 1\000"
 10279      4F4D4943 
 10279      5F434F4E 
 10279      53554D45 
 10279      203100
 10280              	.LASF205:
 10281 0366 5F5F4C46 		.ascii	"__LFRACT_MIN__ (-0.5LR-0.5LR)\000"
 10281      52414354 
 10281      5F4D494E 
 10281      5F5F2028 
 10281      2D302E35 
 10282              	.LASF483:
 10283 0384 5343425F 		.ascii	"SCB_CPUID_ARCHITECTURE_Msk (0xFUL << SCB_CPUID_ARCH"
 10283      43505549 
 10283      445F4152 
 10283      43484954 
 10283      45435455 
 10284 03b7 49544543 		.ascii	"ITECTURE_Pos)\000"
 10284      54555245 
 10284      5F506F73 
 10284      2900
 10285              	.LASF235:
 10286 03c5 5F5F4143 		.ascii	"__ACCUM_MIN__ (-0X1P15K-0X1P15K)\000"
 10286      43554D5F 
 10286      4D494E5F 
 10286      5F20282D 
 10286      30583150 
 10287              	.LASF763:
 10288 03e6 55415254 		.ascii	"UART_MSR_LO2HI_RI (1 << 2)\000"
 10288      5F4D5352 
 10288      5F4C4F32 
 10288      48495F52 
 10288      49202831 
 10289              	.LASF748:
 10290 0401 55415254 		.ascii	"UART_MCR_AUTO_CTS_EN (1 << 7)\000"
 10290      5F4D4352 
 10290      5F415554 
 10290      4F5F4354 
 10290      535F454E 
 10291              	.LASF135:
 10292 041f 5F5F4442 		.ascii	"__DBL_DIG__ 15\000"
 10292      4C5F4449 
 10292      475F5F20 
 10292      313500
 10293              	.LASF961:
 10294 042e 53444F5F 		.ascii	"SDO_ABORT_UNKNOWN_COMMAND 0x05040001UL\000"
ARM GAS  /var/folders/f9/8bk2lnw15zn4cbgn6wrnb4lm0000gn/T//cc47W8rL.s 			page 203


 10294      41424F52 
 10294      545F554E 
 10294      4B4E4F57 
 10294      4E5F434F 
 10295              	.LASF500:
 10296 0455 5343425F 		.ascii	"SCB_ICSR_ISRPENDING_Pos 22\000"
 10296      49435352 
 10296      5F495352 
 10296      50454E44 
 10296      494E475F 
 10297              	.LASF395:
 10298 0470 494E5436 		.ascii	"INT64_MAX __INT64_MAX__\000"
 10298      345F4D41 
 10298      58205F5F 
 10298      494E5436 
 10298      345F4D41 
 10299              	.LASF16:
 10300 0488 5F5F5349 		.ascii	"__SIZEOF_LONG_LONG__ 8\000"
 10300      5A454F46 
 10300      5F4C4F4E 
 10300      475F4C4F 
 10300      4E475F5F 
 10301              	.LASF139:
 10302 049f 5F5F4442 		.ascii	"__DBL_MAX_10_EXP__ 308\000"
 10302      4C5F4D41 
 10302      585F3130 
 10302      5F455850 
 10302      5F5F2033 
 10303              	.LASF775:
 10304 04b6 55415254 		.ascii	"UART_ACR_BITMASK (0x307)\000"
 10304      5F414352 
 10304      5F424954 
 10304      4D41534B 
 10304      20283078 
 10305              	.LASF744:
 10306 04cf 55415254 		.ascii	"UART_MCR_DTR_CTRL (1 << 0)\000"
 10306      5F4D4352 
 10306      5F445452 
 10306      5F435452 
 10306      4C202831 
 10307              	.LASF195:
 10308 04ea 5F5F4652 		.ascii	"__FRACT_MIN__ (-0.5R-0.5R)\000"
 10308      4143545F 
 10308      4D494E5F 
 10308      5F20282D 
 10308      302E3552 
 10309              	.LASF261:
 10310 0505 5F5F554C 		.ascii	"__ULLACCUM_MAX__ 0XFFFFFFFFFFFFFFFFP-32ULLK\000"
 10310      4C414343 
 10310      554D5F4D 
 10310      41585F5F 
 10310      20305846 
 10311              	.LASF531:
 10312 0531 53797354 		.ascii	"SysTick_CTRL_CLKSOURCE_Msk (1UL << SysTick_CTRL_CLK"
 10312      69636B5F 
 10312      4354524C 
 10312      5F434C4B 
ARM GAS  /var/folders/f9/8bk2lnw15zn4cbgn6wrnb4lm0000gn/T//cc47W8rL.s 			page 204


 10312      534F5552 
 10313 0564 534F5552 		.ascii	"SOURCE_Pos)\000"
 10313      43455F50 
 10313      6F732900 
 10314              	.LASF231:
 10315 0570 5F5F5553 		.ascii	"__USACCUM_MAX__ 0XFFFFP-8UHK\000"
 10315      41434355 
 10315      4D5F4D41 
 10315      585F5F20 
 10315      30584646 
 10316              	.LASF165:
 10317 058d 5F5F4445 		.ascii	"__DEC32_MIN__ 1E-95DF\000"
 10317      4333325F 
 10317      4D494E5F 
 10317      5F203145 
 10317      2D393544 
 10318              	.LASF332:
 10319 05a3 5F5F4152 		.ascii	"__ARM_NEON_FP 4\000"
 10319      4D5F4E45 
 10319      4F4E5F46 
 10319      50203400 
 10320              	.LASF562:
 10321 05b3 4C50435F 		.ascii	"LPC_TIMER32_1_BASE 0x40018000\000"
 10321      54494D45 
 10321      5233325F 
 10321      315F4241 
 10321      53452030 
 10322              	.LASF268:
 10323 05d1 5F5F5351 		.ascii	"__SQ_IBIT__ 0\000"
 10323      5F494249 
 10323      545F5F20 
 10323      3000
 10324              	.LASF26:
 10325 05df 5F5F4F52 		.ascii	"__ORDER_PDP_ENDIAN__ 3412\000"
 10325      4445525F 
 10325      5044505F 
 10325      454E4449 
 10325      414E5F5F 
 10326              	.LASF1090:
 10327 05f9 43484950 		.ascii	"CHIP_SYSCTL_CLOCK_T\000"
 10327      5F535953 
 10327      43544C5F 
 10327      434C4F43 
 10327      4B5F5400 
 10328              	.LASF171:
 10329 060d 5F5F4445 		.ascii	"__DEC64_MAX_EXP__ 385\000"
 10329      4336345F 
 10329      4D41585F 
 10329      4558505F 
 10329      5F203338 
 10330              	.LASF1049:
 10331 0623 424F4443 		.ascii	"BODCTRL\000"
 10331      54524C00 
 10332              	.LASF525:
 10333 062b 5343425F 		.ascii	"SCB_CCR_UNALIGN_TRP_Msk (1UL << SCB_CCR_UNALIGN_TRP"
 10333      4343525F 
 10333      554E414C 
ARM GAS  /var/folders/f9/8bk2lnw15zn4cbgn6wrnb4lm0000gn/T//cc47W8rL.s 			page 205


 10333      49474E5F 
 10333      5452505F 
 10334 065e 5F506F73 		.ascii	"_Pos)\000"
 10334      2900
 10335              	.LASF131:
 10336 0664 5F5F464C 		.ascii	"__FLT_HAS_DENORM__ 1\000"
 10336      545F4841 
 10336      535F4445 
 10336      4E4F524D 
 10336      5F5F2031 
 10337              	.LASF39:
 10338 0679 5F5F494E 		.ascii	"__INT8_TYPE__ signed char\000"
 10338      54385F54 
 10338      5950455F 
 10338      5F207369 
 10338      676E6564 
 10339              	.LASF321:
 10340 0693 5F5F4152 		.ascii	"__ARM_ARCH_PROFILE 77\000"
 10340      4D5F4152 
 10340      43485F50 
 10340      524F4649 
 10340      4C452037 
 10341              	.LASF798:
 10342 06a9 55415254 		.ascii	"UART_TER2_TXEN (1 << 0)\000"
 10342      5F544552 
 10342      325F5458 
 10342      454E2028 
 10342      31203C3C 
 10343              	.LASF1079:
 10344 06c1 53595343 		.ascii	"SYSCTL_CLOCK_CT16B1\000"
 10344      544C5F43 
 10344      4C4F434B 
 10344      5F435431 
 10344      36423100 
 10345              	.LASF815:
 10346 06d5 5353505F 		.ascii	"SSP_CR0_FRF_SPI ((uint32_t) (0 << 4))\000"
 10346      4352305F 
 10346      4652465F 
 10346      53504920 
 10346      28287569 
 10347              	.LASF758:
 10348 06fb 55415254 		.ascii	"UART_LSR_TXFE (1 << 8)\000"
 10348      5F4C5352 
 10348      5F545846 
 10348      45202831 
 10348      203C3C20 
 10349              	.LASF150:
 10350 0712 5F5F4C44 		.ascii	"__LDBL_MIN_EXP__ (-1021)\000"
 10350      424C5F4D 
 10350      494E5F45 
 10350      58505F5F 
 10350      20282D31 
 10351              	.LASF148:
 10352 072b 5F5F4C44 		.ascii	"__LDBL_MANT_DIG__ 53\000"
 10352      424C5F4D 
 10352      414E545F 
 10352      4449475F 
ARM GAS  /var/folders/f9/8bk2lnw15zn4cbgn6wrnb4lm0000gn/T//cc47W8rL.s 			page 206


 10352      5F203533 
 10353              	.LASF833:
 10354 0740 5353505F 		.ascii	"SSP_ICR_BITMASK ((uint32_t) (0x03))\000"
 10354      4943525F 
 10354      4249544D 
 10354      41534B20 
 10354      28287569 
 10355              	.LASF606:
 10356 0764 53595343 		.ascii	"SYSCTL_RST_EXTRST (1 << 1)\000"
 10356      544C5F52 
 10356      53545F45 
 10356      58545253 
 10356      54202831 
 10357              	.LASF100:
 10358 077f 5F5F5549 		.ascii	"__UINT8_C(c) c\000"
 10358      4E54385F 
 10358      43286329 
 10358      206300
 10359              	.LASF40:
 10360 078e 5F5F494E 		.ascii	"__INT16_TYPE__ short int\000"
 10360      5431365F 
 10360      54595045 
 10360      5F5F2073 
 10360      686F7274 
 10361              	.LASF647:
 10362 07a7 494F434F 		.ascii	"IOCON_DIGMODE_EN (0x1 << 7)\000"
 10362      4E5F4449 
 10362      474D4F44 
 10362      455F454E 
 10362      20283078 
 10363              	.LASF1139:
 10364 07c3 6D586665 		.ascii	"mXfer\000"
 10364      7200
 10365              	.LASF842:
 10366 07c9 434F4D50 		.ascii	"COMPILE_TIME_ASSERT(pred) switch(0){case 0:case pre"
 10366      494C455F 
 10366      54494D45 
 10366      5F415353 
 10366      45525428 
 10367 07fc 643A3B7D 		.ascii	"d:;}\000"
 10367      00
 10368              	.LASF440:
 10369 0801 50415241 		.ascii	"PARAM_SETSTATE(State) ((State == RESET) || (State ="
 10369      4D5F5345 
 10369      54535441 
 10369      54452853 
 10369      74617465 
 10370 0834 3D205345 		.ascii	"= SET))\000"
 10370      54292900 
 10371              	.LASF246:
 10372 083c 5F5F4C41 		.ascii	"__LACCUM_MAX__ 0X7FFFFFFFFFFFFFFFP-31LK\000"
 10372      4343554D 
 10372      5F4D4158 
 10372      5F5F2030 
 10372      58374646 
 10373              	.LASF561:
 10374 0864 4C50435F 		.ascii	"LPC_TIMER32_0_BASE 0x40014000\000"
ARM GAS  /var/folders/f9/8bk2lnw15zn4cbgn6wrnb4lm0000gn/T//cc47W8rL.s 			page 207


 10374      54494D45 
 10374      5233325F 
 10374      305F4241 
 10374      53452030 
 10375              	.LASF1138:
 10376 0882 73457665 		.ascii	"sEvent\000"
 10376      6E7400
 10377              	.LASF441:
 10378 0889 50415241 		.ascii	"PARAM_FUNCTIONALSTATE(State) ((State == DISABLE) ||"
 10378      4D5F4655 
 10378      4E435449 
 10378      4F4E414C 
 10378      53544154 
 10379 08bc 20285374 		.ascii	" (State == ENABLE))\000"
 10379      61746520 
 10379      3D3D2045 
 10379      4E41424C 
 10379      45292900 
 10380              	.LASF676:
 10381 08d0 54494D45 		.ascii	"TIMER_IR_CLR(n) _BIT(n)\000"
 10381      525F4952 
 10381      5F434C52 
 10381      286E2920 
 10381      5F424954 
 10382              	.LASF819:
 10383 08e8 5353505F 		.ascii	"SSP_CR0_CPOL_HI ((uint32_t) (1 << 6))\000"
 10383      4352305F 
 10383      43504F4C 
 10383      5F484920 
 10383      28287569 
 10384              	.LASF1104:
 10385 090e 4932435F 		.ascii	"I2C_SLAVE_GENERAL\000"
 10385      534C4156 
 10385      455F4745 
 10385      4E455241 
 10385      4C00
 10386              	.LASF633:
 10387 0920 494F434F 		.ascii	"IOCON_FUNC1 0x1\000"
 10387      4E5F4655 
 10387      4E433120 
 10387      30783100 
 10388              	.LASF708:
 10389 0930 55415254 		.ascii	"UART_IIR_ABEO_INT (1 << 8)\000"
 10389      5F494952 
 10389      5F414245 
 10389      4F5F494E 
 10389      54202831 
 10390              	.LASF796:
 10391 094b 55415254 		.ascii	"UART_FDR_BITMASK (0xFF)\000"
 10391      5F464452 
 10391      5F424954 
 10391      4D41534B 
 10391      20283078 
 10392              	.LASF1:
 10393 0963 5F5F5354 		.ascii	"__STDC_HOSTED__ 1\000"
 10393      44435F48 
 10393      4F535445 
ARM GAS  /var/folders/f9/8bk2lnw15zn4cbgn6wrnb4lm0000gn/T//cc47W8rL.s 			page 208


 10393      445F5F20 
 10393      3100
 10394              	.LASF218:
 10395 0975 5F5F554C 		.ascii	"__ULLFRACT_FBIT__ 64\000"
 10395      4C465241 
 10395      43545F46 
 10395      4249545F 
 10395      5F203634 
 10396              	.LASF705:
 10397 098a 55415254 		.ascii	"UART2_IER_BITMASK (0x38F)\000"
 10397      325F4945 
 10397      525F4249 
 10397      544D4153 
 10397      4B202830 
 10398              	.LASF1037:
 10399 09a4 55534243 		.ascii	"USBCLKDIV\000"
 10399      4C4B4449 
 10399      5600
 10400              	.LASF58:
 10401 09ae 5F5F494E 		.ascii	"__INT_FAST64_TYPE__ long long int\000"
 10401      545F4641 
 10401      53543634 
 10401      5F545950 
 10401      455F5F20 
 10402              	.LASF1178:
 10403 09d0 43686970 		.ascii	"Chip_I2C_GetMasterEventHandler\000"
 10403      5F493243 
 10403      5F476574 
 10403      4D617374 
 10403      65724576 
 10404              	.LASF494:
 10405 09ef 5343425F 		.ascii	"SCB_ICSR_PENDSTSET_Pos 26\000"
 10405      49435352 
 10405      5F50454E 
 10405      44535453 
 10405      45545F50 
 10406              	.LASF715:
 10407 0a09 55415254 		.ascii	"UART_IIR_INTID_THRE (1 << 1)\000"
 10407      5F494952 
 10407      5F494E54 
 10407      49445F54 
 10407      48524520 
 10408              	.LASF626:
 10409 0a26 53595343 		.ascii	"SYSCTL_POWERDOWN_SYSOSC_PD (1 << 5)\000"
 10409      544C5F50 
 10409      4F574552 
 10409      444F574E 
 10409      5F535953 
 10410              	.LASF983:
 10411 0a4a 43414E5F 		.ascii	"CAN_SDOREQ_HANDLED_NOSEND 2\000"
 10411      53444F52 
 10411      45515F48 
 10411      414E444C 
 10411      45445F4E 
 10412              	.LASF573:
 10413 0a66 4C50435F 		.ascii	"LPC_SSP1_BASE 0x40058000\000"
 10413      53535031 
ARM GAS  /var/folders/f9/8bk2lnw15zn4cbgn6wrnb4lm0000gn/T//cc47W8rL.s 			page 209


 10413      5F424153 
 10413      45203078 
 10413      34303035 
 10414              	.LASF871:
 10415 0a7f 4932435F 		.ascii	"I2C_I2CONSET_SI ((0x08))\000"
 10415      4932434F 
 10415      4E534554 
 10415      5F534920 
 10415      28283078 
 10416              	.LASF749:
 10417 0a98 55415254 		.ascii	"UART_MCR_BITMASK (0xD3)\000"
 10417      5F4D4352 
 10417      5F424954 
 10417      4D41534B 
 10417      20283078 
 10418              	.LASF90:
 10419 0ab0 5F5F5549 		.ascii	"__UINT64_MAX__ 18446744073709551615ULL\000"
 10419      4E543634 
 10419      5F4D4158 
 10419      5F5F2031 
 10419      38343436 
 10420              	.LASF452:
 10421 0ad7 554E5553 		.ascii	"UNUSED(x) (void)(x)\000"
 10421      45442878 
 10421      29202876 
 10421      6F696429 
 10421      28782900 
 10422              	.LASF191:
 10423 0aeb 5F5F5553 		.ascii	"__USFRACT_MAX__ 0XFFP-8UHR\000"
 10423      46524143 
 10423      545F4D41 
 10423      585F5F20 
 10423      30584646 
 10424              	.LASF530:
 10425 0b06 53797354 		.ascii	"SysTick_CTRL_CLKSOURCE_Pos 2\000"
 10425      69636B5F 
 10425      4354524C 
 10425      5F434C4B 
 10425      534F5552 
 10426              	.LASF653:
 10427 0b23 4D445F50 		.ascii	"MD_PLN (0x0 << 3)\000"
 10427      4C4E2028 
 10427      30783020 
 10427      3C3C2033 
 10427      2900
 10428              	.LASF1193:
 10429 0b35 474E5520 		.ascii	"GNU C 4.8.4 20140725 (release) [ARM/embedded-4_8-br"
 10429      4320342E 
 10429      382E3420 
 10429      32303134 
 10429      30373235 
 10430 0b68 616E6368 		.ascii	"anch revision 213147] -mcpu=cortex-m0 -mthumb -g -g"
 10430      20726576 
 10430      6973696F 
 10430      6E203231 
 10430      33313437 
 10431 0b9b 67646233 		.ascii	"gdb3 -O2 -std=gnu90 -ffunction-sections -fdata-sect"
ARM GAS  /var/folders/f9/8bk2lnw15zn4cbgn6wrnb4lm0000gn/T//cc47W8rL.s 			page 210


 10431      202D4F32 
 10431      202D7374 
 10431      643D676E 
 10431      75393020 
 10432 0bce 696F6E73 		.ascii	"ions\000"
 10432      00
 10433              	.LASF1170:
 10434 0bd3 43686970 		.ascii	"Chip_I2C_EventHandler\000"
 10434      5F493243 
 10434      5F457665 
 10434      6E744861 
 10434      6E646C65 
 10435              	.LASF716:
 10436 0be9 55415254 		.ascii	"UART_IIR_INTID_MODEM (0 << 1)\000"
 10436      5F494952 
 10436      5F494E54 
 10436      49445F4D 
 10436      4F44454D 
 10437              	.LASF1092:
 10438 0c07 53544154 		.ascii	"STAT\000"
 10438      00
 10439              	.LASF508:
 10440 0c0c 5343425F 		.ascii	"SCB_AIRCR_VECTKEYSTAT_Pos 16\000"
 10440      41495243 
 10440      525F5645 
 10440      43544B45 
 10440      59535441 
 10441              	.LASF723:
 10442 0c29 55415254 		.ascii	"UART_FCR_TRG_LEV0 (0)\000"
 10442      5F464352 
 10442      5F545247 
 10442      5F4C4556 
 10442      30202830 
 10443              	.LASF876:
 10444 0c3f 4932435F 		.ascii	"I2C_I2CONCLR_SIC ((1 << 3))\000"
 10444      4932434F 
 10444      4E434C52 
 10444      5F534943 
 10444      20282831 
 10445              	.LASF390:
 10446 0c5b 55494E54 		.ascii	"UINT32_MAX __UINT32_MAX__\000"
 10446      33325F4D 
 10446      4158205F 
 10446      5F55494E 
 10446      5433325F 
 10447              	.LASF1164:
 10448 0c75 73746174 		.ascii	"stat\000"
 10448      00
 10449              	.LASF882:
 10450 0c7a 4932435F 		.ascii	"I2C_CON_STO (1UL << 4)\000"
 10450      434F4E5F 
 10450      53544F20 
 10450      2831554C 
 10450      203C3C20 
 10451              	.LASF878:
 10452 0c91 4932435F 		.ascii	"I2C_I2CONCLR_STAC ((1 << 5))\000"
 10452      4932434F 
ARM GAS  /var/folders/f9/8bk2lnw15zn4cbgn6wrnb4lm0000gn/T//cc47W8rL.s 			page 211


 10452      4E434C52 
 10452      5F535441 
 10452      43202828 
 10453              	.LASF868:
 10454 0cae 5245545F 		.ascii	"RET_SLAVE_BUSY 0\000"
 10454      534C4156 
 10454      455F4255 
 10454      53592030 
 10454      00
 10455              	.LASF208:
 10456 0cbf 5F5F554C 		.ascii	"__ULFRACT_FBIT__ 32\000"
 10456      46524143 
 10456      545F4642 
 10456      49545F5F 
 10456      20333200 
 10457              	.LASF908:
 10458 0cd3 4932435F 		.ascii	"I2C_I2STAT_S_RX_PRE_SLA_DAT_NACK ((0x88))\000"
 10458      49325354 
 10458      41545F53 
 10458      5F52585F 
 10458      5052455F 
 10459              	.LASF901:
 10460 0cfd 4932435F 		.ascii	"I2C_I2STAT_M_RX_DAT_ACK ((0x50))\000"
 10460      49325354 
 10460      41545F4D 
 10460      5F52585F 
 10460      4441545F 
 10461              	.LASF371:
 10462 0d1e 5F5F696E 		.ascii	"__int_fast32_t_defined 1\000"
 10462      745F6661 
 10462      73743332 
 10462      5F745F64 
 10462      6566696E 
 10463              	.LASF962:
 10464 0d37 53444F5F 		.ascii	"SDO_ABORT_UNSUPPORTED 0x06010000UL\000"
 10464      41424F52 
 10464      545F554E 
 10464      53555050 
 10464      4F525445 
 10465              	.LASF398:
 10466 0d5a 494E545F 		.ascii	"INT_LEAST64_MAX __INT_LEAST64_MAX__\000"
 10466      4C454153 
 10466      5436345F 
 10466      4D415820 
 10466      5F5F494E 
 10467              	.LASF759:
 10468 0d7e 55415254 		.ascii	"UART_LSR_BITMASK (0xFF)\000"
 10468      5F4C5352 
 10468      5F424954 
 10468      4D41534B 
 10468      20283078 
 10469              	.LASF426:
 10470 0d96 494E5431 		.ascii	"INT16_C(x) __INT16_C(x)\000"
 10470      365F4328 
 10470      7829205F 
 10470      5F494E54 
 10470      31365F43 
ARM GAS  /var/folders/f9/8bk2lnw15zn4cbgn6wrnb4lm0000gn/T//cc47W8rL.s 			page 212


 10471              	.LASF912:
 10472 0dae 4932435F 		.ascii	"I2C_I2STAT_S_TX_SLAR_ACK ((0xA8))\000"
 10472      49325354 
 10472      41545F53 
 10472      5F54585F 
 10472      534C4152 
 10473              	.LASF187:
 10474 0dd0 5F5F5346 		.ascii	"__SFRACT_EPSILON__ 0x1P-7HR\000"
 10474      52414354 
 10474      5F455053 
 10474      494C4F4E 
 10474      5F5F2030 
 10475              	.LASF1109:
 10476 0dec 4932435F 		.ascii	"I2C_SLAVE_NUM_INTERFACE\000"
 10476      534C4156 
 10476      455F4E55 
 10476      4D5F494E 
 10476      54455246 
 10477              	.LASF277:
 10478 0e04 5F5F5553 		.ascii	"__USQ_FBIT__ 32\000"
 10478      515F4642 
 10478      49545F5F 
 10478      20333200 
 10479              	.LASF25:
 10480 0e14 5F5F4F52 		.ascii	"__ORDER_BIG_ENDIAN__ 4321\000"
 10480      4445525F 
 10480      4249475F 
 10480      454E4449 
 10480      414E5F5F 
 10481              	.LASF1080:
 10482 0e2e 53595343 		.ascii	"SYSCTL_CLOCK_CT32B0\000"
 10482      544C5F43 
 10482      4C4F434B 
 10482      5F435433 
 10482      32423000 
 10483              	.LASF1081:
 10484 0e42 53595343 		.ascii	"SYSCTL_CLOCK_CT32B1\000"
 10484      544C5F43 
 10484      4C4F434B 
 10484      5F435433 
 10484      32423100 
 10485              	.LASF267:
 10486 0e56 5F5F5351 		.ascii	"__SQ_FBIT__ 31\000"
 10486      5F464249 
 10486      545F5F20 
 10486      333100
 10487              	.LASF865:
 10488 0e65 5245545F 		.ascii	"RET_SLAVE_TX 6\000"
 10488      534C4156 
 10488      455F5458 
 10488      203600
 10489              	.LASF297:
 10490 0e74 5F5F5554 		.ascii	"__UTA_FBIT__ 64\000"
 10490      415F4642 
 10490      49545F5F 
 10490      20363400 
 10491              	.LASF134:
ARM GAS  /var/folders/f9/8bk2lnw15zn4cbgn6wrnb4lm0000gn/T//cc47W8rL.s 			page 213


 10492 0e84 5F5F4442 		.ascii	"__DBL_MANT_DIG__ 53\000"
 10492      4C5F4D41 
 10492      4E545F44 
 10492      49475F5F 
 10492      20353300 
 10493              	.LASF722:
 10494 0e98 55415254 		.ascii	"UART_TX_FIFO_SIZE (16)\000"
 10494      5F54585F 
 10494      4649464F 
 10494      5F53495A 
 10494      45202831 
 10495              	.LASF275:
 10496 0eaf 5F5F5548 		.ascii	"__UHQ_FBIT__ 16\000"
 10496      515F4642 
 10496      49545F5F 
 10496      20313600 
 10497              	.LASF777:
 10498 0ebf 55415254 		.ascii	"UART_RS485CTRL_RX_DIS (1 << 1)\000"
 10498      5F525334 
 10498      38354354 
 10498      524C5F52 
 10498      585F4449 
 10499              	.LASF874:
 10500 0ede 4932435F 		.ascii	"I2C_I2CONSET_I2EN ((0x40))\000"
 10500      4932434F 
 10500      4E534554 
 10500      5F493245 
 10500      4E202828 
 10501              	.LASF542:
 10502 0ef9 53797354 		.ascii	"SysTick_CALIB_SKEW_Pos 30\000"
 10502      69636B5F 
 10502      43414C49 
 10502      425F534B 
 10502      45575F50 
 10503              	.LASF787:
 10504 0f13 55415254 		.ascii	"UART_ICR_BITMASK (0x3F)\000"
 10504      5F494352 
 10504      5F424954 
 10504      4D41534B 
 10504      20283078 
 10505              	.LASF66:
 10506 0f2b 5F5F5343 		.ascii	"__SCHAR_MAX__ 127\000"
 10506      4841525F 
 10506      4D41585F 
 10506      5F203132 
 10506      3700
 10507              	.LASF167:
 10508 0f3d 5F5F4445 		.ascii	"__DEC32_EPSILON__ 1E-6DF\000"
 10508      4333325F 
 10508      45505349 
 10508      4C4F4E5F 
 10508      5F203145 
 10509              	.LASF950:
 10510 0f56 43414E5F 		.ascii	"CAN_ERROR_FORM 0x00000010UL\000"
 10510      4552524F 
 10510      525F464F 
 10510      524D2030 
ARM GAS  /var/folders/f9/8bk2lnw15zn4cbgn6wrnb4lm0000gn/T//cc47W8rL.s 			page 214


 10510      78303030 
 10511              	.LASF1086:
 10512 0f72 53595343 		.ascii	"SYSCTL_CLOCK_WDT\000"
 10512      544C5F43 
 10512      4C4F434B 
 10512      5F574454 
 10512      00
 10513              	.LASF523:
 10514 0f83 5343425F 		.ascii	"SCB_CCR_STKALIGN_Msk (1UL << SCB_CCR_STKALIGN_Pos)\000"
 10514      4343525F 
 10514      53544B41 
 10514      4C49474E 
 10514      5F4D736B 
 10515              	.LASF468:
 10516 0fb6 5F5F4153 		.ascii	"__ASM __asm\000"
 10516      4D205F5F 
 10516      61736D00 
 10517              	.LASF996:
 10518 0fc2 5F5F7569 		.ascii	"__uint8_t\000"
 10518      6E74385F 
 10518      7400
 10519              	.LASF797:
 10520 0fcc 55415254 		.ascii	"UART_TER1_TXEN (1 << 7)\000"
 10520      5F544552 
 10520      315F5458 
 10520      454E2028 
 10520      31203C3C 
 10521              	.LASF616:
 10522 0fe4 53595343 		.ascii	"SYSCTL_SLPWAKE_BOD_PD (1 << 3)\000"
 10522      544C5F53 
 10522      4C505741 
 10522      4B455F42 
 10522      4F445F50 
 10523              	.LASF84:
 10524 1003 5F5F494E 		.ascii	"__INT16_MAX__ 32767\000"
 10524      5431365F 
 10524      4D41585F 
 10524      5F203332 
 10524      37363700 
 10525              	.LASF1070:
 10526 1017 4C50435F 		.ascii	"LPC_SYSCTL_T\000"
 10526      53595343 
 10526      544C5F54 
 10526      00
 10527              	.LASF679:
 10528 1024 54494D45 		.ascii	"TIMER_ENABLE ((uint32_t) (1 << 0))\000"
 10528      525F454E 
 10528      41424C45 
 10528      20282875 
 10528      696E7433 
 10529              	.LASF330:
 10530 1047 5F5F5646 		.ascii	"__VFP_FP__ 1\000"
 10530      505F4650 
 10530      5F5F2031 
 10530      00
 10531              	.LASF907:
 10532 1054 4932435F 		.ascii	"I2C_I2STAT_S_RX_PRE_SLA_DAT_ACK ((0x80))\000"
ARM GAS  /var/folders/f9/8bk2lnw15zn4cbgn6wrnb4lm0000gn/T//cc47W8rL.s 			page 215


 10532      49325354 
 10532      41545F53 
 10532      5F52585F 
 10532      5052455F 
 10533              	.LASF625:
 10534 107d 53595343 		.ascii	"SYSCTL_POWERDOWN_ADC_PD (1 << 4)\000"
 10534      544C5F50 
 10534      4F574552 
 10534      444F574E 
 10534      5F414443 
 10535              	.LASF648:
 10536 109e 494F434F 		.ascii	"IOCON_SFI2C_EN (0x0 << 8)\000"
 10536      4E5F5346 
 10536      4932435F 
 10536      454E2028 
 10536      30783020 
 10537              	.LASF77:
 10538 10b8 5F5F494E 		.ascii	"__INTMAX_MAX__ 9223372036854775807LL\000"
 10538      544D4158 
 10538      5F4D4158 
 10538      5F5F2039 
 10538      32323333 
 10539              	.LASF806:
 10540 10dd 5F5F5757 		.ascii	"__WWDT_11XX_H_ \000"
 10540      44545F31 
 10540      3158585F 
 10540      485F2000 
 10541              	.LASF902:
 10542 10ed 4932435F 		.ascii	"I2C_I2STAT_M_RX_DAT_NACK ((0x58))\000"
 10542      49325354 
 10542      41545F4D 
 10542      5F52585F 
 10542      4441545F 
 10543              	.LASF1105:
 10544 110f 4932435F 		.ascii	"I2C_SLAVE_0\000"
 10544      534C4156 
 10544      455F3000 
 10545              	.LASF1106:
 10546 111b 4932435F 		.ascii	"I2C_SLAVE_1\000"
 10546      534C4156 
 10546      455F3100 
 10547              	.LASF1107:
 10548 1127 4932435F 		.ascii	"I2C_SLAVE_2\000"
 10548      534C4156 
 10548      455F3200 
 10549              	.LASF1108:
 10550 1133 4932435F 		.ascii	"I2C_SLAVE_3\000"
 10550      534C4156 
 10550      455F3300 
 10551              	.LASF724:
 10552 113f 55415254 		.ascii	"UART_FCR_TRG_LEV1 (1 << 6)\000"
 10552      5F464352 
 10552      5F545247 
 10552      5F4C4556 
 10552      31202831 
 10553              	.LASF747:
 10554 115a 55415254 		.ascii	"UART_MCR_AUTO_RTS_EN (1 << 6)\000"
ARM GAS  /var/folders/f9/8bk2lnw15zn4cbgn6wrnb4lm0000gn/T//cc47W8rL.s 			page 216


 10554      5F4D4352 
 10554      5F415554 
 10554      4F5F5254 
 10554      535F454E 
 10555              	.LASF1054:
 10556 1178 50494E54 		.ascii	"PINTSEL\000"
 10556      53454C00 
 10557              	.LASF166:
 10558 1180 5F5F4445 		.ascii	"__DEC32_MAX__ 9.999999E96DF\000"
 10558      4333325F 
 10558      4D41585F 
 10558      5F20392E 
 10558      39393939 
 10559              	.LASF161:
 10560 119c 5F5F4C44 		.ascii	"__LDBL_HAS_QUIET_NAN__ 1\000"
 10560      424C5F48 
 10560      41535F51 
 10560      55494554 
 10560      5F4E414E 
 10561              	.LASF823:
 10562 11b5 5353505F 		.ascii	"SSP_CR0_BITMASK ((uint32_t) (0xFFFF))\000"
 10562      4352305F 
 10562      4249544D 
 10562      41534B20 
 10562      28287569 
 10563              	.LASF826:
 10564 11db 5353505F 		.ascii	"SSP_CR1_SLAVE_EN ((uint32_t) (1 << 2))\000"
 10564      4352315F 
 10564      534C4156 
 10564      455F454E 
 10564      20282875 
 10565              	.LASF420:
 10566 1202 57434841 		.ascii	"WCHAR_MAX __WCHAR_MAX__\000"
 10566      525F4D41 
 10566      58205F5F 
 10566      57434841 
 10566      525F4D41 
 10567              	.LASF639:
 10568 121a 494F434F 		.ascii	"IOCON_FUNC7 0x7\000"
 10568      4E5F4655 
 10568      4E433720 
 10568      30783700 
 10569              	.LASF405:
 10570 122a 55494E54 		.ascii	"UINT_FAST16_MAX __UINT_FAST16_MAX__\000"
 10570      5F464153 
 10570      5431365F 
 10570      4D415820 
 10570      5F5F5549 
 10571              	.LASF320:
 10572 124e 5F5F4152 		.ascii	"__ARM_SIZEOF_WCHAR_T 32\000"
 10572      4D5F5349 
 10572      5A454F46 
 10572      5F574348 
 10572      41525F54 
 10573              	.LASF532:
 10574 1266 53797354 		.ascii	"SysTick_CTRL_TICKINT_Pos 1\000"
 10574      69636B5F 
ARM GAS  /var/folders/f9/8bk2lnw15zn4cbgn6wrnb4lm0000gn/T//cc47W8rL.s 			page 217


 10574      4354524C 
 10574      5F544943 
 10574      4B494E54 
 10575              	.LASF463:
 10576 1281 5F5F434F 		.ascii	"__CORE_CM0_H_GENERIC \000"
 10576      52455F43 
 10576      4D305F48 
 10576      5F47454E 
 10576      45524943 
 10577              	.LASF51:
 10578 1297 5F5F5549 		.ascii	"__UINT_LEAST8_TYPE__ unsigned char\000"
 10578      4E545F4C 
 10578      45415354 
 10578      385F5459 
 10578      50455F5F 
 10579              	.LASF910:
 10580 12ba 4932435F 		.ascii	"I2C_I2STAT_S_RX_PRE_GENCALL_DAT_NACK ((0x98))\000"
 10580      49325354 
 10580      41545F53 
 10580      5F52585F 
 10580      5052455F 
 10581              	.LASF233:
 10582 12e8 5F5F4143 		.ascii	"__ACCUM_FBIT__ 15\000"
 10582      43554D5F 
 10582      46424954 
 10582      5F5F2031 
 10582      3500
 10583              	.LASF346:
 10584 12fa 5F5F474E 		.ascii	"__GNUC_PREREQ(maj,min) ((__GNUC__ << 16) + __GNUC_M"
 10584      55435F50 
 10584      52455245 
 10584      51286D61 
 10584      6A2C6D69 
 10585 132d 494E4F52 		.ascii	"INOR__ >= ((maj) << 16) + (min))\000"
 10585      5F5F203E 
 10585      3D202828 
 10585      6D616A29 
 10585      203C3C20 
 10586              	.LASF594:
 10587 134e 4C50435F 		.ascii	"LPC_CCAN ((LPC_CCAN_T *) LPC_CAN0_BASE)\000"
 10587      4343414E 
 10587      2028284C 
 10587      50435F43 
 10587      43414E5F 
 10588              	.LASF239:
 10589 1376 5F5F5541 		.ascii	"__UACCUM_IBIT__ 16\000"
 10589      4343554D 
 10589      5F494249 
 10589      545F5F20 
 10589      313600
 10590              	.LASF995:
 10591 1389 6C6F6E67 		.ascii	"long int\000"
 10591      20696E74 
 10591      00
 10592              	.LASF114:
 10593 1392 5F5F5549 		.ascii	"__UINT_FAST64_MAX__ 18446744073709551615ULL\000"
 10593      4E545F46 
ARM GAS  /var/folders/f9/8bk2lnw15zn4cbgn6wrnb4lm0000gn/T//cc47W8rL.s 			page 218


 10593      41535436 
 10593      345F4D41 
 10593      585F5F20 
 10594              	.LASF909:
 10595 13be 4932435F 		.ascii	"I2C_I2STAT_S_RX_PRE_GENCALL_DAT_ACK ((0x90))\000"
 10595      49325354 
 10595      41545F53 
 10595      5F52585F 
 10595      5052455F 
 10596              	.LASF365:
 10597 13eb 5F5F696E 		.ascii	"__int32_t_defined 1\000"
 10597      7433325F 
 10597      745F6465 
 10597      66696E65 
 10597      64203100 
 10598              	.LASF968:
 10599 13ff 53444F5F 		.ascii	"SDO_ABORT_TYPEMISMATCH 0x06070010UL\000"
 10599      41424F52 
 10599      545F5459 
 10599      50454D49 
 10599      534D4154 
 10600              	.LASF142:
 10601 1423 5F5F4442 		.ascii	"__DBL_MIN__ ((double)2.2250738585072014e-308L)\000"
 10601      4C5F4D49 
 10601      4E5F5F20 
 10601      2828646F 
 10601      75626C65 
 10602              	.LASF978:
 10603 1452 4F445F53 		.ascii	"OD_SEG_RO 0x40\000"
 10603      45475F52 
 10603      4F203078 
 10603      343000
 10604              	.LASF1047:
 10605 1461 50494F50 		.ascii	"PIOPORCAP\000"
 10605      4F524341 
 10605      5000
 10606              	.LASF354:
 10607 146b 5F5F5F69 		.ascii	"___int_least16_t_defined 1\000"
 10607      6E745F6C 
 10607      65617374 
 10607      31365F74 
 10607      5F646566 
 10608              	.LASF71:
 10609 1486 5F5F5743 		.ascii	"__WCHAR_MAX__ 4294967295U\000"
 10609      4841525F 
 10609      4D41585F 
 10609      5F203432 
 10609      39343936 
 10610              	.LASF177:
 10611 14a0 5F5F4445 		.ascii	"__DEC128_MIN_EXP__ (-6142)\000"
 10611      43313238 
 10611      5F4D494E 
 10611      5F455850 
 10611      5F5F2028 
 10612              	.LASF652:
 10613 14bb 494F434F 		.ascii	"IOCON_OPENDRAIN_EN (0x1 << 10)\000"
 10613      4E5F4F50 
ARM GAS  /var/folders/f9/8bk2lnw15zn4cbgn6wrnb4lm0000gn/T//cc47W8rL.s 			page 219


 10613      454E4452 
 10613      41494E5F 
 10613      454E2028 
 10614              	.LASF55:
 10615 14da 5F5F494E 		.ascii	"__INT_FAST8_TYPE__ int\000"
 10615      545F4641 
 10615      5354385F 
 10615      54595045 
 10615      5F5F2069 
 10616              	.LASF1020:
 10617 14f1 53595350 		.ascii	"SYSPLLCLKSEL\000"
 10617      4C4C434C 
 10617      4B53454C 
 10617      00
 10618              	.LASF295:
 10619 14fe 5F5F5544 		.ascii	"__UDA_FBIT__ 32\000"
 10619      415F4642 
 10619      49545F5F 
 10619      20333200 
 10620              	.LASF1040:
 10621 150e 57445443 		.ascii	"WDTCLKUEN\000"
 10621      4C4B5545 
 10621      4E00
 10622              	.LASF900:
 10623 1518 4932435F 		.ascii	"I2C_I2STAT_M_RX_SLAR_NACK ((0x48))\000"
 10623      49325354 
 10623      41545F4D 
 10623      5F52585F 
 10623      534C4152 
 10624              	.LASF1132:
 10625 153b 4932435F 		.ascii	"I2C_EVENT_UNLOCK\000"
 10625      4556454E 
 10625      545F554E 
 10625      4C4F434B 
 10625      00
 10626              	.LASF689:
 10627 154c 52425F56 		.ascii	"RB_VHEAD(rb) (*(volatile uint32_t *) &(rb)->head)\000"
 10627      48454144 
 10627      28726229 
 10627      20282A28 
 10627      766F6C61 
 10628              	.LASF80:
 10629 157e 5F5F5549 		.ascii	"__UINTMAX_C(c) c ## ULL\000"
 10629      4E544D41 
 10629      585F4328 
 10629      63292063 
 10629      20232320 
 10630              	.LASF29:
 10631 1596 5F5F5349 		.ascii	"__SIZEOF_POINTER__ 4\000"
 10631      5A454F46 
 10631      5F504F49 
 10631      4E544552 
 10631      5F5F2034 
 10632              	.LASF47:
 10633 15ab 5F5F494E 		.ascii	"__INT_LEAST8_TYPE__ signed char\000"
 10633      545F4C45 
 10633      41535438 
ARM GAS  /var/folders/f9/8bk2lnw15zn4cbgn6wrnb4lm0000gn/T//cc47W8rL.s 			page 220


 10633      5F545950 
 10633      455F5F20 
 10634              	.LASF303:
 10635 15cb 5F5F4743 		.ascii	"__GCC_ATOMIC_BOOL_LOCK_FREE 1\000"
 10635      435F4154 
 10635      4F4D4943 
 10635      5F424F4F 
 10635      4C5F4C4F 
 10636              	.LASF565:
 10637 15e9 4C50435F 		.ascii	"LPC_ACMP_BASE 0x40028000\000"
 10637      41434D50 
 10637      5F424153 
 10637      45203078 
 10637      34303032 
 10638              	.LASF506:
 10639 1602 5343425F 		.ascii	"SCB_AIRCR_VECTKEY_Pos 16\000"
 10639      41495243 
 10639      525F5645 
 10639      43544B45 
 10639      595F506F 
 10640              	.LASF108:
 10641 161b 5F5F494E 		.ascii	"__INT_FAST16_MAX__ 2147483647\000"
 10641      545F4641 
 10641      53543136 
 10641      5F4D4158 
 10641      5F5F2032 
 10642              	.LASF381:
 10643 1639 55494E54 		.ascii	"UINT_LEAST8_MAX __UINT_LEAST8_MAX__\000"
 10643      5F4C4541 
 10643      5354385F 
 10643      4D415820 
 10643      5F5F5549 
 10644              	.LASF333:
 10645 165d 5F5F5448 		.ascii	"__THUMB_INTERWORK__ 1\000"
 10645      554D425F 
 10645      494E5445 
 10645      52574F52 
 10645      4B5F5F20 
 10646              	.LASF221:
 10647 1673 5F5F554C 		.ascii	"__ULLFRACT_MAX__ 0XFFFFFFFFFFFFFFFFP-64ULLR\000"
 10647      4C465241 
 10647      43545F4D 
 10647      41585F5F 
 10647      20305846 
 10648              	.LASF940:
 10649 169f 4932435F 		.ascii	"I2C_NAK_RECV (0x10000000 | 0x01)\000"
 10649      4E414B5F 
 10649      52454356 
 10649      20283078 
 10649      31303030 
 10650              	.LASF661:
 10651 16c0 4D445F44 		.ascii	"MD_DISFIL (0x0 << 8)\000"
 10651      49534649 
 10651      4C202830 
 10651      7830203C 
 10651      3C203829 
 10652              	.LASF83:
ARM GAS  /var/folders/f9/8bk2lnw15zn4cbgn6wrnb4lm0000gn/T//cc47W8rL.s 			page 221


 10653 16d5 5F5F494E 		.ascii	"__INT8_MAX__ 127\000"
 10653      54385F4D 
 10653      41585F5F 
 10653      20313237 
 10653      00
 10654              	.LASF585:
 10655 16e6 4C50435F 		.ascii	"LPC_TIMER32_0 ((LPC_TIMER_T *) LPC_TIMER32_0_BASE)\000"
 10655      54494D45 
 10655      5233325F 
 10655      30202828 
 10655      4C50435F 
 10656              	.LASF402:
 10657 1719 55494E54 		.ascii	"UINT_FAST8_MAX __UINT_FAST8_MAX__\000"
 10657      5F464153 
 10657      54385F4D 
 10657      4158205F 
 10657      5F55494E 
 10658              	.LASF857:
 10659 173b 4144435F 		.ascii	"ADC_CR_START_CTOUT8 ((3UL << 24))\000"
 10659      43525F53 
 10659      54415254 
 10659      5F43544F 
 10659      55543820 
 10660              	.LASF378:
 10661 175d 55494E54 		.ascii	"UINT8_MAX __UINT8_MAX__\000"
 10661      385F4D41 
 10661      58205F5F 
 10661      55494E54 
 10661      385F4D41 
 10662              	.LASF37:
 10663 1775 5F5F4348 		.ascii	"__CHAR32_TYPE__ long unsigned int\000"
 10663      41523332 
 10663      5F545950 
 10663      455F5F20 
 10663      6C6F6E67 
 10664              	.LASF397:
 10665 1797 494E545F 		.ascii	"INT_LEAST64_MIN (-__INT_LEAST64_MAX__ - 1)\000"
 10665      4C454153 
 10665      5436345F 
 10665      4D494E20 
 10665      282D5F5F 
 10666              	.LASF610:
 10667 17c2 53595343 		.ascii	"SYSCTL_NMISRC_ENABLE ((uint32_t) 1 << 31)\000"
 10667      544C5F4E 
 10667      4D495352 
 10667      435F454E 
 10667      41424C45 
 10668              	.LASF658:
 10669 17ec 4D445F49 		.ascii	"MD_INV (0x1 << 6)\000"
 10669      4E562028 
 10669      30783120 
 10669      3C3C2036 
 10669      2900
 10670              	.LASF124:
 10671 17fe 5F5F464C 		.ascii	"__FLT_MAX_EXP__ 128\000"
 10671      545F4D41 
 10671      585F4558 
ARM GAS  /var/folders/f9/8bk2lnw15zn4cbgn6wrnb4lm0000gn/T//cc47W8rL.s 			page 222


 10671      505F5F20 
 10671      31323800 
 10672              	.LASF15:
 10673 1812 5F5F5349 		.ascii	"__SIZEOF_LONG__ 4\000"
 10673      5A454F46 
 10673      5F4C4F4E 
 10673      475F5F20 
 10673      3400
 10674              	.LASF349:
 10675 1824 5F5F5F69 		.ascii	"___int8_t_defined 1\000"
 10675      6E74385F 
 10675      745F6465 
 10675      66696E65 
 10675      64203100 
 10676              	.LASF779:
 10677 1838 55415254 		.ascii	"UART_RS485CTRL_SEL_DTR (1 << 3)\000"
 10677      5F525334 
 10677      38354354 
 10677      524C5F53 
 10677      454C5F44 
 10678              	.LASF19:
 10679 1858 5F5F5349 		.ascii	"__SIZEOF_DOUBLE__ 8\000"
 10679      5A454F46 
 10679      5F444F55 
 10679      424C455F 
 10679      5F203800 
 10680              	.LASF746:
 10681 186c 55415254 		.ascii	"UART_MCR_LOOPB_EN (1 << 4)\000"
 10681      5F4D4352 
 10681      5F4C4F4F 
 10681      50425F45 
 10681      4E202831 
 10682              	.LASF914:
 10683 1887 4932435F 		.ascii	"I2C_I2STAT_S_TX_DAT_ACK ((0xB8))\000"
 10683      49325354 
 10683      41545F53 
 10683      5F54585F 
 10683      4441545F 
 10684              	.LASF1195:
 10685 18a8 2F557365 		.ascii	"/Users/eaponce/Documents/evt/opel_EE/lpc11cx4-libra"
 10685      72732F65 
 10685      61706F6E 
 10685      63652F44 
 10685      6F63756D 
 10686 18db 72792F65 		.ascii	"ry/examples/can\000"
 10686      78616D70 
 10686      6C65732F 
 10686      63616E00 
 10687              	.LASF659:
 10688 18eb 4D445F41 		.ascii	"MD_ADMODE (0x0 << 7)\000"
 10688      444D4F44 
 10688      45202830 
 10688      7830203C 
 10688      3C203729 
 10689              	.LASF755:
 10690 1900 55415254 		.ascii	"UART_LSR_THRE (1 << 5)\000"
 10690      5F4C5352 
ARM GAS  /var/folders/f9/8bk2lnw15zn4cbgn6wrnb4lm0000gn/T//cc47W8rL.s 			page 223


 10690      5F544852 
 10690      45202831 
 10690      203C3C20 
 10691              	.LASF1186:
 10692 1917 43686970 		.ascii	"Chip_I2C_EventHandlerPolling\000"
 10692      5F493243 
 10692      5F457665 
 10692      6E744861 
 10692      6E646C65 
 10693              	.LASF949:
 10694 1934 43414E5F 		.ascii	"CAN_ERROR_STUF 0x00000008UL\000"
 10694      4552524F 
 10694      525F5354 
 10694      55462030 
 10694      78303030 
 10695              	.LASF717:
 10696 1950 55415254 		.ascii	"UART_FCR_FIFO_EN (1 << 0)\000"
 10696      5F464352 
 10696      5F464946 
 10696      4F5F454E 
 10696      20283120 
 10697              	.LASF634:
 10698 196a 494F434F 		.ascii	"IOCON_FUNC2 0x2\000"
 10698      4E5F4655 
 10698      4E433220 
 10698      30783200 
 10699              	.LASF888:
 10700 197a 4932435F 		.ascii	"I2C_I2STAT_BUS_ERROR ((0x00))\000"
 10700      49325354 
 10700      41545F42 
 10700      55535F45 
 10700      52524F52 
 10701              	.LASF981:
 10702 1998 43414E5F 		.ascii	"CAN_SDOREQ_NOTHANDLED 0\000"
 10702      53444F52 
 10702      45515F4E 
 10702      4F544841 
 10702      4E444C45 
 10703              	.LASF701:
 10704 19b0 55415254 		.ascii	"UART_IER_ABEOINT (1 << 8)\000"
 10704      5F494552 
 10704      5F414245 
 10704      4F494E54 
 10704      20283120 
 10705              	.LASF173:
 10706 19ca 5F5F4445 		.ascii	"__DEC64_MAX__ 9.999999999999999E384DD\000"
 10706      4336345F 
 10706      4D41585F 
 10706      5F20392E 
 10706      39393939 
 10707              	.LASF1067:
 10708 19f0 50445255 		.ascii	"PDRUNCFG\000"
 10708      4E434647 
 10708      00
 10709              	.LASF519:
 10710 19f9 5343425F 		.ascii	"SCB_SCR_SLEEPDEEP_Msk (1UL << SCB_SCR_SLEEPDEEP_Pos"
 10710      5343525F 
ARM GAS  /var/folders/f9/8bk2lnw15zn4cbgn6wrnb4lm0000gn/T//cc47W8rL.s 			page 224


 10710      534C4545 
 10710      50444545 
 10710      505F4D73 
 10711 1a2c 2900     		.ascii	")\000"
 10712              	.LASF890:
 10713 1a2e 4932435F 		.ascii	"I2C_I2STAT_M_TX_RESTART ((0x10))\000"
 10713      49325354 
 10713      41545F4D 
 10713      5F54585F 
 10713      52455354 
 10714              	.LASF836:
 10715 1a4f 5353505F 		.ascii	"SSP_CPOL_HI SSP_CR0_CPOL_LO\000"
 10715      43504F4C 
 10715      5F484920 
 10715      5353505F 
 10715      4352305F 
 10716              	.LASF123:
 10717 1a6b 5F5F464C 		.ascii	"__FLT_MIN_10_EXP__ (-37)\000"
 10717      545F4D49 
 10717      4E5F3130 
 10717      5F455850 
 10717      5F5F2028 
 10718              	.LASF704:
 10719 1a84 55415254 		.ascii	"UART1_IER_BITMASK (0x30F)\000"
 10719      315F4945 
 10719      525F4249 
 10719      544D4153 
 10719      4B202830 
 10720              	.LASF854:
 10721 1a9e 4144435F 		.ascii	"ADC_CR_START_MODE_SEL(SEL) ((SEL << 24))\000"
 10721      43525F53 
 10721      54415254 
 10721      5F4D4F44 
 10721      455F5345 
 10722              	.LASF126:
 10723 1ac7 5F5F464C 		.ascii	"__FLT_DECIMAL_DIG__ 9\000"
 10723      545F4445 
 10723      43494D41 
 10723      4C5F4449 
 10723      475F5F20 
 10724              	.LASF955:
 10725 1add 43414E5F 		.ascii	"CAN_MSGOBJ_STD 0x00000000UL\000"
 10725      4D53474F 
 10725      424A5F53 
 10725      54442030 
 10725      78303030 
 10726              	.LASF485:
 10727 1af9 5343425F 		.ascii	"SCB_CPUID_PARTNO_Msk (0xFFFUL << SCB_CPUID_PARTNO_P"
 10727      43505549 
 10727      445F5041 
 10727      52544E4F 
 10727      5F4D736B 
 10728 1b2c 6F732900 		.ascii	"os)\000"
 10729              	.LASF711:
 10730 1b30 55415254 		.ascii	"UART_IIR_INTID_MASK (7 << 1)\000"
 10730      5F494952 
 10730      5F494E54 
ARM GAS  /var/folders/f9/8bk2lnw15zn4cbgn6wrnb4lm0000gn/T//cc47W8rL.s 			page 225


 10730      49445F4D 
 10730      41534B20 
 10731              	.LASF991:
 10732 1b4d 7369676E 		.ascii	"signed char\000"
 10732      65642063 
 10732      68617200 
 10733              	.LASF822:
 10734 1b59 5353505F 		.ascii	"SSP_CR0_SCR(n) ((uint32_t) ((n & 0xFF) << 8))\000"
 10734      4352305F 
 10734      53435228 
 10734      6E292028 
 10734      2875696E 
 10735              	.LASF843:
 10736 1b87 5F5F4144 		.ascii	"__ADC_11XX_H_ \000"
 10736      435F3131 
 10736      58585F48 
 10736      5F2000
 10737              	.LASF1002:
 10738 1b96 75696E74 		.ascii	"uint8_t\000"
 10738      385F7400 
 10739              	.LASF534:
 10740 1b9e 53797354 		.ascii	"SysTick_CTRL_ENABLE_Pos 0\000"
 10740      69636B5F 
 10740      4354524C 
 10740      5F454E41 
 10740      424C455F 
 10741              	.LASF1022:
 10742 1bb8 55534250 		.ascii	"USBPLLCLKSEL\000"
 10742      4C4C434C 
 10742      4B53454C 
 10742      00
 10743              	.LASF457:
 10744 1bc5 43484950 		.ascii	"CHIP_LPC11CXX \000"
 10744      5F4C5043 
 10744      31314358 
 10744      582000
 10745              	.LASF825:
 10746 1bd4 5353505F 		.ascii	"SSP_CR1_SSP_EN ((uint32_t) (1 << 1))\000"
 10746      4352315F 
 10746      5353505F 
 10746      454E2028 
 10746      2875696E 
 10747              	.LASF1172:
 10748 1bf9 43686970 		.ascii	"Chip_I2C_DeInit\000"
 10748      5F493243 
 10748      5F446549 
 10748      6E697400 
 10749              	.LASF895:
 10750 1c09 4932435F 		.ascii	"I2C_I2STAT_M_TX_ARB_LOST ((0x38))\000"
 10750      49325354 
 10750      41545F4D 
 10750      5F54585F 
 10750      4152425F 
 10751              	.LASF867:
 10752 1c2b 5245545F 		.ascii	"RET_SLAVE_IDLE 2\000"
 10752      534C4156 
 10752      455F4944 
ARM GAS  /var/folders/f9/8bk2lnw15zn4cbgn6wrnb4lm0000gn/T//cc47W8rL.s 			page 226


 10752      4C452032 
 10752      00
 10753              	.LASF193:
 10754 1c3c 5F5F4652 		.ascii	"__FRACT_FBIT__ 15\000"
 10754      4143545F 
 10754      46424954 
 10754      5F5F2031 
 10754      3500
 10755              	.LASF1044:
 10756 1c4e 434C4B4F 		.ascii	"CLKOUTUEN\000"
 10756      55545545 
 10756      4E00
 10757              	.LASF133:
 10758 1c58 5F5F464C 		.ascii	"__FLT_HAS_QUIET_NAN__ 1\000"
 10758      545F4841 
 10758      535F5155 
 10758      4945545F 
 10758      4E414E5F 
 10759              	.LASF445:
 10760 1c70 5F534246 		.ascii	"_SBF(f,v) ((v) << (f))\000"
 10760      28662C76 
 10760      29202828 
 10760      7629203C 
 10760      3C202866 
 10761              	.LASF306:
 10762 1c87 5F5F4743 		.ascii	"__GCC_ATOMIC_CHAR32_T_LOCK_FREE 1\000"
 10762      435F4154 
 10762      4F4D4943 
 10762      5F434841 
 10762      5233325F 
 10763              	.LASF511:
 10764 1ca9 5343425F 		.ascii	"SCB_AIRCR_ENDIANESS_Msk (1UL << SCB_AIRCR_ENDIANESS"
 10764      41495243 
 10764      525F454E 
 10764      4449414E 
 10764      4553535F 
 10765 1cdc 5F506F73 		.ascii	"_Pos)\000"
 10765      2900
 10766              	.LASF4:
 10767 1ce2 5F5F474E 		.ascii	"__GNUC_PATCHLEVEL__ 4\000"
 10767      55435F50 
 10767      41544348 
 10767      4C455645 
 10767      4C5F5F20 
 10768              	.LASF623:
 10769 1cf8 53595343 		.ascii	"SYSCTL_POWERDOWN_FLASH_PD (1 << 2)\000"
 10769      544C5F50 
 10769      4F574552 
 10769      444F574E 
 10769      5F464C41 
 10770              	.LASF752:
 10771 1d1b 55415254 		.ascii	"UART_LSR_PE (1 << 2)\000"
 10771      5F4C5352 
 10771      5F504520 
 10771      2831203C 
 10771      3C203229 
 10772              	.LASF375:
ARM GAS  /var/folders/f9/8bk2lnw15zn4cbgn6wrnb4lm0000gn/T//cc47W8rL.s 			page 227


 10773 1d30 55494E54 		.ascii	"UINTPTR_MAX __UINTPTR_MAX__\000"
 10773      5054525F 
 10773      4D415820 
 10773      5F5F5549 
 10773      4E545054 
 10774              	.LASF837:
 10775 1d4c 5353505F 		.ascii	"SSP_CPOL_LO SSP_CR0_CPOL_HI\000"
 10775      43504F4C 
 10775      5F4C4F20 
 10775      5353505F 
 10775      4352305F 
 10776              	.LASF1150:
 10777 1d68 6973536C 		.ascii	"isSlaveAddrMatching\000"
 10777      61766541 
 10777      6464724D 
 10777      61746368 
 10777      696E6700 
 10778              	.LASF343:
 10779 1d7c 5F535444 		.ascii	"_STDINT_H \000"
 10779      494E545F 
 10779      482000
 10780              	.LASF589:
 10781 1d87 4C50435F 		.ascii	"LPC_FMC ((LPC_FMC_T *) LPC_FLASH_BASE)\000"
 10781      464D4320 
 10781      28284C50 
 10781      435F464D 
 10781      435F5420 
 10782              	.LASF505:
 10783 1dae 5343425F 		.ascii	"SCB_ICSR_VECTACTIVE_Msk (0x1FFUL << SCB_ICSR_VECTAC"
 10783      49435352 
 10783      5F564543 
 10783      54414354 
 10783      4956455F 
 10784 1de1 54495645 		.ascii	"TIVE_Pos)\000"
 10784      5F506F73 
 10784      2900
 10785              	.LASF742:
 10786 1deb 55415254 		.ascii	"UART_LCR_DLAB_EN (1 << 7)\000"
 10786      5F4C4352 
 10786      5F444C41 
 10786      425F454E 
 10786      20283120 
 10787              	.LASF472:
 10788 1e05 5F5F434F 		.ascii	"__CORE_CMINSTR_H \000"
 10788      52455F43 
 10788      4D494E53 
 10788      54525F48 
 10788      2000
 10789              	.LASF403:
 10790 1e17 494E545F 		.ascii	"INT_FAST16_MIN (-__INT_FAST16_MAX__ - 1)\000"
 10790      46415354 
 10790      31365F4D 
 10790      494E2028 
 10790      2D5F5F49 
 10791              	.LASF769:
 10792 1e40 55415254 		.ascii	"UART_MSR_BITMASK (0xFF)\000"
 10792      5F4D5352 
ARM GAS  /var/folders/f9/8bk2lnw15zn4cbgn6wrnb4lm0000gn/T//cc47W8rL.s 			page 228


 10792      5F424954 
 10792      4D41534B 
 10792      20283078 
 10793              	.LASF1128:
 10794 1e58 4932435F 		.ascii	"I2C_ID_T\000"
 10794      49445F54 
 10794      00
 10795              	.LASF783:
 10796 1e61 55415254 		.ascii	"UART_ICR_IRDAEN (1 << 0)\000"
 10796      5F494352 
 10796      5F495244 
 10796      41454E20 
 10796      2831203C 
 10797              	.LASF351:
 10798 1e7a 5F5F5F69 		.ascii	"___int32_t_defined 1\000"
 10798      6E743332 
 10798      5F745F64 
 10798      6566696E 
 10798      65642031 
 10799              	.LASF1013:
 10800 1e8f 52455345 		.ascii	"RESERVED1\000"
 10800      52564544 
 10800      3100
 10801              	.LASF992:
 10802 1e99 756E7369 		.ascii	"unsigned char\000"
 10802      676E6564 
 10802      20636861 
 10802      7200
 10803              	.LASF1024:
 10804 1ea7 52455345 		.ascii	"RESERVED3\000"
 10804      52564544 
 10804      3300
 10805              	.LASF1028:
 10806 1eb1 52455345 		.ascii	"RESERVED4\000"
 10806      52564544 
 10806      3400
 10807              	.LASF1030:
 10808 1ebb 52455345 		.ascii	"RESERVED5\000"
 10808      52564544 
 10808      3500
 10809              	.LASF1034:
 10810 1ec5 52455345 		.ascii	"RESERVED6\000"
 10810      52564544 
 10810      3600
 10811              	.LASF1038:
 10812 1ecf 52455345 		.ascii	"RESERVED7\000"
 10812      52564544 
 10812      3700
 10813              	.LASF1042:
 10814 1ed9 52455345 		.ascii	"RESERVED8\000"
 10814      52564544 
 10814      3800
 10815              	.LASF1046:
 10816 1ee3 52455345 		.ascii	"RESERVED9\000"
 10816      52564544 
 10816      3900
 10817              	.LASF178:
ARM GAS  /var/folders/f9/8bk2lnw15zn4cbgn6wrnb4lm0000gn/T//cc47W8rL.s 			page 229


 10818 1eed 5F5F4445 		.ascii	"__DEC128_MAX_EXP__ 6145\000"
 10818      43313238 
 10818      5F4D4158 
 10818      5F455850 
 10818      5F5F2036 
 10819              	.LASF1025:
 10820 1f05 4D41494E 		.ascii	"MAINCLKSEL\000"
 10820      434C4B53 
 10820      454C00
 10821              	.LASF392:
 10822 1f10 494E545F 		.ascii	"INT_LEAST32_MAX __INT_LEAST32_MAX__\000"
 10822      4C454153 
 10822      5433325F 
 10822      4D415820 
 10822      5F5F494E 
 10823              	.LASF466:
 10824 1f34 5F5F434D 		.ascii	"__CM0_CMSIS_VERSION ((__CM0_CMSIS_VERSION_MAIN << 1"
 10824      305F434D 
 10824      5349535F 
 10824      56455253 
 10824      494F4E20 
 10825 1f67 3629207C 		.ascii	"6) | __CM0_CMSIS_VERSION_SUB )\000"
 10825      205F5F43 
 10825      4D305F43 
 10825      4D534953 
 10825      5F564552 
 10826              	.LASF970:
 10827 1f86 53444F5F 		.ascii	"SDO_ABORT_VALUE_RANGE 0x06090030UL\000"
 10827      41424F52 
 10827      545F5641 
 10827      4C55455F 
 10827      52414E47 
 10828              	.LASF801:
 10829 1fa9 55415254 		.ascii	"UART_SYNCCTRL_FES (1 << 2)\000"
 10829      5F53594E 
 10829      43435452 
 10829      4C5F4645 
 10829      53202831 
 10830              	.LASF7:
 10831 1fc4 5F5F4154 		.ascii	"__ATOMIC_SEQ_CST 5\000"
 10831      4F4D4943 
 10831      5F534551 
 10831      5F435354 
 10831      203500
 10832              	.LASF521:
 10833 1fd7 5343425F 		.ascii	"SCB_SCR_SLEEPONEXIT_Msk (1UL << SCB_SCR_SLEEPONEXIT"
 10833      5343525F 
 10833      534C4545 
 10833      504F4E45 
 10833      5849545F 
 10834 200a 5F506F73 		.ascii	"_Pos)\000"
 10834      2900
 10835              	.LASF657:
 10836 2010 4D445F48 		.ascii	"MD_HYS (0x1 << 5)\000"
 10836      59532028 
 10836      30783120 
 10836      3C3C2035 
ARM GAS  /var/folders/f9/8bk2lnw15zn4cbgn6wrnb4lm0000gn/T//cc47W8rL.s 			page 230


 10836      2900
 10837              	.LASF831:
 10838 2022 5353505F 		.ascii	"SSP_DR_BITMASK(n) ((n) & 0xFFFF)\000"
 10838      44525F42 
 10838      49544D41 
 10838      534B286E 
 10838      29202828 
 10839              	.LASF740:
 10840 2043 55415254 		.ascii	"UART_LCR_PARITY_F_0 (3 << 4)\000"
 10840      5F4C4352 
 10840      5F504152 
 10840      4954595F 
 10840      465F3020 
 10841              	.LASF541:
 10842 2060 53797354 		.ascii	"SysTick_CALIB_NOREF_Msk (1UL << SysTick_CALIB_NOREF"
 10842      69636B5F 
 10842      43414C49 
 10842      425F4E4F 
 10842      5245465F 
 10843 2093 5F506F73 		.ascii	"_Pos)\000"
 10843      2900
 10844              	.LASF943:
 10845 2099 4932435F 		.ascii	"I2C_MONITOR_CFG_MATCHALL I2C_I2MMCTRL_MATCH_ALL\000"
 10845      4D4F4E49 
 10845      544F525F 
 10845      4346475F 
 10845      4D415443 
 10846              	.LASF138:
 10847 20c9 5F5F4442 		.ascii	"__DBL_MAX_EXP__ 1024\000"
 10847      4C5F4D41 
 10847      585F4558 
 10847      505F5F20 
 10847      31303234 
 10848              	.LASF111:
 10849 20de 5F5F5549 		.ascii	"__UINT_FAST8_MAX__ 4294967295U\000"
 10849      4E545F46 
 10849      41535438 
 10849      5F4D4158 
 10849      5F5F2034 
 10850              	.LASF271:
 10851 20fd 5F5F5451 		.ascii	"__TQ_FBIT__ 127\000"
 10851      5F464249 
 10851      545F5F20 
 10851      31323700 
 10852              	.LASF855:
 10853 210d 4144435F 		.ascii	"ADC_CR_START_NOW ((1UL << 24))\000"
 10853      43525F53 
 10853      54415254 
 10853      5F4E4F57 
 10853      20282831 
 10854              	.LASF681:
 10855 212c 54494D45 		.ascii	"TIMER_INT_ON_MATCH(n) (_BIT(((n) * 3)))\000"
 10855      525F494E 
 10855      545F4F4E 
 10855      5F4D4154 
 10855      4348286E 
 10856              	.LASF959:
ARM GAS  /var/folders/f9/8bk2lnw15zn4cbgn6wrnb4lm0000gn/T//cc47W8rL.s 			page 231


 10857 2154 53444F5F 		.ascii	"SDO_ABORT_TOGGLE 0x05030000UL\000"
 10857      41424F52 
 10857      545F544F 
 10857      47474C45 
 10857      20307830 
 10858              	.LASF372:
 10859 2172 5F5F696E 		.ascii	"__int_fast64_t_defined 1\000"
 10859      745F6661 
 10859      73743634 
 10859      5F745F64 
 10859      6566696E 
 10860              	.LASF579:
 10861 218b 4C50435F 		.ascii	"LPC_ROM_API_BASE_LOC 0x1FFF1FF8\000"
 10861      524F4D5F 
 10861      4150495F 
 10861      42415345 
 10861      5F4C4F43 
 10862              	.LASF339:
 10863 21ab 5F5F5553 		.ascii	"__USES_INITFINI__ 1\000"
 10863      45535F49 
 10863      4E495446 
 10863      494E495F 
 10863      5F203100 
 10864              	.LASF482:
 10865 21bf 5343425F 		.ascii	"SCB_CPUID_ARCHITECTURE_Pos 16\000"
 10865      43505549 
 10865      445F4152 
 10865      43484954 
 10865      45435455 
 10866              	.LASF820:
 10867 21dd 5353505F 		.ascii	"SSP_CR0_CPHA_FIRST ((uint32_t) (0))\000"
 10867      4352305F 
 10867      43504841 
 10867      5F464952 
 10867      53542028 
 10868              	.LASF1113:
 10869 2201 4932435F 		.ascii	"I2C_STATUS_ARBLOST\000"
 10869      53544154 
 10869      55535F41 
 10869      52424C4F 
 10869      535400
 10870              	.LASF258:
 10871 2214 5F5F554C 		.ascii	"__ULLACCUM_FBIT__ 32\000"
 10871      4C414343 
 10871      554D5F46 
 10871      4249545F 
 10871      5F203332 
 10872              	.LASF1005:
 10873 2229 5F426F6F 		.ascii	"_Bool\000"
 10873      6C00
 10874              	.LASF721:
 10875 222f 55415254 		.ascii	"UART_FCR_BITMASK (0xCF)\000"
 10875      5F464352 
 10875      5F424954 
 10875      4D41534B 
 10875      20283078 
 10876              	.LASF549:
ARM GAS  /var/folders/f9/8bk2lnw15zn4cbgn6wrnb4lm0000gn/T//cc47W8rL.s 			page 232


 10877 2247 5343425F 		.ascii	"SCB_BASE (SCS_BASE + 0x0D00UL)\000"
 10877      42415345 
 10877      20285343 
 10877      535F4241 
 10877      5345202B 
 10878              	.LASF596:
 10879 2266 4C50435F 		.ascii	"LPC_GPIO ((LPC_GPIO_T *) LPC_GPIO_PORT0_BASE)\000"
 10879      4750494F 
 10879      2028284C 
 10879      50435F47 
 10879      50494F5F 
 10880              	.LASF342:
 10881 2294 5F5F4C50 		.ascii	"__LPC_TYPES_H_ \000"
 10881      435F5459 
 10881      5045535F 
 10881      485F2000 
 10882              	.LASF247:
 10883 22a4 5F5F4C41 		.ascii	"__LACCUM_EPSILON__ 0x1P-31LK\000"
 10883      4343554D 
 10883      5F455053 
 10883      494C4F4E 
 10883      5F5F2030 
 10884              	.LASF976:
 10885 22c1 4F445F45 		.ascii	"OD_EXP_WO 0x20\000"
 10885      58505F57 
 10885      4F203078 
 10885      323000
 10886              	.LASF450:
 10887 22d0 53544154 		.ascii	"STATIC static\000"
 10887      49432073 
 10887      74617469 
 10887      6300
 10888              	.LASF1019:
 10889 22de 52455345 		.ascii	"RESERVED2\000"
 10889      52564544 
 10889      3200
 10890              	.LASF645:
 10891 22e8 494F434F 		.ascii	"IOCON_INV_EN (0x1 << 6)\000"
 10891      4E5F494E 
 10891      565F454E 
 10891      20283078 
 10891      31203C3C 
 10892              	.LASF20:
 10893 2300 5F5F5349 		.ascii	"__SIZEOF_LONG_DOUBLE__ 8\000"
 10893      5A454F46 
 10893      5F4C4F4E 
 10893      475F444F 
 10893      55424C45 
 10894              	.LASF754:
 10895 2319 55415254 		.ascii	"UART_LSR_BI (1 << 4)\000"
 10895      5F4C5352 
 10895      5F424920 
 10895      2831203C 
 10895      3C203429 
 10896              	.LASF732:
 10897 232e 55415254 		.ascii	"UART_LCR_SBS_MASK (1 << 2)\000"
 10897      5F4C4352 
ARM GAS  /var/folders/f9/8bk2lnw15zn4cbgn6wrnb4lm0000gn/T//cc47W8rL.s 			page 233


 10897      5F534253 
 10897      5F4D4153 
 10897      4B202831 
 10898              	.LASF315:
 10899 2349 5F5F5052 		.ascii	"__PRAGMA_REDEFINE_EXTNAME 1\000"
 10899      41474D41 
 10899      5F524544 
 10899      4546494E 
 10899      455F4558 
 10900              	.LASF32:
 10901 2365 5F5F5743 		.ascii	"__WCHAR_TYPE__ unsigned int\000"
 10901      4841525F 
 10901      54595045 
 10901      5F5F2075 
 10901      6E736967 
 10902              	.LASF422:
 10903 2381 57494E54 		.ascii	"WINT_MAX __WINT_MAX__\000"
 10903      5F4D4158 
 10903      205F5F57 
 10903      494E545F 
 10903      4D41585F 
 10904              	.LASF1004:
 10905 2397 63686172 		.ascii	"char\000"
 10905      00
 10906              	.LASF294:
 10907 239c 5F5F5553 		.ascii	"__USA_IBIT__ 16\000"
 10907      415F4942 
 10907      49545F5F 
 10907      20313600 
 10908              	.LASF432:
 10909 23ac 494E544D 		.ascii	"INTMAX_C(x) __INTMAX_C(x)\000"
 10909      41585F43 
 10909      28782920 
 10909      5F5F494E 
 10909      544D4158 
 10910              	.LASF419:
 10911 23c6 50545244 		.ascii	"PTRDIFF_MIN (-PTRDIFF_MAX - 1)\000"
 10911      4946465F 
 10911      4D494E20 
 10911      282D5054 
 10911      52444946 
 10912              	.LASF664:
 10913 23e5 4D445F53 		.ascii	"MD_STDI2C (0x1 << 8)\000"
 10913      54444932 
 10913      43202830 
 10913      7831203C 
 10913      3C203829 
 10914              	.LASF1032:
 10915 23fa 55534152 		.ascii	"USARTCLKDIV\000"
 10915      54434C4B 
 10915      44495600 
 10916              	.LASF65:
 10917 2406 5F5F4758 		.ascii	"__GXX_ABI_VERSION 1002\000"
 10917      585F4142 
 10917      495F5645 
 10917      5253494F 
 10917      4E203130 
ARM GAS  /var/folders/f9/8bk2lnw15zn4cbgn6wrnb4lm0000gn/T//cc47W8rL.s 			page 234


 10918              	.LASF62:
 10919 241d 5F5F5549 		.ascii	"__UINT_FAST64_TYPE__ long long unsigned int\000"
 10919      4E545F46 
 10919      41535436 
 10919      345F5459 
 10919      50455F5F 
 10920              	.LASF1082:
 10921 2449 53595343 		.ascii	"SYSCTL_CLOCK_SSP0\000"
 10921      544C5F43 
 10921      4C4F434B 
 10921      5F535350 
 10921      3000
 10922              	.LASF1089:
 10923 245b 53595343 		.ascii	"SYSCTL_CLOCK_SSP1\000"
 10923      544C5F43 
 10923      4C4F434B 
 10923      5F535350 
 10923      3100
 10924              	.LASF651:
 10925 246d 494F434F 		.ascii	"IOCON_FILT_DIS (0x1 << 8)\000"
 10925      4E5F4649 
 10925      4C545F44 
 10925      49532028 
 10925      30783120 
 10926              	.LASF128:
 10927 2487 5F5F464C 		.ascii	"__FLT_MIN__ 1.1754943508222875e-38F\000"
 10927      545F4D49 
 10927      4E5F5F20 
 10927      312E3137 
 10927      35343934 
 10928              	.LASF283:
 10929 24ab 5F5F4841 		.ascii	"__HA_FBIT__ 7\000"
 10929      5F464249 
 10929      545F5F20 
 10929      3700
 10930              	.LASF592:
 10931 24b9 4C50435F 		.ascii	"LPC_SYSCTL ((LPC_SYSCTL_T *) LPC_SYSCTL_BASE)\000"
 10931      53595343 
 10931      544C2028 
 10931      284C5043 
 10931      5F535953 
 10932              	.LASF28:
 10933 24e7 5F5F464C 		.ascii	"__FLOAT_WORD_ORDER__ __ORDER_LITTLE_ENDIAN__\000"
 10933      4F41545F 
 10933      574F5244 
 10933      5F4F5244 
 10933      45525F5F 
 10934              	.LASF311:
 10935 2514 5F5F4743 		.ascii	"__GCC_ATOMIC_LLONG_LOCK_FREE 1\000"
 10935      435F4154 
 10935      4F4D4943 
 10935      5F4C4C4F 
 10935      4E475F4C 
 10936              	.LASF687:
 10937 2533 5F5F5541 		.ascii	"__UART_11XX_H_ \000"
 10937      52545F31 
 10937      3158585F 
ARM GAS  /var/folders/f9/8bk2lnw15zn4cbgn6wrnb4lm0000gn/T//cc47W8rL.s 			page 235


 10937      485F2000 
 10938              	.LASF946:
 10939 2543 43414E5F 		.ascii	"CAN_ERROR_PASS 0x00000001UL\000"
 10939      4552524F 
 10939      525F5041 
 10939      53532030 
 10939      78303030 
 10940              	.LASF986:
 10941 255f 43414E5F 		.ascii	"CAN_SDOSEG_CLOSE 2\000"
 10941      53444F53 
 10941      45475F43 
 10941      4C4F5345 
 10941      203200
 10942              	.LASF640:
 10943 2572 494F434F 		.ascii	"IOCON_MODE_INACT (0x0 << 3)\000"
 10943      4E5F4D4F 
 10943      44455F49 
 10943      4E414354 
 10943      20283078 
 10944              	.LASF891:
 10945 258e 4932435F 		.ascii	"I2C_I2STAT_M_TX_SLAW_ACK ((0x18))\000"
 10945      49325354 
 10945      41545F4D 
 10945      5F54585F 
 10945      534C4157 
 10946              	.LASF163:
 10947 25b0 5F5F4445 		.ascii	"__DEC32_MIN_EXP__ (-94)\000"
 10947      4333325F 
 10947      4D494E5F 
 10947      4558505F 
 10947      5F20282D 
 10948              	.LASF189:
 10949 25c8 5F5F5553 		.ascii	"__USFRACT_IBIT__ 0\000"
 10949      46524143 
 10949      545F4942 
 10949      49545F5F 
 10949      203000
 10950              	.LASF96:
 10951 25db 5F5F494E 		.ascii	"__INT32_C(c) c ## L\000"
 10951      5433325F 
 10951      43286329 
 10951      20632023 
 10951      23204C00 
 10952              	.LASF157:
 10953 25ef 5F5F4C44 		.ascii	"__LDBL_EPSILON__ 2.2204460492503131e-16L\000"
 10953      424C5F45 
 10953      5053494C 
 10953      4F4E5F5F 
 10953      20322E32 
 10954              	.LASF879:
 10955 2618 4932435F 		.ascii	"I2C_I2CONCLR_I2ENC ((1 << 6))\000"
 10955      4932434F 
 10955      4E434C52 
 10955      5F493245 
 10955      4E432028 
 10956              	.LASF190:
 10957 2636 5F5F5553 		.ascii	"__USFRACT_MIN__ 0.0UHR\000"
ARM GAS  /var/folders/f9/8bk2lnw15zn4cbgn6wrnb4lm0000gn/T//cc47W8rL.s 			page 236


 10957      46524143 
 10957      545F4D49 
 10957      4E5F5F20 
 10957      302E3055 
 10958              	.LASF672:
 10959 264d 46554E43 		.ascii	"FUNC5 0x5\000"
 10959      35203078 
 10959      3500
 10960              	.LASF774:
 10961 2657 55415254 		.ascii	"UART_ACR_ABTOINT_CLR (1 << 9)\000"
 10961      5F414352 
 10961      5F414254 
 10961      4F494E54 
 10961      5F434C52 
 10962              	.LASF964:
 10963 2675 53444F5F 		.ascii	"SDO_ABORT_READONLY 0x06010002UL\000"
 10963      41424F52 
 10963      545F5245 
 10963      41444F4E 
 10963      4C592030 
 10964              	.LASF350:
 10965 2695 5F5F5F69 		.ascii	"___int16_t_defined 1\000"
 10965      6E743136 
 10965      5F745F64 
 10965      6566696E 
 10965      65642031 
 10966              	.LASF152:
 10967 26aa 5F5F4C44 		.ascii	"__LDBL_MAX_EXP__ 1024\000"
 10967      424C5F4D 
 10967      41585F45 
 10967      58505F5F 
 10967      20313032 
 10968              	.LASF638:
 10969 26c0 494F434F 		.ascii	"IOCON_FUNC6 0x6\000"
 10969      4E5F4655 
 10969      4E433620 
 10969      30783600 
 10970              	.LASF520:
 10971 26d0 5343425F 		.ascii	"SCB_SCR_SLEEPONEXIT_Pos 1\000"
 10971      5343525F 
 10971      534C4545 
 10971      504F4E45 
 10971      5849545F 
 10972              	.LASF710:
 10973 26ea 55415254 		.ascii	"UART_IIR_BITMASK (0x3CF)\000"
 10973      5F494952 
 10973      5F424954 
 10973      4D41534B 
 10973      20283078 
 10974              	.LASF361:
 10975 2703 5F5F696E 		.ascii	"__int8_t_defined 1\000"
 10975      74385F74 
 10975      5F646566 
 10975      696E6564 
 10975      203100
 10976              	.LASF956:
 10977 2716 43414E5F 		.ascii	"CAN_MSGOBJ_EXT 0x20000000UL\000"
ARM GAS  /var/folders/f9/8bk2lnw15zn4cbgn6wrnb4lm0000gn/T//cc47W8rL.s 			page 237


 10977      4D53474F 
 10977      424A5F45 
 10977      58542030 
 10977      78323030 
 10978              	.LASF145:
 10979 2732 5F5F4442 		.ascii	"__DBL_HAS_DENORM__ 1\000"
 10979      4C5F4841 
 10979      535F4445 
 10979      4E4F524D 
 10979      5F5F2031 
 10980              	.LASF504:
 10981 2747 5343425F 		.ascii	"SCB_ICSR_VECTACTIVE_Pos 0\000"
 10981      49435352 
 10981      5F564543 
 10981      54414354 
 10981      4956455F 
 10982              	.LASF817:
 10983 2761 5353505F 		.ascii	"SSP_CR0_FRF_MICROWIRE ((uint32_t) (2 << 4))\000"
 10983      4352305F 
 10983      4652465F 
 10983      4D494352 
 10983      4F574952 
 10984              	.LASF611:
 10985 278d 53595343 		.ascii	"SYSCTL_DEEPSLP_BOD_PD (1 << 3)\000"
 10985      544C5F44 
 10985      45455053 
 10985      4C505F42 
 10985      4F445F50 
 10986              	.LASF406:
 10987 27ac 494E545F 		.ascii	"INT_FAST32_MIN (-__INT_FAST32_MAX__ - 1)\000"
 10987      46415354 
 10987      33325F4D 
 10987      494E2028 
 10987      2D5F5F49 
 10988              	.LASF560:
 10989 27d5 4C50435F 		.ascii	"LPC_TIMER16_1_BASE 0x40010000\000"
 10989      54494D45 
 10989      5231365F 
 10989      315F4241 
 10989      53452030 
 10990              	.LASF727:
 10991 27f3 55415254 		.ascii	"UART_LCR_WLEN_MASK (3 << 0)\000"
 10991      5F4C4352 
 10991      5F574C45 
 10991      4E5F4D41 
 10991      534B2028 
 10992              	.LASF1184:
 10993 280f 43686970 		.ascii	"Chip_I2C_IsMasterActive\000"
 10993      5F493243 
 10993      5F49734D 
 10993      61737465 
 10993      72416374 
 10994              	.LASF287:
 10995 2827 5F5F4441 		.ascii	"__DA_FBIT__ 31\000"
 10995      5F464249 
 10995      545F5F20 
 10995      333100
ARM GAS  /var/folders/f9/8bk2lnw15zn4cbgn6wrnb4lm0000gn/T//cc47W8rL.s 			page 238


 10996              	.LASF1141:
 10997 2836 666C6167 		.ascii	"flags\000"
 10997      7300
 10998              	.LASF938:
 10999 283c 4932435F 		.ascii	"I2C_RECV_END 0x10\000"
 10999      52454356 
 10999      5F454E44 
 10999      20307831 
 10999      3000
 11000              	.LASF518:
 11001 284e 5343425F 		.ascii	"SCB_SCR_SLEEPDEEP_Pos 2\000"
 11001      5343525F 
 11001      534C4545 
 11001      50444545 
 11001      505F506F 
 11002              	.LASF1091:
 11003 2866 434F4E53 		.ascii	"CONSET\000"
 11003      455400
 11004              	.LASF493:
 11005 286d 5343425F 		.ascii	"SCB_ICSR_PENDSVCLR_Msk (1UL << SCB_ICSR_PENDSVCLR_P"
 11005      49435352 
 11005      5F50454E 
 11005      44535643 
 11005      4C525F4D 
 11006 28a0 6F732900 		.ascii	"os)\000"
 11007              	.LASF130:
 11008 28a4 5F5F464C 		.ascii	"__FLT_DENORM_MIN__ 1.4012984643248171e-45F\000"
 11008      545F4445 
 11008      4E4F524D 
 11008      5F4D494E 
 11008      5F5F2031 
 11009              	.LASF1093:
 11010 28cf 41445230 		.ascii	"ADR0\000"
 11010      00
 11011              	.LASF1098:
 11012 28d4 41445231 		.ascii	"ADR1\000"
 11012      00
 11013              	.LASF1099:
 11014 28d9 41445232 		.ascii	"ADR2\000"
 11014      00
 11015              	.LASF1100:
 11016 28de 41445233 		.ascii	"ADR3\000"
 11016      00
 11017              	.LASF1190:
 11018 28e3 43686970 		.ascii	"Chip_I2C_SlaveStateHandler\000"
 11018      5F493243 
 11018      5F536C61 
 11018      76655374 
 11018      61746548 
 11019              	.LASF380:
 11020 28fe 494E545F 		.ascii	"INT_LEAST8_MAX __INT_LEAST8_MAX__\000"
 11020      4C454153 
 11020      54385F4D 
 11020      4158205F 
 11020      5F494E54 
 11021              	.LASF816:
 11022 2920 5353505F 		.ascii	"SSP_CR0_FRF_TI ((uint32_t) (1 << 4))\000"
ARM GAS  /var/folders/f9/8bk2lnw15zn4cbgn6wrnb4lm0000gn/T//cc47W8rL.s 			page 239


 11022      4352305F 
 11022      4652465F 
 11022      54492028 
 11022      2875696E 
 11023              	.LASF706:
 11024 2945 55415254 		.ascii	"UART_IIR_INTSTAT_PEND (1 << 0)\000"
 11024      5F494952 
 11024      5F494E54 
 11024      53544154 
 11024      5F50454E 
 11025              	.LASF104:
 11026 2964 5F5F5549 		.ascii	"__UINT32_C(c) c ## UL\000"
 11026      4E543332 
 11026      5F432863 
 11026      29206320 
 11026      23232055 
 11027              	.LASF484:
 11028 297a 5343425F 		.ascii	"SCB_CPUID_PARTNO_Pos 4\000"
 11028      43505549 
 11028      445F5041 
 11028      52544E4F 
 11028      5F506F73 
 11029              	.LASF489:
 11030 2991 5343425F 		.ascii	"SCB_ICSR_NMIPENDSET_Msk (1UL << SCB_ICSR_NMIPENDSET"
 11030      49435352 
 11030      5F4E4D49 
 11030      50454E44 
 11030      5345545F 
 11031 29c4 5F506F73 		.ascii	"_Pos)\000"
 11031      2900
 11032              	.LASF730:
 11033 29ca 55415254 		.ascii	"UART_LCR_WLEN7 (2 << 0)\000"
 11033      5F4C4352 
 11033      5F574C45 
 11033      4E372028 
 11033      32203C3C 
 11034              	.LASF444:
 11035 29e2 5F534246 		.ascii	"_SBF\000"
 11035      00
 11036              	.LASF86:
 11037 29e7 5F5F494E 		.ascii	"__INT64_MAX__ 9223372036854775807LL\000"
 11037      5436345F 
 11037      4D41585F 
 11037      5F203932 
 11037      32333337 
 11038              	.LASF129:
 11039 2a0b 5F5F464C 		.ascii	"__FLT_EPSILON__ 1.1920928955078125e-7F\000"
 11039      545F4550 
 11039      53494C4F 
 11039      4E5F5F20 
 11039      312E3139 
 11040              	.LASF1189:
 11041 2a32 73693263 		.ascii	"si2c\000"
 11041      00
 11042              	.LASF1194:
 11043 2a37 2E2E2F2E 		.ascii	"../../lpc_chip_11cxx_lib/src/i2c_11xx.c\000"
 11043      2E2F6C70 
ARM GAS  /var/folders/f9/8bk2lnw15zn4cbgn6wrnb4lm0000gn/T//cc47W8rL.s 			page 240


 11043      635F6368 
 11043      69705F31 
 11043      31637878 
 11044              	.LASF580:
 11045 2a5f 4C50435F 		.ascii	"LPC_I2C ((LPC_I2C_T *) LPC_I2C_BASE)\000"
 11045      49324320 
 11045      28284C50 
 11045      435F4932 
 11045      435F5420 
 11046              	.LASF794:
 11047 2a84 55415254 		.ascii	"UART_FDR_DIVADDVAL(n) (n & 0x0F)\000"
 11047      5F464452 
 11047      5F444956 
 11047      41444456 
 11047      414C286E 
 11048              	.LASF725:
 11049 2aa5 55415254 		.ascii	"UART_FCR_TRG_LEV2 (2 << 6)\000"
 11049      5F464352 
 11049      5F545247 
 11049      5F4C4556 
 11049      32202832 
 11050              	.LASF966:
 11051 2ac0 53444F5F 		.ascii	"SDO_ABORT_PARAINCOMP 0x06040043UL\000"
 11051      41424F52 
 11051      545F5041 
 11051      5241494E 
 11051      434F4D50 
 11052              	.LASF528:
 11053 2ae2 53797354 		.ascii	"SysTick_CTRL_COUNTFLAG_Pos 16\000"
 11053      69636B5F 
 11053      4354524C 
 11053      5F434F55 
 11053      4E54464C 
 11054              	.LASF364:
 11055 2b00 5F5F696E 		.ascii	"__int_least16_t_defined 1\000"
 11055      745F6C65 
 11055      61737431 
 11055      365F745F 
 11055      64656669 
 11056              	.LASF242:
 11057 2b1a 5F5F5541 		.ascii	"__UACCUM_EPSILON__ 0x1P-16UK\000"
 11057      4343554D 
 11057      5F455053 
 11057      494C4F4E 
 11057      5F5F2030 
 11058              	.LASF443:
 11059 2b37 5F424954 		.ascii	"_BIT(n) (1 << (n))\000"
 11059      286E2920 
 11059      2831203C 
 11059      3C20286E 
 11059      292900
 11060              	.LASF587:
 11061 2b4a 4C50435F 		.ascii	"LPC_ADC ((LPC_ADC_T *) LPC_ADC_BASE)\000"
 11061      41444320 
 11061      28284C50 
 11061      435F4144 
 11061      435F5420 
ARM GAS  /var/folders/f9/8bk2lnw15zn4cbgn6wrnb4lm0000gn/T//cc47W8rL.s 			page 241


 11062              	.LASF308:
 11063 2b6f 5F5F4743 		.ascii	"__GCC_ATOMIC_SHORT_LOCK_FREE 1\000"
 11063      435F4154 
 11063      4F4D4943 
 11063      5F53484F 
 11063      52545F4C 
 11064              	.LASF438:
 11065 2b8e 66616C73 		.ascii	"false 0\000"
 11065      65203000 
 11066              	.LASF502:
 11067 2b96 5343425F 		.ascii	"SCB_ICSR_VECTPENDING_Pos 12\000"
 11067      49435352 
 11067      5F564543 
 11067      5450454E 
 11067      44494E47 
 11068              	.LASF695:
 11069 2bb2 55415254 		.ascii	"UART_DLM_MASKBIT (0xFF)\000"
 11069      5F444C4D 
 11069      5F4D4153 
 11069      4B424954 
 11069      20283078 
 11070              	.LASF813:
 11071 2bca 5F5F5353 		.ascii	"__SSP_11XX_H_ \000"
 11071      505F3131 
 11071      58585F48 
 11071      5F2000
 11072              	.LASF266:
 11073 2bd9 5F5F4851 		.ascii	"__HQ_IBIT__ 0\000"
 11073      5F494249 
 11073      545F5F20 
 11073      3000
 11074              	.LASF467:
 11075 2be7 5F5F434F 		.ascii	"__CORTEX_M (0x00)\000"
 11075      52544558 
 11075      5F4D2028 
 11075      30783030 
 11075      2900
 11076              	.LASF228:
 11077 2bf9 5F5F5553 		.ascii	"__USACCUM_FBIT__ 8\000"
 11077      41434355 
 11077      4D5F4642 
 11077      49545F5F 
 11077      203800
 11078              	.LASF312:
 11079 2c0c 5F5F4743 		.ascii	"__GCC_ATOMIC_TEST_AND_SET_TRUEVAL 1\000"
 11079      435F4154 
 11079      4F4D4943 
 11079      5F544553 
 11079      545F414E 
 11080              	.LASF898:
 11081 2c30 4932435F 		.ascii	"I2C_I2STAT_M_RX_ARB_LOST ((0x38))\000"
 11081      49325354 
 11081      41545F4D 
 11081      5F52585F 
 11081      4152425F 
 11082              	.LASF503:
 11083 2c52 5343425F 		.ascii	"SCB_ICSR_VECTPENDING_Msk (0x1FFUL << SCB_ICSR_VECTP"
ARM GAS  /var/folders/f9/8bk2lnw15zn4cbgn6wrnb4lm0000gn/T//cc47W8rL.s 			page 242


 11083      49435352 
 11083      5F564543 
 11083      5450454E 
 11083      44494E47 
 11084 2c85 454E4449 		.ascii	"ENDING_Pos)\000"
 11084      4E475F50 
 11084      6F732900 
 11085              	.LASF682:
 11086 2c91 54494D45 		.ascii	"TIMER_RESET_ON_MATCH(n) (_BIT((((n) * 3) + 1)))\000"
 11086      525F5245 
 11086      5345545F 
 11086      4F4E5F4D 
 11086      41544348 
 11087              	.LASF243:
 11088 2cc1 5F5F4C41 		.ascii	"__LACCUM_FBIT__ 31\000"
 11088      4343554D 
 11088      5F464249 
 11088      545F5F20 
 11088      333100
 11089              	.LASF945:
 11090 2cd4 43414E5F 		.ascii	"CAN_ERROR_NONE 0x00000000UL\000"
 11090      4552524F 
 11090      525F4E4F 
 11090      4E452030 
 11090      78303030 
 11091              	.LASF631:
 11092 2cf0 5F5F494F 		.ascii	"__IOCON_11XX_H_ \000"
 11092      434F4E5F 
 11092      31315858 
 11092      5F485F20 
 11092      00
 11093              	.LASF923:
 11094 2d01 4932435F 		.ascii	"I2C_I2MMCTRL_BITMASK ((0x07))\000"
 11094      49324D4D 
 11094      4354524C 
 11094      5F424954 
 11094      4D41534B 
 11095              	.LASF678:
 11096 2d1f 54494D45 		.ascii	"TIMER_CAP_INT(n) (_BIT((((n) & 0x0F) + 4)))\000"
 11096      525F4341 
 11096      505F494E 
 11096      54286E29 
 11096      20285F42 
 11097              	.LASF840:
 11098 2d4b 5F5F524F 		.ascii	"__ROMAPI_11XX_H_ \000"
 11098      4D415049 
 11098      5F313158 
 11098      585F485F 
 11098      2000
 11099              	.LASF1009:
 11100 2d5d 53595350 		.ascii	"SYSPLLCTRL\000"
 11100      4C4C4354 
 11100      524C00
 11101              	.LASF289:
 11102 2d68 5F5F5441 		.ascii	"__TA_FBIT__ 63\000"
 11102      5F464249 
 11102      545F5F20 
ARM GAS  /var/folders/f9/8bk2lnw15zn4cbgn6wrnb4lm0000gn/T//cc47W8rL.s 			page 243


 11102      363300
 11103              	.LASF384:
 11104 2d77 55494E54 		.ascii	"UINT16_MAX __UINT16_MAX__\000"
 11104      31365F4D 
 11104      4158205F 
 11104      5F55494E 
 11104      5431365F 
 11105              	.LASF903:
 11106 2d91 4932435F 		.ascii	"I2C_I2STAT_S_RX_SLAW_ACK ((0x60))\000"
 11106      49325354 
 11106      41545F53 
 11106      5F52585F 
 11106      534C4157 
 11107              	.LASF373:
 11108 2db3 494E5450 		.ascii	"INTPTR_MIN (-__INTPTR_MAX__ - 1)\000"
 11108      54525F4D 
 11108      494E2028 
 11108      2D5F5F49 
 11108      4E545054 
 11109              	.LASF1007:
 11110 2dd4 5359534D 		.ascii	"SYSMEMREMAP\000"
 11110      454D5245 
 11110      4D415000 
 11111              	.LASF572:
 11112 2de0 4C50435F 		.ascii	"LPC_CAN0_BASE 0x40050000\000"
 11112      43414E30 
 11112      5F424153 
 11112      45203078 
 11112      34303035 
 11113              	.LASF691:
 11114 2df9 55415254 		.ascii	"UART_RBR_MASKBIT (0xFF)\000"
 11114      5F524252 
 11114      5F4D4153 
 11114      4B424954 
 11114      20283078 
 11115              	.LASF335:
 11116 2e11 5F5F4152 		.ascii	"__ARM_PCS 1\000"
 11116      4D5F5043 
 11116      53203100 
 11117              	.LASF1133:
 11118 2e1d 4932435F 		.ascii	"I2C_EVENT_SLAVE_RX\000"
 11118      4556454E 
 11118      545F534C 
 11118      4156455F 
 11118      525800
 11119              	.LASF873:
 11120 2e30 4932435F 		.ascii	"I2C_I2CONSET_STA ((0x20))\000"
 11120      4932434F 
 11120      4E534554 
 11120      5F535441 
 11120      20282830 
 11121              	.LASF952:
 11122 2e4a 43414E5F 		.ascii	"CAN_ERROR_BIT1 0x00000040UL\000"
 11122      4552524F 
 11122      525F4249 
 11122      54312030 
 11122      78303030 
ARM GAS  /var/folders/f9/8bk2lnw15zn4cbgn6wrnb4lm0000gn/T//cc47W8rL.s 			page 244


 11123              	.LASF607:
 11124 2e66 53595343 		.ascii	"SYSCTL_RST_WDT (1 << 2)\000"
 11124      544C5F52 
 11124      53545F57 
 11124      44542028 
 11124      31203C3C 
 11125              	.LASF414:
 11126 2e7e 55494E54 		.ascii	"UINTMAX_MAX __UINTMAX_MAX__\000"
 11126      4D41585F 
 11126      4D415820 
 11126      5F5F5549 
 11126      4E544D41 
 11127              	.LASF570:
 11128 2e9a 4C50435F 		.ascii	"LPC_SYSCTL_BASE 0x40048000\000"
 11128      53595343 
 11128      544C5F42 
 11128      41534520 
 11128      30783430 
 11129              	.LASF82:
 11130 2eb5 5F5F5349 		.ascii	"__SIG_ATOMIC_MIN__ (-__SIG_ATOMIC_MAX__ - 1)\000"
 11130      475F4154 
 11130      4F4D4943 
 11130      5F4D494E 
 11130      5F5F2028 
 11131              	.LASF786:
 11132 2ee2 55415254 		.ascii	"UART_ICR_PULSEDIV(n) ((n & 0x07) << 3)\000"
 11132      5F494352 
 11132      5F50554C 
 11132      53454449 
 11132      56286E29 
 11133              	.LASF240:
 11134 2f09 5F5F5541 		.ascii	"__UACCUM_MIN__ 0.0UK\000"
 11134      4343554D 
 11134      5F4D494E 
 11134      5F5F2030 
 11134      2E30554B 
 11135              	.LASF490:
 11136 2f1e 5343425F 		.ascii	"SCB_ICSR_PENDSVSET_Pos 28\000"
 11136      49435352 
 11136      5F50454E 
 11136      44535653 
 11136      45545F50 
 11137              	.LASF512:
 11138 2f38 5343425F 		.ascii	"SCB_AIRCR_SYSRESETREQ_Pos 2\000"
 11138      41495243 
 11138      525F5359 
 11138      53524553 
 11138      45545245 
 11139              	.LASF476:
 11140 2f54 5F5F4F20 		.ascii	"__O volatile\000"
 11140      766F6C61 
 11140      74696C65 
 11140      00
 11141              	.LASF383:
 11142 2f61 494E5431 		.ascii	"INT16_MAX __INT16_MAX__\000"
 11142      365F4D41 
 11142      58205F5F 
ARM GAS  /var/folders/f9/8bk2lnw15zn4cbgn6wrnb4lm0000gn/T//cc47W8rL.s 			page 245


 11142      494E5431 
 11142      365F4D41 
 11143              	.LASF911:
 11144 2f79 4932435F 		.ascii	"I2C_I2STAT_S_RX_STA_STO_SLVREC_SLVTRX ((0xA0))\000"
 11144      49325354 
 11144      41545F53 
 11144      5F52585F 
 11144      5354415F 
 11145              	.LASF416:
 11146 2fa8 5349475F 		.ascii	"SIG_ATOMIC_MIN (-__STDINT_EXP(INT_MAX) - 1)\000"
 11146      41544F4D 
 11146      49435F4D 
 11146      494E2028 
 11146      2D5F5F53 
 11147              	.LASF893:
 11148 2fd4 4932435F 		.ascii	"I2C_I2STAT_M_TX_DAT_ACK ((0x28))\000"
 11148      49325354 
 11148      41545F4D 
 11148      5F54585F 
 11148      4441545F 
 11149              	.LASF778:
 11150 2ff5 55415254 		.ascii	"UART_RS485CTRL_AADEN (1 << 2)\000"
 11150      5F525334 
 11150      38354354 
 11150      524C5F41 
 11150      4144454E 
 11151              	.LASF1036:
 11152 3013 55534243 		.ascii	"USBCLKUEN\000"
 11152      4C4B5545 
 11152      4E00
 11153              	.LASF1174:
 11154 301d 636C6F63 		.ascii	"clockrate\000"
 11154      6B726174 
 11154      6500
 11155              	.LASF917:
 11156 3027 4932435F 		.ascii	"I2C_SLAVE_TIME_OUT 0x10000000UL\000"
 11156      534C4156 
 11156      455F5449 
 11156      4D455F4F 
 11156      55542030 
 11157              	.LASF770:
 11158 3047 55415254 		.ascii	"UART_ACR_START (1 << 0)\000"
 11158      5F414352 
 11158      5F535441 
 11158      52542028 
 11158      31203C3C 
 11159              	.LASF575:
 11160 305f 4C50435F 		.ascii	"LPC_GPIO_PORT1_BASE 0x50010000\000"
 11160      4750494F 
 11160      5F504F52 
 11160      54315F42 
 11160      41534520 
 11161              	.LASF791:
 11162 307e 55415254 		.ascii	"UART_SCICTRL_PROTSEL_T1 (1 << 2)\000"
 11162      5F534349 
 11162      4354524C 
 11162      5F50524F 
ARM GAS  /var/folders/f9/8bk2lnw15zn4cbgn6wrnb4lm0000gn/T//cc47W8rL.s 			page 246


 11162      5453454C 
 11163              	.LASF91:
 11164 309f 5F5F494E 		.ascii	"__INT_LEAST8_MAX__ 127\000"
 11164      545F4C45 
 11164      41535438 
 11164      5F4D4158 
 11164      5F5F2031 
 11165              	.LASF404:
 11166 30b6 494E545F 		.ascii	"INT_FAST16_MAX __INT_FAST16_MAX__\000"
 11166      46415354 
 11166      31365F4D 
 11166      4158205F 
 11166      5F494E54 
 11167              	.LASF870:
 11168 30d8 4932435F 		.ascii	"I2C_I2CONSET_AA ((0x04))\000"
 11168      4932434F 
 11168      4E534554 
 11168      5F414120 
 11168      28283078 
 11169              	.LASF793:
 11170 30f1 55415254 		.ascii	"UART_SCICTRL_GUARDTIME(n) ((n & 0xFF) << 8)\000"
 11170      5F534349 
 11170      4354524C 
 11170      5F475541 
 11170      52445449 
 11171              	.LASF1055:
 11172 311d 55534243 		.ascii	"USBCLKCTRL\000"
 11172      4C4B4354 
 11172      524C00
 11173              	.LASF175:
 11174 3128 5F5F4445 		.ascii	"__DEC64_SUBNORMAL_MIN__ 0.000000000000001E-383DD\000"
 11174      4336345F 
 11174      5355424E 
 11174      4F524D41 
 11174      4C5F4D49 
 11175              	.LASF192:
 11176 3159 5F5F5553 		.ascii	"__USFRACT_EPSILON__ 0x1P-8UHR\000"
 11176      46524143 
 11176      545F4550 
 11176      53494C4F 
 11176      4E5F5F20 
 11177              	.LASF1158:
 11178 3177 73746172 		.ascii	"startSlaverXfer\000"
 11178      74536C61 
 11178      76657258 
 11178      66657200 
 11179              	.LASF446:
 11180 3187 5F424954 		.ascii	"_BITMASK\000"
 11180      4D41534B 
 11180      00
 11181              	.LASF110:
 11182 3190 5F5F494E 		.ascii	"__INT_FAST64_MAX__ 9223372036854775807LL\000"
 11182      545F4641 
 11182      53543634 
 11182      5F4D4158 
 11182      5F5F2039 
 11183              	.LASF590:
ARM GAS  /var/folders/f9/8bk2lnw15zn4cbgn6wrnb4lm0000gn/T//cc47W8rL.s 			page 247


 11184 31b9 4C50435F 		.ascii	"LPC_SSP0 ((LPC_SSP_T *) LPC_SSP0_BASE)\000"
 11184      53535030 
 11184      2028284C 
 11184      50435F53 
 11184      53505F54 
 11185              	.LASF188:
 11186 31e0 5F5F5553 		.ascii	"__USFRACT_FBIT__ 8\000"
 11186      46524143 
 11186      545F4642 
 11186      49545F5F 
 11186      203800
 11187              	.LASF256:
 11188 31f3 5F5F4C4C 		.ascii	"__LLACCUM_MAX__ 0X7FFFFFFFFFFFFFFFP-31LLK\000"
 11188      41434355 
 11188      4D5F4D41 
 11188      585F5F20 
 11188      30583746 
 11189              	.LASF707:
 11190 321d 55415254 		.ascii	"UART_IIR_FIFO_EN (3 << 6)\000"
 11190      5F494952 
 11190      5F464946 
 11190      4F5F454E 
 11190      20283320 
 11191              	.LASF673:
 11192 3237 46554E43 		.ascii	"FUNC6 0x6\000"
 11192      36203078 
 11192      3600
 11193              	.LASF366:
 11194 3241 5F5F696E 		.ascii	"__int_least32_t_defined 1\000"
 11194      745F6C65 
 11194      61737433 
 11194      325F745F 
 11194      64656669 
 11195              	.LASF300:
 11196 325b 5F5F5553 		.ascii	"__USER_LABEL_PREFIX__ \000"
 11196      45525F4C 
 11196      4142454C 
 11196      5F505245 
 11196      4649585F 
 11197              	.LASF835:
 11198 3272 5353505F 		.ascii	"SSP_CPHA_SECOND SSP_CR0_CPHA_SECOND\000"
 11198      43504841 
 11198      5F534543 
 11198      4F4E4420 
 11198      5353505F 
 11199              	.LASF577:
 11200 3296 4C50435F 		.ascii	"LPC_GPIO_PORT3_BASE 0x50030000\000"
 11200      4750494F 
 11200      5F504F52 
 11200      54335F42 
 11200      41534520 
 11201              	.LASF401:
 11202 32b5 494E545F 		.ascii	"INT_FAST8_MAX __INT_FAST8_MAX__\000"
 11202      46415354 
 11202      385F4D41 
 11202      58205F5F 
 11202      494E545F 
ARM GAS  /var/folders/f9/8bk2lnw15zn4cbgn6wrnb4lm0000gn/T//cc47W8rL.s 			page 248


 11203              	.LASF731:
 11204 32d5 55415254 		.ascii	"UART_LCR_WLEN8 (3 << 0)\000"
 11204      5F4C4352 
 11204      5F574C45 
 11204      4E382028 
 11204      33203C3C 
 11205              	.LASF1075:
 11206 32ed 53595343 		.ascii	"SYSCTL_CLOCK_FLASHARRAY\000"
 11206      544C5F43 
 11206      4C4F434B 
 11206      5F464C41 
 11206      53484152 
 11207              	.LASF430:
 11208 3305 494E5436 		.ascii	"INT64_C(x) __INT64_C(x)\000"
 11208      345F4328 
 11208      7829205F 
 11208      5F494E54 
 11208      36345F43 
 11209              	.LASF376:
 11210 331d 494E5438 		.ascii	"INT8_MIN (-__INT8_MAX__ - 1)\000"
 11210      5F4D494E 
 11210      20282D5F 
 11210      5F494E54 
 11210      385F4D41 
 11211              	.LASF1162:
 11212 333a 696E6465 		.ascii	"index\000"
 11212      7800
 11213              	.LASF1077:
 11214 3340 53595343 		.ascii	"SYSCTL_CLOCK_GPIO\000"
 11214      544C5F43 
 11214      4C4F434B 
 11214      5F475049 
 11214      4F00
 11215              	.LASF507:
 11216 3352 5343425F 		.ascii	"SCB_AIRCR_VECTKEY_Msk (0xFFFFUL << SCB_AIRCR_VECTKE"
 11216      41495243 
 11216      525F5645 
 11216      43544B45 
 11216      595F4D73 
 11217 3385 595F506F 		.ascii	"Y_Pos)\000"
 11217      732900
 11218              	.LASF1180:
 11219 338c 43686970 		.ascii	"Chip_I2C_MasterSend\000"
 11219      5F493243 
 11219      5F4D6173 
 11219      74657253 
 11219      656E6400 
 11220              	.LASF1147:
 11221 33a0 43686970 		.ascii	"Chip_Clock_DisablePeriphClock\000"
 11221      5F436C6F 
 11221      636B5F44 
 11221      69736162 
 11221      6C655065 
 11222              	.LASF600:
 11223 33be 504D555F 		.ascii	"PMU_PCON_PM_DEEPPOWERDOWN (0x2)\000"
 11223      50434F4E 
 11223      5F504D5F 
ARM GAS  /var/folders/f9/8bk2lnw15zn4cbgn6wrnb4lm0000gn/T//cc47W8rL.s 			page 249


 11223      44454550 
 11223      504F5745 
 11224              	.LASF714:
 11225 33de 55415254 		.ascii	"UART_IIR_INTID_CTI (6 << 1)\000"
 11225      5F494952 
 11225      5F494E54 
 11225      49445F43 
 11225      54492028 
 11226              	.LASF1012:
 11227 33fa 55534250 		.ascii	"USBPLLSTAT\000"
 11227      4C4C5354 
 11227      415400
 11228              	.LASF1188:
 11229 3405 61646472 		.ascii	"addrMask\000"
 11229      4D61736B 
 11229      00
 11230              	.LASF821:
 11231 340e 5353505F 		.ascii	"SSP_CR0_CPHA_SECOND ((uint32_t) (1 << 7))\000"
 11231      4352305F 
 11231      43504841 
 11231      5F534543 
 11231      4F4E4420 
 11232              	.LASF969:
 11233 3438 53444F5F 		.ascii	"SDO_ABORT_UNKNOWNSUB 0x06090011UL\000"
 11233      41424F52 
 11233      545F554E 
 11233      4B4E4F57 
 11233      4E535542 
 11234              	.LASF487:
 11235 345a 5343425F 		.ascii	"SCB_CPUID_REVISION_Msk (0xFUL << SCB_CPUID_REVISION"
 11235      43505549 
 11235      445F5245 
 11235      56495349 
 11235      4F4E5F4D 
 11236 348d 5F506F73 		.ascii	"_Pos)\000"
 11236      2900
 11237              	.LASF719:
 11238 3493 55415254 		.ascii	"UART_FCR_TX_RS (1 << 2)\000"
 11238      5F464352 
 11238      5F54585F 
 11238      52532028 
 11238      31203C3C 
 11239              	.LASF632:
 11240 34ab 494F434F 		.ascii	"IOCON_FUNC0 0x0\000"
 11240      4E5F4655 
 11240      4E433020 
 11240      30783000 
 11241              	.LASF143:
 11242 34bb 5F5F4442 		.ascii	"__DBL_EPSILON__ ((double)2.2204460492503131e-16L)\000"
 11242      4C5F4550 
 11242      53494C4F 
 11242      4E5F5F20 
 11242      2828646F 
 11243              	.LASF753:
 11244 34ed 55415254 		.ascii	"UART_LSR_FE (1 << 3)\000"
 11244      5F4C5352 
 11244      5F464520 
ARM GAS  /var/folders/f9/8bk2lnw15zn4cbgn6wrnb4lm0000gn/T//cc47W8rL.s 			page 250


 11244      2831203C 
 11244      3C203329 
 11245              	.LASF132:
 11246 3502 5F5F464C 		.ascii	"__FLT_HAS_INFINITY__ 1\000"
 11246      545F4841 
 11246      535F494E 
 11246      46494E49 
 11246      54595F5F 
 11247              	.LASF926:
 11248 3519 4932435F 		.ascii	"I2C_I2ADR_BITMASK ((0xFF))\000"
 11248      49324144 
 11248      525F4249 
 11248      544D4153 
 11248      4B202828 
 11249              	.LASF501:
 11250 3534 5343425F 		.ascii	"SCB_ICSR_ISRPENDING_Msk (1UL << SCB_ICSR_ISRPENDING"
 11250      49435352 
 11250      5F495352 
 11250      50454E44 
 11250      494E475F 
 11251 3567 5F506F73 		.ascii	"_Pos)\000"
 11251      2900
 11252              	.LASF151:
 11253 356d 5F5F4C44 		.ascii	"__LDBL_MIN_10_EXP__ (-307)\000"
 11253      424C5F4D 
 11253      494E5F31 
 11253      305F4558 
 11253      505F5F20 
 11254              	.LASF784:
 11255 3588 55415254 		.ascii	"UART_ICR_IRDAINV (1 << 1)\000"
 11255      5F494352 
 11255      5F495244 
 11255      41494E56 
 11255      20283120 
 11256              	.LASF1097:
 11257 35a2 4D4D4354 		.ascii	"MMCTRL\000"
 11257      524C00
 11258              	.LASF583:
 11259 35a9 4C50435F 		.ascii	"LPC_TIMER16_0 ((LPC_TIMER_T *) LPC_TIMER16_0_BASE)\000"
 11259      54494D45 
 11259      5231365F 
 11259      30202828 
 11259      4C50435F 
 11260              	.LASF314:
 11261 35dc 5F5F4743 		.ascii	"__GCC_HAVE_DWARF2_CFI_ASM 1\000"
 11261      435F4841 
 11261      56455F44 
 11261      57415246 
 11261      325F4346 
 11262              	.LASF1154:
 11263 35f8 656E6162 		.ascii	"enableClk\000"
 11263      6C65436C 
 11263      6B00
 11264              	.LASF185:
 11265 3602 5F5F5346 		.ascii	"__SFRACT_MIN__ (-0.5HR-0.5HR)\000"
 11265      52414354 
 11265      5F4D494E 
ARM GAS  /var/folders/f9/8bk2lnw15zn4cbgn6wrnb4lm0000gn/T//cc47W8rL.s 			page 251


 11265      5F5F2028 
 11265      2D302E35 
 11266              	.LASF998:
 11267 3620 6C6F6E67 		.ascii	"long unsigned int\000"
 11267      20756E73 
 11267      69676E65 
 11267      6420696E 
 11267      7400
 11268              	.LASF286:
 11269 3632 5F5F5341 		.ascii	"__SA_IBIT__ 16\000"
 11269      5F494249 
 11269      545F5F20 
 11269      313600
 11270              	.LASF1163:
 11271 3641 61626173 		.ascii	"abase\000"
 11271      6500
 11272              	.LASF2:
 11273 3647 5F5F474E 		.ascii	"__GNUC__ 4\000"
 11273      55435F5F 
 11273      203400
 11274              	.LASF1114:
 11275 3652 4932435F 		.ascii	"I2C_STATUS_BUSERR\000"
 11275      53544154 
 11275      55535F42 
 11275      55534552 
 11275      5200
 11276              	.LASF1123:
 11277 3664 4932435F 		.ascii	"I2C_XFER_T\000"
 11277      58464552 
 11277      5F5400
 11278              	.LASF1134:
 11279 366f 4932435F 		.ascii	"I2C_EVENT_SLAVE_TX\000"
 11279      4556454E 
 11279      545F534C 
 11279      4156455F 
 11279      545800
 11280              	.LASF677:
 11281 3682 54494D45 		.ascii	"TIMER_MATCH_INT(n) (_BIT((n) & 0x0F))\000"
 11281      525F4D41 
 11281      5443485F 
 11281      494E5428 
 11281      6E292028 
 11282              	.LASF44:
 11283 36a8 5F5F5549 		.ascii	"__UINT16_TYPE__ short unsigned int\000"
 11283      4E543136 
 11283      5F545950 
 11283      455F5F20 
 11283      73686F72 
 11284              	.LASF780:
 11285 36cb 55415254 		.ascii	"UART_RS485CTRL_DCTRL_EN (1 << 4)\000"
 11285      5F525334 
 11285      38354354 
 11285      524C5F44 
 11285      4354524C 
 11286              	.LASF329:
 11287 36ec 5F5F534F 		.ascii	"__SOFTFP__ 1\000"
 11287      46544650 
ARM GAS  /var/folders/f9/8bk2lnw15zn4cbgn6wrnb4lm0000gn/T//cc47W8rL.s 			page 252


 11287      5F5F2031 
 11287      00
 11288              	.LASF1122:
 11289 36f9 73746174 		.ascii	"status\000"
 11289      757300
 11290              	.LASF164:
 11291 3700 5F5F4445 		.ascii	"__DEC32_MAX_EXP__ 97\000"
 11291      4333325F 
 11291      4D41585F 
 11291      4558505F 
 11291      5F203937 
 11292              	.LASF544:
 11293 3715 53797354 		.ascii	"SysTick_CALIB_TENMS_Pos 0\000"
 11293      69636B5F 
 11293      43414C49 
 11293      425F5445 
 11293      4E4D535F 
 11294              	.LASF800:
 11295 372f 55415254 		.ascii	"UART_SYNCCTRL_CSRC_MASTER (1 << 1)\000"
 11295      5F53594E 
 11295      43435452 
 11295      4C5F4353 
 11295      52435F4D 
 11296              	.LASF615:
 11297 3752 53595343 		.ascii	"SYSCTL_SLPWAKE_FLASH_PD (1 << 2)\000"
 11297      544C5F53 
 11297      4C505741 
 11297      4B455F46 
 11297      4C415348 
 11298              	.LASF547:
 11299 3773 53797354 		.ascii	"SysTick_BASE (SCS_BASE + 0x0010UL)\000"
 11299      69636B5F 
 11299      42415345 
 11299      20285343 
 11299      535F4241 
 11300              	.LASF1111:
 11301 3796 4932435F 		.ascii	"I2C_STATUS_DONE\000"
 11301      53544154 
 11301      55535F44 
 11301      4F4E4500 
 11302              	.LASF863:
 11303 37a6 5F5F4750 		.ascii	"__GPIO_11XX_2_H_ \000"
 11303      494F5F31 
 11303      3158585F 
 11303      325F485F 
 11303      2000
 11304              	.LASF424:
 11305 37b8 494E5438 		.ascii	"INT8_C(x) __INT8_C(x)\000"
 11305      5F432878 
 11305      29205F5F 
 11305      494E5438 
 11305      5F432878 
 11306              	.LASF59:
 11307 37ce 5F5F5549 		.ascii	"__UINT_FAST8_TYPE__ unsigned int\000"
 11307      4E545F46 
 11307      41535438 
 11307      5F545950 
ARM GAS  /var/folders/f9/8bk2lnw15zn4cbgn6wrnb4lm0000gn/T//cc47W8rL.s 			page 253


 11307      455F5F20 
 11308              	.LASF254:
 11309 37ef 5F5F4C4C 		.ascii	"__LLACCUM_IBIT__ 32\000"
 11309      41434355 
 11309      4D5F4942 
 11309      49545F5F 
 11309      20333200 
 11310              	.LASF1110:
 11311 3803 4932435F 		.ascii	"I2C_SLAVE_ID\000"
 11311      534C4156 
 11311      455F4944 
 11311      00
 11312              	.LASF197:
 11313 3810 5F5F4652 		.ascii	"__FRACT_EPSILON__ 0x1P-15R\000"
 11313      4143545F 
 11313      45505349 
 11313      4C4F4E5F 
 11313      5F203078 
 11314              	.LASF451:
 11315 382b 45585445 		.ascii	"EXTERN extern\000"
 11315      524E2065 
 11315      78746572 
 11315      6E00
 11316              	.LASF499:
 11317 3839 5343425F 		.ascii	"SCB_ICSR_ISRPREEMPT_Msk (1UL << SCB_ICSR_ISRPREEMPT"
 11317      49435352 
 11317      5F495352 
 11317      50524545 
 11317      4D50545F 
 11318 386c 5F506F73 		.ascii	"_Pos)\000"
 11318      2900
 11319              	.LASF745:
 11320 3872 55415254 		.ascii	"UART_MCR_RTS_CTRL (1 << 1)\000"
 11320      5F4D4352 
 11320      5F525453 
 11320      5F435452 
 11320      4C202831 
 11321              	.LASF827:
 11322 388d 5353505F 		.ascii	"SSP_CR1_MASTER_EN ((uint32_t) (0))\000"
 11322      4352315F 
 11322      4D415354 
 11322      45525F45 
 11322      4E202828 
 11323              	.LASF936:
 11324 38b0 4932435F 		.ascii	"I2C_LAST_BYTE_RECV 0x04\000"
 11324      4C415354 
 11324      5F425954 
 11324      455F5245 
 11324      43562030 
 11325              	.LASF337:
 11326 38c8 5F5F4758 		.ascii	"__GXX_TYPEINFO_EQUALITY_INLINE 0\000"
 11326      585F5459 
 11326      5045494E 
 11326      464F5F45 
 11326      5155414C 
 11327              	.LASF460:
 11328 38e9 5F5F4D50 		.ascii	"__MPU_PRESENT 0\000"
ARM GAS  /var/folders/f9/8bk2lnw15zn4cbgn6wrnb4lm0000gn/T//cc47W8rL.s 			page 254


 11328      555F5052 
 11328      4553454E 
 11328      54203000 
 11329              	.LASF38:
 11330 38f9 5F5F5349 		.ascii	"__SIG_ATOMIC_TYPE__ int\000"
 11330      475F4154 
 11330      4F4D4943 
 11330      5F545950 
 11330      455F5F20 
 11331              	.LASF584:
 11332 3911 4C50435F 		.ascii	"LPC_TIMER16_1 ((LPC_TIMER_T *) LPC_TIMER16_1_BASE)\000"
 11332      54494D45 
 11332      5231365F 
 11332      31202828 
 11332      4C50435F 
 11333              	.LASF68:
 11334 3944 5F5F494E 		.ascii	"__INT_MAX__ 2147483647\000"
 11334      545F4D41 
 11334      585F5F20 
 11334      32313437 
 11334      34383336 
 11335              	.LASF54:
 11336 395b 5F5F5549 		.ascii	"__UINT_LEAST64_TYPE__ long long unsigned int\000"
 11336      4E545F4C 
 11336      45415354 
 11336      36345F54 
 11336      5950455F 
 11337              	.LASF181:
 11338 3988 5F5F4445 		.ascii	"__DEC128_EPSILON__ 1E-33DL\000"
 11338      43313238 
 11338      5F455053 
 11338      494C4F4E 
 11338      5F5F2031 
 11339              	.LASF1185:
 11340 39a3 43686970 		.ascii	"Chip_I2C_MasterStateHandler\000"
 11340      5F493243 
 11340      5F4D6173 
 11340      74657253 
 11340      74617465 
 11341              	.LASF85:
 11342 39bf 5F5F494E 		.ascii	"__INT32_MAX__ 2147483647L\000"
 11342      5433325F 
 11342      4D41585F 
 11342      5F203231 
 11342      34373438 
 11343              	.LASF979:
 11344 39d9 4F445F53 		.ascii	"OD_SEG_WO 0x50\000"
 11344      45475F57 
 11344      4F203078 
 11344      353000
 11345              	.LASF637:
 11346 39e8 494F434F 		.ascii	"IOCON_FUNC5 0x5\000"
 11346      4E5F4655 
 11346      4E433520 
 11346      30783500 
 11347              	.LASF305:
 11348 39f8 5F5F4743 		.ascii	"__GCC_ATOMIC_CHAR16_T_LOCK_FREE 1\000"
ARM GAS  /var/folders/f9/8bk2lnw15zn4cbgn6wrnb4lm0000gn/T//cc47W8rL.s 			page 255


 11348      435F4154 
 11348      4F4D4943 
 11348      5F434841 
 11348      5231365F 
 11349              	.LASF1140:
 11350 3a1a 73586665 		.ascii	"sXfer\000"
 11350      7200
 11351              	.LASF9:
 11352 3a20 5F5F4154 		.ascii	"__ATOMIC_RELEASE 3\000"
 11352      4F4D4943 
 11352      5F52454C 
 11352      45415345 
 11352      203300
 11353              	.LASF894:
 11354 3a33 4932435F 		.ascii	"I2C_I2STAT_M_TX_DAT_NACK ((0x30))\000"
 11354      49325354 
 11354      41545F4D 
 11354      5F54585F 
 11354      4441545F 
 11355              	.LASF120:
 11356 3a55 5F5F464C 		.ascii	"__FLT_MANT_DIG__ 24\000"
 11356      545F4D41 
 11356      4E545F44 
 11356      49475F5F 
 11356      20323400 
 11357              	.LASF1124:
 11358 3a69 43484950 		.ascii	"CHIP_SYSCTL_CLOCK\000"
 11358      5F535953 
 11358      43544C5F 
 11358      434C4F43 
 11358      4B00
 11359              	.LASF1052:
 11360 3a7b 4952514C 		.ascii	"IRQLATENCY\000"
 11360      4154454E 
 11360      435900
 11361              	.LASF57:
 11362 3a86 5F5F494E 		.ascii	"__INT_FAST32_TYPE__ int\000"
 11362      545F4641 
 11362      53543332 
 11362      5F545950 
 11362      455F5F20 
 11363              	.LASF1087:
 11364 3a9e 53595343 		.ascii	"SYSCTL_CLOCK_IOCON\000"
 11364      544C5F43 
 11364      4C4F434B 
 11364      5F494F43 
 11364      4F4E00
 11365              	.LASF887:
 11366 3ab1 4932435F 		.ascii	"I2C_I2STAT_NO_INF ((0xF8))\000"
 11366      49325354 
 11366      41545F4E 
 11366      4F5F494E 
 11366      46202828 
 11367              	.LASF849:
 11368 3acc 4144435F 		.ascii	"ADC_CR_CH_SEL(n) ((1UL << (n)))\000"
 11368      43525F43 
 11368      485F5345 
ARM GAS  /var/folders/f9/8bk2lnw15zn4cbgn6wrnb4lm0000gn/T//cc47W8rL.s 			page 256


 11368      4C286E29 
 11368      20282831 
 11369              	.LASF12:
 11370 3aec 5F5F4F50 		.ascii	"__OPTIMIZE__ 1\000"
 11370      54494D49 
 11370      5A455F5F 
 11370      203100
 11371              	.LASF1118:
 11372 3afb 74784275 		.ascii	"txBuff\000"
 11372      666600
 11373              	.LASF1183:
 11374 3b02 43686970 		.ascii	"Chip_I2C_MasterRead\000"
 11374      5F493243 
 11374      5F4D6173 
 11374      74657252 
 11374      65616400 
 11375              	.LASF597:
 11376 3b16 4C50435F 		.ascii	"LPC_ROM_API (*((LPC_ROM_API_T * *) LPC_ROM_API_BASE"
 11376      524F4D5F 
 11376      41504920 
 11376      282A2828 
 11376      4C50435F 
 11377 3b49 5F4C4F43 		.ascii	"_LOC))\000"
 11377      292900
 11378              	.LASF456:
 11379 3b50 5F5F5359 		.ascii	"__SYS_CONFIG_H_ \000"
 11379      535F434F 
 11379      4E464947 
 11379      5F485F20 
 11379      00
 11380              	.LASF475:
 11381 3b61 5F5F4920 		.ascii	"__I volatile const\000"
 11381      766F6C61 
 11381      74696C65 
 11381      20636F6E 
 11381      737400
 11382              	.LASF810:
 11383 3b74 57574454 		.ascii	"WWDT_WDMOD_WDTOF ((uint32_t) (1 << 2))\000"
 11383      5F57444D 
 11383      4F445F57 
 11383      44544F46 
 11383      20282875 
 11384              	.LASF859:
 11385 3b9b 4144435F 		.ascii	"ADC_CR_START_ADCTRIG1 ((5UL << 24))\000"
 11385      43525F53 
 11385      54415254 
 11385      5F414443 
 11385      54524947 
 11386              	.LASF158:
 11387 3bbf 5F5F4C44 		.ascii	"__LDBL_DENORM_MIN__ 4.9406564584124654e-324L\000"
 11387      424C5F44 
 11387      454E4F52 
 11387      4D5F4D49 
 11387      4E5F5F20 
 11388              	.LASF576:
 11389 3bec 4C50435F 		.ascii	"LPC_GPIO_PORT2_BASE 0x50020000\000"
 11389      4750494F 
ARM GAS  /var/folders/f9/8bk2lnw15zn4cbgn6wrnb4lm0000gn/T//cc47W8rL.s 			page 257


 11389      5F504F52 
 11389      54325F42 
 11389      41534520 
 11390              	.LASF1155:
 11391 3c0b 64697361 		.ascii	"disableClk\000"
 11391      626C6543 
 11391      6C6B00
 11392              	.LASF363:
 11393 3c16 5F5F696E 		.ascii	"__int16_t_defined 1\000"
 11393      7431365F 
 11393      745F6465 
 11393      66696E65 
 11393      64203100 
 11394              	.LASF219:
 11395 3c2a 5F5F554C 		.ascii	"__ULLFRACT_IBIT__ 0\000"
 11395      4C465241 
 11395      43545F49 
 11395      4249545F 
 11395      5F203000 
 11396              	.LASF1072:
 11397 3c3e 53595343 		.ascii	"SYSCTL_CLOCK_ROM\000"
 11397      544C5F43 
 11397      4C4F434B 
 11397      5F524F4D 
 11397      00
 11398              	.LASF496:
 11399 3c4f 5343425F 		.ascii	"SCB_ICSR_PENDSTCLR_Pos 25\000"
 11399      49435352 
 11399      5F50454E 
 11399      44535443 
 11399      4C525F50 
 11400              	.LASF760:
 11401 3c69 55415254 		.ascii	"UART1_LSR_BITMASK (0x1FF)\000"
 11401      315F4C53 
 11401      525F4249 
 11401      544D4153 
 11401      4B202830 
 11402              	.LASF726:
 11403 3c83 55415254 		.ascii	"UART_FCR_TRG_LEV3 (3 << 6)\000"
 11403      5F464352 
 11403      5F545247 
 11403      5F4C4556 
 11403      33202833 
 11404              	.LASF776:
 11405 3c9e 55415254 		.ascii	"UART_RS485CTRL_NMM_EN (1 << 0)\000"
 11405      5F525334 
 11405      38354354 
 11405      524C5F4E 
 11405      4D4D5F45 
 11406              	.LASF593:
 11407 3cbd 4C50435F 		.ascii	"LPC_SSP1 ((LPC_SSP_T *) LPC_SSP1_BASE)\000"
 11407      53535031 
 11407      2028284C 
 11407      50435F53 
 11407      53505F54 
 11408              	.LASF788:
 11409 3ce4 55415254 		.ascii	"UART_HDEN_HDEN ((1 << 0))\000"
ARM GAS  /var/folders/f9/8bk2lnw15zn4cbgn6wrnb4lm0000gn/T//cc47W8rL.s 			page 258


 11409      5F484445 
 11409      4E5F4844 
 11409      454E2028 
 11409      2831203C 
 11410              	.LASF486:
 11411 3cfe 5343425F 		.ascii	"SCB_CPUID_REVISION_Pos 0\000"
 11411      43505549 
 11411      445F5245 
 11411      56495349 
 11411      4F4E5F50 
 11412              	.LASF470:
 11413 3d17 5F5F5354 		.ascii	"__STATIC_INLINE static inline\000"
 11413      41544943 
 11413      5F494E4C 
 11413      494E4520 
 11413      73746174 
 11414              	.LASF566:
 11415 3d35 4C50435F 		.ascii	"LPC_PMU_BASE 0x40038000\000"
 11415      504D555F 
 11415      42415345 
 11415      20307834 
 11415      30303338 
 11416              	.LASF368:
 11417 3d4d 5F5F696E 		.ascii	"__int_least64_t_defined 1\000"
 11417      745F6C65 
 11417      61737436 
 11417      345F745F 
 11417      64656669 
 11418              	.LASF941:
 11419 3d67 4932435F 		.ascii	"I2C_CheckError(ErrorCode) (ErrorCode & 0x10000000)\000"
 11419      43686563 
 11419      6B457272 
 11419      6F722845 
 11419      72726F72 
 11420              	.LASF127:
 11421 3d9a 5F5F464C 		.ascii	"__FLT_MAX__ 3.4028234663852886e+38F\000"
 11421      545F4D41 
 11421      585F5F20 
 11421      332E3430 
 11421      32383233 
 11422              	.LASF389:
 11423 3dbe 494E5433 		.ascii	"INT32_MAX __INT32_MAX__\000"
 11423      325F4D41 
 11423      58205F5F 
 11423      494E5433 
 11423      325F4D41 
 11424              	.LASF238:
 11425 3dd6 5F5F5541 		.ascii	"__UACCUM_FBIT__ 16\000"
 11425      4343554D 
 11425      5F464249 
 11425      545F5F20 
 11425      313600
 11426              	.LASF985:
 11427 3de9 43414E5F 		.ascii	"CAN_SDOSEG_OPEN 1\000"
 11427      53444F53 
 11427      45475F4F 
 11427      50454E20 
ARM GAS  /var/folders/f9/8bk2lnw15zn4cbgn6wrnb4lm0000gn/T//cc47W8rL.s 			page 259


 11427      3100
 11428              	.LASF202:
 11429 3dfb 5F5F5546 		.ascii	"__UFRACT_EPSILON__ 0x1P-16UR\000"
 11429      52414354 
 11429      5F455053 
 11429      494C4F4E 
 11429      5F5F2030 
 11430              	.LASF72:
 11431 3e18 5F5F5743 		.ascii	"__WCHAR_MIN__ 0U\000"
 11431      4841525F 
 11431      4D494E5F 
 11431      5F203055 
 11431      00
 11432              	.LASF89:
 11433 3e29 5F5F5549 		.ascii	"__UINT32_MAX__ 4294967295UL\000"
 11433      4E543332 
 11433      5F4D4158 
 11433      5F5F2034 
 11433      32393439 
 11434              	.LASF274:
 11435 3e45 5F5F5551 		.ascii	"__UQQ_IBIT__ 0\000"
 11435      515F4942 
 11435      49545F5F 
 11435      203000
 11436              	.LASF310:
 11437 3e54 5F5F4743 		.ascii	"__GCC_ATOMIC_LONG_LOCK_FREE 1\000"
 11437      435F4154 
 11437      4F4D4943 
 11437      5F4C4F4E 
 11437      475F4C4F 
 11438              	.LASF250:
 11439 3e72 5F5F554C 		.ascii	"__ULACCUM_MIN__ 0.0ULK\000"
 11439      41434355 
 11439      4D5F4D49 
 11439      4E5F5F20 
 11439      302E3055 
 11440              	.LASF997:
 11441 3e89 5F5F7569 		.ascii	"__uint32_t\000"
 11441      6E743332 
 11441      5F7400
 11442              	.LASF155:
 11443 3e94 5F5F4C44 		.ascii	"__LDBL_MAX__ 1.7976931348623157e+308L\000"
 11443      424C5F4D 
 11443      41585F5F 
 11443      20312E37 
 11443      39373639 
 11444              	.LASF119:
 11445 3eba 5F5F464C 		.ascii	"__FLT_RADIX__ 2\000"
 11445      545F5241 
 11445      4449585F 
 11445      5F203200 
 11446              	.LASF999:
 11447 3eca 6C6F6E67 		.ascii	"long long int\000"
 11447      206C6F6E 
 11447      6720696E 
 11447      7400
 11448              	.LASF839:
ARM GAS  /var/folders/f9/8bk2lnw15zn4cbgn6wrnb4lm0000gn/T//cc47W8rL.s 			page 260


 11449 3ed8 5353505F 		.ascii	"SSP_MASTER_MODE SSP_CR1_MASTER_EN\000"
 11449      4D415354 
 11449      45525F4D 
 11449      4F444520 
 11449      5353505F 
 11450              	.LASF671:
 11451 3efa 46554E43 		.ascii	"FUNC4 0x4\000"
 11451      34203078 
 11451      3400
 11452              	.LASF743:
 11453 3f04 55415254 		.ascii	"UART_LCR_BITMASK (0xFF)\000"
 11453      5F4C4352 
 11453      5F424954 
 11453      4D41534B 
 11453      20283078 
 11454              	.LASF1179:
 11455 3f1c 43686970 		.ascii	"Chip_I2C_MasterTransfer\000"
 11455      5F493243 
 11455      5F4D6173 
 11455      74657254 
 11455      72616E73 
 11456              	.LASF734:
 11457 3f34 55415254 		.ascii	"UART_LCR_SBS_2BIT (1 << 2)\000"
 11457      5F4C4352 
 11457      5F534253 
 11457      5F324249 
 11457      54202831 
 11458              	.LASF690:
 11459 3f4f 52425F56 		.ascii	"RB_VTAIL(rb) (*(volatile uint32_t *) &(rb)->tail)\000"
 11459      5441494C 
 11459      28726229 
 11459      20282A28 
 11459      766F6C61 
 11460              	.LASF932:
 11461 3f81 4932435F 		.ascii	"I2C_SETUP_STATUS_DONE (1 << 10)\000"
 11461      53455455 
 11461      505F5354 
 11461      41545553 
 11461      5F444F4E 
 11462              	.LASF618:
 11463 3fa1 53595343 		.ascii	"SYSCTL_SLPWAKE_SYSOSC_PD (1 << 5)\000"
 11463      544C5F53 
 11463      4C505741 
 11463      4B455F53 
 11463      59534F53 
 11464              	.LASF947:
 11465 3fc3 43414E5F 		.ascii	"CAN_ERROR_WARN 0x00000002UL\000"
 11465      4552524F 
 11465      525F5741 
 11465      524E2030 
 11465      78303030 
 11466              	.LASF847:
 11467 3fdf 4144435F 		.ascii	"ADC_DR_DONE(n) (((n) >> 31))\000"
 11467      44525F44 
 11467      4F4E4528 
 11467      6E292028 
 11467      28286E29 
ARM GAS  /var/folders/f9/8bk2lnw15zn4cbgn6wrnb4lm0000gn/T//cc47W8rL.s 			page 261


 11468              	.LASF848:
 11469 3ffc 4144435F 		.ascii	"ADC_DR_OVERRUN(n) ((((n) >> 30) & (1UL)))\000"
 11469      44525F4F 
 11469      56455252 
 11469      554E286E 
 11469      29202828 
 11470              	.LASF284:
 11471 4026 5F5F4841 		.ascii	"__HA_IBIT__ 8\000"
 11471      5F494249 
 11471      545F5F20 
 11471      3800
 11472              	.LASF301:
 11473 4034 5F5F474E 		.ascii	"__GNUC_GNU_INLINE__ 1\000"
 11473      55435F47 
 11473      4E555F49 
 11473      4E4C494E 
 11473      455F5F20 
 11474              	.LASF1176:
 11475 404a 43686970 		.ascii	"Chip_I2C_GetClockRate\000"
 11475      5F493243 
 11475      5F476574 
 11475      436C6F63 
 11475      6B526174 
 11476              	.LASF553:
 11477 4060 5F424954 		.ascii	"_BIT_SHIFT(IRQn) ( (((uint32_t)(IRQn) ) & 0x03) * 8"
 11477      5F534849 
 11477      46542849 
 11477      52516E29 
 11477      20282028 
 11478 4093 202900   		.ascii	" )\000"
 11479              	.LASF412:
 11480 4096 494E544D 		.ascii	"INTMAX_MAX __INTMAX_MAX__\000"
 11480      41585F4D 
 11480      4158205F 
 11480      5F494E54 
 11480      4D41585F 
 11481              	.LASF1199:
 11482 40b0 43686970 		.ascii	"Chip_Clock_GetMainClockRate\000"
 11482      5F436C6F 
 11482      636B5F47 
 11482      65744D61 
 11482      696E436C 
 11483              	.LASF764:
 11484 40cc 55415254 		.ascii	"UART_MSR_DELTA_DCD (1 << 3)\000"
 11484      5F4D5352 
 11484      5F44454C 
 11484      54415F44 
 11484      43442028 
 11485              	.LASF789:
 11486 40e8 55415254 		.ascii	"UART_SCICTRL_SCIEN (1 << 0)\000"
 11486      5F534349 
 11486      4354524C 
 11486      5F534349 
 11486      454E2028 
 11487              	.LASF929:
 11488 4104 4932435F 		.ascii	"I2C_I2SCLL_BITMASK ((0xFFFF))\000"
 11488      49325343 
ARM GAS  /var/folders/f9/8bk2lnw15zn4cbgn6wrnb4lm0000gn/T//cc47W8rL.s 			page 262


 11488      4C4C5F42 
 11488      49544D41 
 11488      534B2028 
 11489              	.LASF1018:
 11490 4122 53595352 		.ascii	"SYSRSTSTAT\000"
 11490      53545354 
 11490      415400
 11491              	.LASF78:
 11492 412d 5F5F494E 		.ascii	"__INTMAX_C(c) c ## LL\000"
 11492      544D4158 
 11492      5F432863 
 11492      29206320 
 11492      2323204C 
 11493              	.LASF812:
 11494 4143 57574454 		.ascii	"WWDT_WDMOD_WDPROTECT ((uint32_t) (1 << 4))\000"
 11494      5F57444D 
 11494      4F445F57 
 11494      4450524F 
 11494      54454354 
 11495              	.LASF739:
 11496 416e 55415254 		.ascii	"UART_LCR_PARITY_F_1 (2 << 4)\000"
 11496      5F4C4352 
 11496      5F504152 
 11496      4954595F 
 11496      465F3120 
 11497              	.LASF42:
 11498 418b 5F5F494E 		.ascii	"__INT64_TYPE__ long long int\000"
 11498      5436345F 
 11498      54595045 
 11498      5F5F206C 
 11498      6F6E6720 
 11499              	.LASF203:
 11500 41a8 5F5F4C46 		.ascii	"__LFRACT_FBIT__ 31\000"
 11500      52414354 
 11500      5F464249 
 11500      545F5F20 
 11500      333100
 11501              	.LASF22:
 11502 41bb 5F5F4348 		.ascii	"__CHAR_BIT__ 8\000"
 11502      41525F42 
 11502      49545F5F 
 11502      203800
 11503              	.LASF316:
 11504 41ca 5F5F5349 		.ascii	"__SIZEOF_WCHAR_T__ 4\000"
 11504      5A454F46 
 11504      5F574348 
 11504      41525F54 
 11504      5F5F2034 
 11505              	.LASF567:
 11506 41df 4C50435F 		.ascii	"LPC_FLASH_BASE 0x4003C000\000"
 11506      464C4153 
 11506      485F4241 
 11506      53452030 
 11506      78343030 
 11507              	.LASF385:
 11508 41f9 494E545F 		.ascii	"INT_LEAST16_MIN (-__INT_LEAST16_MAX__ - 1)\000"
 11508      4C454153 
ARM GAS  /var/folders/f9/8bk2lnw15zn4cbgn6wrnb4lm0000gn/T//cc47W8rL.s 			page 263


 11508      5431365F 
 11508      4D494E20 
 11508      282D5F5F 
 11509              	.LASF1153:
 11510 4224 6D61736B 		.ascii	"mask\000"
 11510      00
 11511              	.LASF771:
 11512 4229 55415254 		.ascii	"UART_ACR_MODE (1 << 1)\000"
 11512      5F414352 
 11512      5F4D4F44 
 11512      45202831 
 11512      203C3C20 
 11513              	.LASF1129:
 11514 4240 4932435F 		.ascii	"I2C_EVENT_WAIT\000"
 11514      4556454E 
 11514      545F5741 
 11514      495400
 11515              	.LASF1130:
 11516 424f 4932435F 		.ascii	"I2C_EVENT_DONE\000"
 11516      4556454E 
 11516      545F444F 
 11516      4E4500
 11517              	.LASF1196:
 11518 425e 67657443 		.ascii	"getClkRate\000"
 11518      6C6B5261 
 11518      746500
 11519              	.LASF856:
 11520 4269 4144435F 		.ascii	"ADC_CR_START_CTOUT15 ((2UL << 24))\000"
 11520      43525F53 
 11520      54415254 
 11520      5F43544F 
 11520      55543135 
 11521              	.LASF201:
 11522 428c 5F5F5546 		.ascii	"__UFRACT_MAX__ 0XFFFFP-16UR\000"
 11522      52414354 
 11522      5F4D4158 
 11522      5F5F2030 
 11522      58464646 
 11523              	.LASF356:
 11524 42a8 5F5F5F69 		.ascii	"___int_least64_t_defined 1\000"
 11524      6E745F6C 
 11524      65617374 
 11524      36345F74 
 11524      5F646566 
 11525              	.LASF922:
 11526 42c3 4932435F 		.ascii	"I2C_I2MMCTRL_MATCH_ALL ((1 << 2))\000"
 11526      49324D4D 
 11526      4354524C 
 11526      5F4D4154 
 11526      43485F41 
 11527              	.LASF685:
 11528 42e5 54494D45 		.ascii	"TIMER_CAP_FALLING(n) (_BIT((((n) * 3) + 1)))\000"
 11528      525F4341 
 11528      505F4641 
 11528      4C4C494E 
 11528      47286E29 
 11529              	.LASF1116:
ARM GAS  /var/folders/f9/8bk2lnw15zn4cbgn6wrnb4lm0000gn/T//cc47W8rL.s 			page 264


 11530 4312 4932435F 		.ascii	"I2C_STATUS_T\000"
 11530      53544154 
 11530      55535F54 
 11530      00
 11531              	.LASF1143:
 11532 431f 6932635F 		.ascii	"i2c_slave_interface\000"
 11532      736C6176 
 11532      655F696E 
 11532      74657266 
 11532      61636500 
 11533              	.LASF478:
 11534 4333 5343425F 		.ascii	"SCB_CPUID_IMPLEMENTER_Pos 24\000"
 11534      43505549 
 11534      445F494D 
 11534      504C454D 
 11534      454E5445 
 11535              	.LASF984:
 11536 4350 43414E5F 		.ascii	"CAN_SDOSEG_SEGMENT 0\000"
 11536      53444F53 
 11536      45475F53 
 11536      45474D45 
 11536      4E542030 
 11537              	.LASF358:
 11538 4365 5F5F5354 		.ascii	"__STDINT_EXP(x) __ ##x ##__\000"
 11538      44494E54 
 11538      5F455850 
 11538      28782920 
 11538      5F5F2023 
 11539              	.LASF348:
 11540 4381 5F5F4558 		.ascii	"__EXP(x) __ ##x ##__\000"
 11540      50287829 
 11540      205F5F20 
 11540      23237820 
 11540      23235F5F 
 11541              	.LASF27:
 11542 4396 5F5F4259 		.ascii	"__BYTE_ORDER__ __ORDER_LITTLE_ENDIAN__\000"
 11542      54455F4F 
 11542      52444552 
 11542      5F5F205F 
 11542      5F4F5244 
 11543              	.LASF1181:
 11544 43bd 62756666 		.ascii	"buff\000"
 11544      00
 11545              	.LASF411:
 11546 43c2 55494E54 		.ascii	"UINT_FAST64_MAX __UINT_FAST64_MAX__\000"
 11546      5F464153 
 11546      5436345F 
 11546      4D415820 
 11546      5F5F5549 
 11547              	.LASF761:
 11548 43e6 55415254 		.ascii	"UART_MSR_DELTA_CTS (1 << 0)\000"
 11548      5F4D5352 
 11548      5F44454C 
 11548      54415F43 
 11548      54532028 
 11549              	.LASF665:
 11550 4402 4D445F46 		.ascii	"MD_FASTI2C (0x2 << 8)\000"
ARM GAS  /var/folders/f9/8bk2lnw15zn4cbgn6wrnb4lm0000gn/T//cc47W8rL.s 			page 265


 11550      41535449 
 11550      32432028 
 11550      30783220 
 11550      3C3C2038 
 11551              	.LASF684:
 11552 4418 54494D45 		.ascii	"TIMER_CAP_RISING(n) (_BIT(((n) * 3)))\000"
 11552      525F4341 
 11552      505F5249 
 11552      53494E47 
 11552      286E2920 
 11553              	.LASF954:
 11554 443e 43414E5F 		.ascii	"CAN_ERROR_CRC 0x00000100UL\000"
 11554      4552524F 
 11554      525F4352 
 11554      43203078 
 11554      30303030 
 11555              	.LASF756:
 11556 4459 55415254 		.ascii	"UART_LSR_TEMT (1 << 6)\000"
 11556      5F4C5352 
 11556      5F54454D 
 11556      54202831 
 11556      203C3C20 
 11557              	.LASF624:
 11558 4470 53595343 		.ascii	"SYSCTL_POWERDOWN_BOD_PD (1 << 3)\000"
 11558      544C5F50 
 11558      4F574552 
 11558      444F574E 
 11558      5F424F44 
 11559              	.LASF1145:
 11560 4491 6576656E 		.ascii	"event\000"
 11560      7400
 11561              	.LASF33:
 11562 4497 5F5F5749 		.ascii	"__WINT_TYPE__ unsigned int\000"
 11562      4E545F54 
 11562      5950455F 
 11562      5F20756E 
 11562      7369676E 
 11563              	.LASF1161:
 11564 44b2 61646472 		.ascii	"addr\000"
 11564      00
 11565              	.LASF279:
 11566 44b7 5F5F5544 		.ascii	"__UDQ_FBIT__ 64\000"
 11566      515F4642 
 11566      49545F5F 
 11566      20363400 
 11567              	.LASF555:
 11568 44c7 5F49505F 		.ascii	"_IP_IDX(IRQn) ( ((uint32_t)(IRQn) >> 2) )\000"
 11568      49445828 
 11568      4952516E 
 11568      29202820 
 11568      28287569 
 11569              	.LASF370:
 11570 44f1 5F5F696E 		.ascii	"__int_fast16_t_defined 1\000"
 11570      745F6661 
 11570      73743136 
 11570      5F745F64 
 11570      6566696E 
ARM GAS  /var/folders/f9/8bk2lnw15zn4cbgn6wrnb4lm0000gn/T//cc47W8rL.s 			page 266


 11571              	.LASF698:
 11572 450a 55415254 		.ascii	"UART_IER_RLSINT (1 << 2)\000"
 11572      5F494552 
 11572      5F524C53 
 11572      494E5420 
 11572      2831203C 
 11573              	.LASF153:
 11574 4523 5F5F4C44 		.ascii	"__LDBL_MAX_10_EXP__ 308\000"
 11574      424C5F4D 
 11574      41585F31 
 11574      305F4558 
 11574      505F5F20 
 11575              	.LASF552:
 11576 453b 4E564943 		.ascii	"NVIC ((NVIC_Type *) NVIC_BASE )\000"
 11576      2028284E 
 11576      5649435F 
 11576      54797065 
 11576      202A2920 
 11577              	.LASF973:
 11578 455b 53444F5F 		.ascii	"SDO_ABORT_DEVSTAT 0x08000022UL\000"
 11578      41424F52 
 11578      545F4445 
 11578      56535441 
 11578      54203078 
 11579              	.LASF713:
 11580 457a 55415254 		.ascii	"UART_IIR_INTID_RDA (2 << 1)\000"
 11580      5F494952 
 11580      5F494E54 
 11580      49445F52 
 11580      44412028 
 11581              	.LASF627:
 11582 4596 53595343 		.ascii	"SYSCTL_POWERDOWN_WDTOSC_PD (1 << 6)\000"
 11582      544C5F50 
 11582      4F574552 
 11582      444F574E 
 11582      5F574454 
 11583              	.LASF160:
 11584 45ba 5F5F4C44 		.ascii	"__LDBL_HAS_INFINITY__ 1\000"
 11584      424C5F48 
 11584      41535F49 
 11584      4E46494E 
 11584      4954595F 
 11585              	.LASF410:
 11586 45d2 494E545F 		.ascii	"INT_FAST64_MAX __INT_FAST64_MAX__\000"
 11586      46415354 
 11586      36345F4D 
 11586      4158205F 
 11586      5F494E54 
 11587              	.LASF1001:
 11588 45f4 756E7369 		.ascii	"unsigned int\000"
 11588      676E6564 
 11588      20696E74 
 11588      00
 11589              	.LASF196:
 11590 4601 5F5F4652 		.ascii	"__FRACT_MAX__ 0X7FFFP-15R\000"
 11590      4143545F 
 11590      4D41585F 
ARM GAS  /var/folders/f9/8bk2lnw15zn4cbgn6wrnb4lm0000gn/T//cc47W8rL.s 			page 267


 11590      5F203058 
 11590      37464646 
 11591              	.LASF1021:
 11592 461b 53595350 		.ascii	"SYSPLLCLKUEN\000"
 11592      4C4C434C 
 11592      4B55454E 
 11592      00
 11593              	.LASF122:
 11594 4628 5F5F464C 		.ascii	"__FLT_MIN_EXP__ (-125)\000"
 11594      545F4D49 
 11594      4E5F4558 
 11594      505F5F20 
 11594      282D3132 
 11595              	.LASF118:
 11596 463f 5F5F4445 		.ascii	"__DEC_EVAL_METHOD__ 2\000"
 11596      435F4556 
 11596      414C5F4D 
 11596      4554484F 
 11596      445F5F20 
 11597              	.LASF429:
 11598 4655 55494E54 		.ascii	"UINT32_C(x) __UINT32_C(x)\000"
 11598      33325F43 
 11598      28782920 
 11598      5F5F5549 
 11598      4E543332 
 11599              	.LASF481:
 11600 466f 5343425F 		.ascii	"SCB_CPUID_VARIANT_Msk (0xFUL << SCB_CPUID_VARIANT_P"
 11600      43505549 
 11600      445F5641 
 11600      5249414E 
 11600      545F4D73 
 11601 46a2 6F732900 		.ascii	"os)\000"
 11602              	.LASF989:
 11603 46a6 4C50435F 		.ascii	"LPC_I2Cx(id) ((i2c[id].ip))\000"
 11603      49324378 
 11603      28696429 
 11603      20282869 
 11603      32635B69 
 11604              	.LASF660:
 11605 46c2 4D445F44 		.ascii	"MD_DIGMODE (0x1 << 7)\000"
 11605      49474D4F 
 11605      44452028 
 11605      30783120 
 11605      3C3C2037 
 11606              	.LASF229:
 11607 46d8 5F5F5553 		.ascii	"__USACCUM_IBIT__ 8\000"
 11607      41434355 
 11607      4D5F4942 
 11607      49545F5F 
 11607      203800
 11608              	.LASF980:
 11609 46eb 4F445F53 		.ascii	"OD_SEG_RW 0x60\000"
 11609      45475F52 
 11609      57203078 
 11609      363000
 11610              	.LASF400:
 11611 46fa 494E545F 		.ascii	"INT_FAST8_MIN (-__INT_FAST8_MAX__ - 1)\000"
ARM GAS  /var/folders/f9/8bk2lnw15zn4cbgn6wrnb4lm0000gn/T//cc47W8rL.s 			page 268


 11611      46415354 
 11611      385F4D49 
 11611      4E20282D 
 11611      5F5F494E 
 11612              	.LASF5:
 11613 4721 5F5F5645 		.ascii	"__VERSION__ \"4.8.4 20140725 (release) [ARM/embedde"
 11613      5253494F 
 11613      4E5F5F20 
 11613      22342E38 
 11613      2E342032 
 11614 4753 642D345F 		.ascii	"d-4_8-branch revision 213147]\"\000"
 11614      382D6272 
 11614      616E6368 
 11614      20726576 
 11614      6973696F 
 11615              	.LASF116:
 11616 4772 5F5F5549 		.ascii	"__UINTPTR_MAX__ 4294967295U\000"
 11616      4E545054 
 11616      525F4D41 
 11616      585F5F20 
 11616      34323934 
 11617              	.LASF663:
 11618 478e 4D445F53 		.ascii	"MD_SFI2C (0x0 << 8)\000"
 11618      46493243 
 11618      20283078 
 11618      30203C3C 
 11618      20382900 
 11619              	.LASF121:
 11620 47a2 5F5F464C 		.ascii	"__FLT_DIG__ 6\000"
 11620      545F4449 
 11620      475F5F20 
 11620      3600
 11621              	.LASF35:
 11622 47b0 5F5F5549 		.ascii	"__UINTMAX_TYPE__ long long unsigned int\000"
 11622      4E544D41 
 11622      585F5459 
 11622      50455F5F 
 11622      206C6F6E 
 11623              	.LASF117:
 11624 47d8 5F5F464C 		.ascii	"__FLT_EVAL_METHOD__ 0\000"
 11624      545F4556 
 11624      414C5F4D 
 11624      4554484F 
 11624      445F5F20 
 11625              	.LASF803:
 11626 47ee 55415254 		.ascii	"UART_SYNCCTRL_CSCEN (1 << 4)\000"
 11626      5F53594E 
 11626      43435452 
 11626      4C5F4353 
 11626      43454E20 
 11627              	.LASF750:
 11628 480b 55415254 		.ascii	"UART_LSR_RDR (1 << 0)\000"
 11628      5F4C5352 
 11628      5F524452 
 11628      20283120 
 11628      3C3C2030 
 11629              	.LASF773:
ARM GAS  /var/folders/f9/8bk2lnw15zn4cbgn6wrnb4lm0000gn/T//cc47W8rL.s 			page 269


 11630 4821 55415254 		.ascii	"UART_ACR_ABEOINT_CLR (1 << 8)\000"
 11630      5F414352 
 11630      5F414245 
 11630      4F494E54 
 11630      5F434C52 
 11631              	.LASF115:
 11632 483f 5F5F494E 		.ascii	"__INTPTR_MAX__ 2147483647\000"
 11632      54505452 
 11632      5F4D4158 
 11632      5F5F2032 
 11632      31343734 
 11633              	.LASF1187:
 11634 4859 43686970 		.ascii	"Chip_I2C_SlaveSetup\000"
 11634      5F493243 
 11634      5F536C61 
 11634      76655365 
 11634      74757000 
 11635              	.LASF846:
 11636 486d 4144435F 		.ascii	"ADC_CR_BITACC(n) ((((n) & 0x7) << 17))\000"
 11636      43525F42 
 11636      49544143 
 11636      43286E29 
 11636      20282828 
 11637              	.LASF273:
 11638 4894 5F5F5551 		.ascii	"__UQQ_FBIT__ 8\000"
 11638      515F4642 
 11638      49545F5F 
 11638      203800
 11639              	.LASF782:
 11640 48a3 55415254 		.ascii	"UART_RS485CTRL_BITMASK (0x3F)\000"
 11640      5F525334 
 11640      38354354 
 11640      524C5F42 
 11640      49544D41 
 11641              	.LASF539:
 11642 48c1 53797354 		.ascii	"SysTick_VAL_CURRENT_Msk (0xFFFFFFUL << SysTick_VAL_"
 11642      69636B5F 
 11642      56414C5F 
 11642      43555252 
 11642      454E545F 
 11643 48f4 43555252 		.ascii	"CURRENT_Pos)\000"
 11643      454E545F 
 11643      506F7329 
 11643      00
 11644              	.LASF170:
 11645 4901 5F5F4445 		.ascii	"__DEC64_MIN_EXP__ (-382)\000"
 11645      4336345F 
 11645      4D494E5F 
 11645      4558505F 
 11645      5F20282D 
 11646              	.LASF1027:
 11647 491a 53595341 		.ascii	"SYSAHBCLKDIV\000"
 11647      4842434C 
 11647      4B444956 
 11647      00
 11648              	.LASF889:
 11649 4927 4932435F 		.ascii	"I2C_I2STAT_M_TX_START ((0x08))\000"
ARM GAS  /var/folders/f9/8bk2lnw15zn4cbgn6wrnb4lm0000gn/T//cc47W8rL.s 			page 270


 11649      49325354 
 11649      41545F4D 
 11649      5F54585F 
 11649      53544152 
 11650              	.LASF697:
 11651 4946 55415254 		.ascii	"UART_IER_THREINT (1 << 1)\000"
 11651      5F494552 
 11651      5F544852 
 11651      45494E54 
 11651      20283120 
 11652              	.LASF386:
 11653 4960 494E545F 		.ascii	"INT_LEAST16_MAX __INT_LEAST16_MAX__\000"
 11653      4C454153 
 11653      5431365F 
 11653      4D415820 
 11653      5F5F494E 
 11654              	.LASF206:
 11655 4984 5F5F4C46 		.ascii	"__LFRACT_MAX__ 0X7FFFFFFFP-31LR\000"
 11655      52414354 
 11655      5F4D4158 
 11655      5F5F2030 
 11655      58374646 
 11656              	.LASF1127:
 11657 49a4 4932435F 		.ascii	"I2C_NUM_INTERFACE\000"
 11657      4E554D5F 
 11657      494E5445 
 11657      52464143 
 11657      4500
 11658              	.LASF454:
 11659 49b6 4D494E28 		.ascii	"MIN(a,b) (((a) < (b)) ? (a) : (b))\000"
 11659      612C6229 
 11659      20282828 
 11659      6129203C 
 11659      20286229 
 11660              	.LASF0:
 11661 49d9 5F5F5354 		.ascii	"__STDC__ 1\000"
 11661      44435F5F 
 11661      203100
 11662              	.LASF1065:
 11663 49e4 5044534C 		.ascii	"PDSLEEPCFG\000"
 11663      45455043 
 11663      464700
 11664              	.LASF353:
 11665 49ef 5F5F5F69 		.ascii	"___int_least8_t_defined 1\000"
 11665      6E745F6C 
 11665      65617374 
 11665      385F745F 
 11665      64656669 
 11666              	.LASF1131:
 11667 4a09 4932435F 		.ascii	"I2C_EVENT_LOCK\000"
 11667      4556454E 
 11667      545F4C4F 
 11667      434B00
 11668              	.LASF413:
 11669 4a18 494E544D 		.ascii	"INTMAX_MIN (-INTMAX_MAX - 1)\000"
 11669      41585F4D 
 11669      494E2028 
ARM GAS  /var/folders/f9/8bk2lnw15zn4cbgn6wrnb4lm0000gn/T//cc47W8rL.s 			page 271


 11669      2D494E54 
 11669      4D41585F 
 11670              	.LASF43:
 11671 4a35 5F5F5549 		.ascii	"__UINT8_TYPE__ unsigned char\000"
 11671      4E54385F 
 11671      54595045 
 11671      5F5F2075 
 11671      6E736967 
 11672              	.LASF880:
 11673 4a52 4932435F 		.ascii	"I2C_CON_AA (1UL << 2)\000"
 11673      434F4E5F 
 11673      41412028 
 11673      31554C20 
 11673      3C3C2032 
 11674              	.LASF814:
 11675 4a68 5353505F 		.ascii	"SSP_CR0_DSS(n) ((uint32_t) ((n) & 0xF))\000"
 11675      4352305F 
 11675      44535328 
 11675      6E292028 
 11675      2875696E 
 11676              	.LASF369:
 11677 4a90 5F5F696E 		.ascii	"__int_fast8_t_defined 1\000"
 11677      745F6661 
 11677      7374385F 
 11677      745F6465 
 11677      66696E65 
 11678              	.LASF1197:
 11679 4aa8 43686970 		.ascii	"Chip_I2C_IsStateChanged\000"
 11679      5F493243 
 11679      5F497353 
 11679      74617465 
 11679      4368616E 
 11680              	.LASF396:
 11681 4ac0 55494E54 		.ascii	"UINT64_MAX __UINT64_MAX__\000"
 11681      36345F4D 
 11681      4158205F 
 11681      5F55494E 
 11681      5436345F 
 11682              	.LASF670:
 11683 4ada 46554E43 		.ascii	"FUNC3 0x3\000"
 11683      33203078 
 11683      3300
 11684              	.LASF828:
 11685 4ae4 5353505F 		.ascii	"SSP_CR1_SO_DISABLE ((uint32_t) (1 << 3))\000"
 11685      4352315F 
 11685      534F5F44 
 11685      49534142 
 11685      4C452028 
 11686              	.LASF628:
 11687 4b0d 53595343 		.ascii	"SYSCTL_POWERDOWN_SYSPLL_PD (1 << 7)\000"
 11687      544C5F50 
 11687      4F574552 
 11687      444F574E 
 11687      5F535953 
 11688              	.LASF1058:
 11689 4b31 53544152 		.ascii	"STARTAPRP0\000"
 11689      54415052 
ARM GAS  /var/folders/f9/8bk2lnw15zn4cbgn6wrnb4lm0000gn/T//cc47W8rL.s 			page 272


 11689      503000
 11690              	.LASF176:
 11691 4b3c 5F5F4445 		.ascii	"__DEC128_MANT_DIG__ 34\000"
 11691      43313238 
 11691      5F4D414E 
 11691      545F4449 
 11691      475F5F20 
 11692              	.LASF81:
 11693 4b53 5F5F5349 		.ascii	"__SIG_ATOMIC_MAX__ 2147483647\000"
 11693      475F4154 
 11693      4F4D4943 
 11693      5F4D4158 
 11693      5F5F2032 
 11694              	.LASF884:
 11695 4b71 4932435F 		.ascii	"I2C_CON_I2EN (1UL << 6)\000"
 11695      434F4E5F 
 11695      4932454E 
 11695      20283155 
 11695      4C203C3C 
 11696              	.LASF437:
 11697 4b89 74727565 		.ascii	"true 1\000"
 11697      203100
 11698              	.LASF636:
 11699 4b90 494F434F 		.ascii	"IOCON_FUNC4 0x4\000"
 11699      4E5F4655 
 11699      4E433420 
 11699      30783400 
 11700              	.LASF293:
 11701 4ba0 5F5F5553 		.ascii	"__USA_FBIT__ 16\000"
 11701      415F4642 
 11701      49545F5F 
 11701      20313600 
 11702              	.LASF680:
 11703 4bb0 54494D45 		.ascii	"TIMER_RESET ((uint32_t) (1 << 1))\000"
 11703      525F5245 
 11703      53455420 
 11703      28287569 
 11703      6E743332 
 11704              	.LASF736:
 11705 4bd2 55415254 		.ascii	"UART_LCR_PARITY_DIS (0 << 3)\000"
 11705      5F4C4352 
 11705      5F504152 
 11705      4954595F 
 11705      44495320 
 11706              	.LASF622:
 11707 4bef 53595343 		.ascii	"SYSCTL_POWERDOWN_IRC_PD (1 << 1)\000"
 11707      544C5F50 
 11707      4F574552 
 11707      444F574E 
 11707      5F495243 
 11708              	.LASF1192:
 11709 4c10 6932635F 		.ascii	"i2c_slave\000"
 11709      736C6176 
 11709      6500
 11710              	.LASF781:
 11711 4c1a 55415254 		.ascii	"UART_RS485CTRL_OINV_1 (1 << 5)\000"
 11711      5F525334 
ARM GAS  /var/folders/f9/8bk2lnw15zn4cbgn6wrnb4lm0000gn/T//cc47W8rL.s 			page 273


 11711      38354354 
 11711      524C5F4F 
 11711      494E565F 
 11712              	.LASF304:
 11713 4c39 5F5F4743 		.ascii	"__GCC_ATOMIC_CHAR_LOCK_FREE 1\000"
 11713      435F4154 
 11713      4F4D4943 
 11713      5F434841 
 11713      525F4C4F 
 11714              	.LASF1023:
 11715 4c57 55534250 		.ascii	"USBPLLCLKUEN\000"
 11715      4C4C434C 
 11715      4B55454E 
 11715      00
 11716              	.LASF598:
 11717 4c64 5F5F504D 		.ascii	"__PMU_11XX_H_ \000"
 11717      555F3131 
 11717      58585F48 
 11717      5F2000
 11718              	.LASF207:
 11719 4c73 5F5F4C46 		.ascii	"__LFRACT_EPSILON__ 0x1P-31LR\000"
 11719      52414354 
 11719      5F455053 
 11719      494C4F4E 
 11719      5F5F2030 
 11720              	.LASF586:
 11721 4c90 4C50435F 		.ascii	"LPC_TIMER32_1 ((LPC_TIMER_T *) LPC_TIMER32_1_BASE)\000"
 11721      54494D45 
 11721      5233325F 
 11721      31202828 
 11721      4C50435F 
 11722              	.LASF417:
 11723 4cc3 5349475F 		.ascii	"SIG_ATOMIC_MAX __STDINT_EXP(INT_MAX)\000"
 11723      41544F4D 
 11723      49435F4D 
 11723      4158205F 
 11723      5F535444 
 11724              	.LASF319:
 11725 4ce8 5F5F4152 		.ascii	"__ARM_SIZEOF_MINIMAL_ENUM 1\000"
 11725      4D5F5349 
 11725      5A454F46 
 11725      5F4D494E 
 11725      494D414C 
 11726              	.LASF1142:
 11727 4d04 6932635F 		.ascii	"i2c_interface\000"
 11727      696E7465 
 11727      72666163 
 11727      6500
 11728              	.LASF1135:
 11729 4d12 4932435F 		.ascii	"I2C_EVENT_T\000"
 11729      4556454E 
 11729      545F5400 
 11730              	.LASF322:
 11731 4d1e 5F5F6172 		.ascii	"__arm__ 1\000"
 11731      6D5F5F20 
 11731      3100
 11732              	.LASF641:
ARM GAS  /var/folders/f9/8bk2lnw15zn4cbgn6wrnb4lm0000gn/T//cc47W8rL.s 			page 274


 11733 4d28 494F434F 		.ascii	"IOCON_MODE_PULLDOWN (0x1 << 3)\000"
 11733      4E5F4D4F 
 11733      44455F50 
 11733      554C4C44 
 11733      4F574E20 
 11734              	.LASF977:
 11735 4d47 4F445F45 		.ascii	"OD_EXP_RW 0x30\000"
 11735      58505F52 
 11735      57203078 
 11735      333000
 11736              	.LASF568:
 11737 4d56 4C50435F 		.ascii	"LPC_SSP0_BASE 0x40040000\000"
 11737      53535030 
 11737      5F424153 
 11737      45203078 
 11737      34303034 
 11738              	.LASF1165:
 11739 4d6f 63636C72 		.ascii	"cclr\000"
 11739      00
 11740              	.LASF913:
 11741 4d74 4932435F 		.ascii	"I2C_I2STAT_S_TX_ARB_LOST_M_SLA ((0xB0))\000"
 11741      49325354 
 11741      41545F53 
 11741      5F54585F 
 11741      4152425F 
 11742              	.LASF906:
 11743 4d9c 4932435F 		.ascii	"I2C_I2STAT_S_RX_ARB_LOST_M_GENCALL ((0x78))\000"
 11743      49325354 
 11743      41545F53 
 11743      5F52585F 
 11743      4152425F 
 11744              	.LASF458:
 11745 4dc8 5F5F434D 		.ascii	"__CMSIS_H_ \000"
 11745      5349535F 
 11745      485F2000 
 11746              	.LASF737:
 11747 4dd4 55415254 		.ascii	"UART_LCR_PARITY_ODD (0 << 4)\000"
 11747      5F4C4352 
 11747      5F504152 
 11747      4954595F 
 11747      4F444420 
 11748              	.LASF382:
 11749 4df1 494E5431 		.ascii	"INT16_MIN (-__INT16_MAX__ - 1)\000"
 11749      365F4D49 
 11749      4E20282D 
 11749      5F5F494E 
 11749      5431365F 
 11750              	.LASF377:
 11751 4e10 494E5438 		.ascii	"INT8_MAX __INT8_MAX__\000"
 11751      5F4D4158 
 11751      205F5F49 
 11751      4E54385F 
 11751      4D41585F 
 11752              	.LASF548:
 11753 4e26 4E564943 		.ascii	"NVIC_BASE (SCS_BASE + 0x0100UL)\000"
 11753      5F424153 
 11753      45202853 
ARM GAS  /var/folders/f9/8bk2lnw15zn4cbgn6wrnb4lm0000gn/T//cc47W8rL.s 			page 275


 11753      43535F42 
 11753      41534520 
 11754              	.LASF886:
 11755 4e46 4932435F 		.ascii	"I2C_STAT_CODE_ERROR ((0xFF))\000"
 11755      53544154 
 11755      5F434F44 
 11755      455F4552 
 11755      524F5220 
 11756              	.LASF802:
 11757 4e63 55415254 		.ascii	"UART_SYNCCTRL_TSBYPASS (1 << 3)\000"
 11757      5F53594E 
 11757      43435452 
 11757      4C5F5453 
 11757      42595041 
 11758              	.LASF162:
 11759 4e83 5F5F4445 		.ascii	"__DEC32_MANT_DIG__ 7\000"
 11759      4333325F 
 11759      4D414E54 
 11759      5F444947 
 11759      5F5F2037 
 11760              	.LASF409:
 11761 4e98 494E545F 		.ascii	"INT_FAST64_MIN (-__INT_FAST64_MAX__ - 1)\000"
 11761      46415354 
 11761      36345F4D 
 11761      494E2028 
 11761      2D5F5F49 
 11762              	.LASF344:
 11763 4ec1 5F4D4143 		.ascii	"_MACHINE__DEFAULT_TYPES_H \000"
 11763      48494E45 
 11763      5F5F4445 
 11763      4641554C 
 11763      545F5459 
 11764              	.LASF23:
 11765 4edc 5F5F4249 		.ascii	"__BIGGEST_ALIGNMENT__ 8\000"
 11765      47474553 
 11765      545F414C 
 11765      49474E4D 
 11765      454E545F 
 11766              	.LASF915:
 11767 4ef4 4932435F 		.ascii	"I2C_I2STAT_S_TX_DAT_NACK ((0xC0))\000"
 11767      49325354 
 11767      41545F53 
 11767      5F54585F 
 11767      4441545F 
 11768              	.LASF230:
 11769 4f16 5F5F5553 		.ascii	"__USACCUM_MIN__ 0.0UHK\000"
 11769      41434355 
 11769      4D5F4D49 
 11769      4E5F5F20 
 11769      302E3055 
 11770              	.LASF516:
 11771 4f2d 5343425F 		.ascii	"SCB_SCR_SEVONPEND_Pos 4\000"
 11771      5343525F 
 11771      5345564F 
 11771      4E50454E 
 11771      445F506F 
 11772              	.LASF644:
ARM GAS  /var/folders/f9/8bk2lnw15zn4cbgn6wrnb4lm0000gn/T//cc47W8rL.s 			page 276


 11773 4f45 494F434F 		.ascii	"IOCON_HYS_EN (0x1 << 5)\000"
 11773      4E5F4859 
 11773      535F454E 
 11773      20283078 
 11773      31203C3C 
 11774              	.LASF290:
 11775 4f5d 5F5F5441 		.ascii	"__TA_IBIT__ 64\000"
 11775      5F494249 
 11775      545F5F20 
 11775      363400
 11776              	.LASF841:
 11777 4f6c 5F5F4C50 		.ascii	"__LPC_ERROR_H__ \000"
 11777      435F4552 
 11777      524F525F 
 11777      485F5F20 
 11777      00
 11778              	.LASF495:
 11779 4f7d 5343425F 		.ascii	"SCB_ICSR_PENDSTSET_Msk (1UL << SCB_ICSR_PENDSTSET_P"
 11779      49435352 
 11779      5F50454E 
 11779      44535453 
 11779      45545F4D 
 11780 4fb0 6F732900 		.ascii	"os)\000"
 11781              	.LASF1026:
 11782 4fb4 4D41494E 		.ascii	"MAINCLKUEN\000"
 11782      434C4B55 
 11782      454E00
 11783              	.LASF942:
 11784 4fbf 4932435F 		.ascii	"I2C_MONITOR_CFG_SCL_OUTPUT I2C_I2MMCTRL_ENA_SCL\000"
 11784      4D4F4E49 
 11784      544F525F 
 11784      4346475F 
 11784      53434C5F 
 11785              	.LASF824:
 11786 4fef 5353505F 		.ascii	"SSP_CR1_LBM_EN ((uint32_t) (1 << 0))\000"
 11786      4352315F 
 11786      4C424D5F 
 11786      454E2028 
 11786      2875696E 
 11787              	.LASF897:
 11788 5014 4932435F 		.ascii	"I2C_I2STAT_M_RX_RESTART ((0x10))\000"
 11788      49325354 
 11788      41545F4D 
 11788      5F52585F 
 11788      52455354 
 11789              	.LASF498:
 11790 5035 5343425F 		.ascii	"SCB_ICSR_ISRPREEMPT_Pos 23\000"
 11790      49435352 
 11790      5F495352 
 11790      50524545 
 11790      4D50545F 
 11791              	.LASF488:
 11792 5050 5343425F 		.ascii	"SCB_ICSR_NMIPENDSET_Pos 31\000"
 11792      49435352 
 11792      5F4E4D49 
 11792      50454E44 
 11792      5345545F 
ARM GAS  /var/folders/f9/8bk2lnw15zn4cbgn6wrnb4lm0000gn/T//cc47W8rL.s 			page 277


 11793              	.LASF972:
 11794 506b 53444F5F 		.ascii	"SDO_ABORT_LOCAL 0x08000021UL\000"
 11794      41424F52 
 11794      545F4C4F 
 11794      43414C20 
 11794      30783038 
 11795              	.LASF688:
 11796 5088 5F5F5249 		.ascii	"__RING_BUFFER_H_ \000"
 11796      4E475F42 
 11796      55464645 
 11796      525F485F 
 11796      2000
 11797              	.LASF326:
 11798 509a 5F5F4152 		.ascii	"__ARM_ARCH_ISA_THUMB 1\000"
 11798      4D5F4152 
 11798      43485F49 
 11798      53415F54 
 11798      48554D42 
 11799              	.LASF105:
 11800 50b1 5F5F5549 		.ascii	"__UINT_LEAST64_MAX__ 18446744073709551615ULL\000"
 11800      4E545F4C 
 11800      45415354 
 11800      36345F4D 
 11800      41585F5F 
 11801              	.LASF464:
 11802 50de 5F5F434D 		.ascii	"__CM0_CMSIS_VERSION_MAIN (0x03)\000"
 11802      305F434D 
 11802      5349535F 
 11802      56455253 
 11802      494F4E5F 
 11803              	.LASF421:
 11804 50fe 57434841 		.ascii	"WCHAR_MIN __WCHAR_MIN__\000"
 11804      525F4D49 
 11804      4E205F5F 
 11804      57434841 
 11804      525F4D49 
 11805              	.LASF107:
 11806 5116 5F5F494E 		.ascii	"__INT_FAST8_MAX__ 2147483647\000"
 11806      545F4641 
 11806      5354385F 
 11806      4D41585F 
 11806      5F203231 
 11807              	.LASF858:
 11808 5133 4144435F 		.ascii	"ADC_CR_START_ADCTRIG0 ((4UL << 24))\000"
 11808      43525F53 
 11808      54415254 
 11808      5F414443 
 11808      54524947 
 11809              	.LASF1014:
 11810 5157 5359534F 		.ascii	"SYSOSCCTRL\000"
 11810      53434354 
 11810      524C00
 11811              	.LASF729:
 11812 5162 55415254 		.ascii	"UART_LCR_WLEN6 (1 << 0)\000"
 11812      5F4C4352 
 11812      5F574C45 
 11812      4E362028 
ARM GAS  /var/folders/f9/8bk2lnw15zn4cbgn6wrnb4lm0000gn/T//cc47W8rL.s 			page 278


 11812      31203C3C 
 11813              	.LASF881:
 11814 517a 4932435F 		.ascii	"I2C_CON_SI (1UL << 3)\000"
 11814      434F4E5F 
 11814      53492028 
 11814      31554C20 
 11814      3C3C2033 
 11815              	.LASF199:
 11816 5190 5F5F5546 		.ascii	"__UFRACT_IBIT__ 0\000"
 11816      52414354 
 11816      5F494249 
 11816      545F5F20 
 11816      3000
 11817              	.LASF877:
 11818 51a2 4932435F 		.ascii	"I2C_I2CONCLR_STOC ((1 << 4))\000"
 11818      4932434F 
 11818      4E434C52 
 11818      5F53544F 
 11818      43202828 
 11819              	.LASF546:
 11820 51bf 5343535F 		.ascii	"SCS_BASE (0xE000E000UL)\000"
 11820      42415345 
 11820      20283078 
 11820      45303030 
 11820      45303030 
 11821              	.LASF92:
 11822 51d7 5F5F494E 		.ascii	"__INT8_C(c) c\000"
 11822      54385F43 
 11822      28632920 
 11822      6300
 11823              	.LASF204:
 11824 51e5 5F5F4C46 		.ascii	"__LFRACT_IBIT__ 0\000"
 11824      52414354 
 11824      5F494249 
 11824      545F5F20 
 11824      3000
 11825              	.LASF861:
 11826 51f7 4144435F 		.ascii	"ADC_CR_EDGE ((1UL << 27))\000"
 11826      43525F45 
 11826      44474520 
 11826      28283155 
 11826      4C203C3C 
 11827              	.LASF462:
 11828 5211 5F5F5665 		.ascii	"__Vendor_SysTickConfig 0\000"
 11828      6E646F72 
 11828      5F537973 
 11828      5469636B 
 11828      436F6E66 
 11829              	.LASF692:
 11830 522a 55415254 		.ascii	"UART_LOAD_DLL(div) ((div) & 0xFF)\000"
 11830      5F4C4F41 
 11830      445F444C 
 11830      4C286469 
 11830      76292028 
 11831              	.LASF975:
 11832 524c 4F445F45 		.ascii	"OD_EXP_RO 0x10\000"
 11832      58505F52 
ARM GAS  /var/folders/f9/8bk2lnw15zn4cbgn6wrnb4lm0000gn/T//cc47W8rL.s 			page 279


 11832      4F203078 
 11832      313000
 11833              	.LASF313:
 11834 525b 5F5F4743 		.ascii	"__GCC_ATOMIC_POINTER_LOCK_FREE 1\000"
 11834      435F4154 
 11834      4F4D4943 
 11834      5F504F49 
 11834      4E544552 
 11835              	.LASF136:
 11836 527c 5F5F4442 		.ascii	"__DBL_MIN_EXP__ (-1021)\000"
 11836      4C5F4D49 
 11836      4E5F4558 
 11836      505F5F20 
 11836      282D3130 
 11837              	.LASF448:
 11838 5294 4E554C4C 		.ascii	"NULL ((void *) 0)\000"
 11838      20282876 
 11838      6F696420 
 11838      2A292030 
 11838      2900
 11839              	.LASF933:
 11840 52a6 4932435F 		.ascii	"I2C_OK 0x00\000"
 11840      4F4B2030 
 11840      78303000 
 11841              	.LASF169:
 11842 52b2 5F5F4445 		.ascii	"__DEC64_MANT_DIG__ 16\000"
 11842      4336345F 
 11842      4D414E54 
 11842      5F444947 
 11842      5F5F2031 
 11843              	.LASF1182:
 11844 52c8 43686970 		.ascii	"Chip_I2C_MasterCmdRead\000"
 11844      5F493243 
 11844      5F4D6173 
 11844      74657243 
 11844      6D645265 
 11845              	.LASF805:
 11846 52df 55415254 		.ascii	"UART_SYNCCTRL_CCCLR (1 << 6)\000"
 11846      5F53594E 
 11846      43435452 
 11846      4C5F4343 
 11846      434C5220 
 11847              	.LASF1074:
 11848 52fc 53595343 		.ascii	"SYSCTL_CLOCK_FLASHREG\000"
 11848      544C5F43 
 11848      4C4F434B 
 11848      5F464C41 
 11848      53485245 
 11849              	.LASF255:
 11850 5312 5F5F4C4C 		.ascii	"__LLACCUM_MIN__ (-0X1P31LLK-0X1P31LLK)\000"
 11850      41434355 
 11850      4D5F4D49 
 11850      4E5F5F20 
 11850      282D3058 
 11851              	.LASF766:
 11852 5339 55415254 		.ascii	"UART_MSR_DSR (1 << 5)\000"
 11852      5F4D5352 
ARM GAS  /var/folders/f9/8bk2lnw15zn4cbgn6wrnb4lm0000gn/T//cc47W8rL.s 			page 280


 11852      5F445352 
 11852      20283120 
 11852      3C3C2035 
 11853              	.LASF172:
 11854 534f 5F5F4445 		.ascii	"__DEC64_MIN__ 1E-383DD\000"
 11854      4336345F 
 11854      4D494E5F 
 11854      5F203145 
 11854      2D333833 
 11855              	.LASF591:
 11856 5366 4C50435F 		.ascii	"LPC_IOCON ((LPC_IOCON_T *) LPC_IOCON_BASE)\000"
 11856      494F434F 
 11856      4E202828 
 11856      4C50435F 
 11856      494F434F 
 11857              	.LASF668:
 11858 5391 46554E43 		.ascii	"FUNC1 0x1\000"
 11858      31203078 
 11858      3100
 11859              	.LASF433:
 11860 539b 55494E54 		.ascii	"UINTMAX_C(x) __UINTMAX_C(x)\000"
 11860      4D41585F 
 11860      43287829 
 11860      205F5F55 
 11860      494E544D 
 11861              	.LASF1198:
 11862 53b7 4F736352 		.ascii	"OscRateIn\000"
 11862      61746549 
 11862      6E00
 11863              	.LASF357:
 11864 53c1 5F5F4558 		.ascii	"__EXP\000"
 11864      5000
 11865              	.LASF646:
 11866 53c7 494F434F 		.ascii	"IOCON_ADMODE_EN (0x0 << 7)\000"
 11866      4E5F4144 
 11866      4D4F4445 
 11866      5F454E20 
 11866      28307830 
 11867              	.LASF352:
 11868 53e2 5F5F5F69 		.ascii	"___int64_t_defined 1\000"
 11868      6E743634 
 11868      5F745F64 
 11868      6566696E 
 11868      65642031 
 11869              	.LASF159:
 11870 53f7 5F5F4C44 		.ascii	"__LDBL_HAS_DENORM__ 1\000"
 11870      424C5F48 
 11870      41535F44 
 11870      454E4F52 
 11870      4D5F5F20 
 11871              	.LASF538:
 11872 540d 53797354 		.ascii	"SysTick_VAL_CURRENT_Pos 0\000"
 11872      69636B5F 
 11872      56414C5F 
 11872      43555252 
 11872      454E545F 
 11873              	.LASF694:
ARM GAS  /var/folders/f9/8bk2lnw15zn4cbgn6wrnb4lm0000gn/T//cc47W8rL.s 			page 281


 11874 5427 55415254 		.ascii	"UART_LOAD_DLM(div) (((div) >> 8) & 0xFF)\000"
 11874      5F4C4F41 
 11874      445F444C 
 11874      4D286469 
 11874      76292028 
 11875              	.LASF696:
 11876 5450 55415254 		.ascii	"UART_IER_RBRINT (1 << 0)\000"
 11876      5F494552 
 11876      5F524252 
 11876      494E5420 
 11876      2831203C 
 11877              	.LASF106:
 11878 5469 5F5F5549 		.ascii	"__UINT64_C(c) c ## ULL\000"
 11878      4E543634 
 11878      5F432863 
 11878      29206320 
 11878      23232055 
 11879              	.LASF236:
 11880 5480 5F5F4143 		.ascii	"__ACCUM_MAX__ 0X7FFFFFFFP-15K\000"
 11880      43554D5F 
 11880      4D41585F 
 11880      5F203058 
 11880      37464646 
 11881              	.LASF545:
 11882 549e 53797354 		.ascii	"SysTick_CALIB_TENMS_Msk (0xFFFFFFUL << SysTick_VAL_"
 11882      69636B5F 
 11882      43414C49 
 11882      425F5445 
 11882      4E4D535F 
 11883 54d1 43555252 		.ascii	"CURRENT_Pos)\000"
 11883      454E545F 
 11883      506F7329 
 11883      00
 11884              	.LASF408:
 11885 54de 55494E54 		.ascii	"UINT_FAST32_MAX __UINT_FAST32_MAX__\000"
 11885      5F464153 
 11885      5433325F 
 11885      4D415820 
 11885      5F5F5549 
 11886              	.LASF49:
 11887 5502 5F5F494E 		.ascii	"__INT_LEAST32_TYPE__ long int\000"
 11887      545F4C45 
 11887      41535433 
 11887      325F5459 
 11887      50455F5F 
 11888              	.LASF1126:
 11889 5520 49324330 		.ascii	"I2C0\000"
 11889      00
 11890              	.LASF1084:
 11891 5525 53595343 		.ascii	"SYSCTL_CLOCK_ADC\000"
 11891      544C5F43 
 11891      4C4F434B 
 11891      5F414443 
 11891      00
 11892              	.LASF662:
 11893 5536 4D445F45 		.ascii	"MD_ENFIL (0x1 << 8)\000"
 11893      4E46494C 
ARM GAS  /var/folders/f9/8bk2lnw15zn4cbgn6wrnb4lm0000gn/T//cc47W8rL.s 			page 282


 11893      20283078 
 11893      31203C3C 
 11893      20382900 
 11894              	.LASF527:
 11895 554a 5343425F 		.ascii	"SCB_SHCSR_SVCALLPENDED_Msk (1UL << SCB_SHCSR_SVCALL"
 11895      53484353 
 11895      525F5356 
 11895      43414C4C 
 11895      50454E44 
 11896 557d 50454E44 		.ascii	"PENDED_Pos)\000"
 11896      45445F50 
 11896      6F732900 
 11897              	.LASF967:
 11898 5589 53444F5F 		.ascii	"SDO_ABORT_ACCINCOMP 0x06040047UL\000"
 11898      41424F52 
 11898      545F4143 
 11898      43494E43 
 11898      4F4D5020 
 11899              	.LASF792:
 11900 55aa 55415254 		.ascii	"UART_SCICTRL_TXRETRY(n) ((n & 0x07) << 5)\000"
 11900      5F534349 
 11900      4354524C 
 11900      5F545852 
 11900      45545259 
 11901              	.LASF194:
 11902 55d4 5F5F4652 		.ascii	"__FRACT_IBIT__ 0\000"
 11902      4143545F 
 11902      49424954 
 11902      5F5F2030 
 11902      00
 11903              	.LASF8:
 11904 55e5 5F5F4154 		.ascii	"__ATOMIC_ACQUIRE 2\000"
 11904      4F4D4943 
 11904      5F414351 
 11904      55495245 
 11904      203200
 11905              	.LASF963:
 11906 55f8 53444F5F 		.ascii	"SDO_ABORT_WRITEONLY 0x06010001UL\000"
 11906      41424F52 
 11906      545F5752 
 11906      4954454F 
 11906      4E4C5920 
 11907              	.LASF809:
 11908 5619 57574454 		.ascii	"WWDT_WDMOD_WDRESET ((uint32_t) (1 << 1))\000"
 11908      5F57444D 
 11908      4F445F57 
 11908      44524553 
 11908      45542028 
 11909              	.LASF24:
 11910 5642 5F5F4F52 		.ascii	"__ORDER_LITTLE_ENDIAN__ 1234\000"
 11910      4445525F 
 11910      4C495454 
 11910      4C455F45 
 11910      4E444941 
 11911              	.LASF415:
 11912 565f 53495A45 		.ascii	"SIZE_MAX __SIZE_MAX__\000"
 11912      5F4D4158 
ARM GAS  /var/folders/f9/8bk2lnw15zn4cbgn6wrnb4lm0000gn/T//cc47W8rL.s 			page 283


 11912      205F5F53 
 11912      495A455F 
 11912      4D41585F 
 11913              	.LASF927:
 11914 5675 4932435F 		.ascii	"I2C_I2MASK_MASK(n) ((n & 0xFE))\000"
 11914      49324D41 
 11914      534B5F4D 
 11914      41534B28 
 11914      6E292028 
 11915              	.LASF1000:
 11916 5695 6C6F6E67 		.ascii	"long long unsigned int\000"
 11916      206C6F6E 
 11916      6720756E 
 11916      7369676E 
 11916      65642069 
 11917              	.LASF249:
 11918 56ac 5F5F554C 		.ascii	"__ULACCUM_IBIT__ 32\000"
 11918      41434355 
 11918      4D5F4942 
 11918      49545F5F 
 11918      20333200 
 11919              	.LASF818:
 11920 56c0 5353505F 		.ascii	"SSP_CR0_CPOL_LO ((uint32_t) (0))\000"
 11920      4352305F 
 11920      43504F4C 
 11920      5F4C4F20 
 11920      28287569 
 11921              	.LASF1085:
 11922 56e1 53595343 		.ascii	"SYSCTL_CLOCK_RESERVED14\000"
 11922      544C5F43 
 11922      4C4F434B 
 11922      5F524553 
 11922      45525645 
 11923              	.LASF31:
 11924 56f9 5F5F5054 		.ascii	"__PTRDIFF_TYPE__ int\000"
 11924      52444946 
 11924      465F5459 
 11924      50455F5F 
 11924      20696E74 
 11925              	.LASF324:
 11926 570e 5F5F4150 		.ascii	"__APCS_32__ 1\000"
 11926      43535F33 
 11926      325F5F20 
 11926      3100
 11927              	.LASF1146:
 11928 571c 43686970 		.ascii	"Chip_Clock_EnablePeriphClock\000"
 11928      5F436C6F 
 11928      636B5F45 
 11928      6E61626C 
 11928      65506572 
 11929              	.LASF918:
 11930 5739 4932435F 		.ascii	"I2C_I2DAT_BITMASK ((0xFF))\000"
 11930      49324441 
 11930      545F4249 
 11930      544D4153 
 11930      4B202828 
 11931              	.LASF699:
ARM GAS  /var/folders/f9/8bk2lnw15zn4cbgn6wrnb4lm0000gn/T//cc47W8rL.s 			page 284


 11932 5754 55415254 		.ascii	"UART_IER_MSINT (1 << 3)\000"
 11932      5F494552 
 11932      5F4D5349 
 11932      4E542028 
 11932      31203C3C 
 11933              	.LASF224:
 11934 576c 5F5F5341 		.ascii	"__SACCUM_IBIT__ 8\000"
 11934      4343554D 
 11934      5F494249 
 11934      545F5F20 
 11934      3800
 11935              	.LASF269:
 11936 577e 5F5F4451 		.ascii	"__DQ_FBIT__ 63\000"
 11936      5F464249 
 11936      545F5F20 
 11936      363300
 11937              	.LASF1083:
 11938 578d 53595343 		.ascii	"SYSCTL_CLOCK_UART0\000"
 11938      544C5F43 
 11938      4C4F434B 
 11938      5F554152 
 11938      543000
 11939              	.LASF1076:
 11940 57a0 53595343 		.ascii	"SYSCTL_CLOCK_I2C\000"
 11940      544C5F43 
 11940      4C4F434B 
 11940      5F493243 
 11940      00
 11941              	.LASF61:
 11942 57b1 5F5F5549 		.ascii	"__UINT_FAST32_TYPE__ unsigned int\000"
 11942      4E545F46 
 11942      41535433 
 11942      325F5459 
 11942      50455F5F 
 11943              	.LASF56:
 11944 57d3 5F5F494E 		.ascii	"__INT_FAST16_TYPE__ int\000"
 11944      545F4641 
 11944      53543136 
 11944      5F545950 
 11944      455F5F20 
 11945              	.LASF617:
 11946 57eb 53595343 		.ascii	"SYSCTL_SLPWAKE_ADC_PD (1 << 4)\000"
 11946      544C5F53 
 11946      4C505741 
 11946      4B455F41 
 11946      44435F50 
 11947              	.LASF225:
 11948 580a 5F5F5341 		.ascii	"__SACCUM_MIN__ (-0X1P7HK-0X1P7HK)\000"
 11948      4343554D 
 11948      5F4D494E 
 11948      5F5F2028 
 11948      2D305831 
 11949              	.LASF1120:
 11950 582c 72784275 		.ascii	"rxBuff\000"
 11950      666600
 11951              	.LASF52:
 11952 5833 5F5F5549 		.ascii	"__UINT_LEAST16_TYPE__ short unsigned int\000"
ARM GAS  /var/folders/f9/8bk2lnw15zn4cbgn6wrnb4lm0000gn/T//cc47W8rL.s 			page 285


 11952      4E545F4C 
 11952      45415354 
 11952      31365F54 
 11952      5950455F 
 11953              	.LASF862:
 11954 585c 4144435F 		.ascii	"ADC_SAMPLE_RATE_CONFIG_MASK (ADC_CR_CLKDIV(0xFF) | "
 11954      53414D50 
 11954      4C455F52 
 11954      4154455F 
 11954      434F4E46 
 11955 588f 4144435F 		.ascii	"ADC_CR_BITACC(0x07))\000"
 11955      43525F42 
 11955      49544143 
 11955      43283078 
 11955      30372929 
 11956              	.LASF1048:
 11957 58a4 52455345 		.ascii	"RESERVED10\000"
 11957      52564544 
 11957      313000
 11958              	.LASF1051:
 11959 58af 52455345 		.ascii	"RESERVED11\000"
 11959      52564544 
 11959      313100
 11960              	.LASF1057:
 11961 58ba 52455345 		.ascii	"RESERVED12\000"
 11961      52564544 
 11961      313200
 11962              	.LASF1062:
 11963 58c5 52455345 		.ascii	"RESERVED13\000"
 11963      52564544 
 11963      313300
 11964              	.LASF1064:
 11965 58d0 52455345 		.ascii	"RESERVED14\000"
 11965      52564544 
 11965      313400
 11966              	.LASF1068:
 11967 58db 52455345 		.ascii	"RESERVED15\000"
 11967      52564544 
 11967      313500
 11968              	.LASF101:
 11969 58e6 5F5F5549 		.ascii	"__UINT_LEAST16_MAX__ 65535\000"
 11969      4E545F4C 
 11969      45415354 
 11969      31365F4D 
 11969      41585F5F 
 11970              	.LASF281:
 11971 5901 5F5F5554 		.ascii	"__UTQ_FBIT__ 128\000"
 11971      515F4642 
 11971      49545F5F 
 11971      20313238 
 11971      00
 11972              	.LASF683:
 11973 5912 54494D45 		.ascii	"TIMER_STOP_ON_MATCH(n) (_BIT((((n) * 3) + 2)))\000"
 11973      525F5354 
 11973      4F505F4F 
 11973      4E5F4D41 
 11973      54434828 
ARM GAS  /var/folders/f9/8bk2lnw15zn4cbgn6wrnb4lm0000gn/T//cc47W8rL.s 			page 286


 11974              	.LASF937:
 11975 5941 4932435F 		.ascii	"I2C_SEND_END 0x08\000"
 11975      53454E44 
 11975      5F454E44 
 11975      20307830 
 11975      3800
 11976              	.LASF930:
 11977 5953 4932435F 		.ascii	"I2C_SETUP_STATUS_ARBF (1 << 8)\000"
 11977      53455455 
 11977      505F5354 
 11977      41545553 
 11977      5F415242 
 11978              	.LASF257:
 11979 5972 5F5F4C4C 		.ascii	"__LLACCUM_EPSILON__ 0x1P-31LLK\000"
 11979      41434355 
 11979      4D5F4550 
 11979      53494C4F 
 11979      4E5F5F20 
 11980              	.LASF13:
 11981 5991 5F5F4649 		.ascii	"__FINITE_MATH_ONLY__ 0\000"
 11981      4E495445 
 11981      5F4D4154 
 11981      485F4F4E 
 11981      4C595F5F 
 11982              	.LASF703:
 11983 59a8 55415254 		.ascii	"UART_IER_BITMASK (0x307)\000"
 11983      5F494552 
 11983      5F424954 
 11983      4D41534B 
 11983      20283078 
 11984              	.LASF359:
 11985 59c1 5F5F6861 		.ascii	"__have_longlong64 1\000"
 11985      76655F6C 
 11985      6F6E676C 
 11985      6F6E6736 
 11985      34203100 
 11986              	.LASF1029:
 11987 59d5 53595341 		.ascii	"SYSAHBCLKCTRL\000"
 11987      4842434C 
 11987      4B435452 
 11987      4C00
 11988              	.LASF1137:
 11989 59e3 6D457665 		.ascii	"mEvent\000"
 11989      6E7400
 11990              	.LASF418:
 11991 59ea 50545244 		.ascii	"PTRDIFF_MAX __PTRDIFF_MAX__\000"
 11991      4946465F 
 11991      4D415820 
 11991      5F5F5054 
 11991      52444946 
 11992              	.LASF17:
 11993 5a06 5F5F5349 		.ascii	"__SIZEOF_SHORT__ 2\000"
 11993      5A454F46 
 11993      5F53484F 
 11993      52545F5F 
 11993      203200
 11994              	.LASF1016:
ARM GAS  /var/folders/f9/8bk2lnw15zn4cbgn6wrnb4lm0000gn/T//cc47W8rL.s 			page 287


 11995 5a19 49524343 		.ascii	"IRCCTRL\000"
 11995      54524C00 
 11996              	.LASF799:
 11997 5a21 55415254 		.ascii	"UART_SYNCCTRL_SYNC (1 << 0)\000"
 11997      5F53594E 
 11997      43435452 
 11997      4C5F5359 
 11997      4E432028 
 11998              	.LASF323:
 11999 5a3d 5F5F4152 		.ascii	"__ARM_ARCH 6\000"
 11999      4D5F4152 
 11999      43482036 
 11999      00
 12000              	.LASF883:
 12001 5a4a 4932435F 		.ascii	"I2C_CON_STA (1UL << 5)\000"
 12001      434F4E5F 
 12001      53544120 
 12001      2831554C 
 12001      203C3C20 
 12002              	.LASF934:
 12003 5a61 4932435F 		.ascii	"I2C_BYTE_SENT 0x01\000"
 12003      42595445 
 12003      5F53454E 
 12003      54203078 
 12003      303100
 12004              	.LASF251:
 12005 5a74 5F5F554C 		.ascii	"__ULACCUM_MAX__ 0XFFFFFFFFFFFFFFFFP-32ULK\000"
 12005      41434355 
 12005      4D5F4D41 
 12005      585F5F20 
 12005      30584646 
 12006              	.LASF1125:
 12007 5a9e 4932435F 		.ascii	"I2C_ID\000"
 12007      494400
 12008              	.LASF1173:
 12009 5aa5 43686970 		.ascii	"Chip_I2C_SetClockRate\000"
 12009      5F493243 
 12009      5F536574 
 12009      436C6F63 
 12009      6B526174 
 12010              	.LASF210:
 12011 5abb 5F5F554C 		.ascii	"__ULFRACT_MIN__ 0.0ULR\000"
 12011      46524143 
 12011      545F4D49 
 12011      4E5F5F20 
 12011      302E3055 
 12012              	.LASF1066:
 12013 5ad2 50445741 		.ascii	"PDWAKECFG\000"
 12013      4B454346 
 12013      4700
 12014              	.LASF1103:
 12015 5adc 4C50435F 		.ascii	"LPC_I2C_T\000"
 12015      4932435F 
 12015      5400
 12016              	.LASF270:
 12017 5ae6 5F5F4451 		.ascii	"__DQ_IBIT__ 0\000"
 12017      5F494249 
ARM GAS  /var/folders/f9/8bk2lnw15zn4cbgn6wrnb4lm0000gn/T//cc47W8rL.s 			page 288


 12017      545F5F20 
 12017      3000
 12018              	.LASF1056:
 12019 5af4 55534243 		.ascii	"USBCLKST\000"
 12019      4C4B5354 
 12019      00
 12020              	.LASF1008:
 12021 5afd 50524553 		.ascii	"PRESETCTRL\000"
 12021      45544354 
 12021      524C00
 12022              	.LASF620:
 12023 5b08 53595343 		.ascii	"SYSCTL_SLPWAKE_SYSPLL_PD (1 << 7)\000"
 12023      544C5F53 
 12023      4C505741 
 12023      4B455F53 
 12023      5953504C 
 12024              	.LASF480:
 12025 5b2a 5343425F 		.ascii	"SCB_CPUID_VARIANT_Pos 20\000"
 12025      43505549 
 12025      445F5641 
 12025      5249414E 
 12025      545F506F 
 12026              	.LASF73:
 12027 5b43 5F5F5749 		.ascii	"__WINT_MAX__ 4294967295U\000"
 12027      4E545F4D 
 12027      41585F5F 
 12027      20343239 
 12027      34393637 
 12028              	.LASF612:
 12029 5b5c 53595343 		.ascii	"SYSCTL_DEEPSLP_WDTOSC_PD (1 << 6)\000"
 12029      544C5F44 
 12029      45455053 
 12029      4C505F57 
 12029      44544F53 
 12030              	.LASF712:
 12031 5b7e 55415254 		.ascii	"UART_IIR_INTID_RLS (3 << 1)\000"
 12031      5F494952 
 12031      5F494E54 
 12031      49445F52 
 12031      4C532028 
 12032              	.LASF1167:
 12033 5b9a 68616E64 		.ascii	"handleMasterXferState\000"
 12033      6C654D61 
 12033      73746572 
 12033      58666572 
 12033      53746174 
 12034              	.LASF97:
 12035 5bb0 5F5F494E 		.ascii	"__INT_LEAST64_MAX__ 9223372036854775807LL\000"
 12035      545F4C45 
 12035      41535436 
 12035      345F4D41 
 12035      585F5F20 
 12036              	.LASF387:
 12037 5bda 55494E54 		.ascii	"UINT_LEAST16_MAX __UINT_LEAST16_MAX__\000"
 12037      5F4C4541 
 12037      53543136 
 12037      5F4D4158 
ARM GAS  /var/folders/f9/8bk2lnw15zn4cbgn6wrnb4lm0000gn/T//cc47W8rL.s 			page 289


 12037      205F5F55 
 12038              	.LASF987:
 12039 5c00 4C50435F 		.ascii	"LPC_CCAN_API ((CCAN_API_T *) (LPC_ROM_API->candApiB"
 12039      4343414E 
 12039      5F415049 
 12039      20282843 
 12039      43414E5F 
 12040 5c33 61736529 		.ascii	"ase))\000"
 12040      2900
 12041              	.LASF554:
 12042 5c39 5F534850 		.ascii	"_SHP_IDX(IRQn) ( ((((uint32_t)(IRQn) & 0x0F)-8) >> "
 12042      5F494458 
 12042      28495251 
 12042      6E292028 
 12042      20282828 
 12043 5c6c 32292029 		.ascii	"2) )\000"
 12043      00
 12044              	.LASF581:
 12045 5c71 4C50435F 		.ascii	"LPC_WWDT ((LPC_WWDT_T *) LPC_WWDT_BASE)\000"
 12045      57574454 
 12045      2028284C 
 12045      50435F57 
 12045      5744545F 
 12046              	.LASF533:
 12047 5c99 53797354 		.ascii	"SysTick_CTRL_TICKINT_Msk (1UL << SysTick_CTRL_TICKI"
 12047      69636B5F 
 12047      4354524C 
 12047      5F544943 
 12047      4B494E54 
 12048 5ccc 4E545F50 		.ascii	"NT_Pos)\000"
 12048      6F732900 
 12049              	.LASF767:
 12050 5cd4 55415254 		.ascii	"UART_MSR_RI (1 << 6)\000"
 12050      5F4D5352 
 12050      5F524920 
 12050      2831203C 
 12050      3C203629 
 12051              	.LASF331:
 12052 5ce9 5F5F4152 		.ascii	"__ARM_FP 12\000"
 12052      4D5F4650 
 12052      20313200 
 12053              	.LASF76:
 12054 5cf5 5F5F5349 		.ascii	"__SIZE_MAX__ 4294967295U\000"
 12054      5A455F4D 
 12054      41585F5F 
 12054      20343239 
 12054      34393637 
 12055              	.LASF550:
 12056 5d0e 53434220 		.ascii	"SCB ((SCB_Type *) SCB_BASE )\000"
 12056      28285343 
 12056      425F5479 
 12056      7065202A 
 12056      29205343 
 12057              	.LASF282:
 12058 5d2b 5F5F5554 		.ascii	"__UTQ_IBIT__ 0\000"
 12058      515F4942 
 12058      49545F5F 
ARM GAS  /var/folders/f9/8bk2lnw15zn4cbgn6wrnb4lm0000gn/T//cc47W8rL.s 			page 290


 12058      203000
 12059              	.LASF407:
 12060 5d3a 494E545F 		.ascii	"INT_FAST32_MAX __INT_FAST32_MAX__\000"
 12060      46415354 
 12060      33325F4D 
 12060      4158205F 
 12060      5F494E54 
 12061              	.LASF285:
 12062 5d5c 5F5F5341 		.ascii	"__SA_FBIT__ 15\000"
 12062      5F464249 
 12062      545F5F20 
 12062      313500
 12063              	.LASF217:
 12064 5d6b 5F5F4C4C 		.ascii	"__LLFRACT_EPSILON__ 0x1P-63LLR\000"
 12064      46524143 
 12064      545F4550 
 12064      53494C4F 
 12064      4E5F5F20 
 12065              	.LASF1157:
 12066 5d8a 69734932 		.ascii	"isI2CBusFree\000"
 12066      43427573 
 12066      46726565 
 12066      00
 12067              	.LASF669:
 12068 5d97 46554E43 		.ascii	"FUNC2 0x2\000"
 12068      32203078 
 12068      3200
 12069              	.LASF1039:
 12070 5da1 57445443 		.ascii	"WDTCLKSEL\000"
 12070      4C4B5345 
 12070      4C00
 12071              	.LASF574:
 12072 5dab 4C50435F 		.ascii	"LPC_GPIO_PORT0_BASE 0x50000000\000"
 12072      4750494F 
 12072      5F504F52 
 12072      54305F42 
 12072      41534520 
 12073              	.LASF772:
 12074 5dca 55415254 		.ascii	"UART_ACR_AUTO_RESTART (1 << 2)\000"
 12074      5F414352 
 12074      5F415554 
 12074      4F5F5245 
 12074      53544152 
 12075              	.LASF338:
 12076 5de9 5F5F454C 		.ascii	"__ELF__ 1\000"
 12076      465F5F20 
 12076      3100
 12077              	.LASF388:
 12078 5df3 494E5433 		.ascii	"INT32_MIN (-__INT32_MAX__ - 1)\000"
 12078      325F4D49 
 12078      4E20282D 
 12078      5F5F494E 
 12078      5433325F 
 12079              	.LASF328:
 12080 5e12 5F5F5448 		.ascii	"__THUMBEL__ 1\000"
 12080      554D4245 
 12080      4C5F5F20 
ARM GAS  /var/folders/f9/8bk2lnw15zn4cbgn6wrnb4lm0000gn/T//cc47W8rL.s 			page 291


 12080      3100
 12081              	.LASF635:
 12082 5e20 494F434F 		.ascii	"IOCON_FUNC3 0x3\000"
 12082      4E5F4655 
 12082      4E433320 
 12082      30783300 
 12083              	.LASF599:
 12084 5e30 504D555F 		.ascii	"PMU_PCON_PM_SLEEP (0x0)\000"
 12084      50434F4E 
 12084      5F504D5F 
 12084      534C4545 
 12084      50202830 
 12085              	.LASF974:
 12086 5e48 4F445F4E 		.ascii	"OD_NONE 0x00\000"
 12086      4F4E4520 
 12086      30783030 
 12086      00
 12087              	.LASF264:
 12088 5e55 5F5F5151 		.ascii	"__QQ_IBIT__ 0\000"
 12088      5F494249 
 12088      545F5F20 
 12088      3000
 12089              	.LASF860:
 12090 5e63 4144435F 		.ascii	"ADC_CR_START_MCOA2 ((6UL << 24))\000"
 12090      43525F53 
 12090      54415254 
 12090      5F4D434F 
 12090      41322028 
 12091              	.LASF853:
 12092 5e84 4144435F 		.ascii	"ADC_CR_START_MASK ((7UL << 24))\000"
 12092      43525F53 
 12092      54415254 
 12092      5F4D4153 
 12092      4B202828 
 12093              	.LASF559:
 12094 5ea4 4C50435F 		.ascii	"LPC_TIMER16_0_BASE 0x4000C000\000"
 12094      54494D45 
 12094      5231365F 
 12094      305F4241 
 12094      53452030 
 12095              	.LASF431:
 12096 5ec2 55494E54 		.ascii	"UINT64_C(x) __UINT64_C(x)\000"
 12096      36345F43 
 12096      28782920 
 12096      5F5F5549 
 12096      4E543634 
 12097              	.LASF253:
 12098 5edc 5F5F4C4C 		.ascii	"__LLACCUM_FBIT__ 31\000"
 12098      41434355 
 12098      4D5F4642 
 12098      49545F5F 
 12098      20333100 
 12099              	.LASF79:
 12100 5ef0 5F5F5549 		.ascii	"__UINTMAX_MAX__ 18446744073709551615ULL\000"
 12100      4E544D41 
 12100      585F4D41 
 12100      585F5F20 
ARM GAS  /var/folders/f9/8bk2lnw15zn4cbgn6wrnb4lm0000gn/T//cc47W8rL.s 			page 292


 12100      31383434 
 12101              	.LASF125:
 12102 5f18 5F5F464C 		.ascii	"__FLT_MAX_10_EXP__ 38\000"
 12102      545F4D41 
 12102      585F3130 
 12102      5F455850 
 12102      5F5F2033 
 12103              	.LASF278:
 12104 5f2e 5F5F5553 		.ascii	"__USQ_IBIT__ 0\000"
 12104      515F4942 
 12104      49545F5F 
 12104      203000
 12105              	.LASF53:
 12106 5f3d 5F5F5549 		.ascii	"__UINT_LEAST32_TYPE__ long unsigned int\000"
 12106      4E545F4C 
 12106      45415354 
 12106      33325F54 
 12106      5950455F 
 12107              	.LASF276:
 12108 5f65 5F5F5548 		.ascii	"__UHQ_IBIT__ 0\000"
 12108      515F4942 
 12108      49545F5F 
 12108      203000
 12109              	.LASF3:
 12110 5f74 5F5F474E 		.ascii	"__GNUC_MINOR__ 8\000"
 12110      55435F4D 
 12110      494E4F52 
 12110      5F5F2038 
 12110      00
 12111              	.LASF34:
 12112 5f85 5F5F494E 		.ascii	"__INTMAX_TYPE__ long long int\000"
 12112      544D4158 
 12112      5F545950 
 12112      455F5F20 
 12112      6C6F6E67 
 12113              	.LASF309:
 12114 5fa3 5F5F4743 		.ascii	"__GCC_ATOMIC_INT_LOCK_FREE 1\000"
 12114      435F4154 
 12114      4F4D4943 
 12114      5F494E54 
 12114      5F4C4F43 
 12115              	.LASF95:
 12116 5fc0 5F5F494E 		.ascii	"__INT_LEAST32_MAX__ 2147483647L\000"
 12116      545F4C45 
 12116      41535433 
 12116      325F4D41 
 12116      585F5F20 
 12117              	.LASF302:
 12118 5fe0 5F5F4348 		.ascii	"__CHAR_UNSIGNED__ 1\000"
 12118      41525F55 
 12118      4E534947 
 12118      4E45445F 
 12118      5F203100 
 12119              	.LASF609:
 12120 5ff4 53595343 		.ascii	"SYSCTL_RST_SYSRST (1 << 4)\000"
 12120      544C5F52 
 12120      53545F53 
ARM GAS  /var/folders/f9/8bk2lnw15zn4cbgn6wrnb4lm0000gn/T//cc47W8rL.s 			page 293


 12120      59535253 
 12120      54202831 
 12121              	.LASF899:
 12122 600f 4932435F 		.ascii	"I2C_I2STAT_M_RX_SLAR_ACK ((0x40))\000"
 12122      49325354 
 12122      41545F4D 
 12122      5F52585F 
 12122      534C4152 
 12123              	.LASF642:
 12124 6031 494F434F 		.ascii	"IOCON_MODE_PULLUP (0x2 << 3)\000"
 12124      4E5F4D4F 
 12124      44455F50 
 12124      554C4C55 
 12124      50202830 
 12125              	.LASF1171:
 12126 604e 43686970 		.ascii	"Chip_I2C_Init\000"
 12126      5F493243 
 12126      5F496E69 
 12126      7400
 12127              	.LASF728:
 12128 605c 55415254 		.ascii	"UART_LCR_WLEN5 (0 << 0)\000"
 12128      5F4C4352 
 12128      5F574C45 
 12128      4E352028 
 12128      30203C3C 
 12129              	.LASF655:
 12130 6074 4D445F50 		.ascii	"MD_PUP (0x2 << 3)\000"
 12130      55502028 
 12130      30783220 
 12130      3C3C2033 
 12130      2900
 12131              	.LASF355:
 12132 6086 5F5F5F69 		.ascii	"___int_least32_t_defined 1\000"
 12132      6E745F6C 
 12132      65617374 
 12132      33325F74 
 12132      5F646566 
 12133              	.LASF232:
 12134 60a1 5F5F5553 		.ascii	"__USACCUM_EPSILON__ 0x1P-8UHK\000"
 12134      41434355 
 12134      4D5F4550 
 12134      53494C4F 
 12134      4E5F5F20 
 12135              	.LASF147:
 12136 60bf 5F5F4442 		.ascii	"__DBL_HAS_QUIET_NAN__ 1\000"
 12136      4C5F4841 
 12136      535F5155 
 12136      4945545F 
 12136      4E414E5F 
 12137              	.LASF442:
 12138 60d7 5F424954 		.ascii	"_BIT\000"
 12138      00
 12139              	.LASF428:
 12140 60dc 494E5433 		.ascii	"INT32_C(x) __INT32_C(x)\000"
 12140      325F4328 
 12140      7829205F 
 12140      5F494E54 
ARM GAS  /var/folders/f9/8bk2lnw15zn4cbgn6wrnb4lm0000gn/T//cc47W8rL.s 			page 294


 12140      33325F43 
 12141              	.LASF1117:
 12142 60f4 736C6176 		.ascii	"slaveAddr\000"
 12142      65416464 
 12142      7200
 12143              	.LASF216:
 12144 60fe 5F5F4C4C 		.ascii	"__LLFRACT_MAX__ 0X7FFFFFFFFFFFFFFFP-63LLR\000"
 12144      46524143 
 12144      545F4D41 
 12144      585F5F20 
 12144      30583746 
 12145              	.LASF537:
 12146 6128 53797354 		.ascii	"SysTick_LOAD_RELOAD_Msk (0xFFFFFFUL << SysTick_LOAD"
 12146      69636B5F 
 12146      4C4F4144 
 12146      5F52454C 
 12146      4F41445F 
 12147 615b 5F52454C 		.ascii	"_RELOAD_Pos)\000"
 12147      4F41445F 
 12147      506F7329 
 12147      00
 12148              	.LASF1136:
 12149 6168 4932435F 		.ascii	"I2C_EVENTHANDLER_T\000"
 12149      4556454E 
 12149      5448414E 
 12149      444C4552 
 12149      5F5400
 12150              	.LASF630:
 12151 617b 53595343 		.ascii	"SYSCTL_IRC_FREQ (12000000)\000"
 12151      544C5F49 
 12151      52435F46 
 12151      52455120 
 12151      28313230 
 12152              	.LASF75:
 12153 6196 5F5F5054 		.ascii	"__PTRDIFF_MAX__ 2147483647\000"
 12153      52444946 
 12153      465F4D41 
 12153      585F5F20 
 12153      32313437 
 12154              	.LASF491:
 12155 61b1 5343425F 		.ascii	"SCB_ICSR_PENDSVSET_Msk (1UL << SCB_ICSR_PENDSVSET_P"
 12155      49435352 
 12155      5F50454E 
 12155      44535653 
 12155      45545F4D 
 12156 61e4 6F732900 		.ascii	"os)\000"
 12157              	.LASF540:
 12158 61e8 53797354 		.ascii	"SysTick_CALIB_NOREF_Pos 31\000"
 12158      69636B5F 
 12158      43414C49 
 12158      425F4E4F 
 12158      5245465F 
 12159              	.LASF226:
 12160 6203 5F5F5341 		.ascii	"__SACCUM_MAX__ 0X7FFFP-7HK\000"
 12160      4343554D 
 12160      5F4D4158 
 12160      5F5F2030 
ARM GAS  /var/folders/f9/8bk2lnw15zn4cbgn6wrnb4lm0000gn/T//cc47W8rL.s 			page 295


 12160      58374646 
 12161              	.LASF63:
 12162 621e 5F5F494E 		.ascii	"__INTPTR_TYPE__ int\000"
 12162      54505452 
 12162      5F545950 
 12162      455F5F20 
 12162      696E7400 
 12163              	.LASF36:
 12164 6232 5F5F4348 		.ascii	"__CHAR16_TYPE__ short unsigned int\000"
 12164      41523136 
 12164      5F545950 
 12164      455F5F20 
 12164      73686F72 
 12165              	.LASF64:
 12166 6255 5F5F5549 		.ascii	"__UINTPTR_TYPE__ unsigned int\000"
 12166      4E545054 
 12166      525F5459 
 12166      50455F5F 
 12166      20756E73 
 12167              	.LASF795:
 12168 6273 55415254 		.ascii	"UART_FDR_MULVAL(n) ((n << 4) & 0xF0)\000"
 12168      5F464452 
 12168      5F4D554C 
 12168      56414C28 
 12168      6E292028 
 12169              	.LASF535:
 12170 6298 53797354 		.ascii	"SysTick_CTRL_ENABLE_Msk (1UL << SysTick_CTRL_ENABLE"
 12170      69636B5F 
 12170      4354524C 
 12170      5F454E41 
 12170      424C455F 
 12171 62cb 5F506F73 		.ascii	"_Pos)\000"
 12171      2900
 12172              	.LASF299:
 12173 62d1 5F5F5245 		.ascii	"__REGISTER_PREFIX__ \000"
 12173      47495354 
 12173      45525F50 
 12173      52454649 
 12173      585F5F20 
 12174              	.LASF182:
 12175 62e6 5F5F4445 		.ascii	"__DEC128_SUBNORMAL_MIN__ 0.000000000000000000000000"
 12175      43313238 
 12175      5F535542 
 12175      4E4F524D 
 12175      414C5F4D 
 12176 6319 30303030 		.ascii	"000000001E-6143DL\000"
 12176      30303030 
 12176      31452D36 
 12176      31343344 
 12176      4C00
 12177              	.LASF1017:
 12178 632b 4C464F53 		.ascii	"LFOSCCTRL\000"
 12178      43435452 
 12178      4C00
 12179              	.LASF212:
 12180 6335 5F5F554C 		.ascii	"__ULFRACT_EPSILON__ 0x1P-32ULR\000"
 12180      46524143 
ARM GAS  /var/folders/f9/8bk2lnw15zn4cbgn6wrnb4lm0000gn/T//cc47W8rL.s 			page 296


 12180      545F4550 
 12180      53494C4F 
 12180      4E5F5F20 
 12181              	.LASF982:
 12182 6354 43414E5F 		.ascii	"CAN_SDOREQ_HANDLED_SEND 1\000"
 12182      53444F52 
 12182      45515F48 
 12182      414E444C 
 12182      45445F53 
 12183              	.LASF334:
 12184 636e 5F5F4152 		.ascii	"__ARM_ARCH_6M__ 1\000"
 12184      4D5F4152 
 12184      43485F36 
 12184      4D5F5F20 
 12184      3100
 12185              	.LASF21:
 12186 6380 5F5F5349 		.ascii	"__SIZEOF_SIZE_T__ 4\000"
 12186      5A454F46 
 12186      5F53495A 
 12186      455F545F 
 12186      5F203400 
 12187              	.LASF1115:
 12188 6394 4932435F 		.ascii	"I2C_STATUS_BUSY\000"
 12188      53544154 
 12188      55535F42 
 12188      55535900 
 12189              	.LASF807:
 12190 63a4 57574454 		.ascii	"WWDT_WDMOD_BITMASK ((uint32_t) 0x1F)\000"
 12190      5F57444D 
 12190      4F445F42 
 12190      49544D41 
 12190      534B2028 
 12191              	.LASF46:
 12192 63c9 5F5F5549 		.ascii	"__UINT64_TYPE__ long long unsigned int\000"
 12192      4E543634 
 12192      5F545950 
 12192      455F5F20 
 12192      6C6F6E67 
 12193              	.LASF179:
 12194 63f0 5F5F4445 		.ascii	"__DEC128_MIN__ 1E-6143DL\000"
 12194      43313238 
 12194      5F4D494E 
 12194      5F5F2031 
 12194      452D3631 
 12195              	.LASF98:
 12196 6409 5F5F494E 		.ascii	"__INT64_C(c) c ## LL\000"
 12196      5436345F 
 12196      43286329 
 12196      20632023 
 12196      23204C4C 
 12197              	.LASF244:
 12198 641e 5F5F4C41 		.ascii	"__LACCUM_IBIT__ 32\000"
 12198      4343554D 
 12198      5F494249 
 12198      545F5F20 
 12198      333200
 12199              	.LASF1069:
ARM GAS  /var/folders/f9/8bk2lnw15zn4cbgn6wrnb4lm0000gn/T//cc47W8rL.s 			page 297


 12200 6431 44455649 		.ascii	"DEVICEID\000"
 12200      43454944 
 12200      00
 12201              	.LASF391:
 12202 643a 494E545F 		.ascii	"INT_LEAST32_MIN (-__INT_LEAST32_MAX__ - 1)\000"
 12202      4C454153 
 12202      5433325F 
 12202      4D494E20 
 12202      282D5F5F 
 12203              	.LASF649:
 12204 6465 494F434F 		.ascii	"IOCON_STDI2C_EN (0x1 << 8)\000"
 12204      4E5F5354 
 12204      44493243 
 12204      5F454E20 
 12204      28307831 
 12205              	.LASF434:
 12206 6480 5F474343 		.ascii	"_GCC_WRAP_STDINT_H \000"
 12206      5F575241 
 12206      505F5354 
 12206      44494E54 
 12206      5F482000 
 12207              	.LASF925:
 12208 6494 4932435F 		.ascii	"I2C_I2ADR_GC ((1 << 0))\000"
 12208      49324144 
 12208      525F4743 
 12208      20282831 
 12208      203C3C20 
 12209              	.LASF1043:
 12210 64ac 434C4B4F 		.ascii	"CLKOUTSEL\000"
 12210      55545345 
 12210      4C00
 12211              	.LASF156:
 12212 64b6 5F5F4C44 		.ascii	"__LDBL_MIN__ 2.2250738585072014e-308L\000"
 12212      424C5F4D 
 12212      494E5F5F 
 12212      20322E32 
 12212      32353037 
 12213              	.LASF234:
 12214 64dc 5F5F4143 		.ascii	"__ACCUM_IBIT__ 16\000"
 12214      43554D5F 
 12214      49424954 
 12214      5F5F2031 
 12214      3600
 12215              	.LASF88:
 12216 64ee 5F5F5549 		.ascii	"__UINT16_MAX__ 65535\000"
 12216      4E543136 
 12216      5F4D4158 
 12216      5F5F2036 
 12216      35353335 
 12217              	.LASF1102:
 12218 6503 4D41534B 		.ascii	"MASK\000"
 12218      00
 12219              	.LASF93:
 12220 6508 5F5F494E 		.ascii	"__INT_LEAST16_MAX__ 32767\000"
 12220      545F4C45 
 12220      41535431 
 12220      365F4D41 
ARM GAS  /var/folders/f9/8bk2lnw15zn4cbgn6wrnb4lm0000gn/T//cc47W8rL.s 			page 298


 12220      585F5F20 
 12221              	.LASF993:
 12222 6522 73686F72 		.ascii	"short int\000"
 12222      7420696E 
 12222      7400
 12223              	.LASF650:
 12224 652c 494F434F 		.ascii	"IOCON_FASTI2C_EN (0x2 << 8)\000"
 12224      4E5F4641 
 12224      53544932 
 12224      435F454E 
 12224      20283078 
 12225              	.LASF526:
 12226 6548 5343425F 		.ascii	"SCB_SHCSR_SVCALLPENDED_Pos 15\000"
 12226      53484353 
 12226      525F5356 
 12226      43414C4C 
 12226      50454E44 
 12227              	.LASF957:
 12228 6566 43414E5F 		.ascii	"CAN_MSGOBJ_DAT 0x00000000UL\000"
 12228      4D53474F 
 12228      424A5F44 
 12228      41542030 
 12228      78303030 
 12229              	.LASF720:
 12230 6582 55415254 		.ascii	"UART_FCR_DMAMODE_SEL (1 << 3)\000"
 12230      5F464352 
 12230      5F444D41 
 12230      4D4F4445 
 12230      5F53454C 
 12231              	.LASF198:
 12232 65a0 5F5F5546 		.ascii	"__UFRACT_FBIT__ 16\000"
 12232      52414354 
 12232      5F464249 
 12232      545F5F20 
 12232      313600
 12233              	.LASF102:
 12234 65b3 5F5F5549 		.ascii	"__UINT16_C(c) c\000"
 12234      4E543136 
 12234      5F432863 
 12234      29206300 
 12235              	.LASF453:
 12236 65c3 4D415828 		.ascii	"MAX(a,b) (((a) > (b)) ? (a) : (b))\000"
 12236      612C6229 
 12236      20282828 
 12236      6129203E 
 12236      20286229 
 12237              	.LASF318:
 12238 65e6 5F5F5349 		.ascii	"__SIZEOF_PTRDIFF_T__ 4\000"
 12238      5A454F46 
 12238      5F505452 
 12238      44494646 
 12238      5F545F5F 
 12239              	.LASF296:
 12240 65fd 5F5F5544 		.ascii	"__UDA_IBIT__ 32\000"
 12240      415F4942 
 12240      49545F5F 
 12240      20333200 
ARM GAS  /var/folders/f9/8bk2lnw15zn4cbgn6wrnb4lm0000gn/T//cc47W8rL.s 			page 299


 12241              	.LASF905:
 12242 660d 4932435F 		.ascii	"I2C_I2STAT_S_RX_GENCALL_ACK ((0x70))\000"
 12242      49325354 
 12242      41545F53 
 12242      5F52585F 
 12242      47454E43 
 12243              	.LASF394:
 12244 6632 494E5436 		.ascii	"INT64_MIN (-__INT64_MAX__ - 1)\000"
 12244      345F4D49 
 12244      4E20282D 
 12244      5F5F494E 
 12244      5436345F 
 12245              	.LASF6:
 12246 6651 5F5F4154 		.ascii	"__ATOMIC_RELAXED 0\000"
 12246      4F4D4943 
 12246      5F52454C 
 12246      41584544 
 12246      203000
 12247              	.LASF718:
 12248 6664 55415254 		.ascii	"UART_FCR_RX_RS (1 << 1)\000"
 12248      5F464352 
 12248      5F52585F 
 12248      52532028 
 12248      31203C3C 
 12249              	.LASF603:
 12250 667c 5F5F464D 		.ascii	"__FMC_11XX_H_ \000"
 12250      435F3131 
 12250      58585F48 
 12250      5F2000
 12251              	.LASF700:
 12252 668b 55415254 		.ascii	"UART_IER_CTSINT (1 << 7)\000"
 12252      5F494552 
 12252      5F435453 
 12252      494E5420 
 12252      2831203C 
 12253              	.LASF146:
 12254 66a4 5F5F4442 		.ascii	"__DBL_HAS_INFINITY__ 1\000"
 12254      4C5F4841 
 12254      535F494E 
 12254      46494E49 
 12254      54595F5F 
 12255              	.LASF399:
 12256 66bb 55494E54 		.ascii	"UINT_LEAST64_MAX __UINT_LEAST64_MAX__\000"
 12256      5F4C4541 
 12256      53543634 
 12256      5F4D4158 
 12256      205F5F55 
 12257              	.LASF393:
 12258 66e1 55494E54 		.ascii	"UINT_LEAST32_MAX __UINT_LEAST32_MAX__\000"
 12258      5F4C4541 
 12258      53543332 
 12258      5F4D4158 
 12258      205F5F55 
 12259              	.LASF869:
 12260 6707 4932435F 		.ascii	"I2C_STA_STO_RECV 0x20\000"
 12260      5354415F 
 12260      53544F5F 
ARM GAS  /var/folders/f9/8bk2lnw15zn4cbgn6wrnb4lm0000gn/T//cc47W8rL.s 			page 300


 12260      52454356 
 12260      20307832 
 12261              	.LASF738:
 12262 671d 55415254 		.ascii	"UART_LCR_PARITY_EVEN (1 << 4)\000"
 12262      5F4C4352 
 12262      5F504152 
 12262      4954595F 
 12262      4556454E 
 12263              	.LASF1059:
 12264 673b 53544152 		.ascii	"STARTERP0\000"
 12264      54455250 
 12264      3000
 12265              	.LASF1063:
 12266 6745 53544152 		.ascii	"STARTERP1\000"
 12266      54455250 
 12266      3100
 12267              	.LASF477:
 12268 674f 5F5F494F 		.ascii	"__IO volatile\000"
 12268      20766F6C 
 12268      6174696C 
 12268      6500
 12269              	.LASF654:
 12270 675d 4D445F50 		.ascii	"MD_PDN (0x1 << 3)\000"
 12270      444E2028 
 12270      30783120 
 12270      3C3C2033 
 12270      2900
 12271              	.LASF702:
 12272 676f 55415254 		.ascii	"UART_IER_ABTOINT (1 << 9)\000"
 12272      5F494552 
 12272      5F414254 
 12272      4F494E54 
 12272      20283120 
 12273              	.LASF18:
 12274 6789 5F5F5349 		.ascii	"__SIZEOF_FLOAT__ 4\000"
 12274      5A454F46 
 12274      5F464C4F 
 12274      41545F5F 
 12274      203400
 12275              	.LASF425:
 12276 679c 55494E54 		.ascii	"UINT8_C(x) __UINT8_C(x)\000"
 12276      385F4328 
 12276      7829205F 
 12276      5F55494E 
 12276      54385F43 
 12277              	.LASF67:
 12278 67b4 5F5F5348 		.ascii	"__SHRT_MAX__ 32767\000"
 12278      52545F4D 
 12278      41585F5F 
 12278      20333237 
 12278      363700
 12279              	.LASF551:
 12280 67c7 53797354 		.ascii	"SysTick ((SysTick_Type *) SysTick_BASE )\000"
 12280      69636B20 
 12280      28285379 
 12280      73546963 
 12280      6B5F5479 
ARM GAS  /var/folders/f9/8bk2lnw15zn4cbgn6wrnb4lm0000gn/T//cc47W8rL.s 			page 301


 12281              	.LASF211:
 12282 67f0 5F5F554C 		.ascii	"__ULFRACT_MAX__ 0XFFFFFFFFP-32ULR\000"
 12282      46524143 
 12282      545F4D41 
 12282      585F5F20 
 12282      30584646 
 12283              	.LASF140:
 12284 6812 5F5F4442 		.ascii	"__DBL_DECIMAL_DIG__ 17\000"
 12284      4C5F4445 
 12284      43494D41 
 12284      4C5F4449 
 12284      475F5F20 
 12285              	.LASF492:
 12286 6829 5343425F 		.ascii	"SCB_ICSR_PENDSVCLR_Pos 27\000"
 12286      49435352 
 12286      5F50454E 
 12286      44535643 
 12286      4C525F50 
 12287              	.LASF360:
 12288 6843 5F5F6861 		.ascii	"__have_long32 1\000"
 12288      76655F6C 
 12288      6F6E6733 
 12288      32203100 
 12289              	.LASF379:
 12290 6853 494E545F 		.ascii	"INT_LEAST8_MIN (-__INT_LEAST8_MAX__ - 1)\000"
 12290      4C454153 
 12290      54385F4D 
 12290      494E2028 
 12290      2D5F5F49 
 12291              	.LASF103:
 12292 687c 5F5F5549 		.ascii	"__UINT_LEAST32_MAX__ 4294967295UL\000"
 12292      4E545F4C 
 12292      45415354 
 12292      33325F4D 
 12292      41585F5F 
 12293              	.LASF248:
 12294 689e 5F5F554C 		.ascii	"__ULACCUM_FBIT__ 32\000"
 12294      41434355 
 12294      4D5F4642 
 12294      49545F5F 
 12294      20333200 
 12295              	.LASF510:
 12296 68b2 5343425F 		.ascii	"SCB_AIRCR_ENDIANESS_Pos 15\000"
 12296      41495243 
 12296      525F454E 
 12296      4449414E 
 12296      4553535F 
 12297              	.LASF619:
 12298 68cd 53595343 		.ascii	"SYSCTL_SLPWAKE_WDTOSC_PD (1 << 6)\000"
 12298      544C5F53 
 12298      4C505741 
 12298      4B455F57 
 12298      44544F53 
 12299              	.LASF990:
 12300 68ef 534C4156 		.ascii	"SLAVE_ACTIVE(iic) (((iic)->flags & 0xFF00) != 0)\000"
 12300      455F4143 
 12300      54495645 
ARM GAS  /var/folders/f9/8bk2lnw15zn4cbgn6wrnb4lm0000gn/T//cc47W8rL.s 			page 302


 12300      28696963 
 12300      29202828 
 12301              	.LASF367:
 12302 6920 5F5F696E 		.ascii	"__int64_t_defined 1\000"
 12302      7436345F 
 12302      745F6465 
 12302      66696E65 
 12302      64203100 
 12303              	.LASF536:
 12304 6934 53797354 		.ascii	"SysTick_LOAD_RELOAD_Pos 0\000"
 12304      69636B5F 
 12304      4C4F4144 
 12304      5F52454C 
 12304      4F41445F 
 12305              	.LASF327:
 12306 694e 5F5F4152 		.ascii	"__ARMEL__ 1\000"
 12306      4D454C5F 
 12306      5F203100 
 12307              	.LASF832:
 12308 695a 5353505F 		.ascii	"SSP_SR_BITMASK ((uint32_t) (0x1F))\000"
 12308      53525F42 
 12308      49544D41 
 12308      534B2028 
 12308      2875696E 
 12309              	.LASF629:
 12310 697d 5F5F434C 		.ascii	"__CLOCK_11XX_H_ \000"
 12310      4F434B5F 
 12310      31315858 
 12310      5F485F20 
 12310      00
 12311              	.LASF1053:
 12312 698e 4E4D4953 		.ascii	"NMISRC\000"
 12312      524300
 12313              	.LASF69:
 12314 6995 5F5F4C4F 		.ascii	"__LONG_MAX__ 2147483647L\000"
 12314      4E475F4D 
 12314      41585F5F 
 12314      20323134 
 12314      37343833 
 12315              	.LASF263:
 12316 69ae 5F5F5151 		.ascii	"__QQ_FBIT__ 7\000"
 12316      5F464249 
 12316      545F5F20 
 12316      3700
 12317              	.LASF939:
 12318 69bc 4932435F 		.ascii	"I2C_ERR (0x10000000)\000"
 12318      45525220 
 12318      28307831 
 12318      30303030 
 12318      30303029 
 12319              	.LASF919:
 12320 69d1 4932435F 		.ascii	"I2C_I2DAT_IDLE_CHAR (0xFF)\000"
 12320      49324441 
 12320      545F4944 
 12320      4C455F43 
 12320      48415220 
 12321              	.LASF455:
ARM GAS  /var/folders/f9/8bk2lnw15zn4cbgn6wrnb4lm0000gn/T//cc47W8rL.s 			page 303


 12322 69ec 494E4C49 		.ascii	"INLINE inline\000"
 12322      4E452069 
 12322      6E6C696E 
 12322      6500
 12323              	.LASF522:
 12324 69fa 5343425F 		.ascii	"SCB_CCR_STKALIGN_Pos 9\000"
 12324      4343525F 
 12324      53544B41 
 12324      4C49474E 
 12324      5F506F73 
 12325              	.LASF864:
 12326 6a11 5F5F4932 		.ascii	"__I2C_11XX_H_ \000"
 12326      435F3131 
 12326      58585F48 
 12326      5F2000
 12327              	.LASF757:
 12328 6a20 55415254 		.ascii	"UART_LSR_RXFE (1 << 7)\000"
 12328      5F4C5352 
 12328      5F525846 
 12328      45202831 
 12328      203C3C20 
 12329              	.LASF347:
 12330 6a37 5F5F474E 		.ascii	"__GNUC_PREREQ__(ma,mi) __GNUC_PREREQ(ma, mi)\000"
 12330      55435F50 
 12330      52455245 
 12330      515F5F28 
 12330      6D612C6D 
 12331              	.LASF558:
 12332 6a64 4C50435F 		.ascii	"LPC_USART_BASE 0x40008000\000"
 12332      55534152 
 12332      545F4241 
 12332      53452030 
 12332      78343030 
 12333              	.LASF1112:
 12334 6a7e 4932435F 		.ascii	"I2C_STATUS_NAK\000"
 12334      53544154 
 12334      55535F4E 
 12334      414B00
 12335              	.LASF298:
 12336 6a8d 5F5F5554 		.ascii	"__UTA_IBIT__ 64\000"
 12336      415F4942 
 12336      49545F5F 
 12336      20363400 
 12337              	.LASF259:
 12338 6a9d 5F5F554C 		.ascii	"__ULLACCUM_IBIT__ 32\000"
 12338      4C414343 
 12338      554D5F49 
 12338      4249545F 
 12338      5F203332 
 12339              	.LASF471:
 12340 6ab2 5F5F4650 		.ascii	"__FPU_USED 0\000"
 12340      555F5553 
 12340      45442030 
 12340      00
 12341              	.LASF449:
 12342 6abf 4E454C45 		.ascii	"NELEMENTS(array) (sizeof(array) / sizeof(array[0]))"
 12342      4D454E54 
ARM GAS  /var/folders/f9/8bk2lnw15zn4cbgn6wrnb4lm0000gn/T//cc47W8rL.s 			page 304


 12342      53286172 
 12342      72617929 
 12342      20287369 
 12343 6af2 00       		.ascii	"\000"
 12344              	.LASF222:
 12345 6af3 5F5F554C 		.ascii	"__ULLFRACT_EPSILON__ 0x1P-64ULLR\000"
 12345      4C465241 
 12345      43545F45 
 12345      5053494C 
 12345      4F4E5F5F 
 12346              	.LASF1041:
 12347 6b14 57445443 		.ascii	"WDTCLKDIV\000"
 12347      4C4B4449 
 12347      5600
 12348              	.LASF465:
 12349 6b1e 5F5F434D 		.ascii	"__CM0_CMSIS_VERSION_SUB (0x01)\000"
 12349      305F434D 
 12349      5349535F 
 12349      56455253 
 12349      494F4E5F 
 12350              	.LASF317:
 12351 6b3d 5F5F5349 		.ascii	"__SIZEOF_WINT_T__ 4\000"
 12351      5A454F46 
 12351      5F57494E 
 12351      545F545F 
 12351      5F203400 
 12352              	.LASF602:
 12353 6b51 504D555F 		.ascii	"PMU_PCON_DPDFLAG (1 << 11)\000"
 12353      50434F4E 
 12353      5F445044 
 12353      464C4147 
 12353      20283120 
 12354              	.LASF529:
 12355 6b6c 53797354 		.ascii	"SysTick_CTRL_COUNTFLAG_Msk (1UL << SysTick_CTRL_COU"
 12355      69636B5F 
 12355      4354524C 
 12355      5F434F55 
 12355      4E54464C 
 12356 6b9f 4E54464C 		.ascii	"NTFLAG_Pos)\000"
 12356      41475F50 
 12356      6F732900 
 12357              	.LASF215:
 12358 6bab 5F5F4C4C 		.ascii	"__LLFRACT_MIN__ (-0.5LLR-0.5LLR)\000"
 12358      46524143 
 12358      545F4D49 
 12358      4E5F5F20 
 12358      282D302E 
 12359              	.LASF1011:
 12360 6bcc 55534250 		.ascii	"USBPLLCTRL\000"
 12360      4C4C4354 
 12360      524C00
 12361              	.LASF1060:
 12362 6bd7 53544152 		.ascii	"STARTRSRP0CLR\000"
 12362      54525352 
 12362      5030434C 
 12362      5200
 12363              	.LASF1010:
ARM GAS  /var/folders/f9/8bk2lnw15zn4cbgn6wrnb4lm0000gn/T//cc47W8rL.s 			page 305


 12364 6be5 53595350 		.ascii	"SYSPLLSTAT\000"
 12364      4C4C5354 
 12364      415400
 12365              	.LASF245:
 12366 6bf0 5F5F4C41 		.ascii	"__LACCUM_MIN__ (-0X1P31LK-0X1P31LK)\000"
 12366      4343554D 
 12366      5F4D494E 
 12366      5F5F2028 
 12366      2D305831 
 12367              	.LASF578:
 12368 6c14 4941505F 		.ascii	"IAP_ENTRY_LOCATION 0X1FFF1FF1\000"
 12368      454E5452 
 12368      595F4C4F 
 12368      43415449 
 12368      4F4E2030 
 12369              	.LASF336:
 12370 6c32 5F5F4152 		.ascii	"__ARM_EABI__ 1\000"
 12370      4D5F4541 
 12370      42495F5F 
 12370      203100
 12371              	.LASF666:
 12372 6c41 4D445F4F 		.ascii	"MD_OPENDRAIN (0x1 << 10)\000"
 12372      50454E44 
 12372      5241494E 
 12372      20283078 
 12372      31203C3C 
 12373              	.LASF144:
 12374 6c5a 5F5F4442 		.ascii	"__DBL_DENORM_MIN__ ((double)4.9406564584124654e-324"
 12374      4C5F4445 
 12374      4E4F524D 
 12374      5F4D494E 
 12374      5F5F2028 
 12375 6c8d 4C2900   		.ascii	"L)\000"
 12376              	.LASF1031:
 12377 6c90 53535030 		.ascii	"SSP0CLKDIV\000"
 12377      434C4B44 
 12377      495600
 12378              	.LASF564:
 12379 6c9b 4C50435F 		.ascii	"LPC_DAC_BASE 0x40024000\000"
 12379      4441435F 
 12379      42415345 
 12379      20307834 
 12379      30303234 
 12380              	.LASF834:
 12381 6cb3 5353505F 		.ascii	"SSP_CPHA_FIRST SSP_CR0_CPHA_FIRST\000"
 12381      43504841 
 12381      5F464952 
 12381      53542053 
 12381      53505F43 
 12382              	.LASF447:
 12383 6cd5 5F424954 		.ascii	"_BITMASK(field_width) ( _BIT(field_width) - 1)\000"
 12383      4D41534B 
 12383      28666965 
 12383      6C645F77 
 12383      69647468 
 12384              	.LASF608:
 12385 6d04 53595343 		.ascii	"SYSCTL_RST_BOD (1 << 3)\000"
ARM GAS  /var/folders/f9/8bk2lnw15zn4cbgn6wrnb4lm0000gn/T//cc47W8rL.s 			page 306


 12385      544C5F52 
 12385      53545F42 
 12385      4F442028 
 12385      31203C3C 
 12386              	.LASF604:
 12387 6d1c 5F5F5359 		.ascii	"__SYSCTL_11XX_H_ \000"
 12387      5343544C 
 12387      5F313158 
 12387      585F485F 
 12387      2000
 12388              	.LASF45:
 12389 6d2e 5F5F5549 		.ascii	"__UINT32_TYPE__ long unsigned int\000"
 12389      4E543332 
 12389      5F545950 
 12389      455F5F20 
 12389      6C6F6E67 
 12390              	.LASF374:
 12391 6d50 494E5450 		.ascii	"INTPTR_MAX __INTPTR_MAX__\000"
 12391      54525F4D 
 12391      4158205F 
 12391      5F494E54 
 12391      5054525F 
 12392              	.LASF340:
 12393 6d6a 434F5245 		.ascii	"CORE_M0 1\000"
 12393      5F4D3020 
 12393      3100
 12394              	.LASF866:
 12395 6d74 5245545F 		.ascii	"RET_SLAVE_RX 5\000"
 12395      534C4156 
 12395      455F5258 
 12395      203500
 12396              	.LASF675:
 12397 6d83 5F5F5449 		.ascii	"__TIMER_11XX_H_ \000"
 12397      4D45525F 
 12397      31315858 
 12397      5F485F20 
 12397      00
 12398              	.LASF563:
 12399 6d94 4C50435F 		.ascii	"LPC_ADC_BASE 0x4001C000\000"
 12399      4144435F 
 12399      42415345 
 12399      20307834 
 12399      30303143 
 12400              	.LASF621:
 12401 6dac 53595343 		.ascii	"SYSCTL_POWERDOWN_IRCOUT_PD (1 << 0)\000"
 12401      544C5F50 
 12401      4F574552 
 12401      444F574E 
 12401      5F495243 
 12402              	.LASF667:
 12403 6dd0 46554E43 		.ascii	"FUNC0 0x0\000"
 12403      30203078 
 12403      3000
 12404              	.LASF960:
 12405 6dda 53444F5F 		.ascii	"SDO_ABORT_SDOTIMEOUT 0x05040000UL\000"
 12405      41424F52 
 12405      545F5344 
ARM GAS  /var/folders/f9/8bk2lnw15zn4cbgn6wrnb4lm0000gn/T//cc47W8rL.s 			page 307


 12405      4F54494D 
 12405      454F5554 
 12406              	.LASF762:
 12407 6dfc 55415254 		.ascii	"UART_MSR_DELTA_DSR (1 << 1)\000"
 12407      5F4D5352 
 12407      5F44454C 
 12407      54415F44 
 12407      53522028 
 12408              	.LASF220:
 12409 6e18 5F5F554C 		.ascii	"__ULLFRACT_MIN__ 0.0ULLR\000"
 12409      4C465241 
 12409      43545F4D 
 12409      494E5F5F 
 12409      20302E30 
 12410              	.LASF435:
 12411 6e31 5F535444 		.ascii	"_STDBOOL_H \000"
 12411      424F4F4C 
 12411      5F482000 
 12412              	.LASF613:
 12413 6e3d 53595343 		.ascii	"SYSCTL_SLPWAKE_IRCOUT_PD (1 << 0)\000"
 12413      544C5F53 
 12413      4C505741 
 12413      4B455F49 
 12413      52434F55 
 12414              	.LASF473:
 12415 6e5f 5F5F434F 		.ascii	"__CORE_CMFUNC_H \000"
 12415      52455F43 
 12415      4D46554E 
 12415      435F4820 
 12415      00
 12416              	.LASF280:
 12417 6e70 5F5F5544 		.ascii	"__UDQ_IBIT__ 0\000"
 12417      515F4942 
 12417      49545F5F 
 12417      203000
 12418              	.LASF14:
 12419 6e7f 5F5F5349 		.ascii	"__SIZEOF_INT__ 4\000"
 12419      5A454F46 
 12419      5F494E54 
 12419      5F5F2034 
 12419      00
 12420              	.LASF214:
 12421 6e90 5F5F4C4C 		.ascii	"__LLFRACT_IBIT__ 0\000"
 12421      46524143 
 12421      545F4942 
 12421      49545F5F 
 12421      203000
 12422              	.LASF427:
 12423 6ea3 55494E54 		.ascii	"UINT16_C(x) __UINT16_C(x)\000"
 12423      31365F43 
 12423      28782920 
 12423      5F5F5549 
 12423      4E543136 
 12424              	.LASF916:
 12425 6ebd 4932435F 		.ascii	"I2C_I2STAT_S_TX_LAST_DAT_ACK ((0xC8))\000"
 12425      49325354 
 12425      41545F53 
ARM GAS  /var/folders/f9/8bk2lnw15zn4cbgn6wrnb4lm0000gn/T//cc47W8rL.s 			page 308


 12425      5F54585F 
 12425      4C415354 
 12426              	.LASF1078:
 12427 6ee3 53595343 		.ascii	"SYSCTL_CLOCK_CT16B0\000"
 12427      544C5F43 
 12427      4C4F434B 
 12427      5F435431 
 12427      36423000 
 12428              	.LASF1003:
 12429 6ef7 75696E74 		.ascii	"uint32_t\000"
 12429      33325F74 
 12429      00
 12430              	.LASF844:
 12431 6f00 4144435F 		.ascii	"ADC_MAX_SAMPLE_RATE 400000\000"
 12431      4D41585F 
 12431      53414D50 
 12431      4C455F52 
 12431      41544520 
 12432              	.LASF790:
 12433 6f1b 55415254 		.ascii	"UART_SCICTRL_NACKDIS (1 << 1)\000"
 12433      5F534349 
 12433      4354524C 
 12433      5F4E4143 
 12433      4B444953 
 12434              	.LASF735:
 12435 6f39 55415254 		.ascii	"UART_LCR_PARITY_EN (1 << 3)\000"
 12435      5F4C4352 
 12435      5F504152 
 12435      4954595F 
 12435      454E2028 
 12436              	.LASF1061:
 12437 6f55 53544152 		.ascii	"STARTSRP0\000"
 12437      54535250 
 12437      3000
 12438              	.LASF227:
 12439 6f5f 5F5F5341 		.ascii	"__SACCUM_EPSILON__ 0x1P-7HK\000"
 12439      4343554D 
 12439      5F455053 
 12439      494C4F4E 
 12439      5F5F2030 
 12440              	.LASF601:
 12441 6f7b 504D555F 		.ascii	"PMU_PCON_SLEEPFLAG (1 << 8)\000"
 12441      50434F4E 
 12441      5F534C45 
 12441      4550464C 
 12441      41472028 
 12442              	.LASF1175:
 12443 6f97 53434C56 		.ascii	"SCLValue\000"
 12443      616C7565 
 12443      00
 12444              	.LASF595:
 12445 6fa0 4C50435F 		.ascii	"LPC_USB ((LPC_USB_T *) LPC_USB0_BASE)\000"
 12445      55534220 
 12445      28284C50 
 12445      435F5553 
 12445      425F5420 
 12446              	.LASF1096:
ARM GAS  /var/folders/f9/8bk2lnw15zn4cbgn6wrnb4lm0000gn/T//cc47W8rL.s 			page 309


 12447 6fc6 434F4E43 		.ascii	"CONCLR\000"
 12447      4C5200
 12448              	.LASF693:
 12449 6fcd 55415254 		.ascii	"UART_DLL_MASKBIT (0xFF)\000"
 12449      5F444C4C 
 12449      5F4D4153 
 12449      4B424954 
 12449      20283078 
 12450              	.LASF1101:
 12451 6fe5 44415441 		.ascii	"DATA_BUFFER\000"
 12451      5F425546 
 12451      46455200 
 12452              	.LASF461:
 12453 6ff1 5F5F4E56 		.ascii	"__NVIC_PRIO_BITS 2\000"
 12453      49435F50 
 12453      52494F5F 
 12453      42495453 
 12453      203200
 12454              	.LASF845:
 12455 7004 4144435F 		.ascii	"ADC_DR_RESULT(n) ((((n) >> 6) & 0x3FF))\000"
 12455      44525F52 
 12455      4553554C 
 12455      54286E29 
 12455      20282828 
 12456              	.LASF60:
 12457 702c 5F5F5549 		.ascii	"__UINT_FAST16_TYPE__ unsigned int\000"
 12457      4E545F46 
 12457      41535431 
 12457      365F5459 
 12457      50455F5F 
 12458              	.LASF543:
 12459 704e 53797354 		.ascii	"SysTick_CALIB_SKEW_Msk (1UL << SysTick_CALIB_SKEW_P"
 12459      69636B5F 
 12459      43414C49 
 12459      425F534B 
 12459      45575F4D 
 12460 7081 6F732900 		.ascii	"os)\000"
 12461              	.LASF292:
 12462 7085 5F5F5548 		.ascii	"__UHA_IBIT__ 8\000"
 12462      415F4942 
 12462      49545F5F 
 12462      203800
 12463              	.LASF928:
 12464 7094 4932435F 		.ascii	"I2C_I2SCLH_BITMASK ((0xFFFF))\000"
 12464      49325343 
 12464      4C485F42 
 12464      49544D41 
 12464      534B2028 
 12465              	.LASF237:
 12466 70b2 5F5F4143 		.ascii	"__ACCUM_EPSILON__ 0x1P-15K\000"
 12466      43554D5F 
 12466      45505349 
 12466      4C4F4E5F 
 12466      5F203078 
 12467              	.LASF252:
 12468 70cd 5F5F554C 		.ascii	"__ULACCUM_EPSILON__ 0x1P-32ULK\000"
 12468      41434355 
ARM GAS  /var/folders/f9/8bk2lnw15zn4cbgn6wrnb4lm0000gn/T//cc47W8rL.s 			page 310


 12468      4D5F4550 
 12468      53494C4F 
 12468      4E5F5F20 
 12469              	.LASF988:
 12470 70ec 4932435F 		.ascii	"I2C_CON_FLAGS (I2C_CON_AA | I2C_CON_SI | I2C_CON_ST"
 12470      434F4E5F 
 12470      464C4147 
 12470      53202849 
 12470      32435F43 
 12471 711f 4F207C20 		.ascii	"O | I2C_CON_STA)\000"
 12471      4932435F 
 12471      434F4E5F 
 12471      53544129 
 12471      00
 12472              	.LASF149:
 12473 7130 5F5F4C44 		.ascii	"__LDBL_DIG__ 15\000"
 12473      424C5F44 
 12473      49475F5F 
 12473      20313500 
 12474              	.LASF1015:
 12475 7140 5744544F 		.ascii	"WDTOSCCTRL\000"
 12475      53434354 
 12475      524C00
 12476              	.LASF751:
 12477 714b 55415254 		.ascii	"UART_LSR_OE (1 << 1)\000"
 12477      5F4C5352 
 12477      5F4F4520 
 12477      2831203C 
 12477      3C203129 
 12478              	.LASF921:
 12479 7160 4932435F 		.ascii	"I2C_I2MMCTRL_ENA_SCL ((1 << 1))\000"
 12479      49324D4D 
 12479      4354524C 
 12479      5F454E41 
 12479      5F53434C 
 12480              	.LASF362:
 12481 7180 5F5F696E 		.ascii	"__int_least8_t_defined 1\000"
 12481      745F6C65 
 12481      61737438 
 12481      5F745F64 
 12481      6566696E 
 12482              	.LASF1045:
 12483 7199 434C4B4F 		.ascii	"CLKOUTDIV\000"
 12483      55544449 
 12483      5600
 12484              	.LASF74:
 12485 71a3 5F5F5749 		.ascii	"__WINT_MIN__ 0U\000"
 12485      4E545F4D 
 12485      494E5F5F 
 12485      20305500 
 12486              	.LASF643:
 12487 71b3 494F434F 		.ascii	"IOCON_MODE_REPEATER (0x3 << 3)\000"
 12487      4E5F4D4F 
 12487      44455F52 
 12487      45504541 
 12487      54455220 
 12488              	.LASF174:
ARM GAS  /var/folders/f9/8bk2lnw15zn4cbgn6wrnb4lm0000gn/T//cc47W8rL.s 			page 311


 12489 71d2 5F5F4445 		.ascii	"__DEC64_EPSILON__ 1E-15DD\000"
 12489      4336345F 
 12489      45505349 
 12489      4C4F4E5F 
 12489      5F203145 
 12490              	.LASF513:
 12491 71ec 5343425F 		.ascii	"SCB_AIRCR_SYSRESETREQ_Msk (1UL << SCB_AIRCR_SYSRESE"
 12491      41495243 
 12491      525F5359 
 12491      53524553 
 12491      45545245 
 12492 721f 54524551 		.ascii	"TREQ_Pos)\000"
 12492      5F506F73 
 12492      2900
 12493              	.LASF953:
 12494 7229 43414E5F 		.ascii	"CAN_ERROR_BIT0 0x00000080UL\000"
 12494      4552524F 
 12494      525F4249 
 12494      54302030 
 12494      78303030 
 12495              	.LASF1144:
 12496 7245 78666572 		.ascii	"xfer\000"
 12496      00
 12497              	.LASF1169:
 12498 724a 68616E64 		.ascii	"handleSlaveXferState\000"
 12498      6C65536C 
 12498      61766558 
 12498      66657253 
 12498      74617465 
 12499              	.LASF48:
 12500 725f 5F5F494E 		.ascii	"__INT_LEAST16_TYPE__ short int\000"
 12500      545F4C45 
 12500      41535431 
 12500      365F5459 
 12500      50455F5F 
 12501              	.LASF1033:
 12502 727e 53535031 		.ascii	"SSP1CLKDIV\000"
 12502      434C4B44 
 12502      495600
 12503              	.LASF262:
 12504 7289 5F5F554C 		.ascii	"__ULLACCUM_EPSILON__ 0x1P-32ULLK\000"
 12504      4C414343 
 12504      554D5F45 
 12504      5053494C 
 12504      4F4E5F5F 
 12505              	.LASF614:
 12506 72aa 53595343 		.ascii	"SYSCTL_SLPWAKE_IRC_PD (1 << 1)\000"
 12506      544C5F53 
 12506      4C505741 
 12506      4B455F49 
 12506      52435F50 
 12507              	.LASF141:
 12508 72c9 5F5F4442 		.ascii	"__DBL_MAX__ ((double)1.7976931348623157e+308L)\000"
 12508      4C5F4D41 
 12508      585F5F20 
 12508      2828646F 
 12508      75626C65 
ARM GAS  /var/folders/f9/8bk2lnw15zn4cbgn6wrnb4lm0000gn/T//cc47W8rL.s 			page 312


 12509              	.LASF994:
 12510 72f8 73686F72 		.ascii	"short unsigned int\000"
 12510      7420756E 
 12510      7369676E 
 12510      65642069 
 12510      6E7400
 12511              	.LASF213:
 12512 730b 5F5F4C4C 		.ascii	"__LLFRACT_FBIT__ 63\000"
 12512      46524143 
 12512      545F4642 
 12512      49545F5F 
 12512      20363300 
 12513              	.LASF479:
 12514 731f 5343425F 		.ascii	"SCB_CPUID_IMPLEMENTER_Msk (0xFFUL << SCB_CPUID_IMPL"
 12514      43505549 
 12514      445F494D 
 12514      504C454D 
 12514      454E5445 
 12515 7352 454D454E 		.ascii	"EMENTER_Pos)\000"
 12515      5445525F 
 12515      506F7329 
 12515      00
 12516              	.LASF325:
 12517 735f 5F5F7468 		.ascii	"__thumb__ 1\000"
 12517      756D625F 
 12517      5F203100 
 12518              	.LASF852:
 12519 736b 4144435F 		.ascii	"ADC_CR_PDN ((1UL << 21))\000"
 12519      43525F50 
 12519      444E2028 
 12519      2831554C 
 12519      203C3C20 
 12520              	.LASF1177:
 12521 7384 43686970 		.ascii	"Chip_I2C_SetMasterEventHandler\000"
 12521      5F493243 
 12521      5F536574 
 12521      4D617374 
 12521      65724576 
 12522              	.LASF1121:
 12523 73a3 7278537A 		.ascii	"rxSz\000"
 12523      00
 12524              	.LASF112:
 12525 73a8 5F5F5549 		.ascii	"__UINT_FAST16_MAX__ 4294967295U\000"
 12525      4E545F46 
 12525      41535431 
 12525      365F4D41 
 12525      585F5F20 
 12526              	.LASF1168:
 12527 73c8 67657453 		.ascii	"getSlaveIndex\000"
 12527      6C617665 
 12527      496E6465 
 12527      7800
 12528              	.LASF265:
 12529 73d6 5F5F4851 		.ascii	"__HQ_FBIT__ 15\000"
 12529      5F464249 
 12529      545F5F20 
 12529      313500
ARM GAS  /var/folders/f9/8bk2lnw15zn4cbgn6wrnb4lm0000gn/T//cc47W8rL.s 			page 313


 12530              	.LASF439:
 12531 73e5 5F5F626F 		.ascii	"__bool_true_false_are_defined 1\000"
 12531      6F6C5F74 
 12531      7275655F 
 12531      66616C73 
 12531      655F6172 
 12532              	.LASF904:
 12533 7405 4932435F 		.ascii	"I2C_I2STAT_S_RX_ARB_LOST_M_SLA ((0x68))\000"
 12533      49325354 
 12533      41545F53 
 12533      5F52585F 
 12533      4152425F 
 12534              	.LASF514:
 12535 742d 5343425F 		.ascii	"SCB_AIRCR_VECTCLRACTIVE_Pos 1\000"
 12535      41495243 
 12535      525F5645 
 12535      4354434C 
 12535      52414354 
 12536              	.LASF924:
 12537 744b 49324441 		.ascii	"I2DATA_BUFFER_BITMASK ((0xFF))\000"
 12537      54415F42 
 12537      55464645 
 12537      525F4249 
 12537      544D4153 
 12538              	.LASF459:
 12539 746a 5F5F434D 		.ascii	"__CMSIS_11CXX_H_ \000"
 12539      5349535F 
 12539      31314358 
 12539      585F485F 
 12539      2000
 12540              	.LASF965:
 12541 747c 53444F5F 		.ascii	"SDO_ABORT_NOT_EXISTS 0x06020000UL\000"
 12541      41424F52 
 12541      545F4E4F 
 12541      545F4558 
 12541      49535453 
 12542              	.LASF1119:
 12543 749e 7478537A 		.ascii	"txSz\000"
 12543      00
 12544              	.LASF556:
 12545 74a3 4C50435F 		.ascii	"LPC_I2C_BASE 0x40000000\000"
 12545      4932435F 
 12545      42415345 
 12545      20307834 
 12545      30303030 
 12546              	.LASF785:
 12547 74bb 55415254 		.ascii	"UART_ICR_FIXPULSE_EN (1 << 2)\000"
 12547      5F494352 
 12547      5F464958 
 12547      50554C53 
 12547      455F454E 
 12548              	.LASF184:
 12549 74d9 5F5F5346 		.ascii	"__SFRACT_IBIT__ 0\000"
 12549      52414354 
 12549      5F494249 
 12549      545F5F20 
 12549      3000
ARM GAS  /var/folders/f9/8bk2lnw15zn4cbgn6wrnb4lm0000gn/T//cc47W8rL.s 			page 314


 12550              	.LASF474:
 12551 74eb 5F5F434F 		.ascii	"__CORE_CM0_H_DEPENDANT \000"
 12551      52455F43 
 12551      4D305F48 
 12551      5F444550 
 12551      454E4441 
 12552              	.LASF1148:
 12553 7503 70493243 		.ascii	"pI2C\000"
 12553      00
 12554              	.LASF811:
 12555 7508 57574454 		.ascii	"WWDT_WDMOD_WDINT ((uint32_t) (1 << 3))\000"
 12555      5F57444D 
 12555      4F445F57 
 12555      44494E54 
 12555      20282875 
 12556              	.LASF875:
 12557 752f 4932435F 		.ascii	"I2C_I2CONCLR_AAC ((1 << 2))\000"
 12557      4932434F 
 12557      4E434C52 
 12557      5F414143 
 12557      20282831 
 12558              	.LASF1166:
 12559 754b 6C6F6F6B 		.ascii	"lookupSlaveIndex\000"
 12559      7570536C 
 12559      61766549 
 12559      6E646578 
 12559      00
 12560              	.LASF524:
 12561 755c 5343425F 		.ascii	"SCB_CCR_UNALIGN_TRP_Pos 3\000"
 12561      4343525F 
 12561      554E414C 
 12561      49474E5F 
 12561      5452505F 
 12562              	.LASF571:
 12563 7576 4C50435F 		.ascii	"LPC_USB0_BASE 0x40080000\000"
 12563      55534230 
 12563      5F424153 
 12563      45203078 
 12563      34303038 
 12564              	.LASF1050:
 12565 758f 53595354 		.ascii	"SYSTCKCAL\000"
 12565      434B4341 
 12565      4C00
 12566              	.LASF830:
 12567 7599 5353505F 		.ascii	"SSP_CPSR_BITMASK ((uint32_t) (0xFF))\000"
 12567      43505352 
 12567      5F424954 
 12567      4D41534B 
 12567      20282875 
 12568              	.LASF30:
 12569 75be 5F5F5349 		.ascii	"__SIZE_TYPE__ unsigned int\000"
 12569      5A455F54 
 12569      5950455F 
 12569      5F20756E 
 12569      7369676E 
 12570              	.LASF804:
 12571 75d9 55415254 		.ascii	"UART_SYNCCTRL_STARTSTOPDISABLE (1 << 5)\000"
ARM GAS  /var/folders/f9/8bk2lnw15zn4cbgn6wrnb4lm0000gn/T//cc47W8rL.s 			page 315


 12571      5F53594E 
 12571      43435452 
 12571      4C5F5354 
 12571      41525453 
 12572              	.LASF1035:
 12573 7601 55534243 		.ascii	"USBCLKSEL\000"
 12573      4C4B5345 
 12573      4C00
 12574              	.LASF971:
 12575 760b 53444F5F 		.ascii	"SDO_ABORT_TRANSFER 0x08000020UL\000"
 12575      41424F52 
 12575      545F5452 
 12575      414E5346 
 12575      45522030 
 12576              	.LASF851:
 12577 762b 4144435F 		.ascii	"ADC_CR_BURST ((1UL << 16))\000"
 12577      43525F42 
 12577      55525354 
 12577      20282831 
 12577      554C203C 
 12578              	.LASF186:
 12579 7646 5F5F5346 		.ascii	"__SFRACT_MAX__ 0X7FP-7HR\000"
 12579      52414354 
 12579      5F4D4158 
 12579      5F5F2030 
 12579      58374650 
 12580              	.LASF686:
 12581 765f 54494D45 		.ascii	"TIMER_INT_ON_CAP(n) (_BIT((((n) * 3) + 2)))\000"
 12581      525F494E 
 12581      545F4F4E 
 12581      5F434150 
 12581      286E2920 
 12582              	.LASF948:
 12583 768b 43414E5F 		.ascii	"CAN_ERROR_BOFF 0x00000004UL\000"
 12583      4552524F 
 12583      525F424F 
 12583      46462030 
 12583      78303030 
 12584              	.LASF829:
 12585 76a7 5353505F 		.ascii	"SSP_CR1_BITMASK ((uint32_t) (0x0F))\000"
 12585      4352315F 
 12585      4249544D 
 12585      41534B20 
 12585      28287569 
 12586              	.LASF94:
 12587 76cb 5F5F494E 		.ascii	"__INT16_C(c) c\000"
 12587      5431365F 
 12587      43286329 
 12587      206300
 12588              	.LASF582:
 12589 76da 4C50435F 		.ascii	"LPC_USART ((LPC_USART_T *) LPC_USART_BASE)\000"
 12589      55534152 
 12589      54202828 
 12589      4C50435F 
 12589      55534152 
 12590              	.LASF288:
 12591 7705 5F5F4441 		.ascii	"__DA_IBIT__ 32\000"
ARM GAS  /var/folders/f9/8bk2lnw15zn4cbgn6wrnb4lm0000gn/T//cc47W8rL.s 			page 316


 12591      5F494249 
 12591      545F5F20 
 12591      333200
 12592              	.LASF951:
 12593 7714 43414E5F 		.ascii	"CAN_ERROR_ACK 0x00000020UL\000"
 12593      4552524F 
 12593      525F4143 
 12593      4B203078 
 12593      30303030 
 12594              	.LASF656:
 12595 772f 4D445F42 		.ascii	"MD_BUK (0x3 << 3)\000"
 12595      554B2028 
 12595      30783320 
 12595      3C3C2033 
 12595      2900
 12596              	.LASF958:
 12597 7741 43414E5F 		.ascii	"CAN_MSGOBJ_RTR 0x40000000UL\000"
 12597      4D53474F 
 12597      424A5F52 
 12597      54522030 
 12597      78343030 
 12598              	.LASF517:
 12599 775d 5343425F 		.ascii	"SCB_SCR_SEVONPEND_Msk (1UL << SCB_SCR_SEVONPEND_Pos"
 12599      5343525F 
 12599      5345564F 
 12599      4E50454E 
 12599      445F4D73 
 12600 7790 2900     		.ascii	")\000"
 12601              	.LASF1151:
 12602 7792 61646472 		.ascii	"addr1\000"
 12602      3100
 12603              	.LASF1152:
 12604 7798 61646472 		.ascii	"addr2\000"
 12604      3200
 12605              	.LASF10:
 12606 779e 5F5F4154 		.ascii	"__ATOMIC_ACQ_REL 4\000"
 12606      4F4D4943 
 12606      5F414351 
 12606      5F52454C 
 12606      203400
 12607              	.LASF41:
 12608 77b1 5F5F494E 		.ascii	"__INT32_TYPE__ long int\000"
 12608      5433325F 
 12608      54595045 
 12608      5F5F206C 
 12608      6F6E6720 
 12609              	.LASF341:
 12610 77c9 5F5F4348 		.ascii	"__CHIP_H_ \000"
 12610      49505F48 
 12610      5F2000
 12611              	.LASF137:
 12612 77d4 5F5F4442 		.ascii	"__DBL_MIN_10_EXP__ (-307)\000"
 12612      4C5F4D49 
 12612      4E5F3130 
 12612      5F455850 
 12612      5F5F2028 
 12613              	.LASF838:
ARM GAS  /var/folders/f9/8bk2lnw15zn4cbgn6wrnb4lm0000gn/T//cc47W8rL.s 			page 317


 12614 77ee 5353505F 		.ascii	"SSP_SLAVE_MODE SSP_CR1_SLAVE_EN\000"
 12614      534C4156 
 12614      455F4D4F 
 12614      44452053 
 12614      53505F43 
 12615              	.LASF509:
 12616 780e 5343425F 		.ascii	"SCB_AIRCR_VECTKEYSTAT_Msk (0xFFFFUL << SCB_AIRCR_VE"
 12616      41495243 
 12616      525F5645 
 12616      43544B45 
 12616      59535441 
 12617 7841 43544B45 		.ascii	"CTKEYSTAT_Pos)\000"
 12617      59535441 
 12617      545F506F 
 12617      732900
 12618              	.LASF1160:
 12619 7850 73657453 		.ascii	"setSlaveAddr\000"
 12619      6C617665 
 12619      41646472 
 12619      00
 12620              	.LASF674:
 12621 785d 46554E43 		.ascii	"FUNC7 0x7\000"
 12621      37203078 
 12621      3700
 12622              	.LASF588:
 12623 7867 4C50435F 		.ascii	"LPC_PMU ((LPC_PMU_T *) LPC_PMU_BASE)\000"
 12623      504D5520 
 12623      28284C50 
 12623      435F504D 
 12623      555F5420 
 12624              	.LASF469:
 12625 788c 5F5F494E 		.ascii	"__INLINE inline\000"
 12625      4C494E45 
 12625      20696E6C 
 12625      696E6500 
 12626              	.LASF87:
 12627 789c 5F5F5549 		.ascii	"__UINT8_MAX__ 255\000"
 12627      4E54385F 
 12627      4D41585F 
 12627      5F203235 
 12627      3500
 12628              	.LASF768:
 12629 78ae 55415254 		.ascii	"UART_MSR_DCD (1 << 7)\000"
 12629      5F4D5352 
 12629      5F444344 
 12629      20283120 
 12629      3C3C2037 
 12630              	.LASF436:
 12631 78c4 626F6F6C 		.ascii	"bool _Bool\000"
 12631      205F426F 
 12631      6F6C00
 12632              	.LASF113:
 12633 78cf 5F5F5549 		.ascii	"__UINT_FAST32_MAX__ 4294967295U\000"
 12633      4E545F46 
 12633      41535433 
 12633      325F4D41 
 12633      585F5F20 
ARM GAS  /var/folders/f9/8bk2lnw15zn4cbgn6wrnb4lm0000gn/T//cc47W8rL.s 			page 318


 12634              	.LASF99:
 12635 78ef 5F5F5549 		.ascii	"__UINT_LEAST8_MAX__ 255\000"
 12635      4E545F4C 
 12635      45415354 
 12635      385F4D41 
 12635      585F5F20 
 12636              	.LASF1088:
 12637 7907 53595343 		.ascii	"SYSCTL_CLOCK_CAN\000"
 12637      544C5F43 
 12637      4C4F434B 
 12637      5F43414E 
 12637      00
 12638              	.LASF209:
 12639 7918 5F5F554C 		.ascii	"__ULFRACT_IBIT__ 0\000"
 12639      46524143 
 12639      545F4942 
 12639      49545F5F 
 12639      203000
 12640              	.LASF1191:
 12641 792b 43686970 		.ascii	"Chip_I2C_Disable\000"
 12641      5F493243 
 12641      5F446973 
 12641      61626C65 
 12641      00
 12642              	.LASF733:
 12643 793c 55415254 		.ascii	"UART_LCR_SBS_1BIT (0 << 2)\000"
 12643      5F4C4352 
 12643      5F534253 
 12643      5F314249 
 12643      54202830 
 12644              	.LASF200:
 12645 7957 5F5F5546 		.ascii	"__UFRACT_MIN__ 0.0UR\000"
 12645      52414354 
 12645      5F4D494E 
 12645      5F5F2030 
 12645      2E305552 
 12646              	.LASF50:
 12647 796c 5F5F494E 		.ascii	"__INT_LEAST64_TYPE__ long long int\000"
 12647      545F4C45 
 12647      41535436 
 12647      345F5459 
 12647      50455F5F 
 12648              	.LASF709:
 12649 798f 55415254 		.ascii	"UART_IIR_ABTO_INT (1 << 9)\000"
 12649      5F494952 
 12649      5F414254 
 12649      4F5F494E 
 12649      54202831 
 12650              	.LASF850:
 12651 79aa 4144435F 		.ascii	"ADC_CR_CLKDIV(n) ((((n) & 0xFF) << 8))\000"
 12651      43525F43 
 12651      4C4B4449 
 12651      56286E29 
 12651      20282828 
 12652              	.LASF885:
 12653 79d1 4932435F 		.ascii	"I2C_STAT_CODE_BITMASK ((0xF8))\000"
 12653      53544154 
ARM GAS  /var/folders/f9/8bk2lnw15zn4cbgn6wrnb4lm0000gn/T//cc47W8rL.s 			page 319


 12653      5F434F44 
 12653      455F4249 
 12653      544D4153 
 12654              	.LASF223:
 12655 79f0 5F5F5341 		.ascii	"__SACCUM_FBIT__ 7\000"
 12655      4343554D 
 12655      5F464249 
 12655      545F5F20 
 12655      3700
 12656              	.LASF260:
 12657 7a02 5F5F554C 		.ascii	"__ULLACCUM_MIN__ 0.0ULLK\000"
 12657      4C414343 
 12657      554D5F4D 
 12657      494E5F5F 
 12657      20302E30 
 12658              	.LASF765:
 12659 7a1b 55415254 		.ascii	"UART_MSR_CTS (1 << 4)\000"
 12659      5F4D5352 
 12659      5F435453 
 12659      20283120 
 12659      3C3C2034 
 12660              	.LASF931:
 12661 7a31 4932435F 		.ascii	"I2C_SETUP_STATUS_NOACKF (1 << 9)\000"
 12661      53455455 
 12661      505F5354 
 12661      41545553 
 12661      5F4E4F41 
 12662              		.ident	"GCC: (GNU Tools for ARM Embedded Processors) 4.8.4 20140725 (release) [ARM/embedded-4_8-br
ARM GAS  /var/folders/f9/8bk2lnw15zn4cbgn6wrnb4lm0000gn/T//cc47W8rL.s 			page 320


DEFINED SYMBOLS
                            *ABS*:0000000000000000 i2c_11xx.c
/var/folders/f9/8bk2lnw15zn4cbgn6wrnb4lm0000gn/T//cc47W8rL.s:67     .text.Chip_I2C_EventHandler:0000000000000000 $t
/var/folders/f9/8bk2lnw15zn4cbgn6wrnb4lm0000gn/T//cc47W8rL.s:72     .text.Chip_I2C_EventHandler:0000000000000000 Chip_I2C_EventHandler
/var/folders/f9/8bk2lnw15zn4cbgn6wrnb4lm0000gn/T//cc47W8rL.s:109    .text.Chip_I2C_EventHandler:000000000000001c $d
/var/folders/f9/8bk2lnw15zn4cbgn6wrnb4lm0000gn/T//cc47W8rL.s:114    .text.handleMasterXferState:0000000000000000 $t
/var/folders/f9/8bk2lnw15zn4cbgn6wrnb4lm0000gn/T//cc47W8rL.s:119    .text.handleMasterXferState:0000000000000000 handleMasterXferState
/var/folders/f9/8bk2lnw15zn4cbgn6wrnb4lm0000gn/T//cc47W8rL.s:159    .rodata.handleMasterXferState:0000000000000000 $d
/var/folders/f9/8bk2lnw15zn4cbgn6wrnb4lm0000gn/T//cc47W8rL.s:429    .text.handleMasterXferState:00000000000000ec $d
/var/folders/f9/8bk2lnw15zn4cbgn6wrnb4lm0000gn/T//cc47W8rL.s:434    .text.getSlaveIndex:0000000000000000 $t
/var/folders/f9/8bk2lnw15zn4cbgn6wrnb4lm0000gn/T//cc47W8rL.s:439    .text.getSlaveIndex:0000000000000000 getSlaveIndex
/var/folders/f9/8bk2lnw15zn4cbgn6wrnb4lm0000gn/T//cc47W8rL.s:605    .text.handleSlaveXferState:0000000000000000 $t
/var/folders/f9/8bk2lnw15zn4cbgn6wrnb4lm0000gn/T//cc47W8rL.s:610    .text.handleSlaveXferState:0000000000000000 handleSlaveXferState
/var/folders/f9/8bk2lnw15zn4cbgn6wrnb4lm0000gn/T//cc47W8rL.s:644    .rodata.handleSlaveXferState:0000000000000000 $d
/var/folders/f9/8bk2lnw15zn4cbgn6wrnb4lm0000gn/T//cc47W8rL.s:885    .text.handleSlaveXferState:00000000000000a8 $d
/var/folders/f9/8bk2lnw15zn4cbgn6wrnb4lm0000gn/T//cc47W8rL.s:890    .text.Chip_I2C_Init:0000000000000000 $t
/var/folders/f9/8bk2lnw15zn4cbgn6wrnb4lm0000gn/T//cc47W8rL.s:895    .text.Chip_I2C_Init:0000000000000000 Chip_I2C_Init
/var/folders/f9/8bk2lnw15zn4cbgn6wrnb4lm0000gn/T//cc47W8rL.s:952    .text.Chip_I2C_Init:0000000000000028 $d
/var/folders/f9/8bk2lnw15zn4cbgn6wrnb4lm0000gn/T//cc47W8rL.s:958    .text.Chip_I2C_DeInit:0000000000000000 $t
/var/folders/f9/8bk2lnw15zn4cbgn6wrnb4lm0000gn/T//cc47W8rL.s:963    .text.Chip_I2C_DeInit:0000000000000000 Chip_I2C_DeInit
/var/folders/f9/8bk2lnw15zn4cbgn6wrnb4lm0000gn/T//cc47W8rL.s:1009   .text.Chip_I2C_DeInit:0000000000000024 $d
/var/folders/f9/8bk2lnw15zn4cbgn6wrnb4lm0000gn/T//cc47W8rL.s:1016   .text.Chip_I2C_SetClockRate:0000000000000000 $t
/var/folders/f9/8bk2lnw15zn4cbgn6wrnb4lm0000gn/T//cc47W8rL.s:1021   .text.Chip_I2C_SetClockRate:0000000000000000 Chip_I2C_SetClockRate
/var/folders/f9/8bk2lnw15zn4cbgn6wrnb4lm0000gn/T//cc47W8rL.s:1068   .text.Chip_I2C_SetClockRate:0000000000000028 $d
/var/folders/f9/8bk2lnw15zn4cbgn6wrnb4lm0000gn/T//cc47W8rL.s:1073   .text.Chip_I2C_GetClockRate:0000000000000000 $t
/var/folders/f9/8bk2lnw15zn4cbgn6wrnb4lm0000gn/T//cc47W8rL.s:1078   .text.Chip_I2C_GetClockRate:0000000000000000 Chip_I2C_GetClockRate
/var/folders/f9/8bk2lnw15zn4cbgn6wrnb4lm0000gn/T//cc47W8rL.s:1115   .text.Chip_I2C_GetClockRate:0000000000000020 $d
/var/folders/f9/8bk2lnw15zn4cbgn6wrnb4lm0000gn/T//cc47W8rL.s:1120   .text.Chip_I2C_SetMasterEventHandler:0000000000000000 $t
/var/folders/f9/8bk2lnw15zn4cbgn6wrnb4lm0000gn/T//cc47W8rL.s:1125   .text.Chip_I2C_SetMasterEventHandler:0000000000000000 Chip_I2C_SetMasterEventHandler
/var/folders/f9/8bk2lnw15zn4cbgn6wrnb4lm0000gn/T//cc47W8rL.s:1162   .text.Chip_I2C_SetMasterEventHandler:0000000000000020 $d
/var/folders/f9/8bk2lnw15zn4cbgn6wrnb4lm0000gn/T//cc47W8rL.s:1167   .text.Chip_I2C_GetMasterEventHandler:0000000000000000 $t
/var/folders/f9/8bk2lnw15zn4cbgn6wrnb4lm0000gn/T//cc47W8rL.s:1172   .text.Chip_I2C_GetMasterEventHandler:0000000000000000 Chip_I2C_GetMasterEventHandler
/var/folders/f9/8bk2lnw15zn4cbgn6wrnb4lm0000gn/T//cc47W8rL.s:1191   .text.Chip_I2C_GetMasterEventHandler:0000000000000010 $d
/var/folders/f9/8bk2lnw15zn4cbgn6wrnb4lm0000gn/T//cc47W8rL.s:1196   .text.Chip_I2C_MasterTransfer:0000000000000000 $t
/var/folders/f9/8bk2lnw15zn4cbgn6wrnb4lm0000gn/T//cc47W8rL.s:1201   .text.Chip_I2C_MasterTransfer:0000000000000000 Chip_I2C_MasterTransfer
/var/folders/f9/8bk2lnw15zn4cbgn6wrnb4lm0000gn/T//cc47W8rL.s:1317   .text.Chip_I2C_MasterTransfer:0000000000000064 $d
/var/folders/f9/8bk2lnw15zn4cbgn6wrnb4lm0000gn/T//cc47W8rL.s:1324   .text.Chip_I2C_MasterSend:0000000000000000 $t
/var/folders/f9/8bk2lnw15zn4cbgn6wrnb4lm0000gn/T//cc47W8rL.s:1329   .text.Chip_I2C_MasterSend:0000000000000000 Chip_I2C_MasterSend
/var/folders/f9/8bk2lnw15zn4cbgn6wrnb4lm0000gn/T//cc47W8rL.s:1374   .text.Chip_I2C_MasterCmdRead:0000000000000000 $t
/var/folders/f9/8bk2lnw15zn4cbgn6wrnb4lm0000gn/T//cc47W8rL.s:1379   .text.Chip_I2C_MasterCmdRead:0000000000000000 Chip_I2C_MasterCmdRead
/var/folders/f9/8bk2lnw15zn4cbgn6wrnb4lm0000gn/T//cc47W8rL.s:1436   .text.Chip_I2C_MasterRead:0000000000000000 $t
/var/folders/f9/8bk2lnw15zn4cbgn6wrnb4lm0000gn/T//cc47W8rL.s:1441   .text.Chip_I2C_MasterRead:0000000000000000 Chip_I2C_MasterRead
/var/folders/f9/8bk2lnw15zn4cbgn6wrnb4lm0000gn/T//cc47W8rL.s:1487   .text.Chip_I2C_IsMasterActive:0000000000000000 $t
/var/folders/f9/8bk2lnw15zn4cbgn6wrnb4lm0000gn/T//cc47W8rL.s:1492   .text.Chip_I2C_IsMasterActive:0000000000000000 Chip_I2C_IsMasterActive
/var/folders/f9/8bk2lnw15zn4cbgn6wrnb4lm0000gn/T//cc47W8rL.s:1537   .text.Chip_I2C_IsMasterActive:000000000000001c $d
/var/folders/f9/8bk2lnw15zn4cbgn6wrnb4lm0000gn/T//cc47W8rL.s:1542   .text.Chip_I2C_MasterStateHandler:0000000000000000 $t
/var/folders/f9/8bk2lnw15zn4cbgn6wrnb4lm0000gn/T//cc47W8rL.s:1547   .text.Chip_I2C_MasterStateHandler:0000000000000000 Chip_I2C_MasterStateHandler
/var/folders/f9/8bk2lnw15zn4cbgn6wrnb4lm0000gn/T//cc47W8rL.s:1587   .text.Chip_I2C_MasterStateHandler:0000000000000024 $d
/var/folders/f9/8bk2lnw15zn4cbgn6wrnb4lm0000gn/T//cc47W8rL.s:1592   .text.Chip_I2C_EventHandlerPolling:0000000000000000 $t
/var/folders/f9/8bk2lnw15zn4cbgn6wrnb4lm0000gn/T//cc47W8rL.s:1597   .text.Chip_I2C_EventHandlerPolling:0000000000000000 Chip_I2C_EventHandlerPolling
/var/folders/f9/8bk2lnw15zn4cbgn6wrnb4lm0000gn/T//cc47W8rL.s:1668   .text.Chip_I2C_EventHandlerPolling:0000000000000038 $d
/var/folders/f9/8bk2lnw15zn4cbgn6wrnb4lm0000gn/T//cc47W8rL.s:1673   .text.Chip_I2C_SlaveSetup:0000000000000000 $t
/var/folders/f9/8bk2lnw15zn4cbgn6wrnb4lm0000gn/T//cc47W8rL.s:1678   .text.Chip_I2C_SlaveSetup:0000000000000000 Chip_I2C_SlaveSetup
/var/folders/f9/8bk2lnw15zn4cbgn6wrnb4lm0000gn/T//cc47W8rL.s:1809   .text.Chip_I2C_SlaveSetup:000000000000006c $d
/var/folders/f9/8bk2lnw15zn4cbgn6wrnb4lm0000gn/T//cc47W8rL.s:1818   .text.Chip_I2C_SlaveStateHandler:0000000000000000 $t
/var/folders/f9/8bk2lnw15zn4cbgn6wrnb4lm0000gn/T//cc47W8rL.s:1823   .text.Chip_I2C_SlaveStateHandler:0000000000000000 Chip_I2C_SlaveStateHandler
/var/folders/f9/8bk2lnw15zn4cbgn6wrnb4lm0000gn/T//cc47W8rL.s:1918   .text.Chip_I2C_SlaveStateHandler:0000000000000060 $d
ARM GAS  /var/folders/f9/8bk2lnw15zn4cbgn6wrnb4lm0000gn/T//cc47W8rL.s 			page 321


/var/folders/f9/8bk2lnw15zn4cbgn6wrnb4lm0000gn/T//cc47W8rL.s:1925   .text.Chip_I2C_Disable:0000000000000000 $t
/var/folders/f9/8bk2lnw15zn4cbgn6wrnb4lm0000gn/T//cc47W8rL.s:1930   .text.Chip_I2C_Disable:0000000000000000 Chip_I2C_Disable
/var/folders/f9/8bk2lnw15zn4cbgn6wrnb4lm0000gn/T//cc47W8rL.s:1950   .text.Chip_I2C_Disable:0000000000000010 $d
/var/folders/f9/8bk2lnw15zn4cbgn6wrnb4lm0000gn/T//cc47W8rL.s:1955   .text.Chip_I2C_IsStateChanged:0000000000000000 $t
/var/folders/f9/8bk2lnw15zn4cbgn6wrnb4lm0000gn/T//cc47W8rL.s:1960   .text.Chip_I2C_IsStateChanged:0000000000000000 Chip_I2C_IsStateChanged
/var/folders/f9/8bk2lnw15zn4cbgn6wrnb4lm0000gn/T//cc47W8rL.s:1983   .text.Chip_I2C_IsStateChanged:0000000000000014 $d
/var/folders/f9/8bk2lnw15zn4cbgn6wrnb4lm0000gn/T//cc47W8rL.s:1988   .data.i2c:0000000000000000 $d
/var/folders/f9/8bk2lnw15zn4cbgn6wrnb4lm0000gn/T//cc47W8rL.s:1992   .data.i2c:0000000000000000 i2c
/var/folders/f9/8bk2lnw15zn4cbgn6wrnb4lm0000gn/T//cc47W8rL.s:2009   .bss.i2c_slave:0000000000000000 $d
/var/folders/f9/8bk2lnw15zn4cbgn6wrnb4lm0000gn/T//cc47W8rL.s:2013   .bss.i2c_slave:0000000000000000 i2c_slave
                     .debug_frame:0000000000000010 $d
                           .group:0000000000000000 wm4.0.121fbee677f1a8a7d8c40a6e8762ca43
                           .group:0000000000000000 wm4.features.h.22.6a4ca7cd053637cc1d0db6c16f39b2d7
                           .group:0000000000000000 wm4._default_types.h.15.8b2cb27e528498f8ff711db085d6e489
                           .group:0000000000000000 wm4.stdint.h.20.796e373797e732130a803d4c0338fa1b
                           .group:0000000000000000 wm4.stdbool.h.29.1c9ee6859ce8145f7838a4f2549ccec2
                           .group:0000000000000000 wm4.lpc_types.h.63.860ba57581a002825766a7c2ac00d549
                           .group:0000000000000000 wm4.sys_config.h.31.9f234e9c90333d233c7e647ebe63e928
                           .group:0000000000000000 wm4.cmsis_11cxx.h.33.407e9bbb5d170cd1552d3f7dc3fd5c42
                           .group:0000000000000000 wm4.core_cm0.h.32.192d13cfa8b31e63c86621de62eb153f
                           .group:0000000000000000 wm4.core_cm0.h.120.f4257ea7d0bce0cbabffe223e23b2fd4
                           .group:0000000000000000 wm4.chip.h.116.857da603c399e979152c31968de4baae
                           .group:0000000000000000 wm4.pmu_11xx.h.33.1d6b708881441cb98d19b8bab3caa180
                           .group:0000000000000000 wm4.sysctl_11xx.h.33.ae61a1181e608f8409883008e291930c
                           .group:0000000000000000 wm4.clock_11xx.h.33.23290a9e2ed919e3a6958d25130bc848
                           .group:0000000000000000 wm4.iocon_11xx.h.33.25e2b3cde122df23fb07b984cb4f3a93
                           .group:0000000000000000 wm4.timer_11xx.h.33.c92f50a9325789ee6a8ffd6248980d70
                           .group:0000000000000000 wm4.ring_buffer.h.33.ffd8153954783612f9c626df1ed9e770
                           .group:0000000000000000 wm4.uart_11xx.h.98.fe68b709973730a4fba3f3ce60c5c312
                           .group:0000000000000000 wm4.wwdt_11xx.h.33.5768344983cb842df69cc91ea86cabb0
                           .group:0000000000000000 wm4.ssp_11xx.h.33.af054d3d65f4cb0c078be40bb872ec37
                           .group:0000000000000000 wm4.error.h.38.ae74fe1dd9d19c80c505f1fda144fce8
                           .group:0000000000000000 wm4.adc_11xx.h.33.6ce7433ac6b30df70a6993d01dbd513f
                           .group:0000000000000000 wm4.i2c_11xx.h.33.2b506d1350e00a8c26e8bf006a5f9390
                           .group:0000000000000000 wm4.ccand_11xx.h.33.99627f4b529fecdc77b0877ab6fe5266

UNDEFINED SYMBOLS
__aeabi_uidiv
Chip_Clock_GetMainClockRate
