ARM GAS  /var/folders/f9/8bk2lnw15zn4cbgn6wrnb4lm0000gn/T//cc47W8rL.s 			page 1


   1              		.cpu cortex-m0
   2              		.fpu softvfp
   3              		.eabi_attribute 20, 1	@ Tag_ABI_FP_denormal
   4              		.eabi_attribute 21, 1	@ Tag_ABI_FP_exceptions
   5              		.eabi_attribute 23, 3	@ Tag_ABI_FP_number_model
   6              		.eabi_attribute 24, 1	@ Tag_ABI_align8_needed
   7              		.eabi_attribute 25, 1	@ Tag_ABI_align8_preserved
   8              		.eabi_attribute 26, 1	@ Tag_ABI_enum_size
   9              		.eabi_attribute 30, 2	@ Tag_ABI_optimization_goals
  10              		.eabi_attribute 34, 0	@ Tag_CPU_unaligned_access
  11              		.eabi_attribute 18, 4	@ Tag_ABI_PCS_wchar_t
  12              		.file	"i2c_11xx.c"
  13              	@ GNU C (GNU Tools for ARM Embedded Processors) version 4.8.4 20140725 (release) [ARM/embedded-4_8-
  14              	@	compiled by GNU C version 4.2.1 (Based on Apple Inc. build 5658) (LLVM build 2336.9.00), GMP vers
  15              	@ GGC heuristics: --param ggc-min-expand=100 --param ggc-min-heapsize=131072
  16              	@ options passed:  -I . -I ../../lpc_chip_11cxx_lib/inc
  17              	@ -I ../../evt_lib/inc -imultilib armv6-m
  18              	@ -iprefix /usr/local/Cellar/gcc-arm-none-eabi/20140805/bin/../lib/gcc/arm-none-eabi/4.8.4/
  19              	@ -isysroot /usr/local/Cellar/gcc-arm-none-eabi/20140805/bin/../arm-none-eabi
  20              	@ -MD bin/i2c_11xx.d -MF bin/i2c_11xx.d -MP -MQ bin/i2c_11xx.o
  21              	@ -D__USES_INITFINI__ -D CORE_M0 ../../lpc_chip_11cxx_lib/src/i2c_11xx.c
  22              	@ -mcpu=cortex-m0 -mthumb -auxbase-strip bin/i2c_11xx.o -g -ggdb3 -O2 -Wall
  23              	@ -Wstrict-prototypes -Wextra -std=gnu90 -ffunction-sections
  24              	@ -fdata-sections -fverbose-asm
  25              	@ options enabled:  -faggressive-loop-optimizations -fauto-inc-dec
  26              	@ -fbranch-count-reg -fcaller-saves -fcombine-stack-adjustments -fcommon
  27              	@ -fcompare-elim -fcprop-registers -fcrossjumping -fcse-follow-jumps
  28              	@ -fdata-sections -fdefer-pop -fdelete-null-pointer-checks -fdevirtualize
  29              	@ -fdwarf2-cfi-asm -fearly-inlining -feliminate-unused-debug-types
  30              	@ -fexpensive-optimizations -fforward-propagate -ffunction-cse
  31              	@ -ffunction-sections -fgcse -fgcse-lm -fgnu-runtime -fgnu-unique
  32              	@ -fguess-branch-probability -fhoist-adjacent-loads -fident -fif-conversion
  33              	@ -fif-conversion2 -findirect-inlining -finline -finline-atomics
  34              	@ -finline-functions-called-once -finline-small-functions -fipa-cp
  35              	@ -fipa-profile -fipa-pure-const -fipa-reference -fipa-sra
  36              	@ -fira-hoist-pressure -fira-share-save-slots -fira-share-spill-slots
  37              	@ -fivopts -fkeep-static-consts -fleading-underscore -fmath-errno
  38              	@ -fmerge-constants -fmerge-debug-strings -fmove-loop-invariants
  39              	@ -fomit-frame-pointer -foptimize-register-move -foptimize-sibling-calls
  40              	@ -foptimize-strlen -fpartial-inlining -fpeephole -fpeephole2
  41              	@ -fprefetch-loop-arrays -freg-struct-return -fregmove -freorder-blocks
  42              	@ -freorder-functions -frerun-cse-after-loop
  43              	@ -fsched-critical-path-heuristic -fsched-dep-count-heuristic
  44              	@ -fsched-group-heuristic -fsched-interblock -fsched-last-insn-heuristic
  45              	@ -fsched-pressure -fsched-rank-heuristic -fsched-spec
  46              	@ -fsched-spec-insn-heuristic -fsched-stalled-insns-dep -fschedule-insns2
  47              	@ -fsection-anchors -fshow-column -fshrink-wrap -fsigned-zeros
  48              	@ -fsplit-ivs-in-unroller -fsplit-wide-types -fstrict-aliasing
  49              	@ -fstrict-overflow -fstrict-volatile-bitfields -fsync-libcalls
  50              	@ -fthread-jumps -ftoplevel-reorder -ftrapping-math -ftree-bit-ccp
  51              	@ -ftree-builtin-call-dce -ftree-ccp -ftree-ch -ftree-coalesce-vars
  52              	@ -ftree-copy-prop -ftree-copyrename -ftree-cselim -ftree-dce
  53              	@ -ftree-dominator-opts -ftree-dse -ftree-forwprop -ftree-fre
  54              	@ -ftree-loop-if-convert -ftree-loop-im -ftree-loop-ivcanon
  55              	@ -ftree-loop-optimize -ftree-parallelize-loops= -ftree-phiprop -ftree-pre
  56              	@ -ftree-pta -ftree-reassoc -ftree-scev-cprop -ftree-sink
  57              	@ -ftree-slp-vectorize -ftree-slsr -ftree-sra -ftree-switch-conversion
ARM GAS  /var/folders/f9/8bk2lnw15zn4cbgn6wrnb4lm0000gn/T//cc47W8rL.s 			page 2


  58              	@ -ftree-tail-merge -ftree-ter -ftree-vect-loop-version -ftree-vrp
  59              	@ -funit-at-a-time -fvar-tracking -fvar-tracking-assignments -fverbose-asm
  60              	@ -fzero-initialized-in-bss -mlittle-endian -mpic-data-is-text-relative
  61              	@ -msched-prolog -mthumb -mvectorize-with-neon-quad
  62              	
  63              		.text
  64              	.Ltext0:
  65              		.cfi_sections	.debug_frame
  66              		.section	.text.Chip_I2C_EventHandler,"ax",%progbits
  67              		.align	2
  68              		.global	Chip_I2C_EventHandler
  69              		.code	16
  70              		.thumb_func
  71              		.type	Chip_I2C_EventHandler, %function
  72              	Chip_I2C_EventHandler:
  73              	.LFB212:
  74              		.file 1 "../../lpc_chip_11cxx_lib/src/i2c_11xx.c"
   1:../../lpc_chip_11cxx_lib/src/i2c_11xx.c **** /*
   2:../../lpc_chip_11cxx_lib/src/i2c_11xx.c ****  * @brief LPC11xx I2C driver
   3:../../lpc_chip_11cxx_lib/src/i2c_11xx.c ****  *
   4:../../lpc_chip_11cxx_lib/src/i2c_11xx.c ****  * @note
   5:../../lpc_chip_11cxx_lib/src/i2c_11xx.c ****  * Copyright(C) NXP Semiconductors, 2012
   6:../../lpc_chip_11cxx_lib/src/i2c_11xx.c ****  * All rights reserved.
   7:../../lpc_chip_11cxx_lib/src/i2c_11xx.c ****  *
   8:../../lpc_chip_11cxx_lib/src/i2c_11xx.c ****  * @par
   9:../../lpc_chip_11cxx_lib/src/i2c_11xx.c ****  * Software that is described herein is for illustrative purposes only
  10:../../lpc_chip_11cxx_lib/src/i2c_11xx.c ****  * which provides customers with programming information regarding the
  11:../../lpc_chip_11cxx_lib/src/i2c_11xx.c ****  * LPC products.  This software is supplied "AS IS" without any warranties of
  12:../../lpc_chip_11cxx_lib/src/i2c_11xx.c ****  * any kind, and NXP Semiconductors and its licensor disclaim any and
  13:../../lpc_chip_11cxx_lib/src/i2c_11xx.c ****  * all warranties, express or implied, including all implied warranties of
  14:../../lpc_chip_11cxx_lib/src/i2c_11xx.c ****  * merchantability, fitness for a particular purpose and non-infringement of
  15:../../lpc_chip_11cxx_lib/src/i2c_11xx.c ****  * intellectual property rights.  NXP Semiconductors assumes no responsibility
  16:../../lpc_chip_11cxx_lib/src/i2c_11xx.c ****  * or liability for the use of the software, conveys no license or rights under any
  17:../../lpc_chip_11cxx_lib/src/i2c_11xx.c ****  * patent, copyright, mask work right, or any other intellectual property rights in
  18:../../lpc_chip_11cxx_lib/src/i2c_11xx.c ****  * or to any products. NXP Semiconductors reserves the right to make changes
  19:../../lpc_chip_11cxx_lib/src/i2c_11xx.c ****  * in the software without notification. NXP Semiconductors also makes no
  20:../../lpc_chip_11cxx_lib/src/i2c_11xx.c ****  * representation or warranty that such application will be suitable for the
  21:../../lpc_chip_11cxx_lib/src/i2c_11xx.c ****  * specified use without further testing or modification.
  22:../../lpc_chip_11cxx_lib/src/i2c_11xx.c ****  *
  23:../../lpc_chip_11cxx_lib/src/i2c_11xx.c ****  * @par
  24:../../lpc_chip_11cxx_lib/src/i2c_11xx.c ****  * Permission to use, copy, modify, and distribute this software and its
  25:../../lpc_chip_11cxx_lib/src/i2c_11xx.c ****  * documentation is hereby granted, under NXP Semiconductors' and its
  26:../../lpc_chip_11cxx_lib/src/i2c_11xx.c ****  * licensor's relevant copyrights in the software, without fee, provided that it
  27:../../lpc_chip_11cxx_lib/src/i2c_11xx.c ****  * is used in conjunction with NXP Semiconductors microcontrollers.  This
  28:../../lpc_chip_11cxx_lib/src/i2c_11xx.c ****  * copyright, permission, and disclaimer notice must appear in all copies of
  29:../../lpc_chip_11cxx_lib/src/i2c_11xx.c ****  * this code.
  30:../../lpc_chip_11cxx_lib/src/i2c_11xx.c ****  */
  31:../../lpc_chip_11cxx_lib/src/i2c_11xx.c **** 
  32:../../lpc_chip_11cxx_lib/src/i2c_11xx.c **** #include "chip.h"
  33:../../lpc_chip_11cxx_lib/src/i2c_11xx.c **** 
  34:../../lpc_chip_11cxx_lib/src/i2c_11xx.c **** #if !defined(CHIP_LPC110X)
  35:../../lpc_chip_11cxx_lib/src/i2c_11xx.c **** 
  36:../../lpc_chip_11cxx_lib/src/i2c_11xx.c **** /*****************************************************************************
  37:../../lpc_chip_11cxx_lib/src/i2c_11xx.c ****  * Private types/enumerations/variables
  38:../../lpc_chip_11cxx_lib/src/i2c_11xx.c ****  ****************************************************************************/
  39:../../lpc_chip_11cxx_lib/src/i2c_11xx.c **** 
  40:../../lpc_chip_11cxx_lib/src/i2c_11xx.c **** /* Control flags */
ARM GAS  /var/folders/f9/8bk2lnw15zn4cbgn6wrnb4lm0000gn/T//cc47W8rL.s 			page 3


  41:../../lpc_chip_11cxx_lib/src/i2c_11xx.c **** #define I2C_CON_FLAGS (I2C_CON_AA | I2C_CON_SI | I2C_CON_STO | I2C_CON_STA)
  42:../../lpc_chip_11cxx_lib/src/i2c_11xx.c **** #define LPC_I2Cx(id)      ((i2c[id].ip))
  43:../../lpc_chip_11cxx_lib/src/i2c_11xx.c **** #define SLAVE_ACTIVE(iic) (((iic)->flags & 0xFF00) != 0)
  44:../../lpc_chip_11cxx_lib/src/i2c_11xx.c **** 
  45:../../lpc_chip_11cxx_lib/src/i2c_11xx.c **** /* I2C common interface structure */
  46:../../lpc_chip_11cxx_lib/src/i2c_11xx.c **** struct i2c_interface {
  47:../../lpc_chip_11cxx_lib/src/i2c_11xx.c **** 	LPC_I2C_T *ip;		/* IP base address of the I2C device */
  48:../../lpc_chip_11cxx_lib/src/i2c_11xx.c **** 	CHIP_SYSCTL_CLOCK_T clk;	/* Clock used by I2C */
  49:../../lpc_chip_11cxx_lib/src/i2c_11xx.c **** 	I2C_EVENTHANDLER_T mEvent;	/* Current active Master event handler */
  50:../../lpc_chip_11cxx_lib/src/i2c_11xx.c **** 	I2C_EVENTHANDLER_T sEvent;	/* Slave transfer events */
  51:../../lpc_chip_11cxx_lib/src/i2c_11xx.c **** 	I2C_XFER_T *mXfer;	/* Current active xfer pointer */
  52:../../lpc_chip_11cxx_lib/src/i2c_11xx.c **** 	I2C_XFER_T *sXfer;	/* Pointer to store xfer when bus is busy */
  53:../../lpc_chip_11cxx_lib/src/i2c_11xx.c **** 	uint32_t flags;		/* Flags used by I2C master and slave */
  54:../../lpc_chip_11cxx_lib/src/i2c_11xx.c **** };
  55:../../lpc_chip_11cxx_lib/src/i2c_11xx.c **** 
  56:../../lpc_chip_11cxx_lib/src/i2c_11xx.c **** /* Slave interface structure */
  57:../../lpc_chip_11cxx_lib/src/i2c_11xx.c **** struct i2c_slave_interface {
  58:../../lpc_chip_11cxx_lib/src/i2c_11xx.c **** 	I2C_XFER_T *xfer;
  59:../../lpc_chip_11cxx_lib/src/i2c_11xx.c **** 	I2C_EVENTHANDLER_T event;
  60:../../lpc_chip_11cxx_lib/src/i2c_11xx.c **** };
  61:../../lpc_chip_11cxx_lib/src/i2c_11xx.c **** 
  62:../../lpc_chip_11cxx_lib/src/i2c_11xx.c **** /* I2C interfaces */
  63:../../lpc_chip_11cxx_lib/src/i2c_11xx.c **** static struct i2c_interface i2c[I2C_NUM_INTERFACE] = {
  64:../../lpc_chip_11cxx_lib/src/i2c_11xx.c **** 	{LPC_I2C, SYSCTL_CLOCK_I2C, Chip_I2C_EventHandler, NULL, NULL, NULL, 0}
  65:../../lpc_chip_11cxx_lib/src/i2c_11xx.c **** };
  66:../../lpc_chip_11cxx_lib/src/i2c_11xx.c **** 
  67:../../lpc_chip_11cxx_lib/src/i2c_11xx.c **** static struct i2c_slave_interface i2c_slave[I2C_NUM_INTERFACE][I2C_SLAVE_NUM_INTERFACE];
  68:../../lpc_chip_11cxx_lib/src/i2c_11xx.c **** 
  69:../../lpc_chip_11cxx_lib/src/i2c_11xx.c **** /*****************************************************************************
  70:../../lpc_chip_11cxx_lib/src/i2c_11xx.c ****  * Public types/enumerations/variables
  71:../../lpc_chip_11cxx_lib/src/i2c_11xx.c ****  ****************************************************************************/
  72:../../lpc_chip_11cxx_lib/src/i2c_11xx.c **** 
  73:../../lpc_chip_11cxx_lib/src/i2c_11xx.c **** /*****************************************************************************
  74:../../lpc_chip_11cxx_lib/src/i2c_11xx.c ****  * Private functions
  75:../../lpc_chip_11cxx_lib/src/i2c_11xx.c ****  ****************************************************************************/
  76:../../lpc_chip_11cxx_lib/src/i2c_11xx.c ****  
  77:../../lpc_chip_11cxx_lib/src/i2c_11xx.c **** STATIC INLINE void enableClk(I2C_ID_T id)
  78:../../lpc_chip_11cxx_lib/src/i2c_11xx.c **** {
  79:../../lpc_chip_11cxx_lib/src/i2c_11xx.c **** 	Chip_Clock_EnablePeriphClock(i2c[id].clk);
  80:../../lpc_chip_11cxx_lib/src/i2c_11xx.c **** }
  81:../../lpc_chip_11cxx_lib/src/i2c_11xx.c **** 
  82:../../lpc_chip_11cxx_lib/src/i2c_11xx.c **** STATIC INLINE void disableClk(I2C_ID_T id)
  83:../../lpc_chip_11cxx_lib/src/i2c_11xx.c **** {
  84:../../lpc_chip_11cxx_lib/src/i2c_11xx.c **** 	Chip_Clock_DisablePeriphClock(i2c[id].clk);
  85:../../lpc_chip_11cxx_lib/src/i2c_11xx.c **** }
  86:../../lpc_chip_11cxx_lib/src/i2c_11xx.c **** 
  87:../../lpc_chip_11cxx_lib/src/i2c_11xx.c **** /* Get the ADC Clock Rate */
  88:../../lpc_chip_11cxx_lib/src/i2c_11xx.c **** STATIC INLINE uint32_t getClkRate(void)
  89:../../lpc_chip_11cxx_lib/src/i2c_11xx.c **** {
  90:../../lpc_chip_11cxx_lib/src/i2c_11xx.c **** 	return Chip_Clock_GetMainClockRate();
  91:../../lpc_chip_11cxx_lib/src/i2c_11xx.c **** }
  92:../../lpc_chip_11cxx_lib/src/i2c_11xx.c **** 
  93:../../lpc_chip_11cxx_lib/src/i2c_11xx.c **** /* Enable I2C and start master transfer */
  94:../../lpc_chip_11cxx_lib/src/i2c_11xx.c **** STATIC INLINE void startMasterXfer(LPC_I2C_T *pI2C)
  95:../../lpc_chip_11cxx_lib/src/i2c_11xx.c **** {
  96:../../lpc_chip_11cxx_lib/src/i2c_11xx.c **** 	/* Reset STA, STO, SI */
  97:../../lpc_chip_11cxx_lib/src/i2c_11xx.c **** 	pI2C->CONCLR = I2C_CON_SI | I2C_CON_STO | I2C_CON_STA | I2C_CON_AA;
ARM GAS  /var/folders/f9/8bk2lnw15zn4cbgn6wrnb4lm0000gn/T//cc47W8rL.s 			page 4


  98:../../lpc_chip_11cxx_lib/src/i2c_11xx.c **** 
  99:../../lpc_chip_11cxx_lib/src/i2c_11xx.c **** 	/* Enter to Master Transmitter mode */
 100:../../lpc_chip_11cxx_lib/src/i2c_11xx.c **** 	pI2C->CONSET = I2C_CON_I2EN | I2C_CON_STA;
 101:../../lpc_chip_11cxx_lib/src/i2c_11xx.c **** }
 102:../../lpc_chip_11cxx_lib/src/i2c_11xx.c **** 
 103:../../lpc_chip_11cxx_lib/src/i2c_11xx.c **** /* Enable I2C and enable slave transfers */
 104:../../lpc_chip_11cxx_lib/src/i2c_11xx.c **** STATIC INLINE void startSlaverXfer(LPC_I2C_T *pI2C)
 105:../../lpc_chip_11cxx_lib/src/i2c_11xx.c **** {
 106:../../lpc_chip_11cxx_lib/src/i2c_11xx.c **** 	/* Reset STA, STO, SI */
 107:../../lpc_chip_11cxx_lib/src/i2c_11xx.c **** 	pI2C->CONCLR = I2C_CON_SI | I2C_CON_STO | I2C_CON_STA;
 108:../../lpc_chip_11cxx_lib/src/i2c_11xx.c **** 
 109:../../lpc_chip_11cxx_lib/src/i2c_11xx.c **** 	/* Enter to Master Transmitter mode */
 110:../../lpc_chip_11cxx_lib/src/i2c_11xx.c **** 	pI2C->CONSET = I2C_CON_I2EN | I2C_CON_AA;
 111:../../lpc_chip_11cxx_lib/src/i2c_11xx.c **** }
 112:../../lpc_chip_11cxx_lib/src/i2c_11xx.c **** 
 113:../../lpc_chip_11cxx_lib/src/i2c_11xx.c **** /* Check if I2C bus is free */
 114:../../lpc_chip_11cxx_lib/src/i2c_11xx.c **** STATIC INLINE int isI2CBusFree(LPC_I2C_T *pI2C)
 115:../../lpc_chip_11cxx_lib/src/i2c_11xx.c **** {
 116:../../lpc_chip_11cxx_lib/src/i2c_11xx.c **** 	return !(pI2C->CONSET & I2C_CON_STO);
 117:../../lpc_chip_11cxx_lib/src/i2c_11xx.c **** }
 118:../../lpc_chip_11cxx_lib/src/i2c_11xx.c **** 
 119:../../lpc_chip_11cxx_lib/src/i2c_11xx.c **** /* Get current state of the I2C peripheral */
 120:../../lpc_chip_11cxx_lib/src/i2c_11xx.c **** STATIC INLINE int getCurState(LPC_I2C_T *pI2C)
 121:../../lpc_chip_11cxx_lib/src/i2c_11xx.c **** {
 122:../../lpc_chip_11cxx_lib/src/i2c_11xx.c **** 	return (int) (pI2C->STAT & I2C_STAT_CODE_BITMASK);
 123:../../lpc_chip_11cxx_lib/src/i2c_11xx.c **** }
 124:../../lpc_chip_11cxx_lib/src/i2c_11xx.c **** 
 125:../../lpc_chip_11cxx_lib/src/i2c_11xx.c **** /* Check if the active state belongs to master mode*/
 126:../../lpc_chip_11cxx_lib/src/i2c_11xx.c **** STATIC INLINE int isMasterState(LPC_I2C_T *pI2C)
 127:../../lpc_chip_11cxx_lib/src/i2c_11xx.c **** {
 128:../../lpc_chip_11cxx_lib/src/i2c_11xx.c **** 	return getCurState(pI2C) < 0x60;
 129:../../lpc_chip_11cxx_lib/src/i2c_11xx.c **** }
 130:../../lpc_chip_11cxx_lib/src/i2c_11xx.c **** 
 131:../../lpc_chip_11cxx_lib/src/i2c_11xx.c **** /* Set OWN slave address for specific slave ID */
 132:../../lpc_chip_11cxx_lib/src/i2c_11xx.c **** STATIC void setSlaveAddr(LPC_I2C_T *pI2C, I2C_SLAVE_ID sid, uint8_t addr, uint8_t mask)
 133:../../lpc_chip_11cxx_lib/src/i2c_11xx.c **** {
 134:../../lpc_chip_11cxx_lib/src/i2c_11xx.c **** 	uint32_t index = (uint32_t) sid - 1;
 135:../../lpc_chip_11cxx_lib/src/i2c_11xx.c **** 	pI2C->MASK[index] = mask;
 136:../../lpc_chip_11cxx_lib/src/i2c_11xx.c **** 	if (sid == I2C_SLAVE_0) {
 137:../../lpc_chip_11cxx_lib/src/i2c_11xx.c **** 		pI2C->ADR0 = addr;
 138:../../lpc_chip_11cxx_lib/src/i2c_11xx.c **** 	}
 139:../../lpc_chip_11cxx_lib/src/i2c_11xx.c **** 	else {
 140:../../lpc_chip_11cxx_lib/src/i2c_11xx.c **** 		volatile uint32_t *abase = &pI2C->ADR1;
 141:../../lpc_chip_11cxx_lib/src/i2c_11xx.c **** 		abase[index - 1] = addr;
 142:../../lpc_chip_11cxx_lib/src/i2c_11xx.c **** 	}
 143:../../lpc_chip_11cxx_lib/src/i2c_11xx.c **** }
 144:../../lpc_chip_11cxx_lib/src/i2c_11xx.c **** 
 145:../../lpc_chip_11cxx_lib/src/i2c_11xx.c **** /* Match the slave address */
 146:../../lpc_chip_11cxx_lib/src/i2c_11xx.c **** STATIC int isSlaveAddrMatching(uint8_t addr1, uint8_t addr2, uint8_t mask)
 147:../../lpc_chip_11cxx_lib/src/i2c_11xx.c **** {
 148:../../lpc_chip_11cxx_lib/src/i2c_11xx.c **** 	mask |= 1;
 149:../../lpc_chip_11cxx_lib/src/i2c_11xx.c **** 	return (addr1 & ~mask) == (addr2 & ~mask);
 150:../../lpc_chip_11cxx_lib/src/i2c_11xx.c **** }
 151:../../lpc_chip_11cxx_lib/src/i2c_11xx.c **** 
 152:../../lpc_chip_11cxx_lib/src/i2c_11xx.c **** /* Get the index of the active slave */
 153:../../lpc_chip_11cxx_lib/src/i2c_11xx.c **** STATIC I2C_SLAVE_ID lookupSlaveIndex(LPC_I2C_T *pI2C, uint8_t slaveAddr)
 154:../../lpc_chip_11cxx_lib/src/i2c_11xx.c **** {
ARM GAS  /var/folders/f9/8bk2lnw15zn4cbgn6wrnb4lm0000gn/T//cc47W8rL.s 			page 5


 155:../../lpc_chip_11cxx_lib/src/i2c_11xx.c **** 	if (!(slaveAddr >> 1)) {
 156:../../lpc_chip_11cxx_lib/src/i2c_11xx.c **** 		return I2C_SLAVE_GENERAL;					/* General call address */
 157:../../lpc_chip_11cxx_lib/src/i2c_11xx.c **** 	}
 158:../../lpc_chip_11cxx_lib/src/i2c_11xx.c **** 	if (isSlaveAddrMatching(pI2C->ADR0, slaveAddr, pI2C->MASK[0])) {
 159:../../lpc_chip_11cxx_lib/src/i2c_11xx.c **** 		return I2C_SLAVE_0;
 160:../../lpc_chip_11cxx_lib/src/i2c_11xx.c **** 	}
 161:../../lpc_chip_11cxx_lib/src/i2c_11xx.c **** 	if (isSlaveAddrMatching(pI2C->ADR1, slaveAddr, pI2C->MASK[1])) {
 162:../../lpc_chip_11cxx_lib/src/i2c_11xx.c **** 		return I2C_SLAVE_1;
 163:../../lpc_chip_11cxx_lib/src/i2c_11xx.c **** 	}
 164:../../lpc_chip_11cxx_lib/src/i2c_11xx.c **** 	if (isSlaveAddrMatching(pI2C->ADR2, slaveAddr, pI2C->MASK[2])) {
 165:../../lpc_chip_11cxx_lib/src/i2c_11xx.c **** 		return I2C_SLAVE_2;
 166:../../lpc_chip_11cxx_lib/src/i2c_11xx.c **** 	}
 167:../../lpc_chip_11cxx_lib/src/i2c_11xx.c **** 	if (isSlaveAddrMatching(pI2C->ADR3, slaveAddr, pI2C->MASK[3])) {
 168:../../lpc_chip_11cxx_lib/src/i2c_11xx.c **** 		return I2C_SLAVE_3;
 169:../../lpc_chip_11cxx_lib/src/i2c_11xx.c **** 	}
 170:../../lpc_chip_11cxx_lib/src/i2c_11xx.c **** 
 171:../../lpc_chip_11cxx_lib/src/i2c_11xx.c **** 	/* If everything is fine the code should never come here */
 172:../../lpc_chip_11cxx_lib/src/i2c_11xx.c **** 	return I2C_SLAVE_GENERAL;
 173:../../lpc_chip_11cxx_lib/src/i2c_11xx.c **** }
 174:../../lpc_chip_11cxx_lib/src/i2c_11xx.c **** 
 175:../../lpc_chip_11cxx_lib/src/i2c_11xx.c **** /* Master transfer state change handler handler */
 176:../../lpc_chip_11cxx_lib/src/i2c_11xx.c **** int handleMasterXferState(LPC_I2C_T *pI2C, I2C_XFER_T  *xfer)
 177:../../lpc_chip_11cxx_lib/src/i2c_11xx.c **** {
 178:../../lpc_chip_11cxx_lib/src/i2c_11xx.c **** 	uint32_t cclr = I2C_CON_FLAGS;
 179:../../lpc_chip_11cxx_lib/src/i2c_11xx.c **** 
 180:../../lpc_chip_11cxx_lib/src/i2c_11xx.c **** 	switch (getCurState(pI2C)) {
 181:../../lpc_chip_11cxx_lib/src/i2c_11xx.c **** 	case 0x08:		/* Start condition on bus */
 182:../../lpc_chip_11cxx_lib/src/i2c_11xx.c **** 	case 0x10:		/* Repeated start condition */
 183:../../lpc_chip_11cxx_lib/src/i2c_11xx.c **** 		pI2C->DAT = (xfer->slaveAddr << 1) | (xfer->txSz == 0);
 184:../../lpc_chip_11cxx_lib/src/i2c_11xx.c **** 		break;
 185:../../lpc_chip_11cxx_lib/src/i2c_11xx.c **** 
 186:../../lpc_chip_11cxx_lib/src/i2c_11xx.c **** 	/* Tx handling */
 187:../../lpc_chip_11cxx_lib/src/i2c_11xx.c **** 	case 0x18:		/* SLA+W sent and ACK received */
 188:../../lpc_chip_11cxx_lib/src/i2c_11xx.c **** 	case 0x28:		/* DATA sent and ACK received */
 189:../../lpc_chip_11cxx_lib/src/i2c_11xx.c **** 		if (!xfer->txSz) {
 190:../../lpc_chip_11cxx_lib/src/i2c_11xx.c **** 			cclr &= ~(xfer->rxSz ? I2C_CON_STA : I2C_CON_STO);
 191:../../lpc_chip_11cxx_lib/src/i2c_11xx.c **** 		}
 192:../../lpc_chip_11cxx_lib/src/i2c_11xx.c **** 		else {
 193:../../lpc_chip_11cxx_lib/src/i2c_11xx.c **** 			pI2C->DAT = *xfer->txBuff++;
 194:../../lpc_chip_11cxx_lib/src/i2c_11xx.c **** 			xfer->txSz--;
 195:../../lpc_chip_11cxx_lib/src/i2c_11xx.c **** 		}
 196:../../lpc_chip_11cxx_lib/src/i2c_11xx.c **** 		break;
 197:../../lpc_chip_11cxx_lib/src/i2c_11xx.c **** 
 198:../../lpc_chip_11cxx_lib/src/i2c_11xx.c **** 	/* Rx handling */
 199:../../lpc_chip_11cxx_lib/src/i2c_11xx.c **** 	case 0x58:		/* Data Received and NACK sent */
 200:../../lpc_chip_11cxx_lib/src/i2c_11xx.c **** 		cclr &= ~I2C_CON_STO;
 201:../../lpc_chip_11cxx_lib/src/i2c_11xx.c **** 
 202:../../lpc_chip_11cxx_lib/src/i2c_11xx.c **** 	case 0x50:		/* Data Received and ACK sent */
 203:../../lpc_chip_11cxx_lib/src/i2c_11xx.c **** 		*xfer->rxBuff++ = pI2C->DAT;
 204:../../lpc_chip_11cxx_lib/src/i2c_11xx.c **** 		xfer->rxSz--;
 205:../../lpc_chip_11cxx_lib/src/i2c_11xx.c **** 
 206:../../lpc_chip_11cxx_lib/src/i2c_11xx.c **** 	case 0x40:		/* SLA+R sent and ACK received */
 207:../../lpc_chip_11cxx_lib/src/i2c_11xx.c **** 		if (xfer->rxSz > 1) {
 208:../../lpc_chip_11cxx_lib/src/i2c_11xx.c **** 			cclr &= ~I2C_CON_AA;
 209:../../lpc_chip_11cxx_lib/src/i2c_11xx.c **** 		}
 210:../../lpc_chip_11cxx_lib/src/i2c_11xx.c **** 		break;
 211:../../lpc_chip_11cxx_lib/src/i2c_11xx.c **** 
ARM GAS  /var/folders/f9/8bk2lnw15zn4cbgn6wrnb4lm0000gn/T//cc47W8rL.s 			page 6


 212:../../lpc_chip_11cxx_lib/src/i2c_11xx.c **** 	/* NAK Handling */
 213:../../lpc_chip_11cxx_lib/src/i2c_11xx.c **** 	case 0x20:		/* SLA+W sent NAK received */
 214:../../lpc_chip_11cxx_lib/src/i2c_11xx.c **** 	case 0x30:		/* DATA sent NAK received */
 215:../../lpc_chip_11cxx_lib/src/i2c_11xx.c **** 	case 0x48:		/* SLA+R sent NAK received */
 216:../../lpc_chip_11cxx_lib/src/i2c_11xx.c **** 		xfer->status = I2C_STATUS_NAK;
 217:../../lpc_chip_11cxx_lib/src/i2c_11xx.c **** 		cclr &= ~I2C_CON_STO;
 218:../../lpc_chip_11cxx_lib/src/i2c_11xx.c **** 		break;
 219:../../lpc_chip_11cxx_lib/src/i2c_11xx.c **** 
 220:../../lpc_chip_11cxx_lib/src/i2c_11xx.c **** 	case 0x38:		/* Arbitration lost */
 221:../../lpc_chip_11cxx_lib/src/i2c_11xx.c **** 		xfer->status = I2C_STATUS_ARBLOST;
 222:../../lpc_chip_11cxx_lib/src/i2c_11xx.c **** 		break;
 223:../../lpc_chip_11cxx_lib/src/i2c_11xx.c **** 
 224:../../lpc_chip_11cxx_lib/src/i2c_11xx.c **** 	/* Bus Error */
 225:../../lpc_chip_11cxx_lib/src/i2c_11xx.c **** 	case 0x00:
 226:../../lpc_chip_11cxx_lib/src/i2c_11xx.c **** 		xfer->status = I2C_STATUS_BUSERR;
 227:../../lpc_chip_11cxx_lib/src/i2c_11xx.c **** 		cclr &= ~I2C_CON_STO;
 228:../../lpc_chip_11cxx_lib/src/i2c_11xx.c **** 	}
 229:../../lpc_chip_11cxx_lib/src/i2c_11xx.c **** 
 230:../../lpc_chip_11cxx_lib/src/i2c_11xx.c **** 	/* Set clear control flags */
 231:../../lpc_chip_11cxx_lib/src/i2c_11xx.c **** 	pI2C->CONSET = cclr ^ I2C_CON_FLAGS;
 232:../../lpc_chip_11cxx_lib/src/i2c_11xx.c **** 	pI2C->CONCLR = cclr;
 233:../../lpc_chip_11cxx_lib/src/i2c_11xx.c **** 
 234:../../lpc_chip_11cxx_lib/src/i2c_11xx.c **** 	/* If stopped return 0 */
 235:../../lpc_chip_11cxx_lib/src/i2c_11xx.c **** 	if (!(cclr & I2C_CON_STO) || (xfer->status == I2C_STATUS_ARBLOST)) {
 236:../../lpc_chip_11cxx_lib/src/i2c_11xx.c **** 		if (xfer->status == I2C_STATUS_BUSY) {
 237:../../lpc_chip_11cxx_lib/src/i2c_11xx.c **** 			xfer->status = I2C_STATUS_DONE;
 238:../../lpc_chip_11cxx_lib/src/i2c_11xx.c **** 		}
 239:../../lpc_chip_11cxx_lib/src/i2c_11xx.c **** 		return 0;
 240:../../lpc_chip_11cxx_lib/src/i2c_11xx.c **** 	}
 241:../../lpc_chip_11cxx_lib/src/i2c_11xx.c **** 	return 1;
 242:../../lpc_chip_11cxx_lib/src/i2c_11xx.c **** }
 243:../../lpc_chip_11cxx_lib/src/i2c_11xx.c **** 
 244:../../lpc_chip_11cxx_lib/src/i2c_11xx.c **** /* Find the slave address of SLA+W or SLA+R */
 245:../../lpc_chip_11cxx_lib/src/i2c_11xx.c **** I2C_SLAVE_ID getSlaveIndex(LPC_I2C_T *pI2C)
 246:../../lpc_chip_11cxx_lib/src/i2c_11xx.c **** {
 247:../../lpc_chip_11cxx_lib/src/i2c_11xx.c **** 	switch (getCurState(pI2C)) {
 248:../../lpc_chip_11cxx_lib/src/i2c_11xx.c **** 	case 0x60:
 249:../../lpc_chip_11cxx_lib/src/i2c_11xx.c **** 	case 0x68:
 250:../../lpc_chip_11cxx_lib/src/i2c_11xx.c **** 	case 0x70:
 251:../../lpc_chip_11cxx_lib/src/i2c_11xx.c **** 	case 0x78:
 252:../../lpc_chip_11cxx_lib/src/i2c_11xx.c **** 	case 0xA8:
 253:../../lpc_chip_11cxx_lib/src/i2c_11xx.c **** 	case 0xB0:
 254:../../lpc_chip_11cxx_lib/src/i2c_11xx.c **** 		return lookupSlaveIndex(pI2C, pI2C->DAT);
 255:../../lpc_chip_11cxx_lib/src/i2c_11xx.c **** 	}
 256:../../lpc_chip_11cxx_lib/src/i2c_11xx.c **** 
 257:../../lpc_chip_11cxx_lib/src/i2c_11xx.c **** 	/* If everything is fine code should never come here */
 258:../../lpc_chip_11cxx_lib/src/i2c_11xx.c **** 	return I2C_SLAVE_GENERAL;
 259:../../lpc_chip_11cxx_lib/src/i2c_11xx.c **** }
 260:../../lpc_chip_11cxx_lib/src/i2c_11xx.c **** 
 261:../../lpc_chip_11cxx_lib/src/i2c_11xx.c **** /* Slave state machine handler */
 262:../../lpc_chip_11cxx_lib/src/i2c_11xx.c **** int handleSlaveXferState(LPC_I2C_T *pI2C, I2C_XFER_T *xfer)
 263:../../lpc_chip_11cxx_lib/src/i2c_11xx.c **** {
 264:../../lpc_chip_11cxx_lib/src/i2c_11xx.c **** 	uint32_t cclr = I2C_CON_FLAGS;
 265:../../lpc_chip_11cxx_lib/src/i2c_11xx.c **** 	int ret = RET_SLAVE_BUSY;
 266:../../lpc_chip_11cxx_lib/src/i2c_11xx.c **** 
 267:../../lpc_chip_11cxx_lib/src/i2c_11xx.c **** 	xfer->status = I2C_STATUS_BUSY;
 268:../../lpc_chip_11cxx_lib/src/i2c_11xx.c **** 	switch (getCurState(pI2C)) {
ARM GAS  /var/folders/f9/8bk2lnw15zn4cbgn6wrnb4lm0000gn/T//cc47W8rL.s 			page 7


 269:../../lpc_chip_11cxx_lib/src/i2c_11xx.c **** 	case 0x80:		/* SLA: Data received + ACK sent */
 270:../../lpc_chip_11cxx_lib/src/i2c_11xx.c **** 	case 0x90:		/* GC: Data received + ACK sent */
 271:../../lpc_chip_11cxx_lib/src/i2c_11xx.c **** 		*xfer->rxBuff++ = pI2C->DAT;
 272:../../lpc_chip_11cxx_lib/src/i2c_11xx.c **** 		xfer->rxSz--;
 273:../../lpc_chip_11cxx_lib/src/i2c_11xx.c **** 		ret = RET_SLAVE_RX;
 274:../../lpc_chip_11cxx_lib/src/i2c_11xx.c **** 		if (xfer->rxSz > 1) {
 275:../../lpc_chip_11cxx_lib/src/i2c_11xx.c **** 			cclr &= ~I2C_CON_AA;
 276:../../lpc_chip_11cxx_lib/src/i2c_11xx.c **** 		}
 277:../../lpc_chip_11cxx_lib/src/i2c_11xx.c **** 		break;
 278:../../lpc_chip_11cxx_lib/src/i2c_11xx.c **** 
 279:../../lpc_chip_11cxx_lib/src/i2c_11xx.c **** 	case 0x60:		/* Own SLA+W received */
 280:../../lpc_chip_11cxx_lib/src/i2c_11xx.c **** 	case 0x68:		/* Own SLA+W received after losing arbitration */
 281:../../lpc_chip_11cxx_lib/src/i2c_11xx.c **** 	case 0x70:		/* GC+W received */
 282:../../lpc_chip_11cxx_lib/src/i2c_11xx.c **** 	case 0x78:		/* GC+W received after losing arbitration */
 283:../../lpc_chip_11cxx_lib/src/i2c_11xx.c **** 		xfer->slaveAddr = pI2C->DAT & ~1;
 284:../../lpc_chip_11cxx_lib/src/i2c_11xx.c **** 		if (xfer->rxSz > 1) {
 285:../../lpc_chip_11cxx_lib/src/i2c_11xx.c **** 			cclr &= ~I2C_CON_AA;
 286:../../lpc_chip_11cxx_lib/src/i2c_11xx.c **** 		}
 287:../../lpc_chip_11cxx_lib/src/i2c_11xx.c **** 		break;
 288:../../lpc_chip_11cxx_lib/src/i2c_11xx.c **** 
 289:../../lpc_chip_11cxx_lib/src/i2c_11xx.c **** 	case 0xA8:		/* SLA+R received */
 290:../../lpc_chip_11cxx_lib/src/i2c_11xx.c **** 	case 0xB0:		/* SLA+R received after losing arbitration */
 291:../../lpc_chip_11cxx_lib/src/i2c_11xx.c **** 		xfer->slaveAddr = pI2C->DAT & ~1;
 292:../../lpc_chip_11cxx_lib/src/i2c_11xx.c **** 
 293:../../lpc_chip_11cxx_lib/src/i2c_11xx.c **** 	case 0xB8:		/* DATA sent and ACK received */
 294:../../lpc_chip_11cxx_lib/src/i2c_11xx.c **** 		pI2C->DAT = *xfer->txBuff++;
 295:../../lpc_chip_11cxx_lib/src/i2c_11xx.c **** 		xfer->txSz--;
 296:../../lpc_chip_11cxx_lib/src/i2c_11xx.c **** 		if (xfer->txSz > 0) {
 297:../../lpc_chip_11cxx_lib/src/i2c_11xx.c **** 			cclr &= ~I2C_CON_AA;
 298:../../lpc_chip_11cxx_lib/src/i2c_11xx.c **** 		}
 299:../../lpc_chip_11cxx_lib/src/i2c_11xx.c **** 		ret = RET_SLAVE_TX;
 300:../../lpc_chip_11cxx_lib/src/i2c_11xx.c **** 		break;
 301:../../lpc_chip_11cxx_lib/src/i2c_11xx.c **** 
 302:../../lpc_chip_11cxx_lib/src/i2c_11xx.c **** 	case 0xC0:		/* Data transmitted and NAK received */
 303:../../lpc_chip_11cxx_lib/src/i2c_11xx.c **** 	case 0xC8:		/* Last data transmitted and ACK received */
 304:../../lpc_chip_11cxx_lib/src/i2c_11xx.c **** 	case 0x88:		/* SLA: Data received + NAK sent */
 305:../../lpc_chip_11cxx_lib/src/i2c_11xx.c **** 	case 0x98:		/* GC: Data received + NAK sent */
 306:../../lpc_chip_11cxx_lib/src/i2c_11xx.c **** 	case 0xA0:		/* STOP/Repeated START condition received */
 307:../../lpc_chip_11cxx_lib/src/i2c_11xx.c **** 		ret = RET_SLAVE_IDLE;
 308:../../lpc_chip_11cxx_lib/src/i2c_11xx.c **** 		cclr &= ~I2C_CON_AA;
 309:../../lpc_chip_11cxx_lib/src/i2c_11xx.c **** 		xfer->status = I2C_STATUS_DONE;
 310:../../lpc_chip_11cxx_lib/src/i2c_11xx.c **** 		if (xfer->slaveAddr & 1) {
 311:../../lpc_chip_11cxx_lib/src/i2c_11xx.c **** 			cclr &= ~I2C_CON_STA;
 312:../../lpc_chip_11cxx_lib/src/i2c_11xx.c **** 		}
 313:../../lpc_chip_11cxx_lib/src/i2c_11xx.c **** 		break;
 314:../../lpc_chip_11cxx_lib/src/i2c_11xx.c **** 	}
 315:../../lpc_chip_11cxx_lib/src/i2c_11xx.c **** 
 316:../../lpc_chip_11cxx_lib/src/i2c_11xx.c **** 	/* Set clear control flags */
 317:../../lpc_chip_11cxx_lib/src/i2c_11xx.c **** 	pI2C->CONSET = cclr ^ I2C_CON_FLAGS;
 318:../../lpc_chip_11cxx_lib/src/i2c_11xx.c **** 	pI2C->CONCLR = cclr;
 319:../../lpc_chip_11cxx_lib/src/i2c_11xx.c **** 
 320:../../lpc_chip_11cxx_lib/src/i2c_11xx.c **** 	return ret;
 321:../../lpc_chip_11cxx_lib/src/i2c_11xx.c **** }
 322:../../lpc_chip_11cxx_lib/src/i2c_11xx.c **** 
 323:../../lpc_chip_11cxx_lib/src/i2c_11xx.c **** /*****************************************************************************
 324:../../lpc_chip_11cxx_lib/src/i2c_11xx.c ****  * Public functions
 325:../../lpc_chip_11cxx_lib/src/i2c_11xx.c ****  ****************************************************************************/
ARM GAS  /var/folders/f9/8bk2lnw15zn4cbgn6wrnb4lm0000gn/T//cc47W8rL.s 			page 8


 326:../../lpc_chip_11cxx_lib/src/i2c_11xx.c **** 
 327:../../lpc_chip_11cxx_lib/src/i2c_11xx.c **** /* Chip event handler interrupt based */
 328:../../lpc_chip_11cxx_lib/src/i2c_11xx.c **** void Chip_I2C_EventHandler(I2C_ID_T id, I2C_EVENT_T event)
 329:../../lpc_chip_11cxx_lib/src/i2c_11xx.c **** {
  75              		.loc 1 329 0
  76              		.cfi_startproc
  77              	.LVL0:
 330:../../lpc_chip_11cxx_lib/src/i2c_11xx.c **** 	struct i2c_interface *iic = &i2c[id];
 331:../../lpc_chip_11cxx_lib/src/i2c_11xx.c **** 	volatile I2C_STATUS_T *stat;
 332:../../lpc_chip_11cxx_lib/src/i2c_11xx.c **** 
 333:../../lpc_chip_11cxx_lib/src/i2c_11xx.c **** 	/* Only WAIT event needs to be handled */
 334:../../lpc_chip_11cxx_lib/src/i2c_11xx.c **** 	if (event != I2C_EVENT_WAIT) {
  78              		.loc 1 334 0
  79 0000 0129     		cmp	r1, #1	@ event,
  80 0002 00D0     		beq	.L5	@,
  81              	.LVL1:
  82              	.L1:
 335:../../lpc_chip_11cxx_lib/src/i2c_11xx.c **** 		return;
 336:../../lpc_chip_11cxx_lib/src/i2c_11xx.c **** 	}
 337:../../lpc_chip_11cxx_lib/src/i2c_11xx.c **** 
 338:../../lpc_chip_11cxx_lib/src/i2c_11xx.c **** 	stat = &iic->mXfer->status;
 339:../../lpc_chip_11cxx_lib/src/i2c_11xx.c **** 	/* Wait for the status to change */
 340:../../lpc_chip_11cxx_lib/src/i2c_11xx.c **** 	while (*stat == I2C_STATUS_BUSY) {}
 341:../../lpc_chip_11cxx_lib/src/i2c_11xx.c **** }
  83              		.loc 1 341 0
  84              		@ sp needed	@
  85 0004 7047     		bx	lr
  86              	.LVL2:
  87              	.L5:
 330:../../lpc_chip_11cxx_lib/src/i2c_11xx.c **** 	struct i2c_interface *iic = &i2c[id];
  88              		.loc 1 330 0
  89 0006 C300     		lsl	r3, r0, #3	@ tmp118, id,
  90 0008 181A     		sub	r0, r3, r0	@ tmp119, tmp118, id
  91              	.LVL3:
 338:../../lpc_chip_11cxx_lib/src/i2c_11xx.c **** 	stat = &iic->mXfer->status;
  92              		.loc 1 338 0
  93 000a 044B     		ldr	r3, .L6	@ tmp116,
 330:../../lpc_chip_11cxx_lib/src/i2c_11xx.c **** 	struct i2c_interface *iic = &i2c[id];
  94              		.loc 1 330 0
  95 000c 8000     		lsl	r0, r0, #2	@ tmp120, tmp119,
 338:../../lpc_chip_11cxx_lib/src/i2c_11xx.c **** 	stat = &iic->mXfer->status;
  96              		.loc 1 338 0
  97 000e 1818     		add	r0, r3, r0	@ tmp121, tmp116, tmp120
  98 0010 0269     		ldr	r2, [r0, #16]	@ D.6674, iic_3->mXfer
  99              	.LVL4:
 100              	.L3:
 340:../../lpc_chip_11cxx_lib/src/i2c_11xx.c **** 	while (*stat == I2C_STATUS_BUSY) {}
 101              		.loc 1 340 0 discriminator 1
 102 0012 137D     		ldrb	r3, [r2, #20]	@ MEM[(volatile I2C_STATUS_T *)_6 + 20B], MEM[(volatile I2C_STATUS_T *)_6 + 20B
 103 0014 042B     		cmp	r3, #4	@ MEM[(volatile I2C_STATUS_T *)_6 + 20B],
 104 0016 FCD0     		beq	.L3	@,
 105 0018 F4E7     		b	.L1	@
 106              	.L7:
 107 001a C046     		.align	2
 108              	.L6:
 109 001c 00000000 		.word	.LANCHOR0
 110              		.cfi_endproc
ARM GAS  /var/folders/f9/8bk2lnw15zn4cbgn6wrnb4lm0000gn/T//cc47W8rL.s 			page 9


 111              	.LFE212:
 112              		.size	Chip_I2C_EventHandler, .-Chip_I2C_EventHandler
 113              		.section	.text.handleMasterXferState,"ax",%progbits
 114              		.align	2
 115              		.global	handleMasterXferState
 116              		.code	16
 117              		.thumb_func
 118              		.type	handleMasterXferState, %function
 119              	handleMasterXferState:
 120              	.LFB209:
 177:../../lpc_chip_11cxx_lib/src/i2c_11xx.c **** {
 121              		.loc 1 177 0
 122              		.cfi_startproc
 123              	.LVL5:
 124              	.LBB51:
 125              	.LBB52:
 122:../../lpc_chip_11cxx_lib/src/i2c_11xx.c **** 	return (int) (pI2C->STAT & I2C_STAT_CODE_BITMASK);
 126              		.loc 1 122 0
 127 0000 4268     		ldr	r2, [r0, #4]	@ D.6686, pI2C_10(D)->STAT
 128              	.LBE52:
 129              	.LBE51:
 177:../../lpc_chip_11cxx_lib/src/i2c_11xx.c **** {
 130              		.loc 1 177 0
 131 0002 031C     		mov	r3, r0	@ pI2C, pI2C
 132              	.LBB55:
 133              	.LBB53:
 122:../../lpc_chip_11cxx_lib/src/i2c_11xx.c **** 	return (int) (pI2C->STAT & I2C_STAT_CODE_BITMASK);
 134              		.loc 1 122 0
 135 0004 F820     		mov	r0, #248	@ tmp151,
 136              	.LVL6:
 137              	.LBE53:
 138              	.LBE55:
 177:../../lpc_chip_11cxx_lib/src/i2c_11xx.c **** {
 139              		.loc 1 177 0
 140 0006 30B5     		push	{r4, r5, lr}	@
 141              		.cfi_def_cfa_offset 12
 142              		.cfi_offset 4, -12
 143              		.cfi_offset 5, -8
 144              		.cfi_offset 14, -4
 145              	.LBB56:
 146              	.LBB54:
 122:../../lpc_chip_11cxx_lib/src/i2c_11xx.c **** 	return (int) (pI2C->STAT & I2C_STAT_CODE_BITMASK);
 147              		.loc 1 122 0
 148 0008 0240     		and	r2, r0	@ D.6683, tmp151
 149              	.LBE54:
 150              	.LBE56:
 180:../../lpc_chip_11cxx_lib/src/i2c_11xx.c **** 	switch (getCurState(pI2C)) {
 151              		.loc 1 180 0
 152 000a 582A     		cmp	r2, #88	@ D.6683,
 153 000c 4DD8     		bhi	.L9	@,
 154 000e 3748     		ldr	r0, .L35	@ tmp155,
 155 0010 9200     		lsl	r2, r2, #2	@ tmp153, D.6683,
 156 0012 8258     		ldr	r2, [r0, r2]	@ tmp156,
 157 0014 9746     		mov	pc, r2	@ tmp156
 158              		.section	.rodata.handleMasterXferState,"a",%progbits
 159              		.align	2
 160              	.L11:
ARM GAS  /var/folders/f9/8bk2lnw15zn4cbgn6wrnb4lm0000gn/T//cc47W8rL.s 			page 10


 161 0000 4E000000 		.word	.L10
 162 0004 AA000000 		.word	.L9
 163 0008 AA000000 		.word	.L9
 164 000c AA000000 		.word	.L9
 165 0010 AA000000 		.word	.L9
 166 0014 AA000000 		.word	.L9
 167 0018 AA000000 		.word	.L9
 168 001c AA000000 		.word	.L9
 169 0020 5E000000 		.word	.L12
 170 0024 AA000000 		.word	.L9
 171 0028 AA000000 		.word	.L9
 172 002c AA000000 		.word	.L9
 173 0030 AA000000 		.word	.L9
 174 0034 AA000000 		.word	.L9
 175 0038 AA000000 		.word	.L9
 176 003c AA000000 		.word	.L9
 177 0040 5E000000 		.word	.L12
 178 0044 AA000000 		.word	.L9
 179 0048 AA000000 		.word	.L9
 180 004c AA000000 		.word	.L9
 181 0050 AA000000 		.word	.L9
 182 0054 AA000000 		.word	.L9
 183 0058 AA000000 		.word	.L9
 184 005c AA000000 		.word	.L9
 185 0060 7E000000 		.word	.L13
 186 0064 AA000000 		.word	.L9
 187 0068 AA000000 		.word	.L9
 188 006c AA000000 		.word	.L9
 189 0070 AA000000 		.word	.L9
 190 0074 AA000000 		.word	.L9
 191 0078 AA000000 		.word	.L9
 192 007c AA000000 		.word	.L9
 193 0080 92000000 		.word	.L14
 194 0084 AA000000 		.word	.L9
 195 0088 AA000000 		.word	.L9
 196 008c AA000000 		.word	.L9
 197 0090 AA000000 		.word	.L9
 198 0094 AA000000 		.word	.L9
 199 0098 AA000000 		.word	.L9
 200 009c AA000000 		.word	.L9
 201 00a0 7E000000 		.word	.L13
 202 00a4 AA000000 		.word	.L9
 203 00a8 AA000000 		.word	.L9
 204 00ac AA000000 		.word	.L9
 205 00b0 AA000000 		.word	.L9
 206 00b4 AA000000 		.word	.L9
 207 00b8 AA000000 		.word	.L9
 208 00bc AA000000 		.word	.L9
 209 00c0 92000000 		.word	.L14
 210 00c4 AA000000 		.word	.L9
 211 00c8 AA000000 		.word	.L9
 212 00cc AA000000 		.word	.L9
 213 00d0 AA000000 		.word	.L9
 214 00d4 AA000000 		.word	.L9
 215 00d8 AA000000 		.word	.L9
 216 00dc AA000000 		.word	.L9
 217 00e0 A2000000 		.word	.L15
ARM GAS  /var/folders/f9/8bk2lnw15zn4cbgn6wrnb4lm0000gn/T//cc47W8rL.s 			page 11


 218 00e4 AA000000 		.word	.L9
 219 00e8 AA000000 		.word	.L9
 220 00ec AA000000 		.word	.L9
 221 00f0 AA000000 		.word	.L9
 222 00f4 AA000000 		.word	.L9
 223 00f8 AA000000 		.word	.L9
 224 00fc AA000000 		.word	.L9
 225 0100 98000000 		.word	.L16
 226 0104 AA000000 		.word	.L9
 227 0108 AA000000 		.word	.L9
 228 010c AA000000 		.word	.L9
 229 0110 AA000000 		.word	.L9
 230 0114 AA000000 		.word	.L9
 231 0118 AA000000 		.word	.L9
 232 011c AA000000 		.word	.L9
 233 0120 92000000 		.word	.L14
 234 0124 AA000000 		.word	.L9
 235 0128 AA000000 		.word	.L9
 236 012c AA000000 		.word	.L9
 237 0130 AA000000 		.word	.L9
 238 0134 AA000000 		.word	.L9
 239 0138 AA000000 		.word	.L9
 240 013c AA000000 		.word	.L9
 241 0140 9E000000 		.word	.L17
 242 0144 AA000000 		.word	.L9
 243 0148 AA000000 		.word	.L9
 244 014c AA000000 		.word	.L9
 245 0150 AA000000 		.word	.L9
 246 0154 AA000000 		.word	.L9
 247 0158 AA000000 		.word	.L9
 248 015c AA000000 		.word	.L9
 249 0160 16000000 		.word	.L29
 250              		.section	.text.handleMasterXferState
 251              	.L29:
 200:../../lpc_chip_11cxx_lib/src/i2c_11xx.c **** 		cclr &= ~I2C_CON_STO;
 252              		.loc 1 200 0
 253 0016 2C22     		mov	r2, #44	@ cclr,
 254              	.L18:
 255              	.LVL7:
 203:../../lpc_chip_11cxx_lib/src/i2c_11xx.c **** 		*xfer->rxBuff++ = pI2C->DAT;
 256              		.loc 1 203 0
 257 0018 C868     		ldr	r0, [r1, #12]	@ D.6688, xfer_12(D)->rxBuff
 258 001a 441C     		add	r4, r0, #1	@ D.6688, D.6688,
 259 001c CC60     		str	r4, [r1, #12]	@ D.6688, xfer_12(D)->rxBuff
 260 001e 9C68     		ldr	r4, [r3, #8]	@ D.6686, pI2C_10(D)->DAT
 261 0020 0470     		strb	r4, [r0]	@ D.6686, *_33
 204:../../lpc_chip_11cxx_lib/src/i2c_11xx.c **** 		xfer->rxSz--;
 262              		.loc 1 204 0
 263 0022 0869     		ldr	r0, [r1, #16]	@ D.6683, xfer_12(D)->rxSz
 264 0024 0138     		sub	r0, r0, #1	@ D.6683,
 265 0026 0861     		str	r0, [r1, #16]	@ D.6683, xfer_12(D)->rxSz
 266              	.LVL8:
 267              	.L19:
 207:../../lpc_chip_11cxx_lib/src/i2c_11xx.c **** 		if (xfer->rxSz > 1) {
 268              		.loc 1 207 0
 269 0028 0128     		cmp	r0, #1	@ D.6683,
 270 002a 48DD     		ble	.L24	@,
ARM GAS  /var/folders/f9/8bk2lnw15zn4cbgn6wrnb4lm0000gn/T//cc47W8rL.s 			page 12


 208:../../lpc_chip_11cxx_lib/src/i2c_11xx.c **** 			cclr &= ~I2C_CON_AA;
 271              		.loc 1 208 0
 272 002c 0420     		mov	r0, #4	@ tmp179,
 273 002e 141C     		mov	r4, r2	@ cclr, cclr
 274 0030 8443     		bic	r4, r0	@ cclr, tmp179
 275              	.LVL9:
 276 0032 3C25     		mov	r5, #60	@ tmp180,
 277 0034 1020     		mov	r0, #16	@ tmp181,
 278 0036 6540     		eor	r5, r4	@ D.6686, cclr
 279 0038 1040     		and	r0, r2	@ D.6686, cclr
 280              	.LVL10:
 281              	.L23:
 231:../../lpc_chip_11cxx_lib/src/i2c_11xx.c **** 	pI2C->CONSET = cclr ^ I2C_CON_FLAGS;
 282              		.loc 1 231 0
 283 003a 1D60     		str	r5, [r3]	@ D.6686, pI2C_10(D)->CONSET
 232:../../lpc_chip_11cxx_lib/src/i2c_11xx.c **** 	pI2C->CONCLR = cclr;
 284              		.loc 1 232 0
 285 003c 9C61     		str	r4, [r3, #24]	@ cclr, pI2C_10(D)->CONCLR
 235:../../lpc_chip_11cxx_lib/src/i2c_11xx.c **** 	if (!(cclr & I2C_CON_STO) || (xfer->status == I2C_STATUS_ARBLOST)) {
 286              		.loc 1 235 0
 287 003e 0028     		cmp	r0, #0	@ D.6686,
 288 0040 38D1     		bne	.L34	@,
 236:../../lpc_chip_11cxx_lib/src/i2c_11xx.c **** 		if (xfer->status == I2C_STATUS_BUSY) {
 289              		.loc 1 236 0
 290 0042 0B7D     		ldrb	r3, [r1, #20]	@ tmp195,
 291              	.LVL11:
 292 0044 042B     		cmp	r3, #4	@ tmp195,
 293 0046 08D1     		bne	.L33	@,
 237:../../lpc_chip_11cxx_lib/src/i2c_11xx.c **** 			xfer->status = I2C_STATUS_DONE;
 294              		.loc 1 237 0
 295 0048 0875     		strb	r0, [r1, #20]	@ D.6686, xfer_12(D)->status
 239:../../lpc_chip_11cxx_lib/src/i2c_11xx.c **** 		return 0;
 296              		.loc 1 239 0
 297 004a 0020     		mov	r0, #0	@ D.6683,
 298              	.LVL12:
 299              	.L32:
 242:../../lpc_chip_11cxx_lib/src/i2c_11xx.c **** }
 300              		.loc 1 242 0
 301              		@ sp needed	@
 302 004c 30BD     		pop	{r4, r5, pc}
 303              	.LVL13:
 304              	.L10:
 226:../../lpc_chip_11cxx_lib/src/i2c_11xx.c **** 		xfer->status = I2C_STATUS_BUSERR;
 305              		.loc 1 226 0
 306 004e 0322     		mov	r2, #3	@ tmp186,
 307 0050 0A75     		strb	r2, [r1, #20]	@ tmp186, xfer_12(D)->status
 308              	.LVL14:
 309              	.L25:
 231:../../lpc_chip_11cxx_lib/src/i2c_11xx.c **** 	pI2C->CONSET = cclr ^ I2C_CON_FLAGS;
 310              		.loc 1 231 0
 311 0052 1022     		mov	r2, #16	@ tmp206,
 312 0054 1A60     		str	r2, [r3]	@ tmp206, pI2C_10(D)->CONSET
 232:../../lpc_chip_11cxx_lib/src/i2c_11xx.c **** 	pI2C->CONCLR = cclr;
 313              		.loc 1 232 0
 314 0056 2C22     		mov	r2, #44	@ tmp207,
 315 0058 9A61     		str	r2, [r3, #24]	@ tmp207, pI2C_10(D)->CONCLR
 316              	.LVL15:
ARM GAS  /var/folders/f9/8bk2lnw15zn4cbgn6wrnb4lm0000gn/T//cc47W8rL.s 			page 13


 317              	.L33:
 239:../../lpc_chip_11cxx_lib/src/i2c_11xx.c **** 		return 0;
 318              		.loc 1 239 0
 319 005a 0020     		mov	r0, #0	@ D.6683,
 320 005c F6E7     		b	.L32	@
 321              	.LVL16:
 322              	.L12:
 183:../../lpc_chip_11cxx_lib/src/i2c_11xx.c **** 		pI2C->DAT = (xfer->slaveAddr << 1) | (xfer->txSz == 0);
 323              		.loc 1 183 0
 324 005e 8C68     		ldr	r4, [r1, #8]	@, xfer_12(D)->txSz
 325 0060 6042     		neg	r0, r4	@ D.6685,
 326 0062 6041     		adc	r0, r0, r4	@ D.6685,
 327 0064 0A78     		ldrb	r2, [r1]	@ D.6683, *xfer_12(D)
 328 0066 5200     		lsl	r2, r2, #1	@ D.6683, D.6683,
 329 0068 0243     		orr	r2, r0	@ D.6686, D.6685
 330 006a 9A60     		str	r2, [r3, #8]	@ D.6686, pI2C_10(D)->DAT
 331 006c 087D     		ldrb	r0, [r1, #20]	@ tmp164,
 332 006e 0238     		sub	r0, r0, #2	@ tmp166,
 333 0070 421E     		sub	r2, r0, #1	@ tmp167, tmp166
 334 0072 9041     		sbc	r0, r0, r2	@ D.6683, tmp166, tmp167
 335              	.L20:
 231:../../lpc_chip_11cxx_lib/src/i2c_11xx.c **** 	pI2C->CONSET = cclr ^ I2C_CON_FLAGS;
 336              		.loc 1 231 0
 337 0074 0022     		mov	r2, #0	@ tmp204,
 338 0076 1A60     		str	r2, [r3]	@ tmp204, pI2C_10(D)->CONSET
 232:../../lpc_chip_11cxx_lib/src/i2c_11xx.c **** 	pI2C->CONCLR = cclr;
 339              		.loc 1 232 0
 340 0078 3C22     		mov	r2, #60	@ tmp205,
 341 007a 9A61     		str	r2, [r3, #24]	@ tmp205, pI2C_10(D)->CONCLR
 342 007c E6E7     		b	.L32	@
 343              	.L13:
 189:../../lpc_chip_11cxx_lib/src/i2c_11xx.c **** 		if (!xfer->txSz) {
 344              		.loc 1 189 0
 345 007e 8A68     		ldr	r2, [r1, #8]	@ D.6683, xfer_12(D)->txSz
 346 0080 002A     		cmp	r2, #0	@ D.6683,
 347 0082 22D1     		bne	.L21	@,
 190:../../lpc_chip_11cxx_lib/src/i2c_11xx.c **** 			cclr &= ~(xfer->rxSz ? I2C_CON_STA : I2C_CON_STO);
 348              		.loc 1 190 0
 349 0084 0869     		ldr	r0, [r1, #16]	@, xfer_12(D)->rxSz
 350 0086 0028     		cmp	r0, #0	@,
 351 0088 2BD0     		beq	.L30	@,
 352 008a 1020     		mov	r0, #16	@ D.6686,
 353 008c 2025     		mov	r5, #32	@ D.6686,
 354 008e 1C24     		mov	r4, #28	@ cclr,
 355 0090 D3E7     		b	.L23	@
 356              	.L14:
 216:../../lpc_chip_11cxx_lib/src/i2c_11xx.c **** 		xfer->status = I2C_STATUS_NAK;
 357              		.loc 1 216 0
 358 0092 0122     		mov	r2, #1	@ tmp182,
 359 0094 0A75     		strb	r2, [r1, #20]	@ tmp182, xfer_12(D)->status
 360              	.LVL17:
 218:../../lpc_chip_11cxx_lib/src/i2c_11xx.c **** 		break;
 361              		.loc 1 218 0
 362 0096 DCE7     		b	.L25	@
 363              	.LVL18:
 364              	.L16:
 365 0098 0869     		ldr	r0, [r1, #16]	@ D.6683, xfer_12(D)->rxSz
ARM GAS  /var/folders/f9/8bk2lnw15zn4cbgn6wrnb4lm0000gn/T//cc47W8rL.s 			page 14


 178:../../lpc_chip_11cxx_lib/src/i2c_11xx.c **** 	uint32_t cclr = I2C_CON_FLAGS;
 366              		.loc 1 178 0
 367 009a 3C22     		mov	r2, #60	@ cclr,
 368 009c C4E7     		b	.L19	@
 369              	.L17:
 370 009e 3C22     		mov	r2, #60	@ cclr,
 371 00a0 BAE7     		b	.L18	@
 372              	.L15:
 221:../../lpc_chip_11cxx_lib/src/i2c_11xx.c **** 		xfer->status = I2C_STATUS_ARBLOST;
 373              		.loc 1 221 0
 374 00a2 0222     		mov	r2, #2	@ tmp184,
 375 00a4 0A75     		strb	r2, [r1, #20]	@ tmp184, xfer_12(D)->status
 222:../../lpc_chip_11cxx_lib/src/i2c_11xx.c **** 		break;
 376              		.loc 1 222 0
 377 00a6 0020     		mov	r0, #0	@ D.6683,
 378 00a8 E4E7     		b	.L20	@
 379              	.L9:
 380 00aa 087D     		ldrb	r0, [r1, #20]	@ tmp200,
 381 00ac 0238     		sub	r0, r0, #2	@ tmp202,
 382 00ae 421E     		sub	r2, r0, #1	@ tmp203, tmp202
 383 00b0 9041     		sbc	r0, r0, r2	@ D.6683, tmp202, tmp203
 384 00b2 DFE7     		b	.L20	@
 385              	.LVL19:
 386              	.L34:
 387 00b4 087D     		ldrb	r0, [r1, #20]	@ tmp191,
 388 00b6 0238     		sub	r0, r0, #2	@ tmp193,
 389 00b8 431E     		sub	r3, r0, #1	@ tmp194, tmp193
 390 00ba 9841     		sbc	r0, r0, r3	@ D.6683, tmp193, tmp194
 391              	.LVL20:
 392 00bc C6E7     		b	.L32	@
 393              	.LVL21:
 394              	.L24:
 395 00be 3C25     		mov	r5, #60	@ tmp188,
 396 00c0 1020     		mov	r0, #16	@ tmp189,
 397 00c2 5540     		eor	r5, r2	@ D.6686, cclr
 398 00c4 1040     		and	r0, r2	@ D.6686, cclr
 207:../../lpc_chip_11cxx_lib/src/i2c_11xx.c **** 		if (xfer->rxSz > 1) {
 399              		.loc 1 207 0
 400 00c6 141C     		mov	r4, r2	@ cclr, cclr
 401 00c8 B7E7     		b	.L23	@
 402              	.LVL22:
 403              	.L21:
 193:../../lpc_chip_11cxx_lib/src/i2c_11xx.c **** 			pI2C->DAT = *xfer->txBuff++;
 404              		.loc 1 193 0
 405 00ca 4868     		ldr	r0, [r1, #4]	@ D.6687, xfer_12(D)->txBuff
 194:../../lpc_chip_11cxx_lib/src/i2c_11xx.c **** 			xfer->txSz--;
 406              		.loc 1 194 0
 407 00cc 013A     		sub	r2, r2, #1	@ D.6683,
 193:../../lpc_chip_11cxx_lib/src/i2c_11xx.c **** 			pI2C->DAT = *xfer->txBuff++;
 408              		.loc 1 193 0
 409 00ce 441C     		add	r4, r0, #1	@ D.6687, D.6687,
 410 00d0 4C60     		str	r4, [r1, #4]	@ D.6687, xfer_12(D)->txBuff
 411 00d2 0078     		ldrb	r0, [r0]	@ D.6686, *_25
 412 00d4 9860     		str	r0, [r3, #8]	@ D.6686, pI2C_10(D)->DAT
 413 00d6 087D     		ldrb	r0, [r1, #20]	@ tmp172,
 194:../../lpc_chip_11cxx_lib/src/i2c_11xx.c **** 			xfer->txSz--;
 414              		.loc 1 194 0
ARM GAS  /var/folders/f9/8bk2lnw15zn4cbgn6wrnb4lm0000gn/T//cc47W8rL.s 			page 15


 415 00d8 8A60     		str	r2, [r1, #8]	@ D.6683, xfer_12(D)->txSz
 416 00da 0238     		sub	r0, r0, #2	@ tmp174,
 417 00dc 421E     		sub	r2, r0, #1	@ tmp175, tmp174
 418 00de 9041     		sbc	r0, r0, r2	@ D.6683, tmp174, tmp175
 419 00e0 C8E7     		b	.L20	@
 420              	.L30:
 421 00e2 0020     		mov	r0, #0	@ D.6686,
 422 00e4 1025     		mov	r5, #16	@ D.6686,
 423 00e6 2C24     		mov	r4, #44	@ cclr,
 424              	.LVL23:
 425 00e8 A7E7     		b	.L23	@
 426              	.L36:
 427 00ea C046     		.align	2
 428              	.L35:
 429 00ec 00000000 		.word	.L11
 430              		.cfi_endproc
 431              	.LFE209:
 432              		.size	handleMasterXferState, .-handleMasterXferState
 433              		.section	.text.getSlaveIndex,"ax",%progbits
 434              		.align	2
 435              		.global	getSlaveIndex
 436              		.code	16
 437              		.thumb_func
 438              		.type	getSlaveIndex, %function
 439              	getSlaveIndex:
 440              	.LFB210:
 246:../../lpc_chip_11cxx_lib/src/i2c_11xx.c **** {
 441              		.loc 1 246 0
 442              		.cfi_startproc
 443              	.LVL24:
 444              	.LBB69:
 445              	.LBB70:
 122:../../lpc_chip_11cxx_lib/src/i2c_11xx.c **** 	return (int) (pI2C->STAT & I2C_STAT_CODE_BITMASK);
 446              		.loc 1 122 0
 447 0000 4368     		ldr	r3, [r0, #4]	@ D.6710, pI2C_4(D)->STAT
 448 0002 F821     		mov	r1, #248	@ tmp159,
 449              	.LBE70:
 450              	.LBE69:
 246:../../lpc_chip_11cxx_lib/src/i2c_11xx.c **** {
 451              		.loc 1 246 0
 452 0004 10B5     		push	{r4, lr}	@
 453              		.cfi_def_cfa_offset 8
 454              		.cfi_offset 4, -8
 455              		.cfi_offset 14, -4
 246:../../lpc_chip_11cxx_lib/src/i2c_11xx.c **** {
 456              		.loc 1 246 0
 457 0006 021C     		mov	r2, r0	@ pI2C, pI2C
 458              	.LBB72:
 459              	.LBB71:
 122:../../lpc_chip_11cxx_lib/src/i2c_11xx.c **** 	return (int) (pI2C->STAT & I2C_STAT_CODE_BITMASK);
 460              		.loc 1 122 0
 461 0008 0B40     		and	r3, r1	@ D.6712, tmp159
 462              	.LBE71:
 463              	.LBE72:
 247:../../lpc_chip_11cxx_lib/src/i2c_11xx.c **** 	switch (getCurState(pI2C)) {
 464              		.loc 1 247 0
 465 000a 702B     		cmp	r3, #112	@ D.6712,
ARM GAS  /var/folders/f9/8bk2lnw15zn4cbgn6wrnb4lm0000gn/T//cc47W8rL.s 			page 16


 466 000c 0CD0     		beq	.L39	@,
 467 000e 07DD     		ble	.L70	@,
 468 0010 A82B     		cmp	r3, #168	@ D.6712,
 469 0012 09D0     		beq	.L39	@,
 470 0014 B02B     		cmp	r3, #176	@ D.6712,
 471 0016 07D0     		beq	.L39	@,
 472 0018 782B     		cmp	r3, #120	@ D.6712,
 473 001a 05D0     		beq	.L39	@,
 474              	.L42:
 258:../../lpc_chip_11cxx_lib/src/i2c_11xx.c **** 	return I2C_SLAVE_GENERAL;
 475              		.loc 1 258 0
 476 001c 0020     		mov	r0, #0	@ D.6709,
 477              	.LVL25:
 478              	.L38:
 259:../../lpc_chip_11cxx_lib/src/i2c_11xx.c **** }
 479              		.loc 1 259 0
 480              		@ sp needed	@
 481 001e 10BD     		pop	{r4, pc}
 482              	.LVL26:
 483              	.L70:
 247:../../lpc_chip_11cxx_lib/src/i2c_11xx.c **** 	switch (getCurState(pI2C)) {
 484              		.loc 1 247 0
 485 0020 602B     		cmp	r3, #96	@ D.6712,
 486 0022 01D0     		beq	.L39	@,
 487 0024 682B     		cmp	r3, #104	@ D.6712,
 488 0026 F9D1     		bne	.L42	@,
 489              	.L39:
 254:../../lpc_chip_11cxx_lib/src/i2c_11xx.c **** 		return lookupSlaveIndex(pI2C, pI2C->DAT);
 490              		.loc 1 254 0
 491 0028 9368     		ldr	r3, [r2, #8]	@ D.6710, pI2C_4(D)->DAT
 492              	.LBB73:
 493              	.LBB74:
 156:../../lpc_chip_11cxx_lib/src/i2c_11xx.c **** 		return I2C_SLAVE_GENERAL;					/* General call address */
 494              		.loc 1 156 0
 495 002a 0020     		mov	r0, #0	@ D.6709,
 496              	.LVL27:
 497              	.LBE74:
 498              	.LBE73:
 254:../../lpc_chip_11cxx_lib/src/i2c_11xx.c **** 		return lookupSlaveIndex(pI2C, pI2C->DAT);
 499              		.loc 1 254 0
 500 002c DBB2     		uxtb	r3, r3	@ D.6711, D.6710
 501              	.LVL28:
 502              	.LBB84:
 503              	.LBB83:
 155:../../lpc_chip_11cxx_lib/src/i2c_11xx.c **** 	if (!(slaveAddr >> 1)) {
 504              		.loc 1 155 0
 505 002e 5908     		lsr	r1, r3, #1	@ tmp163, D.6711,
 506 0030 F5D0     		beq	.L38	@,
 158:../../lpc_chip_11cxx_lib/src/i2c_11xx.c **** 	if (isSlaveAddrMatching(pI2C->ADR0, slaveAddr, pI2C->MASK[0])) {
 507              		.loc 1 158 0
 508 0032 D468     		ldr	r4, [r2, #12]	@ D.6710, pI2C_4(D)->ADR0
 509 0034 106B     		ldr	r0, [r2, #48]	@ D.6710, pI2C_4(D)->MASK
 510              	.LVL29:
 511              	.LBB75:
 512              	.LBB76:
 148:../../lpc_chip_11cxx_lib/src/i2c_11xx.c **** 	mask |= 1;
 513              		.loc 1 148 0
ARM GAS  /var/folders/f9/8bk2lnw15zn4cbgn6wrnb4lm0000gn/T//cc47W8rL.s 			page 17


 514 0036 0121     		mov	r1, #1	@ tmp164,
 515 0038 0843     		orr	r0, r1	@ tmp167, tmp164
 516              	.LVL30:
 149:../../lpc_chip_11cxx_lib/src/i2c_11xx.c **** 	return (addr1 & ~mask) == (addr2 & ~mask);
 517              		.loc 1 149 0
 518 003a 5C40     		eor	r4, r3	@ tmp171, D.6711
 519              	.LVL31:
 520 003c C0B2     		uxtb	r0, r0	@ D.6712, tmp167
 521 003e E4B2     		uxtb	r4, r4	@ D.6712, tmp171
 522 0040 8443     		bic	r4, r0	@ D.6712, D.6712
 523              	.LBE76:
 524              	.LBE75:
 159:../../lpc_chip_11cxx_lib/src/i2c_11xx.c **** 		return I2C_SLAVE_0;
 525              		.loc 1 159 0
 526 0042 0120     		mov	r0, #1	@ D.6709,
 158:../../lpc_chip_11cxx_lib/src/i2c_11xx.c **** 	if (isSlaveAddrMatching(pI2C->ADR0, slaveAddr, pI2C->MASK[0])) {
 527              		.loc 1 158 0
 528 0044 002C     		cmp	r4, #0	@ D.6712,
 529 0046 EAD0     		beq	.L38	@,
 161:../../lpc_chip_11cxx_lib/src/i2c_11xx.c **** 	if (isSlaveAddrMatching(pI2C->ADR1, slaveAddr, pI2C->MASK[1])) {
 530              		.loc 1 161 0
 531 0048 146A     		ldr	r4, [r2, #32]	@ D.6710, pI2C_4(D)->ADR1
 532 004a 506B     		ldr	r0, [r2, #52]	@ D.6710, pI2C_4(D)->MASK
 533              	.LVL32:
 534              	.LBB77:
 535              	.LBB78:
 149:../../lpc_chip_11cxx_lib/src/i2c_11xx.c **** 	return (addr1 & ~mask) == (addr2 & ~mask);
 536              		.loc 1 149 0
 537 004c 5C40     		eor	r4, r3	@ tmp181, D.6711
 538              	.LVL33:
 148:../../lpc_chip_11cxx_lib/src/i2c_11xx.c **** 	mask |= 1;
 539              		.loc 1 148 0
 540 004e 0843     		orr	r0, r1	@ tmp177, tmp164
 541              	.LVL34:
 149:../../lpc_chip_11cxx_lib/src/i2c_11xx.c **** 	return (addr1 & ~mask) == (addr2 & ~mask);
 542              		.loc 1 149 0
 543 0050 C0B2     		uxtb	r0, r0	@ D.6712, tmp177
 544 0052 E4B2     		uxtb	r4, r4	@ D.6712, tmp181
 545 0054 8443     		bic	r4, r0	@ D.6712, D.6712
 546              	.LBE78:
 547              	.LBE77:
 162:../../lpc_chip_11cxx_lib/src/i2c_11xx.c **** 		return I2C_SLAVE_1;
 548              		.loc 1 162 0
 549 0056 0220     		mov	r0, #2	@ D.6709,
 161:../../lpc_chip_11cxx_lib/src/i2c_11xx.c **** 	if (isSlaveAddrMatching(pI2C->ADR1, slaveAddr, pI2C->MASK[1])) {
 550              		.loc 1 161 0
 551 0058 002C     		cmp	r4, #0	@ D.6712,
 552 005a E0D0     		beq	.L38	@,
 164:../../lpc_chip_11cxx_lib/src/i2c_11xx.c **** 	if (isSlaveAddrMatching(pI2C->ADR2, slaveAddr, pI2C->MASK[2])) {
 553              		.loc 1 164 0
 554 005c 546A     		ldr	r4, [r2, #36]	@ D.6710, pI2C_4(D)->ADR2
 555 005e 906B     		ldr	r0, [r2, #56]	@ D.6710, pI2C_4(D)->MASK
 556              	.LVL35:
 557              	.LBB79:
 558              	.LBB80:
 149:../../lpc_chip_11cxx_lib/src/i2c_11xx.c **** 	return (addr1 & ~mask) == (addr2 & ~mask);
 559              		.loc 1 149 0
ARM GAS  /var/folders/f9/8bk2lnw15zn4cbgn6wrnb4lm0000gn/T//cc47W8rL.s 			page 18


 560 0060 5C40     		eor	r4, r3	@ tmp191, D.6711
 561              	.LVL36:
 148:../../lpc_chip_11cxx_lib/src/i2c_11xx.c **** 	mask |= 1;
 562              		.loc 1 148 0
 563 0062 0843     		orr	r0, r1	@ tmp187, tmp164
 564              	.LVL37:
 149:../../lpc_chip_11cxx_lib/src/i2c_11xx.c **** 	return (addr1 & ~mask) == (addr2 & ~mask);
 565              		.loc 1 149 0
 566 0064 C0B2     		uxtb	r0, r0	@ D.6712, tmp187
 567 0066 E4B2     		uxtb	r4, r4	@ D.6712, tmp191
 568 0068 8443     		bic	r4, r0	@ D.6712, D.6712
 569              	.LBE80:
 570              	.LBE79:
 165:../../lpc_chip_11cxx_lib/src/i2c_11xx.c **** 		return I2C_SLAVE_2;
 571              		.loc 1 165 0
 572 006a 0320     		mov	r0, #3	@ D.6709,
 164:../../lpc_chip_11cxx_lib/src/i2c_11xx.c **** 	if (isSlaveAddrMatching(pI2C->ADR2, slaveAddr, pI2C->MASK[2])) {
 573              		.loc 1 164 0
 574 006c 002C     		cmp	r4, #0	@ D.6712,
 575 006e D6D0     		beq	.L38	@,
 167:../../lpc_chip_11cxx_lib/src/i2c_11xx.c **** 	if (isSlaveAddrMatching(pI2C->ADR3, slaveAddr, pI2C->MASK[3])) {
 576              		.loc 1 167 0
 577 0070 906A     		ldr	r0, [r2, #40]	@ D.6710, pI2C_4(D)->ADR3
 578 0072 D26B     		ldr	r2, [r2, #60]	@ D.6710, pI2C_4(D)->MASK
 579              	.LVL38:
 580              	.LBB81:
 581              	.LBB82:
 149:../../lpc_chip_11cxx_lib/src/i2c_11xx.c **** 	return (addr1 & ~mask) == (addr2 & ~mask);
 582              		.loc 1 149 0
 583 0074 4340     		eor	r3, r0	@ tmp201, D.6710
 584              	.LVL39:
 148:../../lpc_chip_11cxx_lib/src/i2c_11xx.c **** 	mask |= 1;
 585              		.loc 1 148 0
 586 0076 1143     		orr	r1, r2	@ tmp197, D.6710
 149:../../lpc_chip_11cxx_lib/src/i2c_11xx.c **** 	return (addr1 & ~mask) == (addr2 & ~mask);
 587              		.loc 1 149 0
 588 0078 D8B2     		uxtb	r0, r3	@ D.6712, tmp201
 589              	.LVL40:
 590 007a C9B2     		uxtb	r1, r1	@ D.6712, tmp197
 591 007c 8843     		bic	r0, r1	@ D.6712, D.6712
 592              	.LBE82:
 593              	.LBE81:
 168:../../lpc_chip_11cxx_lib/src/i2c_11xx.c **** 		return I2C_SLAVE_3;
 594              		.loc 1 168 0
 595 007e 4342     		neg	r3, r0	@ tmp206, D.6712
 596 0080 5841     		adc	r0, r0, r3	@ tmp205, D.6712, tmp206
 597 0082 8000     		lsl	r0, r0, #2	@ D.6709, tmp205,
 598 0084 CBE7     		b	.L38	@
 599              	.LBE83:
 600              	.LBE84:
 601              		.cfi_endproc
 602              	.LFE210:
 603              		.size	getSlaveIndex, .-getSlaveIndex
 604 0086 C046     		.section	.text.handleSlaveXferState,"ax",%progbits
 605              		.align	2
 606              		.global	handleSlaveXferState
 607              		.code	16
ARM GAS  /var/folders/f9/8bk2lnw15zn4cbgn6wrnb4lm0000gn/T//cc47W8rL.s 			page 19


 608              		.thumb_func
 609              		.type	handleSlaveXferState, %function
 610              	handleSlaveXferState:
 611              	.LFB211:
 263:../../lpc_chip_11cxx_lib/src/i2c_11xx.c **** {
 612              		.loc 1 263 0
 613              		.cfi_startproc
 614              	.LVL41:
 267:../../lpc_chip_11cxx_lib/src/i2c_11xx.c **** 	xfer->status = I2C_STATUS_BUSY;
 615              		.loc 1 267 0
 616 0000 0422     		mov	r2, #4	@ tmp140,
 617 0002 0A75     		strb	r2, [r1, #20]	@ tmp140, xfer_6(D)->status
 618              	.LVL42:
 619              	.LBB85:
 620              	.LBB86:
 122:../../lpc_chip_11cxx_lib/src/i2c_11xx.c **** 	return (int) (pI2C->STAT & I2C_STAT_CODE_BITMASK);
 621              		.loc 1 122 0
 622 0004 4268     		ldr	r2, [r0, #4]	@ D.6720, pI2C_8(D)->STAT
 623              	.LBE86:
 624              	.LBE85:
 263:../../lpc_chip_11cxx_lib/src/i2c_11xx.c **** {
 625              		.loc 1 263 0
 626 0006 031C     		mov	r3, r0	@ pI2C, pI2C
 627              	.LBB88:
 628              	.LBB87:
 122:../../lpc_chip_11cxx_lib/src/i2c_11xx.c **** 	return (int) (pI2C->STAT & I2C_STAT_CODE_BITMASK);
 629              		.loc 1 122 0
 630 0008 F820     		mov	r0, #248	@ tmp142,
 631              	.LVL43:
 632 000a 0240     		and	r2, r0	@ D.6722, tmp142
 633              	.LBE87:
 634              	.LBE88:
 268:../../lpc_chip_11cxx_lib/src/i2c_11xx.c **** 	switch (getCurState(pI2C)) {
 635              		.loc 1 268 0
 636 000c 603A     		sub	r2, r2, #96	@ tmp144,
 637 000e 682A     		cmp	r2, #104	@ tmp144,
 638 0010 39D8     		bhi	.L79	@,
 639 0012 2548     		ldr	r0, .L86	@ tmp147,
 640 0014 9200     		lsl	r2, r2, #2	@ tmp145, tmp144,
 641 0016 8258     		ldr	r2, [r0, r2]	@ tmp148,
 642 0018 9746     		mov	pc, r2	@ tmp148
 643              		.section	.rodata.handleSlaveXferState,"a",%progbits
 644              		.align	2
 645              	.L74:
 646 0000 42000000 		.word	.L73
 647 0004 86000000 		.word	.L79
 648 0008 86000000 		.word	.L79
 649 000c 86000000 		.word	.L79
 650 0010 86000000 		.word	.L79
 651 0014 86000000 		.word	.L79
 652 0018 86000000 		.word	.L79
 653 001c 86000000 		.word	.L79
 654 0020 42000000 		.word	.L73
 655 0024 86000000 		.word	.L79
 656 0028 86000000 		.word	.L79
 657 002c 86000000 		.word	.L79
 658 0030 86000000 		.word	.L79
ARM GAS  /var/folders/f9/8bk2lnw15zn4cbgn6wrnb4lm0000gn/T//cc47W8rL.s 			page 20


 659 0034 86000000 		.word	.L79
 660 0038 86000000 		.word	.L79
 661 003c 86000000 		.word	.L79
 662 0040 42000000 		.word	.L73
 663 0044 86000000 		.word	.L79
 664 0048 86000000 		.word	.L79
 665 004c 86000000 		.word	.L79
 666 0050 86000000 		.word	.L79
 667 0054 86000000 		.word	.L79
 668 0058 86000000 		.word	.L79
 669 005c 86000000 		.word	.L79
 670 0060 42000000 		.word	.L73
 671 0064 86000000 		.word	.L79
 672 0068 86000000 		.word	.L79
 673 006c 86000000 		.word	.L79
 674 0070 86000000 		.word	.L79
 675 0074 86000000 		.word	.L79
 676 0078 86000000 		.word	.L79
 677 007c 86000000 		.word	.L79
 678 0080 58000000 		.word	.L75
 679 0084 86000000 		.word	.L79
 680 0088 86000000 		.word	.L79
 681 008c 86000000 		.word	.L79
 682 0090 86000000 		.word	.L79
 683 0094 86000000 		.word	.L79
 684 0098 86000000 		.word	.L79
 685 009c 86000000 		.word	.L79
 686 00a0 74000000 		.word	.L76
 687 00a4 86000000 		.word	.L79
 688 00a8 86000000 		.word	.L79
 689 00ac 86000000 		.word	.L79
 690 00b0 86000000 		.word	.L79
 691 00b4 86000000 		.word	.L79
 692 00b8 86000000 		.word	.L79
 693 00bc 86000000 		.word	.L79
 694 00c0 58000000 		.word	.L75
 695 00c4 86000000 		.word	.L79
 696 00c8 86000000 		.word	.L79
 697 00cc 86000000 		.word	.L79
 698 00d0 86000000 		.word	.L79
 699 00d4 86000000 		.word	.L79
 700 00d8 86000000 		.word	.L79
 701 00dc 86000000 		.word	.L79
 702 00e0 74000000 		.word	.L76
 703 00e4 86000000 		.word	.L79
 704 00e8 86000000 		.word	.L79
 705 00ec 86000000 		.word	.L79
 706 00f0 86000000 		.word	.L79
 707 00f4 86000000 		.word	.L79
 708 00f8 86000000 		.word	.L79
 709 00fc 86000000 		.word	.L79
 710 0100 74000000 		.word	.L76
 711 0104 86000000 		.word	.L79
 712 0108 86000000 		.word	.L79
 713 010c 86000000 		.word	.L79
 714 0110 86000000 		.word	.L79
 715 0114 86000000 		.word	.L79
ARM GAS  /var/folders/f9/8bk2lnw15zn4cbgn6wrnb4lm0000gn/T//cc47W8rL.s 			page 21


 716 0118 86000000 		.word	.L79
 717 011c 86000000 		.word	.L79
 718 0120 1A000000 		.word	.L77
 719 0124 86000000 		.word	.L79
 720 0128 86000000 		.word	.L79
 721 012c 86000000 		.word	.L79
 722 0130 86000000 		.word	.L79
 723 0134 86000000 		.word	.L79
 724 0138 86000000 		.word	.L79
 725 013c 86000000 		.word	.L79
 726 0140 1A000000 		.word	.L77
 727 0144 86000000 		.word	.L79
 728 0148 86000000 		.word	.L79
 729 014c 86000000 		.word	.L79
 730 0150 86000000 		.word	.L79
 731 0154 86000000 		.word	.L79
 732 0158 86000000 		.word	.L79
 733 015c 86000000 		.word	.L79
 734 0160 22000000 		.word	.L78
 735 0164 86000000 		.word	.L79
 736 0168 86000000 		.word	.L79
 737 016c 86000000 		.word	.L79
 738 0170 86000000 		.word	.L79
 739 0174 86000000 		.word	.L79
 740 0178 86000000 		.word	.L79
 741 017c 86000000 		.word	.L79
 742 0180 74000000 		.word	.L76
 743 0184 86000000 		.word	.L79
 744 0188 86000000 		.word	.L79
 745 018c 86000000 		.word	.L79
 746 0190 86000000 		.word	.L79
 747 0194 86000000 		.word	.L79
 748 0198 86000000 		.word	.L79
 749 019c 86000000 		.word	.L79
 750 01a0 74000000 		.word	.L76
 751              		.section	.text.handleSlaveXferState
 752              	.L77:
 291:../../lpc_chip_11cxx_lib/src/i2c_11xx.c **** 		xfer->slaveAddr = pI2C->DAT & ~1;
 753              		.loc 1 291 0
 754 001a 9A68     		ldr	r2, [r3, #8]	@ D.6720, pI2C_8(D)->DAT
 755 001c 0120     		mov	r0, #1	@ tmp159,
 756 001e 8243     		bic	r2, r0	@ tmp158, tmp159
 757 0020 0A70     		strb	r2, [r1]	@ tmp158, xfer_6(D)->slaveAddr
 758              	.L78:
 294:../../lpc_chip_11cxx_lib/src/i2c_11xx.c **** 		pI2C->DAT = *xfer->txBuff++;
 759              		.loc 1 294 0
 760 0022 4A68     		ldr	r2, [r1, #4]	@ D.6723, xfer_6(D)->txBuff
 761 0024 501C     		add	r0, r2, #1	@ D.6723, D.6723,
 762 0026 4860     		str	r0, [r1, #4]	@ D.6723, xfer_6(D)->txBuff
 763 0028 1278     		ldrb	r2, [r2]	@ D.6720, *_28
 764 002a 9A60     		str	r2, [r3, #8]	@ D.6720, pI2C_8(D)->DAT
 295:../../lpc_chip_11cxx_lib/src/i2c_11xx.c **** 		xfer->txSz--;
 765              		.loc 1 295 0
 766 002c 8A68     		ldr	r2, [r1, #8]	@ D.6722, xfer_6(D)->txSz
 767 002e 013A     		sub	r2, r2, #1	@ D.6722,
 768 0030 8A60     		str	r2, [r1, #8]	@ D.6722, xfer_6(D)->txSz
 296:../../lpc_chip_11cxx_lib/src/i2c_11xx.c **** 		if (xfer->txSz > 0) {
ARM GAS  /var/folders/f9/8bk2lnw15zn4cbgn6wrnb4lm0000gn/T//cc47W8rL.s 			page 22


 769              		.loc 1 296 0
 770 0032 002A     		cmp	r2, #0	@ D.6722,
 771 0034 2BDD     		ble	.L84	@,
 772 0036 0421     		mov	r1, #4	@ D.6720,
 773              	.LVL44:
 299:../../lpc_chip_11cxx_lib/src/i2c_11xx.c **** 		ret = RET_SLAVE_TX;
 774              		.loc 1 299 0
 775 0038 0620     		mov	r0, #6	@ ret,
 297:../../lpc_chip_11cxx_lib/src/i2c_11xx.c **** 			cclr &= ~I2C_CON_AA;
 776              		.loc 1 297 0
 777 003a 3822     		mov	r2, #56	@ cclr,
 778              	.LVL45:
 779              	.L72:
 317:../../lpc_chip_11cxx_lib/src/i2c_11xx.c **** 	pI2C->CONSET = cclr ^ I2C_CON_FLAGS;
 780              		.loc 1 317 0
 781 003c 1960     		str	r1, [r3]	@ D.6720, pI2C_8(D)->CONSET
 318:../../lpc_chip_11cxx_lib/src/i2c_11xx.c **** 	pI2C->CONCLR = cclr;
 782              		.loc 1 318 0
 783 003e 9A61     		str	r2, [r3, #24]	@ cclr, pI2C_8(D)->CONCLR
 321:../../lpc_chip_11cxx_lib/src/i2c_11xx.c **** }
 784              		.loc 1 321 0
 785              		@ sp needed	@
 786 0040 7047     		bx	lr
 787              	.LVL46:
 788              	.L73:
 283:../../lpc_chip_11cxx_lib/src/i2c_11xx.c **** 		xfer->slaveAddr = pI2C->DAT & ~1;
 789              		.loc 1 283 0
 790 0042 9A68     		ldr	r2, [r3, #8]	@ D.6720, pI2C_8(D)->DAT
 791 0044 0120     		mov	r0, #1	@ tmp154,
 792 0046 8243     		bic	r2, r0	@ tmp153, tmp154
 793 0048 0A70     		strb	r2, [r1]	@ tmp153, xfer_6(D)->slaveAddr
 284:../../lpc_chip_11cxx_lib/src/i2c_11xx.c **** 		if (xfer->rxSz > 1) {
 794              		.loc 1 284 0
 795 004a 0A69     		ldr	r2, [r1, #16]	@ xfer_6(D)->rxSz, xfer_6(D)->rxSz
 796 004c 012A     		cmp	r2, #1	@ xfer_6(D)->rxSz,
 797 004e 1ADD     		ble	.L79	@,
 798 0050 0421     		mov	r1, #4	@ D.6720,
 799              	.LVL47:
 265:../../lpc_chip_11cxx_lib/src/i2c_11xx.c **** 	int ret = RET_SLAVE_BUSY;
 800              		.loc 1 265 0
 801 0052 0020     		mov	r0, #0	@ ret,
 285:../../lpc_chip_11cxx_lib/src/i2c_11xx.c **** 			cclr &= ~I2C_CON_AA;
 802              		.loc 1 285 0
 803 0054 3822     		mov	r2, #56	@ cclr,
 804 0056 F1E7     		b	.L72	@
 805              	.LVL48:
 806              	.L75:
 271:../../lpc_chip_11cxx_lib/src/i2c_11xx.c **** 		*xfer->rxBuff++ = pI2C->DAT;
 807              		.loc 1 271 0
 808 0058 CA68     		ldr	r2, [r1, #12]	@ D.6719, xfer_6(D)->rxBuff
 809 005a 501C     		add	r0, r2, #1	@ D.6719, D.6719,
 810 005c C860     		str	r0, [r1, #12]	@ D.6719, xfer_6(D)->rxBuff
 811 005e 9868     		ldr	r0, [r3, #8]	@ D.6720, pI2C_8(D)->DAT
 812 0060 1070     		strb	r0, [r2]	@ D.6720, *_10
 272:../../lpc_chip_11cxx_lib/src/i2c_11xx.c **** 		xfer->rxSz--;
 813              		.loc 1 272 0
 814 0062 0A69     		ldr	r2, [r1, #16]	@ D.6722, xfer_6(D)->rxSz
ARM GAS  /var/folders/f9/8bk2lnw15zn4cbgn6wrnb4lm0000gn/T//cc47W8rL.s 			page 23


 815 0064 013A     		sub	r2, r2, #1	@ D.6722,
 816 0066 0A61     		str	r2, [r1, #16]	@ D.6722, xfer_6(D)->rxSz
 817              	.LVL49:
 274:../../lpc_chip_11cxx_lib/src/i2c_11xx.c **** 		if (xfer->rxSz > 1) {
 818              		.loc 1 274 0
 819 0068 012A     		cmp	r2, #1	@ D.6722,
 820 006a 18DD     		ble	.L85	@,
 821 006c 0421     		mov	r1, #4	@ D.6720,
 822              	.LVL50:
 273:../../lpc_chip_11cxx_lib/src/i2c_11xx.c **** 		ret = RET_SLAVE_RX;
 823              		.loc 1 273 0
 824 006e 0520     		mov	r0, #5	@ ret,
 275:../../lpc_chip_11cxx_lib/src/i2c_11xx.c **** 			cclr &= ~I2C_CON_AA;
 825              		.loc 1 275 0
 826 0070 3822     		mov	r2, #56	@ cclr,
 827 0072 E3E7     		b	.L72	@
 828              	.LVL51:
 829              	.L76:
 309:../../lpc_chip_11cxx_lib/src/i2c_11xx.c **** 		xfer->status = I2C_STATUS_DONE;
 830              		.loc 1 309 0
 831 0074 0022     		mov	r2, #0	@ tmp163,
 832 0076 0A75     		strb	r2, [r1, #20]	@ tmp163, xfer_6(D)->status
 310:../../lpc_chip_11cxx_lib/src/i2c_11xx.c **** 		if (xfer->slaveAddr & 1) {
 833              		.loc 1 310 0
 834 0078 0A78     		ldrb	r2, [r1]	@ *xfer_6(D), *xfer_6(D)
 835 007a D107     		lsl	r1, r2, #31	@, *xfer_6(D),
 836 007c 0BD4     		bmi	.L83	@,
 837              	.LVL52:
 838 007e 0421     		mov	r1, #4	@ D.6720,
 307:../../lpc_chip_11cxx_lib/src/i2c_11xx.c **** 		ret = RET_SLAVE_IDLE;
 839              		.loc 1 307 0
 840 0080 0220     		mov	r0, #2	@ ret,
 308:../../lpc_chip_11cxx_lib/src/i2c_11xx.c **** 		cclr &= ~I2C_CON_AA;
 841              		.loc 1 308 0
 842 0082 3822     		mov	r2, #56	@ cclr,
 843 0084 DAE7     		b	.L72	@
 844              	.LVL53:
 845              	.L79:
 268:../../lpc_chip_11cxx_lib/src/i2c_11xx.c **** 	switch (getCurState(pI2C)) {
 846              		.loc 1 268 0
 847 0086 0021     		mov	r1, #0	@ D.6720,
 848              	.LVL54:
 265:../../lpc_chip_11cxx_lib/src/i2c_11xx.c **** 	int ret = RET_SLAVE_BUSY;
 849              		.loc 1 265 0
 850 0088 0020     		mov	r0, #0	@ ret,
 264:../../lpc_chip_11cxx_lib/src/i2c_11xx.c **** 	uint32_t cclr = I2C_CON_FLAGS;
 851              		.loc 1 264 0
 852 008a 3C22     		mov	r2, #60	@ cclr,
 853 008c D6E7     		b	.L72	@
 854              	.LVL55:
 855              	.L84:
 296:../../lpc_chip_11cxx_lib/src/i2c_11xx.c **** 		if (xfer->txSz > 0) {
 856              		.loc 1 296 0
 857 008e 0021     		mov	r1, #0	@ D.6720,
 858              	.LVL56:
 299:../../lpc_chip_11cxx_lib/src/i2c_11xx.c **** 		ret = RET_SLAVE_TX;
 859              		.loc 1 299 0
ARM GAS  /var/folders/f9/8bk2lnw15zn4cbgn6wrnb4lm0000gn/T//cc47W8rL.s 			page 24


 860 0090 0620     		mov	r0, #6	@ ret,
 264:../../lpc_chip_11cxx_lib/src/i2c_11xx.c **** 	uint32_t cclr = I2C_CON_FLAGS;
 861              		.loc 1 264 0
 862 0092 3C22     		mov	r2, #60	@ cclr,
 863 0094 D2E7     		b	.L72	@
 864              	.LVL57:
 865              	.L83:
 866 0096 2421     		mov	r1, #36	@ D.6720,
 307:../../lpc_chip_11cxx_lib/src/i2c_11xx.c **** 		ret = RET_SLAVE_IDLE;
 867              		.loc 1 307 0
 868 0098 0220     		mov	r0, #2	@ ret,
 311:../../lpc_chip_11cxx_lib/src/i2c_11xx.c **** 			cclr &= ~I2C_CON_STA;
 869              		.loc 1 311 0
 870 009a 1822     		mov	r2, #24	@ cclr,
 871 009c CEE7     		b	.L72	@
 872              	.LVL58:
 873              	.L85:
 274:../../lpc_chip_11cxx_lib/src/i2c_11xx.c **** 		if (xfer->rxSz > 1) {
 874              		.loc 1 274 0
 875 009e 0021     		mov	r1, #0	@ D.6720,
 876              	.LVL59:
 273:../../lpc_chip_11cxx_lib/src/i2c_11xx.c **** 		ret = RET_SLAVE_RX;
 877              		.loc 1 273 0
 878 00a0 0520     		mov	r0, #5	@ ret,
 264:../../lpc_chip_11cxx_lib/src/i2c_11xx.c **** 	uint32_t cclr = I2C_CON_FLAGS;
 879              		.loc 1 264 0
 880 00a2 3C22     		mov	r2, #60	@ cclr,
 881 00a4 CAE7     		b	.L72	@
 882              	.L87:
 883 00a6 C046     		.align	2
 884              	.L86:
 885 00a8 00000000 		.word	.L74
 886              		.cfi_endproc
 887              	.LFE211:
 888              		.size	handleSlaveXferState, .-handleSlaveXferState
 889              		.section	.text.Chip_I2C_Init,"ax",%progbits
 890              		.align	2
 891              		.global	Chip_I2C_Init
 892              		.code	16
 893              		.thumb_func
 894              		.type	Chip_I2C_Init, %function
 895              	Chip_I2C_Init:
 896              	.LFB214:
 342:../../lpc_chip_11cxx_lib/src/i2c_11xx.c **** 
 343:../../lpc_chip_11cxx_lib/src/i2c_11xx.c **** /* Chip polling event handler */
 344:../../lpc_chip_11cxx_lib/src/i2c_11xx.c **** void Chip_I2C_EventHandlerPolling(I2C_ID_T id, I2C_EVENT_T event)
 345:../../lpc_chip_11cxx_lib/src/i2c_11xx.c **** {
 346:../../lpc_chip_11cxx_lib/src/i2c_11xx.c **** 	struct i2c_interface *iic = &i2c[id];
 347:../../lpc_chip_11cxx_lib/src/i2c_11xx.c **** 	volatile I2C_STATUS_T *stat;
 348:../../lpc_chip_11cxx_lib/src/i2c_11xx.c **** 
 349:../../lpc_chip_11cxx_lib/src/i2c_11xx.c **** 	/* Only WAIT event needs to be handled */
 350:../../lpc_chip_11cxx_lib/src/i2c_11xx.c **** 	if (event != I2C_EVENT_WAIT) {
 351:../../lpc_chip_11cxx_lib/src/i2c_11xx.c **** 		return;
 352:../../lpc_chip_11cxx_lib/src/i2c_11xx.c **** 	}
 353:../../lpc_chip_11cxx_lib/src/i2c_11xx.c **** 
 354:../../lpc_chip_11cxx_lib/src/i2c_11xx.c **** 	stat = &iic->mXfer->status;
 355:../../lpc_chip_11cxx_lib/src/i2c_11xx.c **** 	/* Call the state change handler till xfer is done */
ARM GAS  /var/folders/f9/8bk2lnw15zn4cbgn6wrnb4lm0000gn/T//cc47W8rL.s 			page 25


 356:../../lpc_chip_11cxx_lib/src/i2c_11xx.c **** 	while (*stat == I2C_STATUS_BUSY) {
 357:../../lpc_chip_11cxx_lib/src/i2c_11xx.c **** 		if (Chip_I2C_IsStateChanged(id)) {
 358:../../lpc_chip_11cxx_lib/src/i2c_11xx.c **** 			Chip_I2C_MasterStateHandler(id);
 359:../../lpc_chip_11cxx_lib/src/i2c_11xx.c **** 		}
 360:../../lpc_chip_11cxx_lib/src/i2c_11xx.c **** 	}
 361:../../lpc_chip_11cxx_lib/src/i2c_11xx.c **** }
 362:../../lpc_chip_11cxx_lib/src/i2c_11xx.c **** 
 363:../../lpc_chip_11cxx_lib/src/i2c_11xx.c **** /* Initializes the LPC_I2C peripheral with specified parameter */
 364:../../lpc_chip_11cxx_lib/src/i2c_11xx.c **** void Chip_I2C_Init(I2C_ID_T id)
 365:../../lpc_chip_11cxx_lib/src/i2c_11xx.c **** {
 897              		.loc 1 365 0
 898              		.cfi_startproc
 899              	.LVL60:
 900 0000 70B5     		push	{r4, r5, r6, lr}	@
 901              		.cfi_def_cfa_offset 16
 902              		.cfi_offset 4, -16
 903              		.cfi_offset 5, -12
 904              		.cfi_offset 6, -8
 905              		.cfi_offset 14, -4
 906              	.LBB89:
 907              	.LBB90:
  79:../../lpc_chip_11cxx_lib/src/i2c_11xx.c **** 	Chip_Clock_EnablePeriphClock(i2c[id].clk);
 908              		.loc 1 79 0
 909 0002 C400     		lsl	r4, r0, #3	@ tmp123, id,
 910 0004 084B     		ldr	r3, .L89	@ tmp121,
 911 0006 201A     		sub	r0, r4, r0	@ tmp124, tmp123, id
 912              	.LVL61:
 913 0008 8000     		lsl	r0, r0, #2	@ tmp125, tmp124,
 914 000a 1C18     		add	r4, r3, r0	@ tmp126, tmp121, tmp125
 915              	.LBB91:
 916              	.LBB92:
 917              		.file 2 "../../lpc_chip_11cxx_lib/inc/clock_11xx.h"
   1:../../lpc_chip_11cxx_lib/inc/clock_11xx.h **** /*
   2:../../lpc_chip_11cxx_lib/inc/clock_11xx.h ****  * @brief LPC11XX Clock control functions
   3:../../lpc_chip_11cxx_lib/inc/clock_11xx.h ****  *
   4:../../lpc_chip_11cxx_lib/inc/clock_11xx.h ****  * @note
   5:../../lpc_chip_11cxx_lib/inc/clock_11xx.h ****  * Copyright(C) NXP Semiconductors, 2012
   6:../../lpc_chip_11cxx_lib/inc/clock_11xx.h ****  * All rights reserved.
   7:../../lpc_chip_11cxx_lib/inc/clock_11xx.h ****  *
   8:../../lpc_chip_11cxx_lib/inc/clock_11xx.h ****  * @par
   9:../../lpc_chip_11cxx_lib/inc/clock_11xx.h ****  * Software that is described herein is for illustrative purposes only
  10:../../lpc_chip_11cxx_lib/inc/clock_11xx.h ****  * which provides customers with programming information regarding the
  11:../../lpc_chip_11cxx_lib/inc/clock_11xx.h ****  * LPC products.  This software is supplied "AS IS" without any warranties of
  12:../../lpc_chip_11cxx_lib/inc/clock_11xx.h ****  * any kind, and NXP Semiconductors and its licensor disclaim any and
  13:../../lpc_chip_11cxx_lib/inc/clock_11xx.h ****  * all warranties, express or implied, including all implied warranties of
  14:../../lpc_chip_11cxx_lib/inc/clock_11xx.h ****  * merchantability, fitness for a particular purpose and non-infringement of
  15:../../lpc_chip_11cxx_lib/inc/clock_11xx.h ****  * intellectual property rights.  NXP Semiconductors assumes no responsibility
  16:../../lpc_chip_11cxx_lib/inc/clock_11xx.h ****  * or liability for the use of the software, conveys no license or rights under any
  17:../../lpc_chip_11cxx_lib/inc/clock_11xx.h ****  * patent, copyright, mask work right, or any other intellectual property rights in
  18:../../lpc_chip_11cxx_lib/inc/clock_11xx.h ****  * or to any products. NXP Semiconductors reserves the right to make changes
  19:../../lpc_chip_11cxx_lib/inc/clock_11xx.h ****  * in the software without notification. NXP Semiconductors also makes no
  20:../../lpc_chip_11cxx_lib/inc/clock_11xx.h ****  * representation or warranty that such application will be suitable for the
  21:../../lpc_chip_11cxx_lib/inc/clock_11xx.h ****  * specified use without further testing or modification.
  22:../../lpc_chip_11cxx_lib/inc/clock_11xx.h ****  *
  23:../../lpc_chip_11cxx_lib/inc/clock_11xx.h ****  * @par
  24:../../lpc_chip_11cxx_lib/inc/clock_11xx.h ****  * Permission to use, copy, modify, and distribute this software and its
  25:../../lpc_chip_11cxx_lib/inc/clock_11xx.h ****  * documentation is hereby granted, under NXP Semiconductors' and its
ARM GAS  /var/folders/f9/8bk2lnw15zn4cbgn6wrnb4lm0000gn/T//cc47W8rL.s 			page 26


  26:../../lpc_chip_11cxx_lib/inc/clock_11xx.h ****  * licensor's relevant copyrights in the software, without fee, provided that it
  27:../../lpc_chip_11cxx_lib/inc/clock_11xx.h ****  * is used in conjunction with NXP Semiconductors microcontrollers.  This
  28:../../lpc_chip_11cxx_lib/inc/clock_11xx.h ****  * copyright, permission, and disclaimer notice must appear in all copies of
  29:../../lpc_chip_11cxx_lib/inc/clock_11xx.h ****  * this code.
  30:../../lpc_chip_11cxx_lib/inc/clock_11xx.h ****  */
  31:../../lpc_chip_11cxx_lib/inc/clock_11xx.h **** 
  32:../../lpc_chip_11cxx_lib/inc/clock_11xx.h **** #ifndef __CLOCK_11XX_H_
  33:../../lpc_chip_11cxx_lib/inc/clock_11xx.h **** #define __CLOCK_11XX_H_
  34:../../lpc_chip_11cxx_lib/inc/clock_11xx.h **** 
  35:../../lpc_chip_11cxx_lib/inc/clock_11xx.h **** #ifdef __cplusplus
  36:../../lpc_chip_11cxx_lib/inc/clock_11xx.h **** extern "C" {
  37:../../lpc_chip_11cxx_lib/inc/clock_11xx.h **** #endif
  38:../../lpc_chip_11cxx_lib/inc/clock_11xx.h **** 
  39:../../lpc_chip_11cxx_lib/inc/clock_11xx.h **** /** @defgroup CLOCK_11XX CHIP: LPC11xx Clock Control block driver
  40:../../lpc_chip_11cxx_lib/inc/clock_11xx.h ****  * @ingroup CHIP_11XX_Drivers
  41:../../lpc_chip_11cxx_lib/inc/clock_11xx.h ****  * @{
  42:../../lpc_chip_11cxx_lib/inc/clock_11xx.h ****  */
  43:../../lpc_chip_11cxx_lib/inc/clock_11xx.h **** 
  44:../../lpc_chip_11cxx_lib/inc/clock_11xx.h **** /** Internal oscillator frequency */
  45:../../lpc_chip_11cxx_lib/inc/clock_11xx.h **** #define SYSCTL_IRC_FREQ (12000000)
  46:../../lpc_chip_11cxx_lib/inc/clock_11xx.h **** 
  47:../../lpc_chip_11cxx_lib/inc/clock_11xx.h **** /**
  48:../../lpc_chip_11cxx_lib/inc/clock_11xx.h ****  * @brief	Set System PLL divider values
  49:../../lpc_chip_11cxx_lib/inc/clock_11xx.h ****  * @param	msel    : PLL feedback divider value. M = msel + 1.
  50:../../lpc_chip_11cxx_lib/inc/clock_11xx.h ****  * @param	psel    : PLL post divider value. P =  (1<<psel).
  51:../../lpc_chip_11cxx_lib/inc/clock_11xx.h ****  * @return	Nothing
  52:../../lpc_chip_11cxx_lib/inc/clock_11xx.h ****  * @note	See the user manual for how to setup the PLL.
  53:../../lpc_chip_11cxx_lib/inc/clock_11xx.h ****  */
  54:../../lpc_chip_11cxx_lib/inc/clock_11xx.h **** STATIC INLINE void Chip_Clock_SetupSystemPLL(uint8_t msel, uint8_t psel)
  55:../../lpc_chip_11cxx_lib/inc/clock_11xx.h **** {
  56:../../lpc_chip_11cxx_lib/inc/clock_11xx.h **** 	LPC_SYSCTL->SYSPLLCTRL = (msel & 0x1F) | ((psel & 0x3) << 5);
  57:../../lpc_chip_11cxx_lib/inc/clock_11xx.h **** }
  58:../../lpc_chip_11cxx_lib/inc/clock_11xx.h **** 
  59:../../lpc_chip_11cxx_lib/inc/clock_11xx.h **** /**
  60:../../lpc_chip_11cxx_lib/inc/clock_11xx.h ****  * @brief	Read System PLL lock status
  61:../../lpc_chip_11cxx_lib/inc/clock_11xx.h ****  * @return	true of the PLL is locked. false if not locked
  62:../../lpc_chip_11cxx_lib/inc/clock_11xx.h ****  */
  63:../../lpc_chip_11cxx_lib/inc/clock_11xx.h **** STATIC INLINE bool Chip_Clock_IsSystemPLLLocked(void)
  64:../../lpc_chip_11cxx_lib/inc/clock_11xx.h **** {
  65:../../lpc_chip_11cxx_lib/inc/clock_11xx.h **** 	return (bool) ((LPC_SYSCTL->SYSPLLSTAT & 1) != 0);
  66:../../lpc_chip_11cxx_lib/inc/clock_11xx.h **** }
  67:../../lpc_chip_11cxx_lib/inc/clock_11xx.h **** 
  68:../../lpc_chip_11cxx_lib/inc/clock_11xx.h **** /**
  69:../../lpc_chip_11cxx_lib/inc/clock_11xx.h ****  * Clock sources for system and USB PLLs
  70:../../lpc_chip_11cxx_lib/inc/clock_11xx.h ****  */
  71:../../lpc_chip_11cxx_lib/inc/clock_11xx.h **** typedef enum CHIP_SYSCTL_PLLCLKSRC {
  72:../../lpc_chip_11cxx_lib/inc/clock_11xx.h **** 	SYSCTL_PLLCLKSRC_IRC = 0,		/*!< Internal oscillator in */
  73:../../lpc_chip_11cxx_lib/inc/clock_11xx.h **** 	SYSCTL_PLLCLKSRC_MAINOSC,		/*!< Crystal (main) oscillator in */
  74:../../lpc_chip_11cxx_lib/inc/clock_11xx.h **** #if defined(CHIP_LPC11AXX)
  75:../../lpc_chip_11cxx_lib/inc/clock_11xx.h **** 	SYSCTL_PLLCLKSRC_EXT_CLKIN,	/*!< External clock in (11Axx only) */
  76:../../lpc_chip_11cxx_lib/inc/clock_11xx.h **** #else
  77:../../lpc_chip_11cxx_lib/inc/clock_11xx.h **** 	SYSCTL_PLLCLKSRC_RESERVED1,	/*!< Reserved */
  78:../../lpc_chip_11cxx_lib/inc/clock_11xx.h **** #endif
  79:../../lpc_chip_11cxx_lib/inc/clock_11xx.h **** 	SYSCTL_PLLCLKSRC_RESERVED2,	/*!< Reserved */
  80:../../lpc_chip_11cxx_lib/inc/clock_11xx.h **** } CHIP_SYSCTL_PLLCLKSRC_T;
  81:../../lpc_chip_11cxx_lib/inc/clock_11xx.h **** 
  82:../../lpc_chip_11cxx_lib/inc/clock_11xx.h **** /**
ARM GAS  /var/folders/f9/8bk2lnw15zn4cbgn6wrnb4lm0000gn/T//cc47W8rL.s 			page 27


  83:../../lpc_chip_11cxx_lib/inc/clock_11xx.h ****  * @brief	Set System PLL clock source
  84:../../lpc_chip_11cxx_lib/inc/clock_11xx.h ****  * @param	src	: Clock source for system PLL
  85:../../lpc_chip_11cxx_lib/inc/clock_11xx.h ****  * @return	Nothing
  86:../../lpc_chip_11cxx_lib/inc/clock_11xx.h ****  * @note	This function will also toggle the clock source update register
  87:../../lpc_chip_11cxx_lib/inc/clock_11xx.h ****  * to update the clock source.
  88:../../lpc_chip_11cxx_lib/inc/clock_11xx.h ****  */
  89:../../lpc_chip_11cxx_lib/inc/clock_11xx.h **** void Chip_Clock_SetSystemPLLSource(CHIP_SYSCTL_PLLCLKSRC_T src);
  90:../../lpc_chip_11cxx_lib/inc/clock_11xx.h **** 
  91:../../lpc_chip_11cxx_lib/inc/clock_11xx.h **** #if defined(CHIP_LPC11UXX)
  92:../../lpc_chip_11cxx_lib/inc/clock_11xx.h **** /**
  93:../../lpc_chip_11cxx_lib/inc/clock_11xx.h ****  * @brief	Set USB PLL divider values
  94:../../lpc_chip_11cxx_lib/inc/clock_11xx.h ****  * @param	msel    : PLL feedback divider value. M = msel + 1.
  95:../../lpc_chip_11cxx_lib/inc/clock_11xx.h ****  * @param	psel    : PLL post divider value. P = (1<<psel).
  96:../../lpc_chip_11cxx_lib/inc/clock_11xx.h ****  * @return	Nothing
  97:../../lpc_chip_11cxx_lib/inc/clock_11xx.h ****  * @note	See the user manual for how to setup the PLL.
  98:../../lpc_chip_11cxx_lib/inc/clock_11xx.h ****  */
  99:../../lpc_chip_11cxx_lib/inc/clock_11xx.h **** STATIC INLINE void Chip_Clock_SetupUSBPLL(uint8_t msel, uint8_t psel)
 100:../../lpc_chip_11cxx_lib/inc/clock_11xx.h **** {
 101:../../lpc_chip_11cxx_lib/inc/clock_11xx.h **** 	LPC_SYSCTL->USBPLLCTRL = (msel & 0x1F) | ((psel & 0x3) << 5);
 102:../../lpc_chip_11cxx_lib/inc/clock_11xx.h **** }
 103:../../lpc_chip_11cxx_lib/inc/clock_11xx.h **** 
 104:../../lpc_chip_11cxx_lib/inc/clock_11xx.h **** /**
 105:../../lpc_chip_11cxx_lib/inc/clock_11xx.h ****  * @brief	Read USB PLL lock status
 106:../../lpc_chip_11cxx_lib/inc/clock_11xx.h ****  * @return	true of the PLL is locked. false if not locked
 107:../../lpc_chip_11cxx_lib/inc/clock_11xx.h ****  */
 108:../../lpc_chip_11cxx_lib/inc/clock_11xx.h **** STATIC INLINE bool Chip_Clock_IsUSBPLLLocked(void)
 109:../../lpc_chip_11cxx_lib/inc/clock_11xx.h **** {
 110:../../lpc_chip_11cxx_lib/inc/clock_11xx.h **** 	return (bool) ((LPC_SYSCTL->USBPLLSTAT & 1) != 0);
 111:../../lpc_chip_11cxx_lib/inc/clock_11xx.h **** }
 112:../../lpc_chip_11cxx_lib/inc/clock_11xx.h **** 
 113:../../lpc_chip_11cxx_lib/inc/clock_11xx.h **** /**
 114:../../lpc_chip_11cxx_lib/inc/clock_11xx.h ****  * @brief	Set USB PLL clock source
 115:../../lpc_chip_11cxx_lib/inc/clock_11xx.h ****  * @param	src	: Clock source for USB PLL
 116:../../lpc_chip_11cxx_lib/inc/clock_11xx.h ****  * @return	Nothing
 117:../../lpc_chip_11cxx_lib/inc/clock_11xx.h ****  * @note	This function will also toggle the clock source update register
 118:../../lpc_chip_11cxx_lib/inc/clock_11xx.h ****  * to update the clock source.
 119:../../lpc_chip_11cxx_lib/inc/clock_11xx.h ****  */
 120:../../lpc_chip_11cxx_lib/inc/clock_11xx.h **** void Chip_Clock_SetUSBPLLSource(CHIP_SYSCTL_PLLCLKSRC_T src);
 121:../../lpc_chip_11cxx_lib/inc/clock_11xx.h **** 
 122:../../lpc_chip_11cxx_lib/inc/clock_11xx.h **** #endif /*defined(CHIP_LPC11UXX)*/
 123:../../lpc_chip_11cxx_lib/inc/clock_11xx.h **** 
 124:../../lpc_chip_11cxx_lib/inc/clock_11xx.h **** /**
 125:../../lpc_chip_11cxx_lib/inc/clock_11xx.h ****  * @brief	Bypass System Oscillator and set oscillator frequency range
 126:../../lpc_chip_11cxx_lib/inc/clock_11xx.h ****  * @param	bypass	: Flag to bypass oscillator
 127:../../lpc_chip_11cxx_lib/inc/clock_11xx.h ****  * @param	highfr	: Flag to set oscillator range from 15-25 MHz
 128:../../lpc_chip_11cxx_lib/inc/clock_11xx.h ****  * @return	Nothing
 129:../../lpc_chip_11cxx_lib/inc/clock_11xx.h ****  * @note	Sets the PLL input to bypass the oscillator. This would be
 130:../../lpc_chip_11cxx_lib/inc/clock_11xx.h ****  * used if an external clock that is not an oscillator is attached
 131:../../lpc_chip_11cxx_lib/inc/clock_11xx.h ****  * to the XTALIN pin.
 132:../../lpc_chip_11cxx_lib/inc/clock_11xx.h ****  */
 133:../../lpc_chip_11cxx_lib/inc/clock_11xx.h **** void Chip_Clock_SetPLLBypass(bool bypass, bool highfr);
 134:../../lpc_chip_11cxx_lib/inc/clock_11xx.h **** 
 135:../../lpc_chip_11cxx_lib/inc/clock_11xx.h **** /**
 136:../../lpc_chip_11cxx_lib/inc/clock_11xx.h ****  * Watchdog and low frequency oscillator frequencies plus or minus 40%
 137:../../lpc_chip_11cxx_lib/inc/clock_11xx.h ****  */
 138:../../lpc_chip_11cxx_lib/inc/clock_11xx.h **** typedef enum CHIP_WDTLFO_OSC {
 139:../../lpc_chip_11cxx_lib/inc/clock_11xx.h **** 	WDTLFO_OSC_ILLEGAL,
ARM GAS  /var/folders/f9/8bk2lnw15zn4cbgn6wrnb4lm0000gn/T//cc47W8rL.s 			page 28


 140:../../lpc_chip_11cxx_lib/inc/clock_11xx.h **** 	WDTLFO_OSC_0_60,	/*!< 0.6 MHz watchdog/LFO rate */
 141:../../lpc_chip_11cxx_lib/inc/clock_11xx.h **** 	WDTLFO_OSC_1_05,	/*!< 1.05 MHz watchdog/LFO rate */
 142:../../lpc_chip_11cxx_lib/inc/clock_11xx.h **** 	WDTLFO_OSC_1_40,	/*!< 1.4 MHz watchdog/LFO rate */
 143:../../lpc_chip_11cxx_lib/inc/clock_11xx.h **** 	WDTLFO_OSC_1_75,	/*!< 1.75 MHz watchdog/LFO rate */
 144:../../lpc_chip_11cxx_lib/inc/clock_11xx.h **** 	WDTLFO_OSC_2_10,	/*!< 2.1 MHz watchdog/LFO rate */
 145:../../lpc_chip_11cxx_lib/inc/clock_11xx.h **** 	WDTLFO_OSC_2_40,	/*!< 2.4 MHz watchdog/LFO rate */
 146:../../lpc_chip_11cxx_lib/inc/clock_11xx.h **** 	WDTLFO_OSC_2_70,	/*!< 2.7 MHz watchdog/LFO rate */
 147:../../lpc_chip_11cxx_lib/inc/clock_11xx.h **** 	WDTLFO_OSC_3_00,	/*!< 3.0 MHz watchdog/LFO rate */
 148:../../lpc_chip_11cxx_lib/inc/clock_11xx.h **** 	WDTLFO_OSC_3_25,	/*!< 3.25 MHz watchdog/LFO rate */
 149:../../lpc_chip_11cxx_lib/inc/clock_11xx.h **** 	WDTLFO_OSC_3_50,	/*!< 3.5 MHz watchdog/LFO rate */
 150:../../lpc_chip_11cxx_lib/inc/clock_11xx.h **** 	WDTLFO_OSC_3_75,	/*!< 3.75 MHz watchdog/LFO rate */
 151:../../lpc_chip_11cxx_lib/inc/clock_11xx.h **** 	WDTLFO_OSC_4_00,	/*!< 4.0 MHz watchdog/LFO rate */
 152:../../lpc_chip_11cxx_lib/inc/clock_11xx.h **** 	WDTLFO_OSC_4_20,	/*!< 4.2 MHz watchdog/LFO rate */
 153:../../lpc_chip_11cxx_lib/inc/clock_11xx.h **** 	WDTLFO_OSC_4_40,	/*!< 4.4 MHz watchdog/LFO rate */
 154:../../lpc_chip_11cxx_lib/inc/clock_11xx.h **** 	WDTLFO_OSC_4_60		/*!< 4.6 MHz watchdog/LFO rate */
 155:../../lpc_chip_11cxx_lib/inc/clock_11xx.h **** } CHIP_WDTLFO_OSC_T;
 156:../../lpc_chip_11cxx_lib/inc/clock_11xx.h **** 
 157:../../lpc_chip_11cxx_lib/inc/clock_11xx.h **** /**
 158:../../lpc_chip_11cxx_lib/inc/clock_11xx.h ****  * @brief	Setup Watchdog oscillator rate and divider
 159:../../lpc_chip_11cxx_lib/inc/clock_11xx.h ****  * @param	wdtclk	: Selected watchdog clock rate
 160:../../lpc_chip_11cxx_lib/inc/clock_11xx.h ****  * @param	div		: Watchdog divider value, even value between 2 and 64
 161:../../lpc_chip_11cxx_lib/inc/clock_11xx.h ****  * @return	Nothing
 162:../../lpc_chip_11cxx_lib/inc/clock_11xx.h ****  * @note	Watchdog rate = selected rate divided by divider rate
 163:../../lpc_chip_11cxx_lib/inc/clock_11xx.h ****  */
 164:../../lpc_chip_11cxx_lib/inc/clock_11xx.h **** STATIC INLINE void Chip_Clock_SetWDTOSC(CHIP_WDTLFO_OSC_T wdtclk, uint8_t div)
 165:../../lpc_chip_11cxx_lib/inc/clock_11xx.h **** {
 166:../../lpc_chip_11cxx_lib/inc/clock_11xx.h **** 	LPC_SYSCTL->WDTOSCCTRL  = (((uint32_t) wdtclk) << 5) | ((div >> 1) - 1);
 167:../../lpc_chip_11cxx_lib/inc/clock_11xx.h **** }
 168:../../lpc_chip_11cxx_lib/inc/clock_11xx.h **** 
 169:../../lpc_chip_11cxx_lib/inc/clock_11xx.h **** #if defined(CHIP_LPC11AXX)
 170:../../lpc_chip_11cxx_lib/inc/clock_11xx.h **** /**
 171:../../lpc_chip_11cxx_lib/inc/clock_11xx.h ****  * @brief	Setup low frequency oscillator rate and divider
 172:../../lpc_chip_11cxx_lib/inc/clock_11xx.h ****  * @param	lfoclk	: Selected low frequency clock rate
 173:../../lpc_chip_11cxx_lib/inc/clock_11xx.h ****  * @param	div		: Low frequency divider value, even value between 2 and 64
 174:../../lpc_chip_11cxx_lib/inc/clock_11xx.h ****  * @return	Nothing
 175:../../lpc_chip_11cxx_lib/inc/clock_11xx.h ****  * @note	Low frequency oscillator rate = selected rate divided by divider rate
 176:../../lpc_chip_11cxx_lib/inc/clock_11xx.h ****  */
 177:../../lpc_chip_11cxx_lib/inc/clock_11xx.h **** STATIC INLINE void Chip_Clock_SetLFOSC(CHIP_WDTLFO_OSC_T lfoclk, uint8_t div)
 178:../../lpc_chip_11cxx_lib/inc/clock_11xx.h **** {
 179:../../lpc_chip_11cxx_lib/inc/clock_11xx.h **** 	LPC_SYSCTL->LFOSCCTRL  = (((uint32_t) lfoclk) << 5) | ((div >> 1) - 1);
 180:../../lpc_chip_11cxx_lib/inc/clock_11xx.h **** }
 181:../../lpc_chip_11cxx_lib/inc/clock_11xx.h **** 
 182:../../lpc_chip_11cxx_lib/inc/clock_11xx.h **** #endif /*CHIP_LPC11AXX*/
 183:../../lpc_chip_11cxx_lib/inc/clock_11xx.h **** 
 184:../../lpc_chip_11cxx_lib/inc/clock_11xx.h **** /**
 185:../../lpc_chip_11cxx_lib/inc/clock_11xx.h ****  * Clock sources for main system clock
 186:../../lpc_chip_11cxx_lib/inc/clock_11xx.h ****  */
 187:../../lpc_chip_11cxx_lib/inc/clock_11xx.h **** typedef enum CHIP_SYSCTL_MAINCLKSRC {
 188:../../lpc_chip_11cxx_lib/inc/clock_11xx.h **** 	SYSCTL_MAINCLKSRC_IRC = 0,		/*!< Internal oscillator */
 189:../../lpc_chip_11cxx_lib/inc/clock_11xx.h **** 	SYSCTL_MAINCLKSRC_PLLIN,		/*!< System PLL input */
 190:../../lpc_chip_11cxx_lib/inc/clock_11xx.h **** 	SYSCTL_MAINCLKSRC_LFOSC,		/*!< LF oscillator rate (11Axx only) */
 191:../../lpc_chip_11cxx_lib/inc/clock_11xx.h **** 	SYSCTL_MAINCLKSRC_WDTOSC = SYSCTL_MAINCLKSRC_LFOSC,	/*!< Watchdog oscillator rate */
 192:../../lpc_chip_11cxx_lib/inc/clock_11xx.h **** 	SYSCTL_MAINCLKSRC_PLLOUT,		/*!< System PLL output */
 193:../../lpc_chip_11cxx_lib/inc/clock_11xx.h **** } CHIP_SYSCTL_MAINCLKSRC_T;
 194:../../lpc_chip_11cxx_lib/inc/clock_11xx.h **** 
 195:../../lpc_chip_11cxx_lib/inc/clock_11xx.h **** /**
 196:../../lpc_chip_11cxx_lib/inc/clock_11xx.h ****  * @brief	Set main system clock source
ARM GAS  /var/folders/f9/8bk2lnw15zn4cbgn6wrnb4lm0000gn/T//cc47W8rL.s 			page 29


 197:../../lpc_chip_11cxx_lib/inc/clock_11xx.h ****  * @param	src	: Clock source for main system
 198:../../lpc_chip_11cxx_lib/inc/clock_11xx.h ****  * @return	Nothing
 199:../../lpc_chip_11cxx_lib/inc/clock_11xx.h ****  * @note	This function will also toggle the clock source update register
 200:../../lpc_chip_11cxx_lib/inc/clock_11xx.h ****  * to update the clock source.
 201:../../lpc_chip_11cxx_lib/inc/clock_11xx.h ****  */
 202:../../lpc_chip_11cxx_lib/inc/clock_11xx.h **** void Chip_Clock_SetMainClockSource(CHIP_SYSCTL_MAINCLKSRC_T src);
 203:../../lpc_chip_11cxx_lib/inc/clock_11xx.h **** 
 204:../../lpc_chip_11cxx_lib/inc/clock_11xx.h **** /**
 205:../../lpc_chip_11cxx_lib/inc/clock_11xx.h ****  * @brief   Returns the main clock source
 206:../../lpc_chip_11cxx_lib/inc/clock_11xx.h ****  * @return	Which clock is used for the core clock source?
 207:../../lpc_chip_11cxx_lib/inc/clock_11xx.h ****  */
 208:../../lpc_chip_11cxx_lib/inc/clock_11xx.h **** STATIC INLINE CHIP_SYSCTL_MAINCLKSRC_T Chip_Clock_GetMainClockSource(void)
 209:../../lpc_chip_11cxx_lib/inc/clock_11xx.h **** {
 210:../../lpc_chip_11cxx_lib/inc/clock_11xx.h **** 	return (CHIP_SYSCTL_MAINCLKSRC_T) (LPC_SYSCTL->MAINCLKSEL);
 211:../../lpc_chip_11cxx_lib/inc/clock_11xx.h **** }
 212:../../lpc_chip_11cxx_lib/inc/clock_11xx.h **** 
 213:../../lpc_chip_11cxx_lib/inc/clock_11xx.h **** /**
 214:../../lpc_chip_11cxx_lib/inc/clock_11xx.h ****  * @brief	Set system clock divider
 215:../../lpc_chip_11cxx_lib/inc/clock_11xx.h ****  * @param	div	: divider for system clock
 216:../../lpc_chip_11cxx_lib/inc/clock_11xx.h ****  * @return	Nothing
 217:../../lpc_chip_11cxx_lib/inc/clock_11xx.h ****  * @note	Use 0 to disable, or a divider value of 1 to 255. The system clock
 218:../../lpc_chip_11cxx_lib/inc/clock_11xx.h ****  * rate is the main system clock divided by this value.
 219:../../lpc_chip_11cxx_lib/inc/clock_11xx.h ****  */
 220:../../lpc_chip_11cxx_lib/inc/clock_11xx.h **** STATIC INLINE void Chip_Clock_SetSysClockDiv(uint32_t div)
 221:../../lpc_chip_11cxx_lib/inc/clock_11xx.h **** {
 222:../../lpc_chip_11cxx_lib/inc/clock_11xx.h **** 	LPC_SYSCTL->SYSAHBCLKDIV  = div;
 223:../../lpc_chip_11cxx_lib/inc/clock_11xx.h **** }
 224:../../lpc_chip_11cxx_lib/inc/clock_11xx.h **** 
 225:../../lpc_chip_11cxx_lib/inc/clock_11xx.h **** /**
 226:../../lpc_chip_11cxx_lib/inc/clock_11xx.h ****  * System and peripheral clocks
 227:../../lpc_chip_11cxx_lib/inc/clock_11xx.h ****  */
 228:../../lpc_chip_11cxx_lib/inc/clock_11xx.h **** typedef enum CHIP_SYSCTL_CLOCK {
 229:../../lpc_chip_11cxx_lib/inc/clock_11xx.h **** 	SYSCTL_CLOCK_SYS = 0,				/*!< 0: System clock */
 230:../../lpc_chip_11cxx_lib/inc/clock_11xx.h **** 	SYSCTL_CLOCK_ROM,					/*!<1:  ROM clock */
 231:../../lpc_chip_11cxx_lib/inc/clock_11xx.h **** 	SYSCTL_CLOCK_RAM,					/*!< 2: RAM clock */
 232:../../lpc_chip_11cxx_lib/inc/clock_11xx.h **** 	SYSCTL_CLOCK_FLASHREG,				/*!< 3: FLASH register interface clock */
 233:../../lpc_chip_11cxx_lib/inc/clock_11xx.h **** 	SYSCTL_CLOCK_FLASHARRAY,			/*!< 4: FLASH array access clock */
 234:../../lpc_chip_11cxx_lib/inc/clock_11xx.h **** #if defined(CHIP_LPC110X)
 235:../../lpc_chip_11cxx_lib/inc/clock_11xx.h **** 	SYSCTL_CLOCK_RESERVED5,				/*!< 5: Reserved */
 236:../../lpc_chip_11cxx_lib/inc/clock_11xx.h **** #else
 237:../../lpc_chip_11cxx_lib/inc/clock_11xx.h **** 	SYSCTL_CLOCK_I2C,					/*!< 5: I2C clock, not on LPC110x */
 238:../../lpc_chip_11cxx_lib/inc/clock_11xx.h **** #endif
 239:../../lpc_chip_11cxx_lib/inc/clock_11xx.h **** 	SYSCTL_CLOCK_GPIO,					/*!< 6: GPIO clock */
 240:../../lpc_chip_11cxx_lib/inc/clock_11xx.h **** 	SYSCTL_CLOCK_CT16B0,				/*!< 7: 16-bit Counter/timer 0 clock */
 241:../../lpc_chip_11cxx_lib/inc/clock_11xx.h **** 	SYSCTL_CLOCK_CT16B1,				/*!< 8: 16-bit Counter/timer 1 clock */
 242:../../lpc_chip_11cxx_lib/inc/clock_11xx.h **** 	SYSCTL_CLOCK_CT32B0,				/*!< 9: 32-bit Counter/timer 0 clock */
 243:../../lpc_chip_11cxx_lib/inc/clock_11xx.h **** 	SYSCTL_CLOCK_CT32B1,				/*!< 10: 32-bit Counter/timer 1 clock */
 244:../../lpc_chip_11cxx_lib/inc/clock_11xx.h **** 	SYSCTL_CLOCK_SSP0,					/*!< 11: SSP0 clock */
 245:../../lpc_chip_11cxx_lib/inc/clock_11xx.h **** 	SYSCTL_CLOCK_UART0,					/*!< 12: UART0 clock */
 246:../../lpc_chip_11cxx_lib/inc/clock_11xx.h **** 	SYSCTL_CLOCK_ADC,					/*!< 13: ADC clock */
 247:../../lpc_chip_11cxx_lib/inc/clock_11xx.h **** #if defined(CHIP_LPC11UXX)
 248:../../lpc_chip_11cxx_lib/inc/clock_11xx.h **** 	SYSCTL_CLOCK_USB,					/*!< 14: USB clock, LPC11Uxx only */
 249:../../lpc_chip_11cxx_lib/inc/clock_11xx.h **** #else
 250:../../lpc_chip_11cxx_lib/inc/clock_11xx.h **** 	SYSCTL_CLOCK_RESERVED14,			/*!< 14: Reserved */
 251:../../lpc_chip_11cxx_lib/inc/clock_11xx.h **** #endif
 252:../../lpc_chip_11cxx_lib/inc/clock_11xx.h **** 	SYSCTL_CLOCK_WDT,					/*!< 15: Watchdog timer clock */
 253:../../lpc_chip_11cxx_lib/inc/clock_11xx.h **** 	SYSCTL_CLOCK_IOCON,					/*!< 16: IOCON block clock */
ARM GAS  /var/folders/f9/8bk2lnw15zn4cbgn6wrnb4lm0000gn/T//cc47W8rL.s 			page 30


 254:../../lpc_chip_11cxx_lib/inc/clock_11xx.h **** #if defined(CHIP_LPC11CXX)
 255:../../lpc_chip_11cxx_lib/inc/clock_11xx.h **** 	SYSCTL_CLOCK_CAN,					/*!< 17: CAN clock, LPC11Cxx only */
 256:../../lpc_chip_11cxx_lib/inc/clock_11xx.h **** #else
 257:../../lpc_chip_11cxx_lib/inc/clock_11xx.h **** 	SYSCTL_CLOCK_RESERVED17,			/*!< 17: Reserved */
 258:../../lpc_chip_11cxx_lib/inc/clock_11xx.h **** #endif
 259:../../lpc_chip_11cxx_lib/inc/clock_11xx.h **** #if !(defined(CHIP_LPC110X) || defined(CHIP_LPC11XXLV))  
 260:../../lpc_chip_11cxx_lib/inc/clock_11xx.h **** 	SYSCTL_CLOCK_SSP1,					/*!< 18: SSP1 clock, LPC11A/C/E/Uxx//1125 only */
 261:../../lpc_chip_11cxx_lib/inc/clock_11xx.h **** #if !defined(CHIP_LPC11CXX)
 262:../../lpc_chip_11cxx_lib/inc/clock_11xx.h **** 	SYSCTL_CLOCK_PINT,					/*!< 19: GPIO Pin int register interface clock, LPC11A/E/Uxx only */
 263:../../lpc_chip_11cxx_lib/inc/clock_11xx.h **** #if defined(CHIP_LPC11AXX)
 264:../../lpc_chip_11cxx_lib/inc/clock_11xx.h **** 	SYSCTL_CLOCK_ACOMP,					/*!< 20: Analog comparator clock, LPC11Axx only */
 265:../../lpc_chip_11cxx_lib/inc/clock_11xx.h **** 	SYSCTL_CLOCK_DAC,					/*!< 21: DAC clock, LPC11Axx only */
 266:../../lpc_chip_11cxx_lib/inc/clock_11xx.h **** #else
 267:../../lpc_chip_11cxx_lib/inc/clock_11xx.h **** 	SYSCTL_CLOCK_RESERVED20,			/*!< 20: Reserved */
 268:../../lpc_chip_11cxx_lib/inc/clock_11xx.h **** 	SYSCTL_CLOCK_RESERVED21,			/*!< 21: Reserved */
 269:../../lpc_chip_11cxx_lib/inc/clock_11xx.h **** #endif
 270:../../lpc_chip_11cxx_lib/inc/clock_11xx.h **** 	SYSCTL_CLOCK_RESERVED22,			/*!< 22: Reserved */
 271:../../lpc_chip_11cxx_lib/inc/clock_11xx.h **** 	SYSCTL_CLOCK_P0INT,					/*!< 23: GPIO GROUP1 interrupt register clock, LPC11Axx only */
 272:../../lpc_chip_11cxx_lib/inc/clock_11xx.h **** 	SYSCTL_CLOCK_GROUP0INT = SYSCTL_CLOCK_P0INT,/*!< 23: GPIO GROUP0 interrupt register interface cloc
 273:../../lpc_chip_11cxx_lib/inc/clock_11xx.h **** 	SYSCTL_CLOCK_P1INT,					/*!< 24: GPIO GROUP1 interrupt register clock, LPC11Axx only */
 274:../../lpc_chip_11cxx_lib/inc/clock_11xx.h **** 	SYSCTL_CLOCK_GROUP1INT = SYSCTL_CLOCK_P1INT,/*!< 24: GPIO GROUP1 interrupt register interface cloc
 275:../../lpc_chip_11cxx_lib/inc/clock_11xx.h **** 	SYSCTL_CLOCK_RESERVED25,			/*!< 25: Reserved */
 276:../../lpc_chip_11cxx_lib/inc/clock_11xx.h **** #if defined(CHIP_LPC11EXX)  || defined(CHIP_LPC11UXX)
 277:../../lpc_chip_11cxx_lib/inc/clock_11xx.h **** 	SYSCTL_CLOCK_RAM1,					/*!< 26: SRAM block (0x20000000) clock, LPC11E/Uxx only */
 278:../../lpc_chip_11cxx_lib/inc/clock_11xx.h **** #else
 279:../../lpc_chip_11cxx_lib/inc/clock_11xx.h **** 	SYSCTL_CLOCK_RESERVED26,			/*!< 26: Reserved */
 280:../../lpc_chip_11cxx_lib/inc/clock_11xx.h **** #endif
 281:../../lpc_chip_11cxx_lib/inc/clock_11xx.h **** #if defined(CHIP_LPC11UXX)
 282:../../lpc_chip_11cxx_lib/inc/clock_11xx.h **** 	SYSCTL_CLOCK_USBRAM,				/*!< 27: USB SRAM block clock, LPC11Uxx only */
 283:../../lpc_chip_11cxx_lib/inc/clock_11xx.h **** #else
 284:../../lpc_chip_11cxx_lib/inc/clock_11xx.h **** 	SYSCTL_CLOCK_RESERVED27,			/*!< 27: Reserved */
 285:../../lpc_chip_11cxx_lib/inc/clock_11xx.h **** #endif
 286:../../lpc_chip_11cxx_lib/inc/clock_11xx.h **** #endif /* !defined(CHIP_LPC11CXX) */
 287:../../lpc_chip_11cxx_lib/inc/clock_11xx.h **** #endif /* !(defined(CHIP_LPC110X) || defined(CHIP_LPC11XXLV)) */
 288:../../lpc_chip_11cxx_lib/inc/clock_11xx.h **** } CHIP_SYSCTL_CLOCK_T;
 289:../../lpc_chip_11cxx_lib/inc/clock_11xx.h **** 
 290:../../lpc_chip_11cxx_lib/inc/clock_11xx.h **** /**
 291:../../lpc_chip_11cxx_lib/inc/clock_11xx.h ****  * @brief	Enable a system or peripheral clock
 292:../../lpc_chip_11cxx_lib/inc/clock_11xx.h ****  * @param	clk	: Clock to enable
 293:../../lpc_chip_11cxx_lib/inc/clock_11xx.h ****  * @return	Nothing
 294:../../lpc_chip_11cxx_lib/inc/clock_11xx.h ****  */
 295:../../lpc_chip_11cxx_lib/inc/clock_11xx.h **** STATIC INLINE void Chip_Clock_EnablePeriphClock(CHIP_SYSCTL_CLOCK_T clk)
 296:../../lpc_chip_11cxx_lib/inc/clock_11xx.h **** {
 297:../../lpc_chip_11cxx_lib/inc/clock_11xx.h **** 	LPC_SYSCTL->SYSAHBCLKCTRL |= (1 << clk);
 918              		.loc 2 297 0
 919 000c 2479     		ldrb	r4, [r4, #4]	@ D.6728,
 920 000e 0749     		ldr	r1, .L89+4	@ tmp119,
 921 0010 8022     		mov	r2, #128	@ tmp120,
 922 0012 0126     		mov	r6, #1	@ tmp129,
 923 0014 8D58     		ldr	r5, [r1, r2]	@ D.6730, MEM[(struct LPC_SYSCTL_T *)1074036736B].SYSAHBCLKCTRL
 924 0016 A640     		lsl	r6, r6, r4	@ tmp129, tmp129, D.6728
 925 0018 341C     		mov	r4, r6	@ D.6728, tmp129
 926 001a 2C43     		orr	r4, r5	@ D.6730, D.6730
 927              	.LBE92:
 928              	.LBE91:
 929              	.LBE90:
 930              	.LBE89:
ARM GAS  /var/folders/f9/8bk2lnw15zn4cbgn6wrnb4lm0000gn/T//cc47W8rL.s 			page 31


 366:../../lpc_chip_11cxx_lib/src/i2c_11xx.c **** 	enableClk(id);
 367:../../lpc_chip_11cxx_lib/src/i2c_11xx.c **** 
 368:../../lpc_chip_11cxx_lib/src/i2c_11xx.c **** 	/* Set I2C operation to default */
 369:../../lpc_chip_11cxx_lib/src/i2c_11xx.c **** 	LPC_I2Cx(id)->CONCLR = (I2C_CON_AA | I2C_CON_SI | I2C_CON_STA | I2C_CON_I2EN);
 931              		.loc 1 369 0
 932 001c C358     		ldr	r3, [r0, r3]	@ D.6727, i2c[_6].ip
 933              	.LBB96:
 934              	.LBB95:
 935              	.LBB94:
 936              	.LBB93:
 937              		.loc 2 297 0
 938 001e 8C50     		str	r4, [r1, r2]	@ D.6730, MEM[(struct LPC_SYSCTL_T *)1074036736B].SYSAHBCLKCTRL
 939              	.LBE93:
 940              	.LBE94:
 941              	.LBE95:
 942              	.LBE96:
 943              		.loc 1 369 0
 944 0020 6C22     		mov	r2, #108	@ tmp137,
 945 0022 9A61     		str	r2, [r3, #24]	@ tmp137, _4->CONCLR
 370:../../lpc_chip_11cxx_lib/src/i2c_11xx.c **** }
 946              		.loc 1 370 0
 947              		@ sp needed	@
 948 0024 70BD     		pop	{r4, r5, r6, pc}
 949              	.L90:
 950 0026 C046     		.align	2
 951              	.L89:
 952 0028 00000000 		.word	.LANCHOR0
 953 002c 00800440 		.word	1074036736
 954              		.cfi_endproc
 955              	.LFE214:
 956              		.size	Chip_I2C_Init, .-Chip_I2C_Init
 957              		.section	.text.Chip_I2C_DeInit,"ax",%progbits
 958              		.align	2
 959              		.global	Chip_I2C_DeInit
 960              		.code	16
 961              		.thumb_func
 962              		.type	Chip_I2C_DeInit, %function
 963              	Chip_I2C_DeInit:
 964              	.LFB215:
 371:../../lpc_chip_11cxx_lib/src/i2c_11xx.c **** 
 372:../../lpc_chip_11cxx_lib/src/i2c_11xx.c **** /* De-initializes the I2C peripheral registers to their default reset values */
 373:../../lpc_chip_11cxx_lib/src/i2c_11xx.c **** void Chip_I2C_DeInit(I2C_ID_T id)
 374:../../lpc_chip_11cxx_lib/src/i2c_11xx.c **** {
 965              		.loc 1 374 0
 966              		.cfi_startproc
 967              	.LVL62:
 375:../../lpc_chip_11cxx_lib/src/i2c_11xx.c **** 	/* Disable I2C control */
 376:../../lpc_chip_11cxx_lib/src/i2c_11xx.c **** 	LPC_I2Cx(id)->CONCLR = I2C_CON_I2EN | I2C_CON_SI | I2C_CON_STO | I2C_CON_STA | I2C_CON_AA;
 968              		.loc 1 376 0
 969 0000 C300     		lsl	r3, r0, #3	@ tmp122, id,
 374:../../lpc_chip_11cxx_lib/src/i2c_11xx.c **** {
 970              		.loc 1 374 0
 971 0002 10B5     		push	{r4, lr}	@
 972              		.cfi_def_cfa_offset 8
 973              		.cfi_offset 4, -8
 974              		.cfi_offset 14, -4
 975              		.loc 1 376 0
ARM GAS  /var/folders/f9/8bk2lnw15zn4cbgn6wrnb4lm0000gn/T//cc47W8rL.s 			page 32


 976 0004 0749     		ldr	r1, .L92	@ tmp120,
 977 0006 181A     		sub	r0, r3, r0	@ tmp123, tmp122, id
 978              	.LVL63:
 979 0008 8000     		lsl	r0, r0, #2	@ tmp124, tmp123,
 980 000a 4358     		ldr	r3, [r0, r1]	@ D.6735, i2c[_2].ip
 981 000c 7C22     		mov	r2, #124	@ tmp125,
 982 000e 9A61     		str	r2, [r3, #24]	@ tmp125, _4->CONCLR
 983              	.LVL64:
 984              	.LBB97:
 985              	.LBB98:
  84:../../lpc_chip_11cxx_lib/src/i2c_11xx.c **** 	Chip_Clock_DisablePeriphClock(i2c[id].clk);
 986              		.loc 1 84 0
 987 0010 0818     		add	r0, r1, r0	@ tmp133, tmp120, tmp124
 988              	.LBB99:
 989              	.LBB100:
 298:../../lpc_chip_11cxx_lib/inc/clock_11xx.h **** }
 299:../../lpc_chip_11cxx_lib/inc/clock_11xx.h **** 
 300:../../lpc_chip_11cxx_lib/inc/clock_11xx.h **** /**
 301:../../lpc_chip_11cxx_lib/inc/clock_11xx.h ****  * @brief	Disable a system or peripheral clock
 302:../../lpc_chip_11cxx_lib/inc/clock_11xx.h ****  * @param	clk	: Clock to disable
 303:../../lpc_chip_11cxx_lib/inc/clock_11xx.h ****  * @return	Nothing
 304:../../lpc_chip_11cxx_lib/inc/clock_11xx.h ****  */
 305:../../lpc_chip_11cxx_lib/inc/clock_11xx.h **** STATIC INLINE void Chip_Clock_DisablePeriphClock(CHIP_SYSCTL_CLOCK_T clk)
 306:../../lpc_chip_11cxx_lib/inc/clock_11xx.h **** {
 307:../../lpc_chip_11cxx_lib/inc/clock_11xx.h **** 	LPC_SYSCTL->SYSAHBCLKCTRL &= ~(1 << clk);
 990              		.loc 2 307 0
 991 0012 054A     		ldr	r2, .L92+4	@ tmp126,
 992 0014 0179     		ldrb	r1, [r0, #4]	@ D.6734,
 993 0016 8023     		mov	r3, #128	@ tmp127,
 994 0018 D458     		ldr	r4, [r2, r3]	@ D.6737, MEM[(struct LPC_SYSCTL_T *)1074036736B].SYSAHBCLKCTRL
 995 001a 0120     		mov	r0, #1	@ tmp136,
 996 001c 8840     		lsl	r0, r0, r1	@ tmp136, tmp136, D.6734
 997 001e 8443     		bic	r4, r0	@ D.6737, D.6734
 998 0020 D450     		str	r4, [r2, r3]	@ D.6737, MEM[(struct LPC_SYSCTL_T *)1074036736B].SYSAHBCLKCTRL
 999              	.LBE100:
 1000              	.LBE99:
 1001              	.LBE98:
 1002              	.LBE97:
 377:../../lpc_chip_11cxx_lib/src/i2c_11xx.c **** 
 378:../../lpc_chip_11cxx_lib/src/i2c_11xx.c **** 	disableClk(id);
 379:../../lpc_chip_11cxx_lib/src/i2c_11xx.c **** }
 1003              		.loc 1 379 0
 1004              		@ sp needed	@
 1005 0022 10BD     		pop	{r4, pc}
 1006              	.L93:
 1007              		.align	2
 1008              	.L92:
 1009 0024 00000000 		.word	.LANCHOR0
 1010 0028 00800440 		.word	1074036736
 1011              		.cfi_endproc
 1012              	.LFE215:
 1013              		.size	Chip_I2C_DeInit, .-Chip_I2C_DeInit
 1014              		.global	__aeabi_uidiv
 1015              		.section	.text.Chip_I2C_SetClockRate,"ax",%progbits
 1016              		.align	2
 1017              		.global	Chip_I2C_SetClockRate
 1018              		.code	16
ARM GAS  /var/folders/f9/8bk2lnw15zn4cbgn6wrnb4lm0000gn/T//cc47W8rL.s 			page 33


 1019              		.thumb_func
 1020              		.type	Chip_I2C_SetClockRate, %function
 1021              	Chip_I2C_SetClockRate:
 1022              	.LFB216:
 380:../../lpc_chip_11cxx_lib/src/i2c_11xx.c **** 
 381:../../lpc_chip_11cxx_lib/src/i2c_11xx.c **** /* Set up clock rate for LPC_I2C peripheral */
 382:../../lpc_chip_11cxx_lib/src/i2c_11xx.c **** void Chip_I2C_SetClockRate(I2C_ID_T id, uint32_t clockrate)
 383:../../lpc_chip_11cxx_lib/src/i2c_11xx.c **** {
 1023              		.loc 1 383 0
 1024              		.cfi_startproc
 1025              	.LVL65:
 1026 0000 38B5     		push	{r3, r4, r5, lr}	@
 1027              		.cfi_def_cfa_offset 16
 1028              		.cfi_offset 3, -16
 1029              		.cfi_offset 4, -12
 1030              		.cfi_offset 5, -8
 1031              		.cfi_offset 14, -4
 1032              		.loc 1 383 0
 1033 0002 0D1C     		mov	r5, r1	@ clockrate, clockrate
 1034 0004 041C     		mov	r4, r0	@ id, id
 1035              	.LBB101:
 1036              	.LBB102:
  90:../../lpc_chip_11cxx_lib/src/i2c_11xx.c **** 	return Chip_Clock_GetMainClockRate();
 1037              		.loc 1 90 0
 1038 0006 FFF7FEFF 		bl	Chip_Clock_GetMainClockRate	@
 1039              	.LVL66:
 1040              	.LBE102:
 1041              	.LBE101:
 384:../../lpc_chip_11cxx_lib/src/i2c_11xx.c **** 	uint32_t SCLValue;
 385:../../lpc_chip_11cxx_lib/src/i2c_11xx.c **** 
 386:../../lpc_chip_11cxx_lib/src/i2c_11xx.c **** 	SCLValue = (getClkRate() / clockrate);
 1042              		.loc 1 386 0
 1043 000a 291C     		mov	r1, r5	@, clockrate
 1044 000c FFF7FEFF 		bl	__aeabi_uidiv	@
 1045              	.LVL67:
 387:../../lpc_chip_11cxx_lib/src/i2c_11xx.c **** 	LPC_I2Cx(id)->SCLH = (uint32_t) (SCLValue >> 1);
 1046              		.loc 1 387 0
 1047 0010 E300     		lsl	r3, r4, #3	@ tmp124, id,
 1048 0012 1C1B     		sub	r4, r3, r4	@ tmp125, tmp124, id
 1049 0014 044B     		ldr	r3, .L95	@ tmp122,
 1050 0016 A400     		lsl	r4, r4, #2	@ tmp126, tmp125,
 1051 0018 E358     		ldr	r3, [r4, r3]	@ D.6742, i2c[_6].ip
 1052 001a 4208     		lsr	r2, r0, #1	@ D.6743, tmp121,
 1053 001c 1A61     		str	r2, [r3, #16]	@ D.6743, _7->SCLH
 388:../../lpc_chip_11cxx_lib/src/i2c_11xx.c **** 	LPC_I2Cx(id)->SCLL = (uint32_t) (SCLValue - LPC_I2Cx(id)->SCLH);
 1054              		.loc 1 388 0
 1055 001e 1A69     		ldr	r2, [r3, #16]	@ D.6743, _7->SCLH
 389:../../lpc_chip_11cxx_lib/src/i2c_11xx.c **** }
 1056              		.loc 1 389 0
 1057              		@ sp needed	@
 388:../../lpc_chip_11cxx_lib/src/i2c_11xx.c **** 	LPC_I2Cx(id)->SCLL = (uint32_t) (SCLValue - LPC_I2Cx(id)->SCLH);
 1058              		.loc 1 388 0
 1059 0020 801A     		sub	r0, r0, r2	@ D.6743, tmp121, D.6743
 1060              	.LVL68:
 1061 0022 5861     		str	r0, [r3, #20]	@ D.6743, _7->SCLL
 1062              	.LVL69:
 1063              		.loc 1 389 0
ARM GAS  /var/folders/f9/8bk2lnw15zn4cbgn6wrnb4lm0000gn/T//cc47W8rL.s 			page 34


 1064 0024 38BD     		pop	{r3, r4, r5, pc}
 1065              	.L96:
 1066 0026 C046     		.align	2
 1067              	.L95:
 1068 0028 00000000 		.word	.LANCHOR0
 1069              		.cfi_endproc
 1070              	.LFE216:
 1071              		.size	Chip_I2C_SetClockRate, .-Chip_I2C_SetClockRate
 1072              		.section	.text.Chip_I2C_GetClockRate,"ax",%progbits
 1073              		.align	2
 1074              		.global	Chip_I2C_GetClockRate
 1075              		.code	16
 1076              		.thumb_func
 1077              		.type	Chip_I2C_GetClockRate, %function
 1078              	Chip_I2C_GetClockRate:
 1079              	.LFB217:
 390:../../lpc_chip_11cxx_lib/src/i2c_11xx.c **** 
 391:../../lpc_chip_11cxx_lib/src/i2c_11xx.c **** /* Get current clock rate for LPC_I2C peripheral */
 392:../../lpc_chip_11cxx_lib/src/i2c_11xx.c **** uint32_t Chip_I2C_GetClockRate(I2C_ID_T id)
 393:../../lpc_chip_11cxx_lib/src/i2c_11xx.c **** {
 1080              		.loc 1 393 0
 1081              		.cfi_startproc
 1082              	.LVL70:
 1083 0000 10B5     		push	{r4, lr}	@
 1084              		.cfi_def_cfa_offset 8
 1085              		.cfi_offset 4, -8
 1086              		.cfi_offset 14, -4
 1087              		.loc 1 393 0
 1088 0002 041C     		mov	r4, r0	@ id, id
 1089              	.LBB103:
 1090              	.LBB104:
  90:../../lpc_chip_11cxx_lib/src/i2c_11xx.c **** 	return Chip_Clock_GetMainClockRate();
 1091              		.loc 1 90 0
 1092 0004 FFF7FEFF 		bl	Chip_Clock_GetMainClockRate	@
 1093              	.LVL71:
 1094              	.LBE104:
 1095              	.LBE103:
 394:../../lpc_chip_11cxx_lib/src/i2c_11xx.c **** 	return getClkRate() / (LPC_I2Cx(id)->SCLH + LPC_I2Cx(id)->SCLL);
 1096              		.loc 1 394 0
 1097 0008 E300     		lsl	r3, r4, #3	@ tmp121, id,
 1098 000a 1C1B     		sub	r4, r3, r4	@ tmp122, tmp121, id
 1099 000c 044B     		ldr	r3, .L98	@ tmp119,
 1100 000e A400     		lsl	r4, r4, #2	@ tmp123, tmp122,
 1101 0010 E358     		ldr	r3, [r4, r3]	@ D.6749, i2c[_4].ip
 395:../../lpc_chip_11cxx_lib/src/i2c_11xx.c **** }
 1102              		.loc 1 395 0
 1103              		@ sp needed	@
 394:../../lpc_chip_11cxx_lib/src/i2c_11xx.c **** 	return getClkRate() / (LPC_I2Cx(id)->SCLH + LPC_I2Cx(id)->SCLL);
 1104              		.loc 1 394 0
 1105 0012 1A69     		ldr	r2, [r3, #16]	@ D.6750, _5->SCLH
 1106 0014 5969     		ldr	r1, [r3, #20]	@ D.6750, _5->SCLL
 1107 0016 8918     		add	r1, r1, r2	@ D.6750, D.6750, D.6750
 1108 0018 FFF7FEFF 		bl	__aeabi_uidiv	@
 1109              	.LVL72:
 1110              		.loc 1 395 0
 1111 001c 10BD     		pop	{r4, pc}
 1112              	.L99:
ARM GAS  /var/folders/f9/8bk2lnw15zn4cbgn6wrnb4lm0000gn/T//cc47W8rL.s 			page 35


 1113 001e C046     		.align	2
 1114              	.L98:
 1115 0020 00000000 		.word	.LANCHOR0
 1116              		.cfi_endproc
 1117              	.LFE217:
 1118              		.size	Chip_I2C_GetClockRate, .-Chip_I2C_GetClockRate
 1119              		.section	.text.Chip_I2C_SetMasterEventHandler,"ax",%progbits
 1120              		.align	2
 1121              		.global	Chip_I2C_SetMasterEventHandler
 1122              		.code	16
 1123              		.thumb_func
 1124              		.type	Chip_I2C_SetMasterEventHandler, %function
 1125              	Chip_I2C_SetMasterEventHandler:
 1126              	.LFB218:
 396:../../lpc_chip_11cxx_lib/src/i2c_11xx.c **** 
 397:../../lpc_chip_11cxx_lib/src/i2c_11xx.c **** /* Set the master event handler */
 398:../../lpc_chip_11cxx_lib/src/i2c_11xx.c **** int Chip_I2C_SetMasterEventHandler(I2C_ID_T id, I2C_EVENTHANDLER_T event)
 399:../../lpc_chip_11cxx_lib/src/i2c_11xx.c **** {
 1127              		.loc 1 399 0
 1128              		.cfi_startproc
 1129              	.LVL73:
 400:../../lpc_chip_11cxx_lib/src/i2c_11xx.c **** 	struct i2c_interface *iic = &i2c[id];
 1130              		.loc 1 400 0
 1131 0000 C300     		lsl	r3, r0, #3	@ tmp121, id,
 1132 0002 181A     		sub	r0, r3, r0	@ tmp122, tmp121, id
 1133              	.LVL74:
 1134 0004 064B     		ldr	r3, .L103	@ tmp119,
 1135 0006 8000     		lsl	r0, r0, #2	@ tmp123, tmp122,
 1136 0008 1818     		add	r0, r3, r0	@ iic, tmp119, tmp123
 1137              	.LVL75:
 401:../../lpc_chip_11cxx_lib/src/i2c_11xx.c **** 	if (!iic->mXfer) {
 1138              		.loc 1 401 0
 1139 000a 0369     		ldr	r3, [r0, #16]	@, iic_4->mXfer
 1140 000c 002B     		cmp	r3, #0	@,
 1141 000e 04D0     		beq	.L101	@,
 1142 0010 8068     		ldr	r0, [r0, #8]	@ iic_4->mEvent, iic_4->mEvent
 1143              	.LVL76:
 1144 0012 081A     		sub	r0, r1, r0	@ tmp128, event, iic_4->mEvent
 1145 0014 4142     		neg	r1, r0	@ tmp129, tmp128
 1146 0016 4841     		adc	r0, r0, r1	@ D.6755, tmp128, tmp129
 1147              	.LVL77:
 1148              	.L102:
 402:../../lpc_chip_11cxx_lib/src/i2c_11xx.c **** 		iic->mEvent = event;
 403:../../lpc_chip_11cxx_lib/src/i2c_11xx.c **** 	}
 404:../../lpc_chip_11cxx_lib/src/i2c_11xx.c **** 	return iic->mEvent == event;
 405:../../lpc_chip_11cxx_lib/src/i2c_11xx.c **** }
 1149              		.loc 1 405 0
 1150              		@ sp needed	@
 1151 0018 7047     		bx	lr
 1152              	.LVL78:
 1153              	.L101:
 402:../../lpc_chip_11cxx_lib/src/i2c_11xx.c **** 		iic->mEvent = event;
 1154              		.loc 1 402 0
 1155 001a 8160     		str	r1, [r0, #8]	@ event, iic_4->mEvent
 1156 001c 0120     		mov	r0, #1	@ D.6755,
 1157              	.LVL79:
 1158 001e FBE7     		b	.L102	@
ARM GAS  /var/folders/f9/8bk2lnw15zn4cbgn6wrnb4lm0000gn/T//cc47W8rL.s 			page 36


 1159              	.L104:
 1160              		.align	2
 1161              	.L103:
 1162 0020 00000000 		.word	.LANCHOR0
 1163              		.cfi_endproc
 1164              	.LFE218:
 1165              		.size	Chip_I2C_SetMasterEventHandler, .-Chip_I2C_SetMasterEventHandler
 1166              		.section	.text.Chip_I2C_GetMasterEventHandler,"ax",%progbits
 1167              		.align	2
 1168              		.global	Chip_I2C_GetMasterEventHandler
 1169              		.code	16
 1170              		.thumb_func
 1171              		.type	Chip_I2C_GetMasterEventHandler, %function
 1172              	Chip_I2C_GetMasterEventHandler:
 1173              	.LFB219:
 406:../../lpc_chip_11cxx_lib/src/i2c_11xx.c **** 
 407:../../lpc_chip_11cxx_lib/src/i2c_11xx.c **** /* Get the master event handler */
 408:../../lpc_chip_11cxx_lib/src/i2c_11xx.c **** I2C_EVENTHANDLER_T Chip_I2C_GetMasterEventHandler(I2C_ID_T id)
 409:../../lpc_chip_11cxx_lib/src/i2c_11xx.c **** {
 1174              		.loc 1 409 0
 1175              		.cfi_startproc
 1176              	.LVL80:
 410:../../lpc_chip_11cxx_lib/src/i2c_11xx.c **** 	return i2c[id].mEvent;
 1177              		.loc 1 410 0
 1178 0000 C300     		lsl	r3, r0, #3	@ tmp117, id,
 1179 0002 181A     		sub	r0, r3, r0	@ tmp118, tmp117, id
 1180              	.LVL81:
 1181 0004 024B     		ldr	r3, .L106	@ tmp115,
 1182 0006 8000     		lsl	r0, r0, #2	@ tmp119, tmp118,
 1183 0008 1818     		add	r0, r3, r0	@ tmp120, tmp115, tmp119
 1184 000a 8068     		ldr	r0, [r0, #8]	@ i2c[_2].mEvent, i2c[_2].mEvent
 411:../../lpc_chip_11cxx_lib/src/i2c_11xx.c **** }
 1185              		.loc 1 411 0
 1186              		@ sp needed	@
 1187 000c 7047     		bx	lr
 1188              	.L107:
 1189 000e C046     		.align	2
 1190              	.L106:
 1191 0010 00000000 		.word	.LANCHOR0
 1192              		.cfi_endproc
 1193              	.LFE219:
 1194              		.size	Chip_I2C_GetMasterEventHandler, .-Chip_I2C_GetMasterEventHandler
 1195              		.section	.text.Chip_I2C_MasterTransfer,"ax",%progbits
 1196              		.align	2
 1197              		.global	Chip_I2C_MasterTransfer
 1198              		.code	16
 1199              		.thumb_func
 1200              		.type	Chip_I2C_MasterTransfer, %function
 1201              	Chip_I2C_MasterTransfer:
 1202              	.LFB220:
 412:../../lpc_chip_11cxx_lib/src/i2c_11xx.c **** 
 413:../../lpc_chip_11cxx_lib/src/i2c_11xx.c **** /* Transmit and Receive data in master mode */
 414:../../lpc_chip_11cxx_lib/src/i2c_11xx.c **** int Chip_I2C_MasterTransfer(I2C_ID_T id, I2C_XFER_T *xfer)
 415:../../lpc_chip_11cxx_lib/src/i2c_11xx.c **** {
 1203              		.loc 1 415 0
 1204              		.cfi_startproc
 1205              	.LVL82:
ARM GAS  /var/folders/f9/8bk2lnw15zn4cbgn6wrnb4lm0000gn/T//cc47W8rL.s 			page 37


 1206 0000 F8B5     		push	{r3, r4, r5, r6, r7, lr}	@
 1207              		.cfi_def_cfa_offset 24
 1208              		.cfi_offset 3, -24
 1209              		.cfi_offset 4, -20
 1210              		.cfi_offset 5, -16
 1211              		.cfi_offset 6, -12
 1212              		.cfi_offset 7, -8
 1213              		.cfi_offset 14, -4
 416:../../lpc_chip_11cxx_lib/src/i2c_11xx.c **** 	struct i2c_interface *iic = &i2c[id];
 1214              		.loc 1 416 0
 1215 0002 C500     		lsl	r5, r0, #3	@ tmp129, id,
 1216 0004 174B     		ldr	r3, .L117	@ tmp127,
 1217 0006 2D1A     		sub	r5, r5, r0	@ tmp130, tmp129, id
 1218 0008 AD00     		lsl	r5, r5, #2	@ tmp131, tmp130,
 1219 000a 5D19     		add	r5, r3, r5	@ iic, tmp127, tmp131
 1220              	.LVL83:
 415:../../lpc_chip_11cxx_lib/src/i2c_11xx.c **** {
 1221              		.loc 1 415 0
 1222 000c 0F1C     		mov	r7, r1	@ xfer, xfer
 417:../../lpc_chip_11cxx_lib/src/i2c_11xx.c **** 
 418:../../lpc_chip_11cxx_lib/src/i2c_11xx.c **** 	iic->mEvent(id, I2C_EVENT_LOCK);
 1223              		.loc 1 418 0
 1224 000e AB68     		ldr	r3, [r5, #8]	@, iic_6->mEvent
 1225 0010 0321     		mov	r1, #3	@,
 1226              	.LVL84:
 415:../../lpc_chip_11cxx_lib/src/i2c_11xx.c **** {
 1227              		.loc 1 415 0
 1228 0012 061C     		mov	r6, r0	@ id, id
 1229              		.loc 1 418 0
 1230 0014 9847     		blx	r3	@
 1231              	.LVL85:
 419:../../lpc_chip_11cxx_lib/src/i2c_11xx.c **** 	xfer->status = I2C_STATUS_BUSY;
 420:../../lpc_chip_11cxx_lib/src/i2c_11xx.c **** 	iic->mXfer = xfer;
 421:../../lpc_chip_11cxx_lib/src/i2c_11xx.c **** 
 422:../../lpc_chip_11cxx_lib/src/i2c_11xx.c **** 	/* If slave xfer not in progress */
 423:../../lpc_chip_11cxx_lib/src/i2c_11xx.c **** 	if (!iic->sXfer) {
 1232              		.loc 1 423 0
 1233 0016 6969     		ldr	r1, [r5, #20]	@, iic_6->sXfer
 419:../../lpc_chip_11cxx_lib/src/i2c_11xx.c **** 	xfer->status = I2C_STATUS_BUSY;
 1234              		.loc 1 419 0
 1235 0018 0423     		mov	r3, #4	@ tmp133,
 1236 001a 3B75     		strb	r3, [r7, #20]	@ tmp133, xfer_10(D)->status
 420:../../lpc_chip_11cxx_lib/src/i2c_11xx.c **** 	iic->mXfer = xfer;
 1237              		.loc 1 420 0
 1238 001c 2F61     		str	r7, [r5, #16]	@ xfer, iic_6->mXfer
 1239              		.loc 1 423 0
 1240 001e 0029     		cmp	r1, #0	@,
 1241 0020 19D0     		beq	.L116	@,
 1242              	.L109:
 424:../../lpc_chip_11cxx_lib/src/i2c_11xx.c **** 		startMasterXfer(iic->ip);
 425:../../lpc_chip_11cxx_lib/src/i2c_11xx.c **** 	}
 426:../../lpc_chip_11cxx_lib/src/i2c_11xx.c **** 	iic->mEvent(id, I2C_EVENT_WAIT);
 1243              		.loc 1 426 0
 1244 0022 AB68     		ldr	r3, [r5, #8]	@, iic_6->mEvent
 1245 0024 301C     		mov	r0, r6	@, id
 1246 0026 0121     		mov	r1, #1	@,
 1247 0028 9847     		blx	r3	@
ARM GAS  /var/folders/f9/8bk2lnw15zn4cbgn6wrnb4lm0000gn/T//cc47W8rL.s 			page 38


 1248              	.LVL86:
 427:../../lpc_chip_11cxx_lib/src/i2c_11xx.c **** 	iic->mXfer = 0;
 1249              		.loc 1 427 0
 1250 002a 0023     		mov	r3, #0	@ tmp139,
 1251 002c 2A68     		ldr	r2, [r5]	@ D.6770, iic_6->ip
 1252 002e 2B61     		str	r3, [r5, #16]	@ tmp139, iic_6->mXfer
 1253              	.LBB105:
 1254              	.LBB106:
 116:../../lpc_chip_11cxx_lib/src/i2c_11xx.c **** 	return !(pI2C->CONSET & I2C_CON_STO);
 1255              		.loc 1 116 0
 1256 0030 1024     		mov	r4, #16	@ tmp149,
 1257              	.L111:
 1258              	.LVL87:
 116:../../lpc_chip_11cxx_lib/src/i2c_11xx.c **** 	return !(pI2C->CONSET & I2C_CON_STO);
 1259              		.loc 1 116 0 is_stmt 0 discriminator 1
 1260 0032 1368     		ldr	r3, [r2]	@ D.6771, _34->CONSET
 1261              	.LBE106:
 1262              	.LBE105:
 428:../../lpc_chip_11cxx_lib/src/i2c_11xx.c **** 
 429:../../lpc_chip_11cxx_lib/src/i2c_11xx.c **** 	/* Wait for stop condition to appear on bus */
 430:../../lpc_chip_11cxx_lib/src/i2c_11xx.c **** 	while (!isI2CBusFree(iic->ip)) {}
 1263              		.loc 1 430 0 is_stmt 1 discriminator 1
 1264 0034 1C42     		tst	r4, r3	@ tmp149, D.6771
 1265 0036 FCD1     		bne	.L111	@,
 431:../../lpc_chip_11cxx_lib/src/i2c_11xx.c **** 
 432:../../lpc_chip_11cxx_lib/src/i2c_11xx.c **** 	/* Start slave if one is active */
 433:../../lpc_chip_11cxx_lib/src/i2c_11xx.c **** 	if (SLAVE_ACTIVE(iic)) {
 1266              		.loc 1 433 0
 1267 0038 FF23     		mov	r3, #255	@ tmp150,
 1268 003a A969     		ldr	r1, [r5, #24]	@, iic_6->flags
 1269 003c 1B02     		lsl	r3, r3, #8	@ tmp144, tmp150,
 1270 003e 1942     		tst	r1, r3	@, tmp144
 1271 0040 03D0     		beq	.L112	@,
 1272              	.LVL88:
 1273              	.LBB107:
 1274              	.LBB108:
 107:../../lpc_chip_11cxx_lib/src/i2c_11xx.c **** 	pI2C->CONCLR = I2C_CON_SI | I2C_CON_STO | I2C_CON_STA;
 1275              		.loc 1 107 0
 1276 0042 3823     		mov	r3, #56	@ tmp145,
 1277 0044 9361     		str	r3, [r2, #24]	@ tmp145, _34->CONCLR
 110:../../lpc_chip_11cxx_lib/src/i2c_11xx.c **** 	pI2C->CONSET = I2C_CON_I2EN | I2C_CON_AA;
 1278              		.loc 1 110 0
 1279 0046 4423     		mov	r3, #68	@ tmp146,
 1280 0048 1360     		str	r3, [r2]	@ tmp146, _34->CONSET
 1281              	.LVL89:
 1282              	.L112:
 1283              	.LBE108:
 1284              	.LBE107:
 434:../../lpc_chip_11cxx_lib/src/i2c_11xx.c **** 		startSlaverXfer(iic->ip);
 435:../../lpc_chip_11cxx_lib/src/i2c_11xx.c **** 	}
 436:../../lpc_chip_11cxx_lib/src/i2c_11xx.c **** 
 437:../../lpc_chip_11cxx_lib/src/i2c_11xx.c **** 	iic->mEvent(id, I2C_EVENT_UNLOCK);
 1285              		.loc 1 437 0
 1286 004a 301C     		mov	r0, r6	@, id
 1287 004c AB68     		ldr	r3, [r5, #8]	@ iic_6->mEvent, iic_6->mEvent
 1288 004e 0421     		mov	r1, #4	@,
 1289 0050 9847     		blx	r3	@ iic_6->mEvent
ARM GAS  /var/folders/f9/8bk2lnw15zn4cbgn6wrnb4lm0000gn/T//cc47W8rL.s 			page 39


 1290              	.LVL90:
 438:../../lpc_chip_11cxx_lib/src/i2c_11xx.c **** 	return (int) xfer->status;
 439:../../lpc_chip_11cxx_lib/src/i2c_11xx.c **** }
 1291              		.loc 1 439 0
 1292              		@ sp needed	@
 438:../../lpc_chip_11cxx_lib/src/i2c_11xx.c **** 	return (int) xfer->status;
 1293              		.loc 1 438 0
 1294 0052 387D     		ldrb	r0, [r7, #20]	@ D.6767,
 1295              	.LVL91:
 1296              	.LVL92:
 1297              	.LVL93:
 1298              		.loc 1 439 0
 1299 0054 F8BD     		pop	{r3, r4, r5, r6, r7, pc}
 1300              	.LVL94:
 1301              	.L116:
 424:../../lpc_chip_11cxx_lib/src/i2c_11xx.c **** 		startMasterXfer(iic->ip);
 1302              		.loc 1 424 0
 1303 0056 2B68     		ldr	r3, [r5]	@ D.6770, iic_6->ip
 1304              	.LVL95:
 1305              	.LBB109:
 1306              	.LBB110:
  97:../../lpc_chip_11cxx_lib/src/i2c_11xx.c **** 	pI2C->CONCLR = I2C_CON_SI | I2C_CON_STO | I2C_CON_STA | I2C_CON_AA;
 1307              		.loc 1 97 0
 1308 0058 3C22     		mov	r2, #60	@ tmp136,
 1309 005a 9A61     		str	r2, [r3, #24]	@ tmp136, _14->CONCLR
 100:../../lpc_chip_11cxx_lib/src/i2c_11xx.c **** 	pI2C->CONSET = I2C_CON_I2EN | I2C_CON_STA;
 1310              		.loc 1 100 0
 1311 005c 6022     		mov	r2, #96	@ tmp137,
 1312 005e 1A60     		str	r2, [r3]	@ tmp137, _14->CONSET
 1313 0060 DFE7     		b	.L109	@
 1314              	.L118:
 1315 0062 C046     		.align	2
 1316              	.L117:
 1317 0064 00000000 		.word	.LANCHOR0
 1318              	.LBE110:
 1319              	.LBE109:
 1320              		.cfi_endproc
 1321              	.LFE220:
 1322              		.size	Chip_I2C_MasterTransfer, .-Chip_I2C_MasterTransfer
 1323              		.section	.text.Chip_I2C_MasterSend,"ax",%progbits
 1324              		.align	2
 1325              		.global	Chip_I2C_MasterSend
 1326              		.code	16
 1327              		.thumb_func
 1328              		.type	Chip_I2C_MasterSend, %function
 1329              	Chip_I2C_MasterSend:
 1330              	.LFB221:
 440:../../lpc_chip_11cxx_lib/src/i2c_11xx.c **** 
 441:../../lpc_chip_11cxx_lib/src/i2c_11xx.c **** /* Master tx only */
 442:../../lpc_chip_11cxx_lib/src/i2c_11xx.c **** int Chip_I2C_MasterSend(I2C_ID_T id, uint8_t slaveAddr, const uint8_t *buff, uint8_t len)
 443:../../lpc_chip_11cxx_lib/src/i2c_11xx.c **** {
 1331              		.loc 1 443 0
 1332              		.cfi_startproc
 1333              	.LVL96:
 1334 0000 30B5     		push	{r4, r5, lr}	@
 1335              		.cfi_def_cfa_offset 12
 1336              		.cfi_offset 4, -12
ARM GAS  /var/folders/f9/8bk2lnw15zn4cbgn6wrnb4lm0000gn/T//cc47W8rL.s 			page 40


 1337              		.cfi_offset 5, -8
 1338              		.cfi_offset 14, -4
 1339 0002 87B0     		sub	sp, sp, #28	@,,
 1340              		.cfi_def_cfa_offset 40
 1341              		.loc 1 443 0
 1342 0004 1D1C     		mov	r5, r3	@ len, len
 444:../../lpc_chip_11cxx_lib/src/i2c_11xx.c **** 	I2C_XFER_T xfer;
 445:../../lpc_chip_11cxx_lib/src/i2c_11xx.c **** 	xfer.slaveAddr = slaveAddr;
 1343              		.loc 1 445 0
 1344 0006 6B46     		mov	r3, sp	@,
 1345              	.LVL97:
 443:../../lpc_chip_11cxx_lib/src/i2c_11xx.c **** {
 1346              		.loc 1 443 0
 1347 0008 041C     		mov	r4, r0	@ id, id
 1348              		.loc 1 445 0
 1349 000a 1970     		strb	r1, [r3]	@ slaveAddr, xfer.slaveAddr
 446:../../lpc_chip_11cxx_lib/src/i2c_11xx.c **** 	xfer.txBuff = buff;
 1350              		.loc 1 446 0
 1351 000c 0192     		str	r2, [sp, #4]	@ buff, xfer.txBuff
 447:../../lpc_chip_11cxx_lib/src/i2c_11xx.c **** 	xfer.txSz = len;
 1352              		.loc 1 447 0
 1353 000e 0295     		str	r5, [sp, #8]	@ len, xfer.txSz
 1354              	.LVL98:
 1355              	.L121:
 448:../../lpc_chip_11cxx_lib/src/i2c_11xx.c **** 	while (Chip_I2C_MasterTransfer(id, &xfer) == I2C_STATUS_ARBLOST) {}
 1356              		.loc 1 448 0 discriminator 1
 1357 0010 201C     		mov	r0, r4	@, id
 1358 0012 6946     		mov	r1, sp	@,
 1359 0014 FFF7FEFF 		bl	Chip_I2C_MasterTransfer	@
 1360              	.LVL99:
 1361 0018 0228     		cmp	r0, #2	@ D.6776,
 1362 001a F9D0     		beq	.L121	@,
 449:../../lpc_chip_11cxx_lib/src/i2c_11xx.c **** 	return len - xfer.txSz;
 1363              		.loc 1 449 0
 1364 001c 0298     		ldr	r0, [sp, #8]	@ xfer.txSz, xfer.txSz
 1365 001e 281A     		sub	r0, r5, r0	@ D.6776, len, xfer.txSz
 450:../../lpc_chip_11cxx_lib/src/i2c_11xx.c **** }
 1366              		.loc 1 450 0
 1367 0020 07B0     		add	sp, sp, #28	@,,
 1368              		@ sp needed	@
 1369 0022 30BD     		pop	{r4, r5, pc}
 1370              		.cfi_endproc
 1371              	.LFE221:
 1372              		.size	Chip_I2C_MasterSend, .-Chip_I2C_MasterSend
 1373              		.section	.text.Chip_I2C_MasterCmdRead,"ax",%progbits
 1374              		.align	2
 1375              		.global	Chip_I2C_MasterCmdRead
 1376              		.code	16
 1377              		.thumb_func
 1378              		.type	Chip_I2C_MasterCmdRead, %function
 1379              	Chip_I2C_MasterCmdRead:
 1380              	.LFB222:
 451:../../lpc_chip_11cxx_lib/src/i2c_11xx.c **** 
 452:../../lpc_chip_11cxx_lib/src/i2c_11xx.c **** /* Transmit one byte and receive an array of bytes after a repeated start condition is generated in
 453:../../lpc_chip_11cxx_lib/src/i2c_11xx.c ****  * This function is useful for communicating with the I2C slave registers
 454:../../lpc_chip_11cxx_lib/src/i2c_11xx.c ****  */
 455:../../lpc_chip_11cxx_lib/src/i2c_11xx.c **** int Chip_I2C_MasterCmdRead(I2C_ID_T id, uint8_t slaveAddr, uint8_t cmd, uint8_t *buff, int len)
ARM GAS  /var/folders/f9/8bk2lnw15zn4cbgn6wrnb4lm0000gn/T//cc47W8rL.s 			page 41


 456:../../lpc_chip_11cxx_lib/src/i2c_11xx.c **** {
 1381              		.loc 1 456 0
 1382              		.cfi_startproc
 1383              	.LVL100:
 1384 0000 70B5     		push	{r4, r5, r6, lr}	@
 1385              		.cfi_def_cfa_offset 16
 1386              		.cfi_offset 4, -16
 1387              		.cfi_offset 5, -12
 1388              		.cfi_offset 6, -8
 1389              		.cfi_offset 14, -4
 1390 0002 88B0     		sub	sp, sp, #32	@,,
 1391              		.cfi_def_cfa_offset 48
 1392              		.loc 1 456 0
 1393 0004 051C     		mov	r5, r0	@ id, id
 1394 0006 0C9E     		ldr	r6, [sp, #48]	@ len, len
 1395 0008 6846     		mov	r0, sp	@ tmp117,
 1396              	.LVL101:
 457:../../lpc_chip_11cxx_lib/src/i2c_11xx.c **** 	I2C_XFER_T xfer;
 458:../../lpc_chip_11cxx_lib/src/i2c_11xx.c **** 	xfer.slaveAddr = slaveAddr;
 1397              		.loc 1 458 0
 1398 000a 02AC     		add	r4, sp, #8	@ tmp133,,
 456:../../lpc_chip_11cxx_lib/src/i2c_11xx.c **** {
 1399              		.loc 1 456 0
 1400 000c C271     		strb	r2, [r0, #7]	@ cmd, cmd
 1401 000e 0730     		add	r0, r0, #7	@ tmp117,
 459:../../lpc_chip_11cxx_lib/src/i2c_11xx.c **** 	xfer.txBuff = &cmd;
 460:../../lpc_chip_11cxx_lib/src/i2c_11xx.c **** 	xfer.txSz = 1;
 1402              		.loc 1 460 0
 1403 0010 0122     		mov	r2, #1	@ tmp126,
 1404              	.LVL102:
 458:../../lpc_chip_11cxx_lib/src/i2c_11xx.c **** 	xfer.slaveAddr = slaveAddr;
 1405              		.loc 1 458 0
 1406 0012 2170     		strb	r1, [r4]	@ slaveAddr, xfer.slaveAddr
 459:../../lpc_chip_11cxx_lib/src/i2c_11xx.c **** 	xfer.txBuff = &cmd;
 1407              		.loc 1 459 0
 1408 0014 6060     		str	r0, [r4, #4]	@ tmp117, xfer.txBuff
 1409              		.loc 1 460 0
 1410 0016 A260     		str	r2, [r4, #8]	@ tmp126, xfer.txSz
 461:../../lpc_chip_11cxx_lib/src/i2c_11xx.c **** 	xfer.rxBuff = buff;
 1411              		.loc 1 461 0
 1412 0018 E360     		str	r3, [r4, #12]	@ buff, xfer.rxBuff
 462:../../lpc_chip_11cxx_lib/src/i2c_11xx.c **** 	xfer.rxSz = len;
 1413              		.loc 1 462 0
 1414 001a 2661     		str	r6, [r4, #16]	@ len, xfer.rxSz
 1415              	.LVL103:
 1416              	.L124:
 463:../../lpc_chip_11cxx_lib/src/i2c_11xx.c **** 	while (Chip_I2C_MasterTransfer(id, &xfer) == I2C_STATUS_ARBLOST) {}
 1417              		.loc 1 463 0 discriminator 1
 1418 001c 281C     		mov	r0, r5	@, id
 1419 001e 211C     		mov	r1, r4	@, tmp133
 1420 0020 FFF7FEFF 		bl	Chip_I2C_MasterTransfer	@
 1421              	.LVL104:
 1422 0024 0228     		cmp	r0, #2	@ D.6779,
 1423 0026 F9D0     		beq	.L124	@,
 464:../../lpc_chip_11cxx_lib/src/i2c_11xx.c **** 	return len - xfer.rxSz;
 1424              		.loc 1 464 0
 1425 0028 2069     		ldr	r0, [r4, #16]	@ xfer.rxSz, xfer.rxSz
ARM GAS  /var/folders/f9/8bk2lnw15zn4cbgn6wrnb4lm0000gn/T//cc47W8rL.s 			page 42


 1426 002a 301A     		sub	r0, r6, r0	@ D.6779, len, xfer.rxSz
 465:../../lpc_chip_11cxx_lib/src/i2c_11xx.c **** }
 1427              		.loc 1 465 0
 1428 002c 08B0     		add	sp, sp, #32	@,,
 1429              	.LVL105:
 1430              		@ sp needed	@
 1431 002e 70BD     		pop	{r4, r5, r6, pc}
 1432              		.cfi_endproc
 1433              	.LFE222:
 1434              		.size	Chip_I2C_MasterCmdRead, .-Chip_I2C_MasterCmdRead
 1435              		.section	.text.Chip_I2C_MasterRead,"ax",%progbits
 1436              		.align	2
 1437              		.global	Chip_I2C_MasterRead
 1438              		.code	16
 1439              		.thumb_func
 1440              		.type	Chip_I2C_MasterRead, %function
 1441              	Chip_I2C_MasterRead:
 1442              	.LFB223:
 466:../../lpc_chip_11cxx_lib/src/i2c_11xx.c **** 
 467:../../lpc_chip_11cxx_lib/src/i2c_11xx.c **** /* Sequential master read */
 468:../../lpc_chip_11cxx_lib/src/i2c_11xx.c **** int Chip_I2C_MasterRead(I2C_ID_T id, uint8_t slaveAddr, uint8_t *buff, int len)
 469:../../lpc_chip_11cxx_lib/src/i2c_11xx.c **** {
 1443              		.loc 1 469 0
 1444              		.cfi_startproc
 1445              	.LVL106:
 1446 0000 30B5     		push	{r4, r5, lr}	@
 1447              		.cfi_def_cfa_offset 12
 1448              		.cfi_offset 4, -12
 1449              		.cfi_offset 5, -8
 1450              		.cfi_offset 14, -4
 1451 0002 87B0     		sub	sp, sp, #28	@,,
 1452              		.cfi_def_cfa_offset 40
 1453              		.loc 1 469 0
 1454 0004 1D1C     		mov	r5, r3	@ len, len
 470:../../lpc_chip_11cxx_lib/src/i2c_11xx.c **** 	I2C_XFER_T xfer;
 471:../../lpc_chip_11cxx_lib/src/i2c_11xx.c **** 	xfer.slaveAddr = slaveAddr;
 1455              		.loc 1 471 0
 1456 0006 6B46     		mov	r3, sp	@,
 1457              	.LVL107:
 469:../../lpc_chip_11cxx_lib/src/i2c_11xx.c **** {
 1458              		.loc 1 469 0
 1459 0008 041C     		mov	r4, r0	@ id, id
 1460              		.loc 1 471 0
 1461 000a 1970     		strb	r1, [r3]	@ slaveAddr, xfer.slaveAddr
 472:../../lpc_chip_11cxx_lib/src/i2c_11xx.c **** 	xfer.rxBuff = buff;
 1462              		.loc 1 472 0
 1463 000c 0392     		str	r2, [sp, #12]	@ buff, xfer.rxBuff
 473:../../lpc_chip_11cxx_lib/src/i2c_11xx.c **** 	xfer.rxSz = len;
 1464              		.loc 1 473 0
 1465 000e 0495     		str	r5, [sp, #16]	@ len, xfer.rxSz
 1466              	.LVL108:
 1467              	.L127:
 474:../../lpc_chip_11cxx_lib/src/i2c_11xx.c **** 	while (Chip_I2C_MasterTransfer(id, &xfer) == I2C_STATUS_ARBLOST) {}
 1468              		.loc 1 474 0 discriminator 1
 1469 0010 201C     		mov	r0, r4	@, id
 1470 0012 6946     		mov	r1, sp	@,
 1471 0014 FFF7FEFF 		bl	Chip_I2C_MasterTransfer	@
ARM GAS  /var/folders/f9/8bk2lnw15zn4cbgn6wrnb4lm0000gn/T//cc47W8rL.s 			page 43


 1472              	.LVL109:
 1473 0018 0228     		cmp	r0, #2	@ D.6782,
 1474 001a F9D0     		beq	.L127	@,
 475:../../lpc_chip_11cxx_lib/src/i2c_11xx.c **** 	return len - xfer.rxSz;
 1475              		.loc 1 475 0
 1476 001c 0498     		ldr	r0, [sp, #16]	@ xfer.rxSz, xfer.rxSz
 1477 001e 281A     		sub	r0, r5, r0	@ D.6782, len, xfer.rxSz
 476:../../lpc_chip_11cxx_lib/src/i2c_11xx.c **** }
 1478              		.loc 1 476 0
 1479 0020 07B0     		add	sp, sp, #28	@,,
 1480              		@ sp needed	@
 1481              	.LVL110:
 1482 0022 30BD     		pop	{r4, r5, pc}
 1483              		.cfi_endproc
 1484              	.LFE223:
 1485              		.size	Chip_I2C_MasterRead, .-Chip_I2C_MasterRead
 1486              		.section	.text.Chip_I2C_IsMasterActive,"ax",%progbits
 1487              		.align	2
 1488              		.global	Chip_I2C_IsMasterActive
 1489              		.code	16
 1490              		.thumb_func
 1491              		.type	Chip_I2C_IsMasterActive, %function
 1492              	Chip_I2C_IsMasterActive:
 1493              	.LFB224:
 477:../../lpc_chip_11cxx_lib/src/i2c_11xx.c **** 
 478:../../lpc_chip_11cxx_lib/src/i2c_11xx.c **** /* Check if master state is active */
 479:../../lpc_chip_11cxx_lib/src/i2c_11xx.c **** int Chip_I2C_IsMasterActive(I2C_ID_T id)
 480:../../lpc_chip_11cxx_lib/src/i2c_11xx.c **** {
 1494              		.loc 1 480 0
 1495              		.cfi_startproc
 1496              	.LVL111:
 481:../../lpc_chip_11cxx_lib/src/i2c_11xx.c **** 	return isMasterState(i2c[id].ip);
 1497              		.loc 1 481 0
 1498 0000 C300     		lsl	r3, r0, #3	@ tmp121, id,
 1499 0002 181A     		sub	r0, r3, r0	@ tmp122, tmp121, id
 1500              	.LVL112:
 1501 0004 054B     		ldr	r3, .L129	@ tmp119,
 1502 0006 8000     		lsl	r0, r0, #2	@ tmp123, tmp122,
 1503 0008 C358     		ldr	r3, [r0, r3]	@ D.6786, i2c[_2].ip
 1504              	.LVL113:
 1505              	.LBB111:
 1506              	.LBB112:
 1507              	.LBB113:
 1508              	.LBB114:
 122:../../lpc_chip_11cxx_lib/src/i2c_11xx.c **** 	return (int) (pI2C->STAT & I2C_STAT_CODE_BITMASK);
 1509              		.loc 1 122 0
 1510 000a F822     		mov	r2, #248	@ tmp125,
 1511 000c 5B68     		ldr	r3, [r3, #4]	@ D.6787, _4->STAT
 1512              	.LVL114:
 1513              	.LBE114:
 1514              	.LBE113:
 128:../../lpc_chip_11cxx_lib/src/i2c_11xx.c **** 	return getCurState(pI2C) < 0x60;
 1515              		.loc 1 128 0
 1516 000e 0021     		mov	r1, #0	@ tmp131,
 1517              	.LBB116:
 1518              	.LBB115:
 122:../../lpc_chip_11cxx_lib/src/i2c_11xx.c **** 	return (int) (pI2C->STAT & I2C_STAT_CODE_BITMASK);
ARM GAS  /var/folders/f9/8bk2lnw15zn4cbgn6wrnb4lm0000gn/T//cc47W8rL.s 			page 44


 1519              		.loc 1 122 0
 1520 0010 1340     		and	r3, r2	@ D.6785, tmp125
 1521              	.LBE115:
 1522              	.LBE116:
 128:../../lpc_chip_11cxx_lib/src/i2c_11xx.c **** 	return getCurState(pI2C) < 0x60;
 1523              		.loc 1 128 0
 1524 0012 D80F     		lsr	r0, r3, #31	@ tmp130, D.6785,
 1525              	.LVL115:
 1526 0014 5F22     		mov	r2, #95	@ tmp129,
 1527 0016 9A42     		cmp	r2, r3	@ tmp129, D.6785
 1528 0018 4841     		adc	r0, r0, r1	@ D.6788, tmp130, tmp131
 1529              	.LBE112:
 1530              	.LBE111:
 482:../../lpc_chip_11cxx_lib/src/i2c_11xx.c **** }
 1531              		.loc 1 482 0
 1532              		@ sp needed	@
 1533 001a 7047     		bx	lr
 1534              	.L130:
 1535              		.align	2
 1536              	.L129:
 1537 001c 00000000 		.word	.LANCHOR0
 1538              		.cfi_endproc
 1539              	.LFE224:
 1540              		.size	Chip_I2C_IsMasterActive, .-Chip_I2C_IsMasterActive
 1541              		.section	.text.Chip_I2C_MasterStateHandler,"ax",%progbits
 1542              		.align	2
 1543              		.global	Chip_I2C_MasterStateHandler
 1544              		.code	16
 1545              		.thumb_func
 1546              		.type	Chip_I2C_MasterStateHandler, %function
 1547              	Chip_I2C_MasterStateHandler:
 1548              	.LFB225:
 483:../../lpc_chip_11cxx_lib/src/i2c_11xx.c **** 
 484:../../lpc_chip_11cxx_lib/src/i2c_11xx.c **** /* State change handler for master transfer */
 485:../../lpc_chip_11cxx_lib/src/i2c_11xx.c **** void Chip_I2C_MasterStateHandler(I2C_ID_T id)
 486:../../lpc_chip_11cxx_lib/src/i2c_11xx.c **** {
 1549              		.loc 1 486 0
 1550              		.cfi_startproc
 1551              	.LVL116:
 1552 0000 38B5     		push	{r3, r4, r5, lr}	@
 1553              		.cfi_def_cfa_offset 16
 1554              		.cfi_offset 3, -16
 1555              		.cfi_offset 4, -12
 1556              		.cfi_offset 5, -8
 1557              		.cfi_offset 14, -4
 487:../../lpc_chip_11cxx_lib/src/i2c_11xx.c **** 	if (!handleMasterXferState(i2c[id].ip, i2c[id].mXfer)) {
 1558              		.loc 1 487 0
 1559 0002 C300     		lsl	r3, r0, #3	@ tmp118, id,
 1560 0004 074A     		ldr	r2, .L133	@ tmp116,
 1561 0006 1B1A     		sub	r3, r3, r0	@ tmp138, tmp118, id
 1562 0008 9B00     		lsl	r3, r3, #2	@ tmp120, tmp138,
 1563 000a D518     		add	r5, r2, r3	@ tmp127, tmp116, tmp120
 486:../../lpc_chip_11cxx_lib/src/i2c_11xx.c **** {
 1564              		.loc 1 486 0
 1565 000c 041C     		mov	r4, r0	@ id, id
 1566              		.loc 1 487 0
 1567 000e 2969     		ldr	r1, [r5, #16]	@, i2c[_3].mXfer
ARM GAS  /var/folders/f9/8bk2lnw15zn4cbgn6wrnb4lm0000gn/T//cc47W8rL.s 			page 45


 1568 0010 9858     		ldr	r0, [r3, r2]	@ i2c[_3].ip, i2c[_3].ip
 1569              	.LVL117:
 1570 0012 FFF7FEFF 		bl	handleMasterXferState	@
 1571              	.LVL118:
 1572 0016 0028     		cmp	r0, #0	@ D.6792,
 1573 0018 03D1     		bne	.L131	@,
 488:../../lpc_chip_11cxx_lib/src/i2c_11xx.c **** 		i2c[id].mEvent(id, I2C_EVENT_DONE);
 1574              		.loc 1 488 0
 1575 001a AB68     		ldr	r3, [r5, #8]	@ i2c[_3].mEvent, i2c[_3].mEvent
 1576 001c 201C     		mov	r0, r4	@, id
 1577 001e 0221     		mov	r1, #2	@,
 1578 0020 9847     		blx	r3	@ i2c[_3].mEvent
 1579              	.LVL119:
 1580              	.L131:
 489:../../lpc_chip_11cxx_lib/src/i2c_11xx.c **** 	}
 490:../../lpc_chip_11cxx_lib/src/i2c_11xx.c **** }
 1581              		.loc 1 490 0
 1582              		@ sp needed	@
 1583 0022 38BD     		pop	{r3, r4, r5, pc}
 1584              	.L134:
 1585              		.align	2
 1586              	.L133:
 1587 0024 00000000 		.word	.LANCHOR0
 1588              		.cfi_endproc
 1589              	.LFE225:
 1590              		.size	Chip_I2C_MasterStateHandler, .-Chip_I2C_MasterStateHandler
 1591              		.section	.text.Chip_I2C_EventHandlerPolling,"ax",%progbits
 1592              		.align	2
 1593              		.global	Chip_I2C_EventHandlerPolling
 1594              		.code	16
 1595              		.thumb_func
 1596              		.type	Chip_I2C_EventHandlerPolling, %function
 1597              	Chip_I2C_EventHandlerPolling:
 1598              	.LFB213:
 345:../../lpc_chip_11cxx_lib/src/i2c_11xx.c **** {
 1599              		.loc 1 345 0
 1600              		.cfi_startproc
 1601              	.LVL120:
 1602 0000 F0B5     		push	{r4, r5, r6, r7, lr}	@
 1603              		.cfi_def_cfa_offset 20
 1604              		.cfi_offset 4, -20
 1605              		.cfi_offset 5, -16
 1606              		.cfi_offset 6, -12
 1607              		.cfi_offset 7, -8
 1608              		.cfi_offset 14, -4
 1609 0002 4746     		mov	r7, r8	@,
 1610 0004 80B4     		push	{r7}	@
 1611              		.cfi_def_cfa_offset 24
 1612              		.cfi_offset 8, -24
 345:../../lpc_chip_11cxx_lib/src/i2c_11xx.c **** {
 1613              		.loc 1 345 0
 1614 0006 8046     		mov	r8, r0	@ id, id
 350:../../lpc_chip_11cxx_lib/src/i2c_11xx.c **** 	if (event != I2C_EVENT_WAIT) {
 1615              		.loc 1 350 0
 1616 0008 0129     		cmp	r1, #1	@ event,
 1617 000a 02D0     		beq	.L142	@,
 1618              	.LVL121:
ARM GAS  /var/folders/f9/8bk2lnw15zn4cbgn6wrnb4lm0000gn/T//cc47W8rL.s 			page 46


 1619              	.L135:
 361:../../lpc_chip_11cxx_lib/src/i2c_11xx.c **** }
 1620              		.loc 1 361 0
 1621              		@ sp needed	@
 1622              	.LVL122:
 1623 000c 04BC     		pop	{r2}
 1624 000e 9046     		mov	r8, r2
 1625 0010 F0BD     		pop	{r4, r5, r6, r7, pc}
 1626              	.LVL123:
 1627              	.L142:
 346:../../lpc_chip_11cxx_lib/src/i2c_11xx.c **** 	struct i2c_interface *iic = &i2c[id];
 1628              		.loc 1 346 0
 1629 0012 C700     		lsl	r7, r0, #3	@ tmp136, id,
 1630 0014 084D     		ldr	r5, .L143	@ tmp135,
 1631 0016 3F1A     		sub	r7, r7, r0	@ tmp122, tmp136, id
 1632 0018 BF00     		lsl	r7, r7, #2	@ tmp123, tmp122,
 354:../../lpc_chip_11cxx_lib/src/i2c_11xx.c **** 	stat = &iic->mXfer->status;
 1633              		.loc 1 354 0
 1634 001a EB19     		add	r3, r5, r7	@ tmp124, tmp135, tmp123
 1635 001c 1C69     		ldr	r4, [r3, #16]	@ D.6800, iic_5->mXfer
 1636              	.LVL124:
 1637              	.LBB117:
 1638              	.LBB118:
 491:../../lpc_chip_11cxx_lib/src/i2c_11xx.c **** 
 492:../../lpc_chip_11cxx_lib/src/i2c_11xx.c **** /* Setup slave function */
 493:../../lpc_chip_11cxx_lib/src/i2c_11xx.c **** void Chip_I2C_SlaveSetup(I2C_ID_T id,
 494:../../lpc_chip_11cxx_lib/src/i2c_11xx.c **** 						 I2C_SLAVE_ID sid,
 495:../../lpc_chip_11cxx_lib/src/i2c_11xx.c **** 						 I2C_XFER_T *xfer,
 496:../../lpc_chip_11cxx_lib/src/i2c_11xx.c **** 						 I2C_EVENTHANDLER_T event,
 497:../../lpc_chip_11cxx_lib/src/i2c_11xx.c **** 						 uint8_t addrMask)
 498:../../lpc_chip_11cxx_lib/src/i2c_11xx.c **** {
 499:../../lpc_chip_11cxx_lib/src/i2c_11xx.c **** 	struct i2c_interface *iic = &i2c[id];
 500:../../lpc_chip_11cxx_lib/src/i2c_11xx.c **** 	struct i2c_slave_interface *si2c = &i2c_slave[id][sid];
 501:../../lpc_chip_11cxx_lib/src/i2c_11xx.c **** 	si2c->xfer = xfer;
 502:../../lpc_chip_11cxx_lib/src/i2c_11xx.c **** 	si2c->event = event;
 503:../../lpc_chip_11cxx_lib/src/i2c_11xx.c **** 
 504:../../lpc_chip_11cxx_lib/src/i2c_11xx.c **** 	/* Set up the slave address */
 505:../../lpc_chip_11cxx_lib/src/i2c_11xx.c **** 	if (sid != I2C_SLAVE_GENERAL) {
 506:../../lpc_chip_11cxx_lib/src/i2c_11xx.c **** 		setSlaveAddr(iic->ip, sid, xfer->slaveAddr, addrMask);
 507:../../lpc_chip_11cxx_lib/src/i2c_11xx.c **** 	}
 508:../../lpc_chip_11cxx_lib/src/i2c_11xx.c **** 
 509:../../lpc_chip_11cxx_lib/src/i2c_11xx.c **** 	if (!SLAVE_ACTIVE(iic) && !iic->mXfer) {
 510:../../lpc_chip_11cxx_lib/src/i2c_11xx.c **** 		startSlaverXfer(iic->ip);
 511:../../lpc_chip_11cxx_lib/src/i2c_11xx.c **** 	}
 512:../../lpc_chip_11cxx_lib/src/i2c_11xx.c **** 	iic->flags |= 1 << (sid + 8);
 513:../../lpc_chip_11cxx_lib/src/i2c_11xx.c **** }
 514:../../lpc_chip_11cxx_lib/src/i2c_11xx.c **** 
 515:../../lpc_chip_11cxx_lib/src/i2c_11xx.c **** /* I2C Slave event handler */
 516:../../lpc_chip_11cxx_lib/src/i2c_11xx.c **** void Chip_I2C_SlaveStateHandler(I2C_ID_T id)
 517:../../lpc_chip_11cxx_lib/src/i2c_11xx.c **** {
 518:../../lpc_chip_11cxx_lib/src/i2c_11xx.c **** 	int ret;
 519:../../lpc_chip_11cxx_lib/src/i2c_11xx.c **** 	struct i2c_interface *iic = &i2c[id];
 520:../../lpc_chip_11cxx_lib/src/i2c_11xx.c **** 
 521:../../lpc_chip_11cxx_lib/src/i2c_11xx.c **** 	/* Get the currently addressed slave */
 522:../../lpc_chip_11cxx_lib/src/i2c_11xx.c **** 	if (!iic->sXfer) {
 523:../../lpc_chip_11cxx_lib/src/i2c_11xx.c **** 		struct i2c_slave_interface *si2c;
 524:../../lpc_chip_11cxx_lib/src/i2c_11xx.c **** 
ARM GAS  /var/folders/f9/8bk2lnw15zn4cbgn6wrnb4lm0000gn/T//cc47W8rL.s 			page 47


 525:../../lpc_chip_11cxx_lib/src/i2c_11xx.c **** 		I2C_SLAVE_ID sid = getSlaveIndex(iic->ip);
 526:../../lpc_chip_11cxx_lib/src/i2c_11xx.c **** 		si2c = &i2c_slave[id][sid];
 527:../../lpc_chip_11cxx_lib/src/i2c_11xx.c **** 		iic->sXfer = si2c->xfer;
 528:../../lpc_chip_11cxx_lib/src/i2c_11xx.c **** 		iic->sEvent = si2c->event;
 529:../../lpc_chip_11cxx_lib/src/i2c_11xx.c **** 	}
 530:../../lpc_chip_11cxx_lib/src/i2c_11xx.c **** 
 531:../../lpc_chip_11cxx_lib/src/i2c_11xx.c **** 	iic->sXfer->slaveAddr |= iic->mXfer != 0;
 532:../../lpc_chip_11cxx_lib/src/i2c_11xx.c **** 	ret = handleSlaveXferState(iic->ip, iic->sXfer);
 533:../../lpc_chip_11cxx_lib/src/i2c_11xx.c **** 	if (ret) {
 534:../../lpc_chip_11cxx_lib/src/i2c_11xx.c **** 		if (iic->sXfer->status == I2C_STATUS_DONE) {
 535:../../lpc_chip_11cxx_lib/src/i2c_11xx.c **** 			iic->sXfer = 0;
 536:../../lpc_chip_11cxx_lib/src/i2c_11xx.c **** 		}
 537:../../lpc_chip_11cxx_lib/src/i2c_11xx.c **** 		iic->sEvent(id, (I2C_EVENT_T) ret);
 538:../../lpc_chip_11cxx_lib/src/i2c_11xx.c **** 	}
 539:../../lpc_chip_11cxx_lib/src/i2c_11xx.c **** }
 540:../../lpc_chip_11cxx_lib/src/i2c_11xx.c **** 
 541:../../lpc_chip_11cxx_lib/src/i2c_11xx.c **** /* Disable I2C device */
 542:../../lpc_chip_11cxx_lib/src/i2c_11xx.c **** void Chip_I2C_Disable(I2C_ID_T id)
 543:../../lpc_chip_11cxx_lib/src/i2c_11xx.c **** {
 544:../../lpc_chip_11cxx_lib/src/i2c_11xx.c **** 	LPC_I2Cx(id)->CONCLR = I2C_I2CONCLR_I2ENC;
 545:../../lpc_chip_11cxx_lib/src/i2c_11xx.c **** }
 546:../../lpc_chip_11cxx_lib/src/i2c_11xx.c **** 
 547:../../lpc_chip_11cxx_lib/src/i2c_11xx.c **** /* State change checking */
 548:../../lpc_chip_11cxx_lib/src/i2c_11xx.c **** int Chip_I2C_IsStateChanged(I2C_ID_T id)
 549:../../lpc_chip_11cxx_lib/src/i2c_11xx.c **** {
 550:../../lpc_chip_11cxx_lib/src/i2c_11xx.c **** 	return (LPC_I2Cx(id)->CONSET & I2C_CON_SI) != 0;
 1639              		.loc 1 550 0
 1640 001e 0826     		mov	r6, #8	@ tmp142,
 1641              	.LVL125:
 1642              	.L139:
 1643              	.LBE118:
 1644              	.LBE117:
 356:../../lpc_chip_11cxx_lib/src/i2c_11xx.c **** 	while (*stat == I2C_STATUS_BUSY) {
 1645              		.loc 1 356 0 discriminator 1
 1646 0020 237D     		ldrb	r3, [r4, #20]	@ MEM[(volatile I2C_STATUS_T *)_8 + 20B], MEM[(volatile I2C_STATUS_T *)_8 + 20B
 1647 0022 042B     		cmp	r3, #4	@ MEM[(volatile I2C_STATUS_T *)_8 + 20B],
 1648 0024 F2D1     		bne	.L135	@,
 1649              	.LVL126:
 1650              	.LBB120:
 1651              	.LBB119:
 1652              		.loc 1 550 0
 1653 0026 EB59     		ldr	r3, [r5, r7]	@ D.6802, i2c[_4].ip
 1654 0028 1B68     		ldr	r3, [r3]	@ D.6803, _13->CONSET
 1655              	.LBE119:
 1656              	.LBE120:
 357:../../lpc_chip_11cxx_lib/src/i2c_11xx.c **** 		if (Chip_I2C_IsStateChanged(id)) {
 1657              		.loc 1 357 0
 1658 002a 1E42     		tst	r6, r3	@ tmp142, D.6803
 1659 002c F8D0     		beq	.L139	@,
 358:../../lpc_chip_11cxx_lib/src/i2c_11xx.c **** 			Chip_I2C_MasterStateHandler(id);
 1660              		.loc 1 358 0
 1661 002e 4046     		mov	r0, r8	@, id
 1662 0030 FFF7FEFF 		bl	Chip_I2C_MasterStateHandler	@
 1663              	.LVL127:
 1664 0034 F4E7     		b	.L139	@
 1665              	.L144:
 1666 0036 C046     		.align	2
ARM GAS  /var/folders/f9/8bk2lnw15zn4cbgn6wrnb4lm0000gn/T//cc47W8rL.s 			page 48


 1667              	.L143:
 1668 0038 00000000 		.word	.LANCHOR0
 1669              		.cfi_endproc
 1670              	.LFE213:
 1671              		.size	Chip_I2C_EventHandlerPolling, .-Chip_I2C_EventHandlerPolling
 1672              		.section	.text.Chip_I2C_SlaveSetup,"ax",%progbits
 1673              		.align	2
 1674              		.global	Chip_I2C_SlaveSetup
 1675              		.code	16
 1676              		.thumb_func
 1677              		.type	Chip_I2C_SlaveSetup, %function
 1678              	Chip_I2C_SlaveSetup:
 1679              	.LFB226:
 498:../../lpc_chip_11cxx_lib/src/i2c_11xx.c **** {
 1680              		.loc 1 498 0
 1681              		.cfi_startproc
 1682              	.LVL128:
 1683 0000 70B5     		push	{r4, r5, r6, lr}	@
 1684              		.cfi_def_cfa_offset 16
 1685              		.cfi_offset 4, -16
 1686              		.cfi_offset 5, -12
 1687              		.cfi_offset 6, -8
 1688              		.cfi_offset 14, -4
 498:../../lpc_chip_11cxx_lib/src/i2c_11xx.c **** {
 1689              		.loc 1 498 0
 1690 0002 04AC     		add	r4, sp, #16	@ tmp138,,
 1691              	.LVL129:
 1692 0004 2678     		ldrb	r6, [r4]	@ addrMask, addrMask
 499:../../lpc_chip_11cxx_lib/src/i2c_11xx.c **** 	struct i2c_interface *iic = &i2c[id];
 1693              		.loc 1 499 0
 1694 0006 C400     		lsl	r4, r0, #3	@ tmp141, id,
 1695              	.LVL130:
 1696 0008 241A     		sub	r4, r4, r0	@ tmp142, tmp141, id
 1697 000a 184D     		ldr	r5, .L154	@ tmp139,
 1698 000c A400     		lsl	r4, r4, #2	@ tmp143, tmp142,
 1699 000e 2C19     		add	r4, r5, r4	@ iic, tmp139, tmp143
 1700              	.LVL131:
 500:../../lpc_chip_11cxx_lib/src/i2c_11xx.c **** 	struct i2c_slave_interface *si2c = &i2c_slave[id][sid];
 1701              		.loc 1 500 0
 1702 0010 8500     		lsl	r5, r0, #2	@ tmp146, id,
 1703 0012 2818     		add	r0, r5, r0	@ tmp147, tmp146, id
 1704              	.LVL132:
 1705 0014 4018     		add	r0, r0, r1	@ tmp148, tmp147, sid
 1706 0016 164D     		ldr	r5, .L154+4	@ tmp144,
 1707 0018 C000     		lsl	r0, r0, #3	@ tmp149, tmp148,
 1708 001a 2818     		add	r0, r5, r0	@ si2c, tmp144, tmp149
 1709              	.LVL133:
 502:../../lpc_chip_11cxx_lib/src/i2c_11xx.c **** 	si2c->event = event;
 1710              		.loc 1 502 0
 1711 001c 0CC0     		stmia	r0!, {r2, r3}	@,,
 1712              	.LVL134:
 505:../../lpc_chip_11cxx_lib/src/i2c_11xx.c **** 	if (sid != I2C_SLAVE_GENERAL) {
 1713              		.loc 1 505 0
 1714 001e 0029     		cmp	r1, #0	@ sid,
 1715 0020 0DD0     		beq	.L146	@,
 1716              	.LBB121:
 1717              	.LBB122:
ARM GAS  /var/folders/f9/8bk2lnw15zn4cbgn6wrnb4lm0000gn/T//cc47W8rL.s 			page 49


 135:../../lpc_chip_11cxx_lib/src/i2c_11xx.c **** 	pI2C->MASK[index] = mask;
 1718              		.loc 1 135 0
 1719 0022 081C     		mov	r0, r1	@ tmp150, sid
 1720              	.LVL135:
 1721              	.LBE122:
 1722              	.LBE121:
 506:../../lpc_chip_11cxx_lib/src/i2c_11xx.c **** 		setSlaveAddr(iic->ip, sid, xfer->slaveAddr, addrMask);
 1723              		.loc 1 506 0
 1724 0024 2368     		ldr	r3, [r4]	@ D.6808, iic_5->ip
 1725              	.LVL136:
 1726              	.LBB127:
 1727              	.LBB124:
 135:../../lpc_chip_11cxx_lib/src/i2c_11xx.c **** 	pI2C->MASK[index] = mask;
 1728              		.loc 1 135 0
 1729 0026 0B30     		add	r0, r0, #11	@ tmp150,
 1730 0028 8000     		lsl	r0, r0, #2	@ tmp151, tmp150,
 1731              	.LBE124:
 1732              	.LBE127:
 506:../../lpc_chip_11cxx_lib/src/i2c_11xx.c **** 		setSlaveAddr(iic->ip, sid, xfer->slaveAddr, addrMask);
 1733              		.loc 1 506 0
 1734 002a 1278     		ldrb	r2, [r2]	@ D.6809, *xfer_10(D)
 1735              	.LVL137:
 1736              	.LBB128:
 1737              	.LBB125:
 135:../../lpc_chip_11cxx_lib/src/i2c_11xx.c **** 	pI2C->MASK[index] = mask;
 1738              		.loc 1 135 0
 1739 002c C650     		str	r6, [r0, r3]	@ addrMask, _14->MASK
 136:../../lpc_chip_11cxx_lib/src/i2c_11xx.c **** 	if (sid == I2C_SLAVE_0) {
 1740              		.loc 1 136 0
 1741 002e 0129     		cmp	r1, #1	@ sid,
 1742 0030 13D0     		beq	.L152	@,
 1743              	.LVL138:
 1744              	.LBB123:
 141:../../lpc_chip_11cxx_lib/src/i2c_11xx.c **** 		abase[index - 1] = addr;
 1745              		.loc 1 141 0
 1746 0032 104D     		ldr	r5, .L154+8	@,
 140:../../lpc_chip_11cxx_lib/src/i2c_11xx.c **** 		volatile uint32_t *abase = &pI2C->ADR1;
 1747              		.loc 1 140 0
 1748 0034 2033     		add	r3, r3, #32	@ abase,
 1749              	.LVL139:
 141:../../lpc_chip_11cxx_lib/src/i2c_11xx.c **** 		abase[index - 1] = addr;
 1750              		.loc 1 141 0
 1751 0036 4819     		add	r0, r1, r5	@ D.6812, sid,
 1752 0038 8000     		lsl	r0, r0, #2	@ D.6812, D.6812,
 1753 003a 1B18     		add	r3, r3, r0	@ D.6813, abase, D.6812
 1754              	.LVL140:
 1755 003c 1A60     		str	r2, [r3]	@ D.6809, *_35
 1756              	.LVL141:
 1757              	.L146:
 1758              	.LBE123:
 1759              	.LBE125:
 1760              	.LBE128:
 509:../../lpc_chip_11cxx_lib/src/i2c_11xx.c **** 	if (!SLAVE_ACTIVE(iic) && !iic->mXfer) {
 1761              		.loc 1 509 0
 1762 003e FF22     		mov	r2, #255	@ tmp164,
 1763 0040 A369     		ldr	r3, [r4, #24]	@ D.6810, iic_5->flags
 1764 0042 1202     		lsl	r2, r2, #8	@ tmp156, tmp164,
ARM GAS  /var/folders/f9/8bk2lnw15zn4cbgn6wrnb4lm0000gn/T//cc47W8rL.s 			page 50


 1765 0044 1342     		tst	r3, r2	@ D.6810, tmp156
 1766 0046 02D1     		bne	.L148	@,
 509:../../lpc_chip_11cxx_lib/src/i2c_11xx.c **** 	if (!SLAVE_ACTIVE(iic) && !iic->mXfer) {
 1767              		.loc 1 509 0 is_stmt 0 discriminator 1
 1768 0048 2269     		ldr	r2, [r4, #16]	@, iic_5->mXfer
 1769 004a 002A     		cmp	r2, #0	@,
 1770 004c 07D0     		beq	.L153	@,
 1771              	.L148:
 512:../../lpc_chip_11cxx_lib/src/i2c_11xx.c **** 	iic->flags |= 1 << (sid + 8);
 1772              		.loc 1 512 0 is_stmt 1
 1773 004e 0831     		add	r1, r1, #8	@ D.6807,
 1774              	.LVL142:
 1775 0050 0122     		mov	r2, #1	@ tmp162,
 1776 0052 8A40     		lsl	r2, r2, r1	@ tmp162, tmp162, D.6807
 1777 0054 1343     		orr	r3, r2	@ D.6810, D.6807
 1778 0056 A361     		str	r3, [r4, #24]	@ D.6810, iic_5->flags
 513:../../lpc_chip_11cxx_lib/src/i2c_11xx.c **** }
 1779              		.loc 1 513 0
 1780              		@ sp needed	@
 1781              	.LVL143:
 1782 0058 70BD     		pop	{r4, r5, r6, pc}
 1783              	.LVL144:
 1784              	.L152:
 1785              	.LBB129:
 1786              	.LBB126:
 137:../../lpc_chip_11cxx_lib/src/i2c_11xx.c **** 		pI2C->ADR0 = addr;
 1787              		.loc 1 137 0
 1788 005a DA60     		str	r2, [r3, #12]	@ D.6809, _14->ADR0
 1789 005c EFE7     		b	.L146	@
 1790              	.LVL145:
 1791              	.L153:
 1792              	.LBE126:
 1793              	.LBE129:
 510:../../lpc_chip_11cxx_lib/src/i2c_11xx.c **** 		startSlaverXfer(iic->ip);
 1794              		.loc 1 510 0
 1795 005e 2268     		ldr	r2, [r4]	@ D.6808, iic_5->ip
 1796              	.LVL146:
 1797              	.LBB130:
 1798              	.LBB131:
 107:../../lpc_chip_11cxx_lib/src/i2c_11xx.c **** 	pI2C->CONCLR = I2C_CON_SI | I2C_CON_STO | I2C_CON_STA;
 1799              		.loc 1 107 0
 1800 0060 3820     		mov	r0, #56	@ tmp158,
 1801 0062 9061     		str	r0, [r2, #24]	@ tmp158, _21->CONCLR
 110:../../lpc_chip_11cxx_lib/src/i2c_11xx.c **** 	pI2C->CONSET = I2C_CON_I2EN | I2C_CON_AA;
 1802              		.loc 1 110 0
 1803 0064 4420     		mov	r0, #68	@ tmp159,
 1804 0066 1060     		str	r0, [r2]	@ tmp159, _21->CONSET
 1805 0068 F1E7     		b	.L148	@
 1806              	.L155:
 1807 006a C046     		.align	2
 1808              	.L154:
 1809 006c 00000000 		.word	.LANCHOR0
 1810 0070 00000000 		.word	.LANCHOR1
 1811 0074 FEFFFF3F 		.word	1073741822
 1812              	.LBE131:
 1813              	.LBE130:
 1814              		.cfi_endproc
ARM GAS  /var/folders/f9/8bk2lnw15zn4cbgn6wrnb4lm0000gn/T//cc47W8rL.s 			page 51


 1815              	.LFE226:
 1816              		.size	Chip_I2C_SlaveSetup, .-Chip_I2C_SlaveSetup
 1817              		.section	.text.Chip_I2C_SlaveStateHandler,"ax",%progbits
 1818              		.align	2
 1819              		.global	Chip_I2C_SlaveStateHandler
 1820              		.code	16
 1821              		.thumb_func
 1822              		.type	Chip_I2C_SlaveStateHandler, %function
 1823              	Chip_I2C_SlaveStateHandler:
 1824              	.LFB227:
 517:../../lpc_chip_11cxx_lib/src/i2c_11xx.c **** {
 1825              		.loc 1 517 0
 1826              		.cfi_startproc
 1827              	.LVL147:
 1828 0000 38B5     		push	{r3, r4, r5, lr}	@
 1829              		.cfi_def_cfa_offset 16
 1830              		.cfi_offset 3, -16
 1831              		.cfi_offset 4, -12
 1832              		.cfi_offset 5, -8
 1833              		.cfi_offset 14, -4
 519:../../lpc_chip_11cxx_lib/src/i2c_11xx.c **** 	struct i2c_interface *iic = &i2c[id];
 1834              		.loc 1 519 0
 1835 0002 C400     		lsl	r4, r0, #3	@ tmp135, id,
 1836 0004 164B     		ldr	r3, .L165	@ tmp133,
 1837 0006 241A     		sub	r4, r4, r0	@ tmp136, tmp135, id
 1838 0008 A400     		lsl	r4, r4, #2	@ tmp137, tmp136,
 1839 000a 1C19     		add	r4, r3, r4	@ iic, tmp133, tmp137
 1840              	.LVL148:
 522:../../lpc_chip_11cxx_lib/src/i2c_11xx.c **** 	if (!iic->sXfer) {
 1841              		.loc 1 522 0
 1842 000c 6369     		ldr	r3, [r4, #20]	@ D.6819, iic_6->sXfer
 517:../../lpc_chip_11cxx_lib/src/i2c_11xx.c **** {
 1843              		.loc 1 517 0
 1844 000e 051C     		mov	r5, r0	@ id, id
 522:../../lpc_chip_11cxx_lib/src/i2c_11xx.c **** 	if (!iic->sXfer) {
 1845              		.loc 1 522 0
 1846 0010 002B     		cmp	r3, #0	@ D.6819,
 1847 0012 16D0     		beq	.L163	@,
 1848              	.LVL149:
 1849              	.L157:
 531:../../lpc_chip_11cxx_lib/src/i2c_11xx.c **** 	iic->sXfer->slaveAddr |= iic->mXfer != 0;
 1850              		.loc 1 531 0
 1851 0014 2169     		ldr	r1, [r4, #16]	@ tmp150, iic_6->mXfer
 1852 0016 4A1E     		sub	r2, r1, #1	@ tmp151, tmp150
 1853 0018 9141     		sbc	r1, r1, r2	@ tmp150, tmp150, tmp151
 1854 001a 1A78     		ldrb	r2, [r3]	@ *_49, *_49
 1855 001c 0A43     		orr	r2, r1	@ tmp154, tmp150
 1856 001e 1A70     		strb	r2, [r3]	@ tmp154, _49->slaveAddr
 532:../../lpc_chip_11cxx_lib/src/i2c_11xx.c **** 	ret = handleSlaveXferState(iic->ip, iic->sXfer);
 1857              		.loc 1 532 0
 1858 0020 2068     		ldr	r0, [r4]	@, iic_6->ip
 1859 0022 6169     		ldr	r1, [r4, #20]	@, iic_6->sXfer
 1860 0024 FFF7FEFF 		bl	handleSlaveXferState	@
 1861              	.LVL150:
 533:../../lpc_chip_11cxx_lib/src/i2c_11xx.c **** 	if (ret) {
 1862              		.loc 1 533 0
 1863 0028 0028     		cmp	r0, #0	@ ret,
ARM GAS  /var/folders/f9/8bk2lnw15zn4cbgn6wrnb4lm0000gn/T//cc47W8rL.s 			page 52


 1864 002a 07D0     		beq	.L156	@,
 534:../../lpc_chip_11cxx_lib/src/i2c_11xx.c **** 		if (iic->sXfer->status == I2C_STATUS_DONE) {
 1865              		.loc 1 534 0
 1866 002c 6269     		ldr	r2, [r4, #20]	@, iic_6->sXfer
 1867 002e 137D     		ldrb	r3, [r2, #20]	@ tmp159,
 1868 0030 002B     		cmp	r3, #0	@ tmp159,
 1869 0032 04D0     		beq	.L164	@,
 1870              	.L159:
 537:../../lpc_chip_11cxx_lib/src/i2c_11xx.c **** 		iic->sEvent(id, (I2C_EVENT_T) ret);
 1871              		.loc 1 537 0
 1872 0034 C1B2     		uxtb	r1, r0	@ ret, ret
 1873 0036 E368     		ldr	r3, [r4, #12]	@ iic_6->sEvent, iic_6->sEvent
 1874 0038 281C     		mov	r0, r5	@, id
 1875              	.LVL151:
 1876 003a 9847     		blx	r3	@ iic_6->sEvent
 1877              	.LVL152:
 1878              	.L156:
 539:../../lpc_chip_11cxx_lib/src/i2c_11xx.c **** }
 1879              		.loc 1 539 0
 1880              		@ sp needed	@
 1881              	.LVL153:
 1882              	.LVL154:
 1883 003c 38BD     		pop	{r3, r4, r5, pc}
 1884              	.LVL155:
 1885              	.L164:
 535:../../lpc_chip_11cxx_lib/src/i2c_11xx.c **** 			iic->sXfer = 0;
 1886              		.loc 1 535 0
 1887 003e 6361     		str	r3, [r4, #20]	@ tmp159, iic_6->sXfer
 1888 0040 F8E7     		b	.L159	@
 1889              	.LVL156:
 1890              	.L163:
 1891              	.LBB132:
 525:../../lpc_chip_11cxx_lib/src/i2c_11xx.c **** 		I2C_SLAVE_ID sid = getSlaveIndex(iic->ip);
 1892              		.loc 1 525 0
 1893 0042 2068     		ldr	r0, [r4]	@, iic_6->ip
 1894              	.LVL157:
 1895 0044 FFF7FEFF 		bl	getSlaveIndex	@
 1896              	.LVL158:
 526:../../lpc_chip_11cxx_lib/src/i2c_11xx.c **** 		si2c = &i2c_slave[id][sid];
 1897              		.loc 1 526 0
 1898 0048 AA00     		lsl	r2, r5, #2	@ tmp143, id,
 1899 004a 5219     		add	r2, r2, r5	@ tmp144, tmp143, id
 1900 004c 054B     		ldr	r3, .L165+4	@ tmp141,
 1901 004e 1218     		add	r2, r2, r0	@ tmp145, tmp144, tmp139
 1902 0050 D200     		lsl	r2, r2, #3	@ tmp146, tmp145,
 1903 0052 9A18     		add	r2, r3, r2	@ si2c, tmp141, tmp146
 1904              	.LVL159:
 527:../../lpc_chip_11cxx_lib/src/i2c_11xx.c **** 		iic->sXfer = si2c->xfer;
 1905              		.loc 1 527 0
 1906 0054 1368     		ldr	r3, [r2]	@ D.6819, si2c_13->xfer
 528:../../lpc_chip_11cxx_lib/src/i2c_11xx.c **** 		iic->sEvent = si2c->event;
 1907              		.loc 1 528 0
 1908 0056 5268     		ldr	r2, [r2, #4]	@, si2c_13->event
 1909              	.LVL160:
 527:../../lpc_chip_11cxx_lib/src/i2c_11xx.c **** 		iic->sXfer = si2c->xfer;
 1910              		.loc 1 527 0
 1911 0058 6361     		str	r3, [r4, #20]	@ D.6819, iic_6->sXfer
ARM GAS  /var/folders/f9/8bk2lnw15zn4cbgn6wrnb4lm0000gn/T//cc47W8rL.s 			page 53


 528:../../lpc_chip_11cxx_lib/src/i2c_11xx.c **** 		iic->sEvent = si2c->event;
 1912              		.loc 1 528 0
 1913 005a E260     		str	r2, [r4, #12]	@, iic_6->sEvent
 1914 005c DAE7     		b	.L157	@
 1915              	.L166:
 1916 005e C046     		.align	2
 1917              	.L165:
 1918 0060 00000000 		.word	.LANCHOR0
 1919 0064 00000000 		.word	.LANCHOR1
 1920              	.LBE132:
 1921              		.cfi_endproc
 1922              	.LFE227:
 1923              		.size	Chip_I2C_SlaveStateHandler, .-Chip_I2C_SlaveStateHandler
 1924              		.section	.text.Chip_I2C_Disable,"ax",%progbits
 1925              		.align	2
 1926              		.global	Chip_I2C_Disable
 1927              		.code	16
 1928              		.thumb_func
 1929              		.type	Chip_I2C_Disable, %function
 1930              	Chip_I2C_Disable:
 1931              	.LFB228:
 543:../../lpc_chip_11cxx_lib/src/i2c_11xx.c **** {
 1932              		.loc 1 543 0
 1933              		.cfi_startproc
 1934              	.LVL161:
 544:../../lpc_chip_11cxx_lib/src/i2c_11xx.c **** 	LPC_I2Cx(id)->CONCLR = I2C_I2CONCLR_I2ENC;
 1935              		.loc 1 544 0
 1936 0000 C300     		lsl	r3, r0, #3	@ tmp115, id,
 1937 0002 181A     		sub	r0, r3, r0	@ tmp116, tmp115, id
 1938              	.LVL162:
 1939 0004 024B     		ldr	r3, .L168	@ tmp113,
 1940 0006 8000     		lsl	r0, r0, #2	@ tmp117, tmp116,
 1941 0008 C358     		ldr	r3, [r0, r3]	@ D.6832, i2c[_2].ip
 1942 000a 4022     		mov	r2, #64	@ tmp118,
 1943 000c 9A61     		str	r2, [r3, #24]	@ tmp118, _4->CONCLR
 545:../../lpc_chip_11cxx_lib/src/i2c_11xx.c **** }
 1944              		.loc 1 545 0
 1945              		@ sp needed	@
 1946 000e 7047     		bx	lr
 1947              	.L169:
 1948              		.align	2
 1949              	.L168:
 1950 0010 00000000 		.word	.LANCHOR0
 1951              		.cfi_endproc
 1952              	.LFE228:
 1953              		.size	Chip_I2C_Disable, .-Chip_I2C_Disable
 1954              		.section	.text.Chip_I2C_IsStateChanged,"ax",%progbits
 1955              		.align	2
 1956              		.global	Chip_I2C_IsStateChanged
 1957              		.code	16
 1958              		.thumb_func
 1959              		.type	Chip_I2C_IsStateChanged, %function
 1960              	Chip_I2C_IsStateChanged:
 1961              	.LFB229:
 549:../../lpc_chip_11cxx_lib/src/i2c_11xx.c **** {
 1962              		.loc 1 549 0
 1963              		.cfi_startproc
ARM GAS  /var/folders/f9/8bk2lnw15zn4cbgn6wrnb4lm0000gn/T//cc47W8rL.s 			page 54


 1964              	.LVL163:
 1965              		.loc 1 550 0
 1966 0000 C300     		lsl	r3, r0, #3	@ tmp120, id,
 1967 0002 181A     		sub	r0, r3, r0	@ tmp121, tmp120, id
 1968              	.LVL164:
 1969 0004 034B     		ldr	r3, .L171	@ tmp118,
 1970 0006 8000     		lsl	r0, r0, #2	@ tmp122, tmp121,
 1971 0008 C358     		ldr	r3, [r0, r3]	@ D.6837, i2c[_2].ip
 551:../../lpc_chip_11cxx_lib/src/i2c_11xx.c **** }
 1972              		.loc 1 551 0
 1973              		@ sp needed	@
 550:../../lpc_chip_11cxx_lib/src/i2c_11xx.c **** 	return (LPC_I2Cx(id)->CONSET & I2C_CON_SI) != 0;
 1974              		.loc 1 550 0
 1975 000a 1868     		ldr	r0, [r3]	@ D.6838, _4->CONSET
 1976 000c 0007     		lsl	r0, r0, #28	@ tmp125, D.6838,
 1977 000e C00F     		lsr	r0, r0, #31	@ D.6839, tmp125,
 1978              		.loc 1 551 0
 1979 0010 7047     		bx	lr
 1980              	.L172:
 1981 0012 C046     		.align	2
 1982              	.L171:
 1983 0014 00000000 		.word	.LANCHOR0
 1984              		.cfi_endproc
 1985              	.LFE229:
 1986              		.size	Chip_I2C_IsStateChanged, .-Chip_I2C_IsStateChanged
 1987              		.section	.data.i2c,"aw",%progbits
 1988              		.align	2
 1989              		.set	.LANCHOR0,. + 0
 1990              		.type	i2c, %object
 1991              		.size	i2c, 28
 1992              	i2c:
 1993              	@ ip:
 1994 0000 00000040 		.word	1073741824
 1995              	@ clk:
 1996 0004 05       		.byte	5
 1997              	@ mEvent:
 1998 0005 000000   		.space	3
 1999 0008 00000000 		.word	Chip_I2C_EventHandler
 2000              	@ sEvent:
 2001 000c 00000000 		.word	0
 2002              	@ mXfer:
 2003 0010 00000000 		.word	0
 2004              	@ sXfer:
 2005 0014 00000000 		.word	0
 2006              	@ flags:
 2007 0018 00000000 		.word	0
 2008              		.section	.bss.i2c_slave,"aw",%nobits
 2009              		.align	2
 2010              		.set	.LANCHOR1,. + 0
 2011              		.type	i2c_slave, %object
 2012              		.size	i2c_slave, 40
 2013              	i2c_slave:
 2014 0000 00000000 		.space	40
 2014      00000000 
 2014      00000000 
 2014      00000000 
 2014      00000000 
ARM GAS  /var/folders/f9/8bk2lnw15zn4cbgn6wrnb4lm0000gn/T//cc47W8rL.s 			page 55


 2015              		.text
 2016              	.Letext0:
 2017              		.file 3 "/usr/local/Cellar/gcc-arm-none-eabi/20140805/arm-none-eabi/include/machine/_default_types
 2018              		.file 4 "/usr/local/Cellar/gcc-arm-none-eabi/20140805/arm-none-eabi/include/stdint.h"
 2019              		.file 5 "../../lpc_chip_11cxx_lib/inc/sysctl_11xx.h"
 2020              		.file 6 "../../lpc_chip_11cxx_lib/inc/i2c_11xx.h"
 2021              		.file 7 "../../lpc_chip_11cxx_lib/inc/chip.h"