ARM GAS  /var/folders/f9/8bk2lnw15zn4cbgn6wrnb4lm0000gn/T//cc1V3B8l.s 			page 1


   1              		.cpu cortex-m0
   2              		.fpu softvfp
   3              		.eabi_attribute 20, 1	@ Tag_ABI_FP_denormal
   4              		.eabi_attribute 21, 1	@ Tag_ABI_FP_exceptions
   5              		.eabi_attribute 23, 3	@ Tag_ABI_FP_number_model
   6              		.eabi_attribute 24, 1	@ Tag_ABI_align8_needed
   7              		.eabi_attribute 25, 1	@ Tag_ABI_align8_preserved
   8              		.eabi_attribute 26, 1	@ Tag_ABI_enum_size
   9              		.eabi_attribute 30, 2	@ Tag_ABI_optimization_goals
  10              		.eabi_attribute 34, 0	@ Tag_CPU_unaligned_access
  11              		.eabi_attribute 18, 4	@ Tag_ABI_PCS_wchar_t
  12              		.file	"mcp2515.c"
  13              	@ GNU C (GNU Tools for ARM Embedded Processors) version 4.8.4 20140725 (release) [ARM/embedded-4_8-
  14              	@	compiled by GNU C version 4.2.1 (Based on Apple Inc. build 5658) (LLVM build 2336.9.00), GMP vers
  15              	@ GGC heuristics: --param ggc-min-expand=100 --param ggc-min-heapsize=131072
  16              	@ options passed:  -I . -I ../../lpc_chip_11cxx_lib/inc
  17              	@ -I ../../evt_lib/inc -imultilib armv6-m
  18              	@ -iprefix /usr/local/Cellar/gcc-arm-none-eabi/20140805/bin/../lib/gcc/arm-none-eabi/4.8.4/
  19              	@ -isysroot /usr/local/Cellar/gcc-arm-none-eabi/20140805/bin/../arm-none-eabi
  20              	@ -MD bin/mcp2515.d -MF bin/mcp2515.d -MP -MQ bin/mcp2515.o
  21              	@ -D__USES_INITFINI__ -D CORE_M0 ../../evt_lib/src/mcp2515.c
  22              	@ -mcpu=cortex-m0 -mthumb -auxbase-strip bin/mcp2515.o -g -ggdb3 -O2 -Wall
  23              	@ -Wstrict-prototypes -Wextra -std=gnu90 -ffunction-sections
  24              	@ -fdata-sections -fverbose-asm
  25              	@ options enabled:  -faggressive-loop-optimizations -fauto-inc-dec
  26              	@ -fbranch-count-reg -fcaller-saves -fcombine-stack-adjustments -fcommon
  27              	@ -fcompare-elim -fcprop-registers -fcrossjumping -fcse-follow-jumps
  28              	@ -fdata-sections -fdefer-pop -fdelete-null-pointer-checks -fdevirtualize
  29              	@ -fdwarf2-cfi-asm -fearly-inlining -feliminate-unused-debug-types
  30              	@ -fexpensive-optimizations -fforward-propagate -ffunction-cse
  31              	@ -ffunction-sections -fgcse -fgcse-lm -fgnu-runtime -fgnu-unique
  32              	@ -fguess-branch-probability -fhoist-adjacent-loads -fident -fif-conversion
  33              	@ -fif-conversion2 -findirect-inlining -finline -finline-atomics
  34              	@ -finline-functions-called-once -finline-small-functions -fipa-cp
  35              	@ -fipa-profile -fipa-pure-const -fipa-reference -fipa-sra
  36              	@ -fira-hoist-pressure -fira-share-save-slots -fira-share-spill-slots
  37              	@ -fivopts -fkeep-static-consts -fleading-underscore -fmath-errno
  38              	@ -fmerge-constants -fmerge-debug-strings -fmove-loop-invariants
  39              	@ -fomit-frame-pointer -foptimize-register-move -foptimize-sibling-calls
  40              	@ -foptimize-strlen -fpartial-inlining -fpeephole -fpeephole2
  41              	@ -fprefetch-loop-arrays -freg-struct-return -fregmove -freorder-blocks
  42              	@ -freorder-functions -frerun-cse-after-loop
  43              	@ -fsched-critical-path-heuristic -fsched-dep-count-heuristic
  44              	@ -fsched-group-heuristic -fsched-interblock -fsched-last-insn-heuristic
  45              	@ -fsched-pressure -fsched-rank-heuristic -fsched-spec
  46              	@ -fsched-spec-insn-heuristic -fsched-stalled-insns-dep -fschedule-insns2
  47              	@ -fsection-anchors -fshow-column -fshrink-wrap -fsigned-zeros
  48              	@ -fsplit-ivs-in-unroller -fsplit-wide-types -fstrict-aliasing
  49              	@ -fstrict-overflow -fstrict-volatile-bitfields -fsync-libcalls
  50              	@ -fthread-jumps -ftoplevel-reorder -ftrapping-math -ftree-bit-ccp
  51              	@ -ftree-builtin-call-dce -ftree-ccp -ftree-ch -ftree-coalesce-vars
  52              	@ -ftree-copy-prop -ftree-copyrename -ftree-cselim -ftree-dce
  53              	@ -ftree-dominator-opts -ftree-dse -ftree-forwprop -ftree-fre
  54              	@ -ftree-loop-if-convert -ftree-loop-im -ftree-loop-ivcanon
  55              	@ -ftree-loop-optimize -ftree-parallelize-loops= -ftree-phiprop -ftree-pre
  56              	@ -ftree-pta -ftree-reassoc -ftree-scev-cprop -ftree-sink
  57              	@ -ftree-slp-vectorize -ftree-slsr -ftree-sra -ftree-switch-conversion
ARM GAS  /var/folders/f9/8bk2lnw15zn4cbgn6wrnb4lm0000gn/T//cc1V3B8l.s 			page 2


  58              	@ -ftree-tail-merge -ftree-ter -ftree-vect-loop-version -ftree-vrp
  59              	@ -funit-at-a-time -fvar-tracking -fvar-tracking-assignments -fverbose-asm
  60              	@ -fzero-initialized-in-bss -mlittle-endian -mpic-data-is-text-relative
  61              	@ -msched-prolog -mthumb -mvectorize-with-neon-quad
  62              	
  63              		.text
  64              	.Ltext0:
  65              		.cfi_sections	.debug_frame
  66              		.section	.text.MCP2515_Init,"ax",%progbits
  67              		.align	2
  68              		.global	MCP2515_Init
  69              		.code	16
  70              		.thumb_func
  71              		.type	MCP2515_Init, %function
  72              	MCP2515_Init:
  73              	.LFB198:
  74              		.file 1 "../../evt_lib/src/mcp2515.c"
   1:../../evt_lib/src/mcp2515.c **** #include "chip.h"
   2:../../evt_lib/src/mcp2515.c **** #include "mcp2515.h"
   3:../../evt_lib/src/mcp2515.c **** #include "util.h"
   4:../../evt_lib/src/mcp2515.c **** 
   5:../../evt_lib/src/mcp2515.c **** #define BUFFER_SIZE                         (256)
   6:../../evt_lib/src/mcp2515.c **** 
   7:../../evt_lib/src/mcp2515.c **** #define set_gpio_pin_output(gpio, pin) (Chip_GPIO_WriteDirBit(LPC_GPIO, gpio, pin, true))
   8:../../evt_lib/src/mcp2515.c **** #define set_gpio_pin_input(gpio, pin) (Chip_GPIO_WriteDirBit(LPC_GPIO, gpio, pin, false))
   9:../../evt_lib/src/mcp2515.c **** #define set_gpio_pin_high(gpio, pin) (Chip_GPIO_SetPinState(LPC_GPIO, gpio, pin, true))
  10:../../evt_lib/src/mcp2515.c **** #define set_gpio_pin_low(gpio, pin) (Chip_GPIO_SetPinState(LPC_GPIO, gpio, pin, false))
  11:../../evt_lib/src/mcp2515.c **** 
  12:../../evt_lib/src/mcp2515.c **** 
  13:../../evt_lib/src/mcp2515.c **** /* Tx buffer */
  14:../../evt_lib/src/mcp2515.c **** static uint8_t Tx_Buf[BUFFER_SIZE];
  15:../../evt_lib/src/mcp2515.c **** 
  16:../../evt_lib/src/mcp2515.c **** /* Rx buffer */
  17:../../evt_lib/src/mcp2515.c **** static uint8_t Rx_Buf[BUFFER_SIZE];
  18:../../evt_lib/src/mcp2515.c **** 
  19:../../evt_lib/src/mcp2515.c **** static Chip_SSP_DATA_SETUP_T xf_setup;
  20:../../evt_lib/src/mcp2515.c **** 
  21:../../evt_lib/src/mcp2515.c **** uint8_t _cs_gpio;
  22:../../evt_lib/src/mcp2515.c **** uint8_t _cs_pin;
  23:../../evt_lib/src/mcp2515.c **** uint8_t _int_gpio;
  24:../../evt_lib/src/mcp2515.c **** uint8_t _int_pin;
  25:../../evt_lib/src/mcp2515.c **** 
  26:../../evt_lib/src/mcp2515.c **** void MCP2515_Init(uint8_t cs_gpio, uint8_t cs_pin, uint8_t int_gpio, uint8_t int_pin) {
  75              		.loc 1 26 0
  76              		.cfi_startproc
  77              	.LVL0:
  78 0000 F8B5     		push	{r3, r4, r5, r6, r7, lr}	@
  79              		.cfi_def_cfa_offset 24
  80              		.cfi_offset 3, -24
  81              		.cfi_offset 4, -20
  82              		.cfi_offset 5, -16
  83              		.cfi_offset 6, -12
  84              		.cfi_offset 7, -8
  85              		.cfi_offset 14, -4
  86              		.loc 1 26 0
  87 0002 0F1C     		mov	r7, r1	@ cs_pin, cs_pin
  27:../../evt_lib/src/mcp2515.c **** 	_cs_gpio = cs_gpio;
ARM GAS  /var/folders/f9/8bk2lnw15zn4cbgn6wrnb4lm0000gn/T//cc1V3B8l.s 			page 3


  88              		.loc 1 27 0
  89 0004 0E49     		ldr	r1, .L2	@ tmp118,
  90              	.LVL1:
  28:../../evt_lib/src/mcp2515.c **** 	_cs_pin = cs_pin;
  29:../../evt_lib/src/mcp2515.c **** 
  30:../../evt_lib/src/mcp2515.c **** 	_int_gpio = int_gpio;
  91              		.loc 1 30 0
  92 0006 0F4E     		ldr	r6, .L2+4	@ tmp122,
  31:../../evt_lib/src/mcp2515.c **** 	_int_pin = int_pin;
  93              		.loc 1 31 0
  94 0008 0F4D     		ldr	r5, .L2+8	@ tmp124,
  27:../../evt_lib/src/mcp2515.c **** 	_cs_gpio = cs_gpio;
  95              		.loc 1 27 0
  96 000a 0870     		strb	r0, [r1]	@, _cs_gpio
  32:../../evt_lib/src/mcp2515.c **** 
  33:../../evt_lib/src/mcp2515.c **** 	set_gpio_pin_output(_cs_gpio, _cs_pin);
  97              		.loc 1 33 0
  98 000c A024     		mov	r4, #160	@ tmp136,
  28:../../evt_lib/src/mcp2515.c **** 	_cs_pin = cs_pin;
  99              		.loc 1 28 0
 100 000e 0F49     		ldr	r1, .L2+12	@ tmp120,
  26:../../evt_lib/src/mcp2515.c **** void MCP2515_Init(uint8_t cs_gpio, uint8_t cs_pin, uint8_t int_gpio, uint8_t int_pin) {
 101              		.loc 1 26 0
 102 0010 8446     		mov	ip, r0	@ cs_gpio, cs_gpio
 103              		.loc 1 33 0
 104 0012 E405     		lsl	r4, r4, #23	@ tmp126, tmp136,
  28:../../evt_lib/src/mcp2515.c **** 	_cs_pin = cs_pin;
 105              		.loc 1 28 0
 106 0014 0F70     		strb	r7, [r1]	@ cs_pin, _cs_pin
  30:../../evt_lib/src/mcp2515.c **** 	_int_gpio = int_gpio;
 107              		.loc 1 30 0
 108 0016 3270     		strb	r2, [r6]	@ int_gpio, _int_gpio
  31:../../evt_lib/src/mcp2515.c **** 	_int_pin = int_pin;
 109              		.loc 1 31 0
 110 0018 2B70     		strb	r3, [r5]	@ int_pin, _int_pin
 111              		.loc 1 33 0
 112 001a 6146     		mov	r1, ip	@, cs_gpio
 113 001c 3A1C     		mov	r2, r7	@, cs_pin
 114              	.LVL2:
 115 001e 201C     		mov	r0, r4	@, tmp126
 116              	.LVL3:
 117 0020 0123     		mov	r3, #1	@,
 118              	.LVL4:
 119 0022 FFF7FEFF 		bl	Chip_GPIO_WriteDirBit	@
 120              	.LVL5:
  34:../../evt_lib/src/mcp2515.c **** 	set_gpio_pin_input(_int_gpio, _int_pin);
 121              		.loc 1 34 0
 122 0026 2A78     		ldrb	r2, [r5]	@ _int_pin, _int_pin
 123 0028 3178     		ldrb	r1, [r6]	@ D.6493, _int_gpio
 124 002a 201C     		mov	r0, r4	@, tmp126
 125 002c 0023     		mov	r3, #0	@,
 126 002e FFF7FEFF 		bl	Chip_GPIO_WriteDirBit	@
 127              	.LVL6:
  35:../../evt_lib/src/mcp2515.c **** 
  36:../../evt_lib/src/mcp2515.c **** 	xf_setup.tx_data = Tx_Buf;
 128              		.loc 1 36 0
 129 0032 074B     		ldr	r3, .L2+16	@ tmp132,
ARM GAS  /var/folders/f9/8bk2lnw15zn4cbgn6wrnb4lm0000gn/T//cc1V3B8l.s 			page 4


 130 0034 074A     		ldr	r2, .L2+20	@ tmp133,
  37:../../evt_lib/src/mcp2515.c **** 	xf_setup.rx_data = Rx_Buf;
  38:../../evt_lib/src/mcp2515.c **** }
 131              		.loc 1 38 0
 132              		@ sp needed	@
  36:../../evt_lib/src/mcp2515.c **** 	xf_setup.tx_data = Tx_Buf;
 133              		.loc 1 36 0
 134 0036 1A60     		str	r2, [r3]	@ tmp133, xf_setup.tx_data
  37:../../evt_lib/src/mcp2515.c **** 	xf_setup.rx_data = Rx_Buf;
 135              		.loc 1 37 0
 136 0038 074A     		ldr	r2, .L2+24	@ tmp135,
 137 003a 9A60     		str	r2, [r3, #8]	@ tmp135, xf_setup.rx_data
 138              		.loc 1 38 0
 139 003c F8BD     		pop	{r3, r4, r5, r6, r7, pc}
 140              	.L3:
 141 003e C046     		.align	2
 142              	.L2:
 143 0040 00000000 		.word	_cs_gpio
 144 0044 00000000 		.word	_int_gpio
 145 0048 00000000 		.word	_int_pin
 146 004c 00000000 		.word	_cs_pin
 147 0050 00000000 		.word	.LANCHOR0
 148 0054 00000000 		.word	.LANCHOR1
 149 0058 00000000 		.word	.LANCHOR2
 150              		.cfi_endproc
 151              	.LFE198:
 152              		.size	MCP2515_Init, .-MCP2515_Init
 153              		.section	.text.MCP2515_Reset,"ax",%progbits
 154              		.align	2
 155              		.global	MCP2515_Reset
 156              		.code	16
 157              		.thumb_func
 158              		.type	MCP2515_Reset, %function
 159              	MCP2515_Reset:
 160              	.LFB200:
  39:../../evt_lib/src/mcp2515.c **** 
  40:../../evt_lib/src/mcp2515.c **** 
  41:../../evt_lib/src/mcp2515.c **** // Baud in KHz, Freq in Mhz
  42:../../evt_lib/src/mcp2515.c **** uint8_t MCP2515_SetBitRate(uint32_t baud, uint32_t freq, uint8_t SJW) {
  43:../../evt_lib/src/mcp2515.c **** 	if (SJW < 1) SJW = 1;
  44:../../evt_lib/src/mcp2515.c **** 	if (SJW > 4) SJW = 4;
  45:../../evt_lib/src/mcp2515.c **** 	if (baud > 0) {
  46:../../evt_lib/src/mcp2515.c **** 		MCP2515_Reset();
  47:../../evt_lib/src/mcp2515.c **** 
  48:../../evt_lib/src/mcp2515.c **** 		uint8_t BRP;
  49:../../evt_lib/src/mcp2515.c **** 		uint64_t TQ;
  50:../../evt_lib/src/mcp2515.c **** 		uint8_t BT = 0;
  51:../../evt_lib/src/mcp2515.c **** 		uint64_t tempBT;
  52:../../evt_lib/src/mcp2515.c **** 
  53:../../evt_lib/src/mcp2515.c **** 		uint64_t NBT = 10000 * 1 / baud * 1000; 		// Since baud wil probably not go above 10 Mhz, 
  54:../../evt_lib/src/mcp2515.c **** 														// this will prevent rounding losses 
  55:../../evt_lib/src/mcp2515.c **** 		for (BRP = 0; BRP < 64; BRP++) {
  56:../../evt_lib/src/mcp2515.c **** 			TQ = 10000 * 2 * (BRP + 1) / freq;
  57:../../evt_lib/src/mcp2515.c **** 			tempBT = NBT / TQ; 							// The added 10K should cancel out here
  58:../../evt_lib/src/mcp2515.c **** 			if (tempBT <= 25) {
  59:../../evt_lib/src/mcp2515.c **** 				BT = (int) tempBT;
  60:../../evt_lib/src/mcp2515.c **** 				if (tempBT - BT == 0) break;
ARM GAS  /var/folders/f9/8bk2lnw15zn4cbgn6wrnb4lm0000gn/T//cc1V3B8l.s 			page 5


  61:../../evt_lib/src/mcp2515.c **** 			}
  62:../../evt_lib/src/mcp2515.c **** 		}
  63:../../evt_lib/src/mcp2515.c **** 
  64:../../evt_lib/src/mcp2515.c **** 		uint8_t SPT = (0.7 * BT);
  65:../../evt_lib/src/mcp2515.c **** 		uint8_t PRSEG = (SPT - 1) / 2;
  66:../../evt_lib/src/mcp2515.c **** 		uint8_t PHSEG1 = SPT - PRSEG - 1;
  67:../../evt_lib/src/mcp2515.c **** 		uint8_t PHSEG2 = BT - PHSEG1 - PRSEG - 1;
  68:../../evt_lib/src/mcp2515.c **** 
  69:../../evt_lib/src/mcp2515.c **** 
  70:../../evt_lib/src/mcp2515.c **** 		if (PRSEG + PHSEG1 < PHSEG2) {
  71:../../evt_lib/src/mcp2515.c **** 			return 1;
  72:../../evt_lib/src/mcp2515.c **** 		}
  73:../../evt_lib/src/mcp2515.c **** 
  74:../../evt_lib/src/mcp2515.c **** 		if (PHSEG2 <= SJW) {
  75:../../evt_lib/src/mcp2515.c **** 			return 2;
  76:../../evt_lib/src/mcp2515.c **** 		}
  77:../../evt_lib/src/mcp2515.c **** 
  78:../../evt_lib/src/mcp2515.c **** 
  79:../../evt_lib/src/mcp2515.c **** 		uint8_t BTLMODE = 1;
  80:../../evt_lib/src/mcp2515.c **** 		uint8_t SAM = 0;
  81:../../evt_lib/src/mcp2515.c **** 
  82:../../evt_lib/src/mcp2515.c **** 		uint8_t data = (((SJW - 1) << 6) | BRP);
  83:../../evt_lib/src/mcp2515.c **** 
  84:../../evt_lib/src/mcp2515.c **** 		MCP2515_Write(CNF1, data);
  85:../../evt_lib/src/mcp2515.c **** 		MCP2515_Write(CNF2, ((BTLMODE << 7) | (SAM << 6) | ((PHSEG1 - 1) << 3) | (PRSEG - 1)));
  86:../../evt_lib/src/mcp2515.c **** 		MCP2515_Write(CNF3, (0x00 | (PHSEG2 - 1)));
  87:../../evt_lib/src/mcp2515.c **** 		MCP2515_Write(TXRTSCTRL, 0);
  88:../../evt_lib/src/mcp2515.c **** 
  89:../../evt_lib/src/mcp2515.c **** 		// if (!MCP2515_Mode(MODE_NORMAL)) {
  90:../../evt_lib/src/mcp2515.c **** 		// 	return 3;
  91:../../evt_lib/src/mcp2515.c **** 		// } 
  92:../../evt_lib/src/mcp2515.c **** 
  93:../../evt_lib/src/mcp2515.c **** 		// Enable interrupts: Receive Buffers Full
  94:../../evt_lib/src/mcp2515.c **** 		MCP2515_Write(CANINTE, 0x03);
  95:../../evt_lib/src/mcp2515.c **** 		// MCP2515_Write(CANINTE, 0x00);
  96:../../evt_lib/src/mcp2515.c **** 
  97:../../evt_lib/src/mcp2515.c **** 		uint8_t rtn = 0;
  98:../../evt_lib/src/mcp2515.c **** 		MCP2515_Read(CNF1, &rtn, 1);
  99:../../evt_lib/src/mcp2515.c **** 		if (rtn == data) {
 100:../../evt_lib/src/mcp2515.c **** 			return 0;
 101:../../evt_lib/src/mcp2515.c **** 		} else {
 102:../../evt_lib/src/mcp2515.c **** 			return 4;
 103:../../evt_lib/src/mcp2515.c **** 		}
 104:../../evt_lib/src/mcp2515.c **** 	} else {
 105:../../evt_lib/src/mcp2515.c **** 		return 5;
 106:../../evt_lib/src/mcp2515.c **** 	}
 107:../../evt_lib/src/mcp2515.c **** 
 108:../../evt_lib/src/mcp2515.c **** 	return 0;
 109:../../evt_lib/src/mcp2515.c **** }
 110:../../evt_lib/src/mcp2515.c **** 
 111:../../evt_lib/src/mcp2515.c **** void MCP2515_Reset(void) {
 161              		.loc 1 111 0
 162              		.cfi_startproc
 163              	.LVL7:
 164 0000 70B5     		push	{r4, r5, r6, lr}	@
 165              		.cfi_def_cfa_offset 16
 166              		.cfi_offset 4, -16
ARM GAS  /var/folders/f9/8bk2lnw15zn4cbgn6wrnb4lm0000gn/T//cc1V3B8l.s 			page 6


 167              		.cfi_offset 5, -12
 168              		.cfi_offset 6, -8
 169              		.cfi_offset 14, -4
 112:../../evt_lib/src/mcp2515.c **** 	set_gpio_pin_low(_cs_gpio, _cs_pin);
 170              		.loc 1 112 0
 171 0002 0F4E     		ldr	r6, .L5	@ tmp125,
 172 0004 0F4D     		ldr	r5, .L5+4	@ tmp128,
 173              	.LBB38:
 174              	.LBB39:
 175              		.file 2 "../../lpc_chip_11cxx_lib/inc/gpio_11xx_2.h"
   1:../../lpc_chip_11cxx_lib/inc/gpio_11xx_2.h **** /*
   2:../../lpc_chip_11cxx_lib/inc/gpio_11xx_2.h ****  * @brief LPC11xx GPIO driver for CHIP_LPC11CXX, CHIP_LPC110X, CHIP_LPC11XXLV,
   3:../../lpc_chip_11cxx_lib/inc/gpio_11xx_2.h ****  * and CHIP_LPC1125 families only.
   4:../../lpc_chip_11cxx_lib/inc/gpio_11xx_2.h ****  *
   5:../../lpc_chip_11cxx_lib/inc/gpio_11xx_2.h ****  * @note
   6:../../lpc_chip_11cxx_lib/inc/gpio_11xx_2.h ****  * Copyright(C) NXP Semiconductors, 2013
   7:../../lpc_chip_11cxx_lib/inc/gpio_11xx_2.h ****  * All rights reserved.
   8:../../lpc_chip_11cxx_lib/inc/gpio_11xx_2.h ****  *
   9:../../lpc_chip_11cxx_lib/inc/gpio_11xx_2.h ****  * @par
  10:../../lpc_chip_11cxx_lib/inc/gpio_11xx_2.h ****  * Software that is described herein is for illustrative purposes only
  11:../../lpc_chip_11cxx_lib/inc/gpio_11xx_2.h ****  * which provides customers with programming information regarding the
  12:../../lpc_chip_11cxx_lib/inc/gpio_11xx_2.h ****  * LPC products.  This software is supplied "AS IS" without any warranties of
  13:../../lpc_chip_11cxx_lib/inc/gpio_11xx_2.h ****  * any kind, and NXP Semiconductors and its licensor disclaim any and
  14:../../lpc_chip_11cxx_lib/inc/gpio_11xx_2.h ****  * all warranties, express or implied, including all implied warranties of
  15:../../lpc_chip_11cxx_lib/inc/gpio_11xx_2.h ****  * merchantability, fitness for a particular purpose and non-infringement of
  16:../../lpc_chip_11cxx_lib/inc/gpio_11xx_2.h ****  * intellectual property rights.  NXP Semiconductors assumes no responsibility
  17:../../lpc_chip_11cxx_lib/inc/gpio_11xx_2.h ****  * or liability for the use of the software, conveys no license or rights under any
  18:../../lpc_chip_11cxx_lib/inc/gpio_11xx_2.h ****  * patent, copyright, mask work right, or any other intellectual property rights in
  19:../../lpc_chip_11cxx_lib/inc/gpio_11xx_2.h ****  * or to any products. NXP Semiconductors reserves the right to make changes
  20:../../lpc_chip_11cxx_lib/inc/gpio_11xx_2.h ****  * in the software without notification. NXP Semiconductors also makes no
  21:../../lpc_chip_11cxx_lib/inc/gpio_11xx_2.h ****  * representation or warranty that such application will be suitable for the
  22:../../lpc_chip_11cxx_lib/inc/gpio_11xx_2.h ****  * specified use without further testing or modification.
  23:../../lpc_chip_11cxx_lib/inc/gpio_11xx_2.h ****  *
  24:../../lpc_chip_11cxx_lib/inc/gpio_11xx_2.h ****  * @par
  25:../../lpc_chip_11cxx_lib/inc/gpio_11xx_2.h ****  * Permission to use, copy, modify, and distribute this software and its
  26:../../lpc_chip_11cxx_lib/inc/gpio_11xx_2.h ****  * documentation is hereby granted, under NXP Semiconductors' and its
  27:../../lpc_chip_11cxx_lib/inc/gpio_11xx_2.h ****  * licensor's relevant copyrights in the software, without fee, provided that it
  28:../../lpc_chip_11cxx_lib/inc/gpio_11xx_2.h ****  * is used in conjunction with NXP Semiconductors microcontrollers.  This
  29:../../lpc_chip_11cxx_lib/inc/gpio_11xx_2.h ****  * copyright, permission, and disclaimer notice must appear in all copies of
  30:../../lpc_chip_11cxx_lib/inc/gpio_11xx_2.h ****  * this code.
  31:../../lpc_chip_11cxx_lib/inc/gpio_11xx_2.h ****  */
  32:../../lpc_chip_11cxx_lib/inc/gpio_11xx_2.h **** 
  33:../../lpc_chip_11cxx_lib/inc/gpio_11xx_2.h **** #ifndef __GPIO_11XX_2_H_
  34:../../lpc_chip_11cxx_lib/inc/gpio_11xx_2.h **** #define __GPIO_11XX_2_H_
  35:../../lpc_chip_11cxx_lib/inc/gpio_11xx_2.h **** 
  36:../../lpc_chip_11cxx_lib/inc/gpio_11xx_2.h **** #ifdef __cplusplus
  37:../../lpc_chip_11cxx_lib/inc/gpio_11xx_2.h **** extern "C" {
  38:../../lpc_chip_11cxx_lib/inc/gpio_11xx_2.h **** #endif
  39:../../lpc_chip_11cxx_lib/inc/gpio_11xx_2.h **** 
  40:../../lpc_chip_11cxx_lib/inc/gpio_11xx_2.h **** /** @defgroup GPIO_11XX_2 CHIP: LPC11xx GPIO driver for CHIP_LPC11CXX, CHIP_LPC110X, and CHIP_LPC11
  41:../../lpc_chip_11cxx_lib/inc/gpio_11xx_2.h ****  * @ingroup CHIP_11XX_Drivers
  42:../../lpc_chip_11cxx_lib/inc/gpio_11xx_2.h ****  * For device familes identified with CHIP definitions CHIP_LPC11CXX,
  43:../../lpc_chip_11cxx_lib/inc/gpio_11xx_2.h ****  * CHIP_LPC110X, and CHIP_LPC11XXLV only.
  44:../../lpc_chip_11cxx_lib/inc/gpio_11xx_2.h ****  * @{
  45:../../lpc_chip_11cxx_lib/inc/gpio_11xx_2.h ****  */
  46:../../lpc_chip_11cxx_lib/inc/gpio_11xx_2.h **** 
  47:../../lpc_chip_11cxx_lib/inc/gpio_11xx_2.h **** #if defined(CHIP_LPC11CXX) || defined(CHIP_LPC110X) || defined(CHIP_LPC11XXLV) || defined(CHIP_LPC1
ARM GAS  /var/folders/f9/8bk2lnw15zn4cbgn6wrnb4lm0000gn/T//cc1V3B8l.s 			page 7


  48:../../lpc_chip_11cxx_lib/inc/gpio_11xx_2.h **** 
  49:../../lpc_chip_11cxx_lib/inc/gpio_11xx_2.h **** /**
  50:../../lpc_chip_11cxx_lib/inc/gpio_11xx_2.h ****  * @brief  GPIO port register block structure
  51:../../lpc_chip_11cxx_lib/inc/gpio_11xx_2.h ****  */
  52:../../lpc_chip_11cxx_lib/inc/gpio_11xx_2.h **** typedef struct {				/*!< GPIO_PORT Structure */
  53:../../lpc_chip_11cxx_lib/inc/gpio_11xx_2.h **** 	__IO uint32_t DATA[4096];			/*!< Offset: 0x0000 to 0x3FFC Data address masking register (R/W) */
  54:../../lpc_chip_11cxx_lib/inc/gpio_11xx_2.h **** 	uint32_t RESERVED1[4096];
  55:../../lpc_chip_11cxx_lib/inc/gpio_11xx_2.h **** 	__IO uint32_t DIR;					/*!< Offset: 0x8000 Data direction register (R/W) */
  56:../../lpc_chip_11cxx_lib/inc/gpio_11xx_2.h **** 	__IO uint32_t IS;					/*!< Offset: 0x8004 Interrupt sense register (R/W) */
  57:../../lpc_chip_11cxx_lib/inc/gpio_11xx_2.h **** 	__IO uint32_t IBE;					/*!< Offset: 0x8008 Interrupt both edges register (R/W) */
  58:../../lpc_chip_11cxx_lib/inc/gpio_11xx_2.h **** 	__IO uint32_t IEV;					/*!< Offset: 0x800C Interrupt event register  (R/W) */
  59:../../lpc_chip_11cxx_lib/inc/gpio_11xx_2.h **** 	__IO uint32_t IE;					/*!< Offset: 0x8010 Interrupt mask register (R/W) */
  60:../../lpc_chip_11cxx_lib/inc/gpio_11xx_2.h **** 	__I  uint32_t RIS;					/*!< Offset: 0x8014 Raw interrupt status register (R/ ) */
  61:../../lpc_chip_11cxx_lib/inc/gpio_11xx_2.h **** 	__I  uint32_t MIS;					/*!< Offset: 0x8018 Masked interrupt status register (R/ ) */
  62:../../lpc_chip_11cxx_lib/inc/gpio_11xx_2.h **** 	__O  uint32_t IC;					/*!< Offset: 0x801C Interrupt clear register (W) */
  63:../../lpc_chip_11cxx_lib/inc/gpio_11xx_2.h **** 	uint32_t RESERVED2[8184];			/* Padding added for aligning contiguous GPIO blocks */
  64:../../lpc_chip_11cxx_lib/inc/gpio_11xx_2.h **** } LPC_GPIO_T;
  65:../../lpc_chip_11cxx_lib/inc/gpio_11xx_2.h **** 
  66:../../lpc_chip_11cxx_lib/inc/gpio_11xx_2.h **** /**
  67:../../lpc_chip_11cxx_lib/inc/gpio_11xx_2.h ****  * @brief	Initialize GPIO block
  68:../../lpc_chip_11cxx_lib/inc/gpio_11xx_2.h ****  * @param	pGPIO	: The base of GPIO peripheral on the chip
  69:../../lpc_chip_11cxx_lib/inc/gpio_11xx_2.h ****  * @return	Nothing
  70:../../lpc_chip_11cxx_lib/inc/gpio_11xx_2.h ****  */
  71:../../lpc_chip_11cxx_lib/inc/gpio_11xx_2.h **** void Chip_GPIO_Init(LPC_GPIO_T *pGPIO);
  72:../../lpc_chip_11cxx_lib/inc/gpio_11xx_2.h **** 
  73:../../lpc_chip_11cxx_lib/inc/gpio_11xx_2.h **** /**
  74:../../lpc_chip_11cxx_lib/inc/gpio_11xx_2.h ****  * @brief	De-Initialize GPIO block
  75:../../lpc_chip_11cxx_lib/inc/gpio_11xx_2.h ****  * @param	pGPIO	: The base of GPIO peripheral on the chip
  76:../../lpc_chip_11cxx_lib/inc/gpio_11xx_2.h ****  * @return	Nothing
  77:../../lpc_chip_11cxx_lib/inc/gpio_11xx_2.h ****  */
  78:../../lpc_chip_11cxx_lib/inc/gpio_11xx_2.h **** void Chip_GPIO_DeInit(LPC_GPIO_T *pGPIO);
  79:../../lpc_chip_11cxx_lib/inc/gpio_11xx_2.h **** 
  80:../../lpc_chip_11cxx_lib/inc/gpio_11xx_2.h **** /**
  81:../../lpc_chip_11cxx_lib/inc/gpio_11xx_2.h ****  * @brief	Set a GPIO port/bit state
  82:../../lpc_chip_11cxx_lib/inc/gpio_11xx_2.h ****  * @param	pGPIO	: The base of GPIO peripheral on the chip
  83:../../lpc_chip_11cxx_lib/inc/gpio_11xx_2.h ****  * @param	port	: GPIO port to set
  84:../../lpc_chip_11cxx_lib/inc/gpio_11xx_2.h ****  * @param	bit		: GPIO bit to set
  85:../../lpc_chip_11cxx_lib/inc/gpio_11xx_2.h ****  * @param	setting	: true for high, false for low
  86:../../lpc_chip_11cxx_lib/inc/gpio_11xx_2.h ****  * @return	Nothing
  87:../../lpc_chip_11cxx_lib/inc/gpio_11xx_2.h ****  */
  88:../../lpc_chip_11cxx_lib/inc/gpio_11xx_2.h **** STATIC INLINE void Chip_GPIO_WritePortBit(LPC_GPIO_T *pGPIO, uint32_t port, uint8_t bit, bool setti
  89:../../lpc_chip_11cxx_lib/inc/gpio_11xx_2.h **** {
  90:../../lpc_chip_11cxx_lib/inc/gpio_11xx_2.h **** 	pGPIO[port].DATA[1 << bit] = setting << bit;
  91:../../lpc_chip_11cxx_lib/inc/gpio_11xx_2.h **** }
  92:../../lpc_chip_11cxx_lib/inc/gpio_11xx_2.h **** 
  93:../../lpc_chip_11cxx_lib/inc/gpio_11xx_2.h **** /**
  94:../../lpc_chip_11cxx_lib/inc/gpio_11xx_2.h ****  * @brief	Set a GPIO pin state via the GPIO byte register
  95:../../lpc_chip_11cxx_lib/inc/gpio_11xx_2.h ****  * @param	pGPIO	: The base of GPIO peripheral on the chip
  96:../../lpc_chip_11cxx_lib/inc/gpio_11xx_2.h ****  * @param	port	: Port number
  97:../../lpc_chip_11cxx_lib/inc/gpio_11xx_2.h ****  * @param	pin		: GPIO pin to set
  98:../../lpc_chip_11cxx_lib/inc/gpio_11xx_2.h ****  * @param	setting	: true for high, false for low
  99:../../lpc_chip_11cxx_lib/inc/gpio_11xx_2.h ****  * @return	Nothing
 100:../../lpc_chip_11cxx_lib/inc/gpio_11xx_2.h ****  * @note	This function replaces Chip_GPIO_WritePortBit()
 101:../../lpc_chip_11cxx_lib/inc/gpio_11xx_2.h ****  */
 102:../../lpc_chip_11cxx_lib/inc/gpio_11xx_2.h **** STATIC INLINE void Chip_GPIO_SetPinState(LPC_GPIO_T *pGPIO, uint8_t port, uint8_t pin, bool setting
 103:../../lpc_chip_11cxx_lib/inc/gpio_11xx_2.h **** {
 104:../../lpc_chip_11cxx_lib/inc/gpio_11xx_2.h **** 	pGPIO[port].DATA[1 << pin] = setting << pin;
ARM GAS  /var/folders/f9/8bk2lnw15zn4cbgn6wrnb4lm0000gn/T//cc1V3B8l.s 			page 8


 176              		.loc 2 104 0
 177 0006 3378     		ldrb	r3, [r6]	@ D.6499, _cs_gpio
 178 0008 A021     		mov	r1, #160	@,
 179 000a 2A78     		ldrb	r2, [r5]	@ D.6501, _cs_pin
 180 000c C905     		lsl	r1, r1, #23	@,,
 181 000e 0124     		mov	r4, #1	@ tmp130,
 182 0010 1B04     		lsl	r3, r3, #16	@ D.6499, D.6499,
 183 0012 5B18     		add	r3, r3, r1	@ D.6500, D.6499,
 184 0014 211C     		mov	r1, r4	@, tmp130
 185 0016 9140     		lsl	r1, r1, r2	@,, D.6501
 186 0018 8A00     		lsl	r2, r1, #2	@ tmp131, D.6501,
 187 001a 0021     		mov	r1, #0	@ tmp132,
 188 001c D150     		str	r1, [r2, r3]	@ tmp132, _12->DATA
 189              	.LVL8:
 190              	.LBE39:
 191              	.LBE38:
 113:../../evt_lib/src/mcp2515.c **** 	Tx_Buf[0] = MCP2515_RESET; // Reset Command
 192              		.loc 1 113 0
 193 001e 0A49     		ldr	r1, .L5+8	@ tmp133,
 194 0020 C023     		mov	r3, #192	@ tmp134,
 114:../../evt_lib/src/mcp2515.c **** 	Chip_SSP_WriteFrames_Blocking(LPC_SSP, Tx_Buf, 1);
 195              		.loc 1 114 0
 196 0022 0122     		mov	r2, #1	@,
 197 0024 0948     		ldr	r0, .L5+12	@,
 113:../../evt_lib/src/mcp2515.c **** 	Tx_Buf[0] = MCP2515_RESET; // Reset Command
 198              		.loc 1 113 0
 199 0026 0B70     		strb	r3, [r1]	@ tmp134, Tx_Buf
 200              		.loc 1 114 0
 201 0028 FFF7FEFF 		bl	Chip_SSP_WriteFrames_Blocking	@
 202              	.LVL9:
 203              	.LBB40:
 204              	.LBB41:
 205              		.loc 2 104 0
 206 002c 3378     		ldrb	r3, [r6]	@ D.6499, _cs_gpio
 207 002e A022     		mov	r2, #160	@,
 208 0030 D205     		lsl	r2, r2, #23	@,,
 209 0032 1B04     		lsl	r3, r3, #16	@ D.6499, D.6499,
 210 0034 9B18     		add	r3, r3, r2	@ D.6500, D.6499,
 211 0036 2A78     		ldrb	r2, [r5]	@ D.6501, _cs_pin
 212              	.LBE41:
 213              	.LBE40:
 115:../../evt_lib/src/mcp2515.c **** 	set_gpio_pin_high(_cs_gpio, _cs_pin);
 116:../../evt_lib/src/mcp2515.c **** }
 214              		.loc 1 116 0
 215              		@ sp needed	@
 216              	.LBB43:
 217              	.LBB42:
 218              		.loc 2 104 0
 219 0038 9440     		lsl	r4, r4, r2	@ D.6501, tmp130, D.6501
 220 003a A200     		lsl	r2, r4, #2	@ tmp144, D.6501,
 221 003c D450     		str	r4, [r2, r3]	@ D.6501, _17->DATA
 222              	.LVL10:
 223              	.LBE42:
 224              	.LBE43:
 225              		.loc 1 116 0
 226 003e 70BD     		pop	{r4, r5, r6, pc}
 227              	.L6:
ARM GAS  /var/folders/f9/8bk2lnw15zn4cbgn6wrnb4lm0000gn/T//cc1V3B8l.s 			page 9


 228              		.align	2
 229              	.L5:
 230 0040 00000000 		.word	_cs_gpio
 231 0044 00000000 		.word	_cs_pin
 232 0048 00000000 		.word	.LANCHOR1
 233 004c 00000440 		.word	1074003968
 234              		.cfi_endproc
 235              	.LFE200:
 236              		.size	MCP2515_Reset, .-MCP2515_Reset
 237              		.section	.text.MCP2515_Read,"ax",%progbits
 238              		.align	2
 239              		.global	MCP2515_Read
 240              		.code	16
 241              		.thumb_func
 242              		.type	MCP2515_Read, %function
 243              	MCP2515_Read:
 244              	.LFB203:
 117:../../evt_lib/src/mcp2515.c **** 
 118:../../evt_lib/src/mcp2515.c **** int8_t MCP2515_GetFullReceiveBuffer(void) {
 119:../../evt_lib/src/mcp2515.c **** 	if (Chip_GPIO_GetPinState(LPC_GPIO, _int_gpio, _int_pin))
 120:../../evt_lib/src/mcp2515.c **** 		return -1;
 121:../../evt_lib/src/mcp2515.c **** 	uint8_t tmp;
 122:../../evt_lib/src/mcp2515.c **** 	MCP2515_Read(CANINTF, &tmp, 1);
 123:../../evt_lib/src/mcp2515.c **** 	if (tmp & 0x3) {
 124:../../evt_lib/src/mcp2515.c **** 		MCP2515_BitModify(CANINTF, 0x03, 0x00);
 125:../../evt_lib/src/mcp2515.c **** 		return 2;
 126:../../evt_lib/src/mcp2515.c **** 	} else if (tmp & 0x1) {
 127:../../evt_lib/src/mcp2515.c **** 		MCP2515_BitModify(CANINTF, 0x01, 0x00);
 128:../../evt_lib/src/mcp2515.c **** 		return 0;
 129:../../evt_lib/src/mcp2515.c **** 	} else if (tmp & 0x2) {
 130:../../evt_lib/src/mcp2515.c **** 		MCP2515_BitModify(CANINTF, 0x02, 0x00);
 131:../../evt_lib/src/mcp2515.c **** 		return 1;
 132:../../evt_lib/src/mcp2515.c **** 	} else {
 133:../../evt_lib/src/mcp2515.c **** 		return -1;
 134:../../evt_lib/src/mcp2515.c **** 	}
 135:../../evt_lib/src/mcp2515.c **** }
 136:../../evt_lib/src/mcp2515.c **** 
 137:../../evt_lib/src/mcp2515.c **** int8_t MCP2515_GetEmptyTransmitBuffer(void) {
 138:../../evt_lib/src/mcp2515.c **** 	if (Chip_GPIO_GetPinState(LPC_GPIO, _int_gpio, _int_pin))
 139:../../evt_lib/src/mcp2515.c **** 		return -1;
 140:../../evt_lib/src/mcp2515.c **** 	uint8_t tmp;
 141:../../evt_lib/src/mcp2515.c **** 	MCP2515_Read(CANINTF, &tmp, 1);
 142:../../evt_lib/src/mcp2515.c **** 	if (tmp & 0x4) {
 143:../../evt_lib/src/mcp2515.c **** 		MCP2515_BitModify(CANINTF, 0x04, 0x00);
 144:../../evt_lib/src/mcp2515.c **** 		return 0;
 145:../../evt_lib/src/mcp2515.c **** 	} else if (tmp & 0x8) {
 146:../../evt_lib/src/mcp2515.c **** 		MCP2515_BitModify(CANINTF, 0x08, 0x00);
 147:../../evt_lib/src/mcp2515.c **** 		return 1;
 148:../../evt_lib/src/mcp2515.c **** 	} else if (tmp & 0x10) { 
 149:../../evt_lib/src/mcp2515.c **** 		MCP2515_BitModify(CANINTF, 0x10, 0x00);
 150:../../evt_lib/src/mcp2515.c **** 		return 2;
 151:../../evt_lib/src/mcp2515.c **** 	} else {
 152:../../evt_lib/src/mcp2515.c **** 		return -1;
 153:../../evt_lib/src/mcp2515.c **** 	}
 154:../../evt_lib/src/mcp2515.c **** }
 155:../../evt_lib/src/mcp2515.c **** 
 156:../../evt_lib/src/mcp2515.c **** void MCP2515_Read(uint8_t address, uint8_t *buf, uint8_t length) {
ARM GAS  /var/folders/f9/8bk2lnw15zn4cbgn6wrnb4lm0000gn/T//cc1V3B8l.s 			page 10


 245              		.loc 1 156 0
 246              		.cfi_startproc
 247              	.LVL11:
 248 0000 F8B5     		push	{r3, r4, r5, r6, r7, lr}	@
 249              		.cfi_def_cfa_offset 24
 250              		.cfi_offset 3, -24
 251              		.cfi_offset 4, -20
 252              		.cfi_offset 5, -16
 253              		.cfi_offset 6, -12
 254              		.cfi_offset 7, -8
 255              		.cfi_offset 14, -4
 157:../../evt_lib/src/mcp2515.c **** 	uint8_t i;
 158:../../evt_lib/src/mcp2515.c **** 
 159:../../evt_lib/src/mcp2515.c **** 	set_gpio_pin_low(_cs_gpio, _cs_pin);
 256              		.loc 1 159 0
 257 0002 194D     		ldr	r5, .L13	@ tmp207,
 156:../../evt_lib/src/mcp2515.c **** void MCP2515_Read(uint8_t address, uint8_t *buf, uint8_t length) {
 258              		.loc 1 156 0
 259 0004 171C     		mov	r7, r2	@ length, length
 260              	.LBB44:
 261              	.LBB45:
 262              		.loc 2 104 0
 263 0006 2A78     		ldrb	r2, [r5]	@ D.6519, _cs_gpio
 264              	.LVL12:
 265 0008 A023     		mov	r3, #160	@,
 266              	.LBE45:
 267              	.LBE44:
 268              		.loc 1 159 0
 269 000a 184E     		ldr	r6, .L13+4	@ tmp208,
 270              	.LBB48:
 271              	.LBB46:
 272              		.loc 2 104 0
 273 000c DB05     		lsl	r3, r3, #23	@,,
 274 000e 1204     		lsl	r2, r2, #16	@ D.6519, D.6519,
 275 0010 D218     		add	r2, r2, r3	@ D.6520, D.6519,
 276 0012 3378     		ldrb	r3, [r6]	@ D.6516, _cs_pin
 277              	.LBE46:
 278              	.LBE48:
 156:../../evt_lib/src/mcp2515.c **** void MCP2515_Read(uint8_t address, uint8_t *buf, uint8_t length) {
 279              		.loc 1 156 0
 280 0014 0C1C     		mov	r4, r1	@ buf, buf
 281              	.LBB49:
 282              	.LBB47:
 283              		.loc 2 104 0
 284 0016 0421     		mov	r1, #4	@ D.6516,
 285              	.LVL13:
 286 0018 9940     		lsl	r1, r1, r3	@ tmp179, D.6516, D.6516
 287 001a 0023     		mov	r3, #0	@ tmp180,
 288 001c 8B50     		str	r3, [r1, r2]	@ tmp180, _31->DATA
 289              	.LVL14:
 290              	.LBE47:
 291              	.LBE49:
 160:../../evt_lib/src/mcp2515.c **** 	Tx_Buf[0] = MCP2515_READ;
 292              		.loc 1 160 0
 293 001e 144A     		ldr	r2, .L13+8	@ tmp181,
 294 0020 0321     		mov	r1, #3	@ tmp182,
 295 0022 1170     		strb	r1, [r2]	@ tmp182, Tx_Buf
ARM GAS  /var/folders/f9/8bk2lnw15zn4cbgn6wrnb4lm0000gn/T//cc1V3B8l.s 			page 11


 161:../../evt_lib/src/mcp2515.c **** 	Tx_Buf[1] = address;
 162:../../evt_lib/src/mcp2515.c **** 	xf_setup.length = 2+length;
 296              		.loc 1 162 0
 297 0024 1349     		ldr	r1, .L13+12	@ tmp186,
 161:../../evt_lib/src/mcp2515.c **** 	Tx_Buf[1] = address;
 298              		.loc 1 161 0
 299 0026 5070     		strb	r0, [r2, #1]	@ address, Tx_Buf
 300              		.loc 1 162 0
 301 0028 BA1C     		add	r2, r7, #2	@ D.6516, length,
 163:../../evt_lib/src/mcp2515.c **** 	xf_setup.rx_cnt = 0;
 164:../../evt_lib/src/mcp2515.c **** 	xf_setup.tx_cnt = 0;
 165:../../evt_lib/src/mcp2515.c **** 	// DEBUG_Println("Reading SSP");
 166:../../evt_lib/src/mcp2515.c **** 	Chip_SSP_RWFrames_Blocking(LPC_SSP, &xf_setup);
 302              		.loc 1 166 0
 303 002a 1348     		ldr	r0, .L13+16	@,
 304              	.LVL15:
 162:../../evt_lib/src/mcp2515.c **** 	xf_setup.length = 2+length;
 305              		.loc 1 162 0
 306 002c 0A61     		str	r2, [r1, #16]	@ D.6516, xf_setup.length
 163:../../evt_lib/src/mcp2515.c **** 	xf_setup.rx_cnt = 0;
 307              		.loc 1 163 0
 308 002e CB60     		str	r3, [r1, #12]	@ tmp180, xf_setup.rx_cnt
 164:../../evt_lib/src/mcp2515.c **** 	xf_setup.tx_cnt = 0;
 309              		.loc 1 164 0
 310 0030 4B60     		str	r3, [r1, #4]	@ tmp180, xf_setup.tx_cnt
 311              		.loc 1 166 0
 312 0032 FFF7FEFF 		bl	Chip_SSP_RWFrames_Blocking	@
 313              	.LVL16:
 167:../../evt_lib/src/mcp2515.c **** 	// itoa(xf_setup.rx_cnt, str, 10);
 168:../../evt_lib/src/mcp2515.c **** 	// DEBUG_Print("Received: ");
 169:../../evt_lib/src/mcp2515.c **** 	// DEBUG_Println(str);
 170:../../evt_lib/src/mcp2515.c **** 	for (i = 0; i < length; i++) {
 314              		.loc 1 170 0
 315 0036 002F     		cmp	r7, #0	@ length,
 316 0038 0AD0     		beq	.L9	@,
 317 003a 781E     		sub	r0, r7, #1	@ tmp201, length,
 318 003c C0B2     		uxtb	r0, r0	@ D.6521, tmp201
 319 003e 0F49     		ldr	r1, .L13+20	@ tmp206,
 320 0040 0130     		add	r0, r0, #1	@ D.6521,
 321 0042 0023     		mov	r3, #0	@ ivtmp.55,
 322              	.LVL17:
 323              	.L10:
 324 0044 CA18     		add	r2, r1, r3	@ D.6522, tmp206, ivtmp.55
 171:../../evt_lib/src/mcp2515.c **** 		buf[i] = Rx_Buf[i + 2];
 325              		.loc 1 171 0 discriminator 2
 326 0046 9278     		ldrb	r2, [r2, #2]	@ D.6518, MEM[base: _54, offset: 2B]
 327 0048 E254     		strb	r2, [r4, r3]	@ D.6518, MEM[base: buf_19(D), index: ivtmp.55_56, offset: 0B]
 328              	.LVL18:
 329 004a 0133     		add	r3, r3, #1	@ ivtmp.55,
 330              	.LVL19:
 170:../../evt_lib/src/mcp2515.c **** 	for (i = 0; i < length; i++) {
 331              		.loc 1 170 0 discriminator 2
 332 004c 8342     		cmp	r3, r0	@ ivtmp.55, D.6521
 333 004e F9D1     		bne	.L10	@,
 334              	.LVL20:
 335              	.L9:
 336              	.LBB50:
ARM GAS  /var/folders/f9/8bk2lnw15zn4cbgn6wrnb4lm0000gn/T//cc1V3B8l.s 			page 12


 337              	.LBB51:
 338              		.loc 2 104 0
 339 0050 2A78     		ldrb	r2, [r5]	@ D.6519, _cs_gpio
 340 0052 A023     		mov	r3, #160	@,
 341 0054 DB05     		lsl	r3, r3, #23	@,,
 342 0056 1204     		lsl	r2, r2, #16	@ D.6519, D.6519,
 343 0058 D218     		add	r2, r2, r3	@ D.6520, D.6519,
 344 005a 3378     		ldrb	r3, [r6]	@ D.6516, _cs_pin
 345 005c 0121     		mov	r1, #1	@ tmp199,
 346 005e 9940     		lsl	r1, r1, r3	@ tmp199, tmp199, D.6516
 347 0060 0B1C     		mov	r3, r1	@ D.6516, tmp199
 348 0062 8900     		lsl	r1, r1, #2	@ tmp200, D.6516,
 349 0064 8B50     		str	r3, [r1, r2]	@ D.6516, _36->DATA
 350              	.LVL21:
 351              	.LBE51:
 352              	.LBE50:
 172:../../evt_lib/src/mcp2515.c **** 	}
 173:../../evt_lib/src/mcp2515.c **** 
 174:../../evt_lib/src/mcp2515.c **** 	set_gpio_pin_high(_cs_gpio, _cs_pin);
 175:../../evt_lib/src/mcp2515.c **** }
 353              		.loc 1 175 0
 354              		@ sp needed	@
 355              	.LVL22:
 356 0066 F8BD     		pop	{r3, r4, r5, r6, r7, pc}
 357              	.L14:
 358              		.align	2
 359              	.L13:
 360 0068 00000000 		.word	_cs_gpio
 361 006c 00000000 		.word	_cs_pin
 362 0070 00000000 		.word	.LANCHOR1
 363 0074 00000000 		.word	.LANCHOR0
 364 0078 00000440 		.word	1074003968
 365 007c 00000000 		.word	.LANCHOR2
 366              		.cfi_endproc
 367              	.LFE203:
 368              		.size	MCP2515_Read, .-MCP2515_Read
 369              		.section	.text.MCP2515_ReadBuffer,"ax",%progbits
 370              		.align	2
 371              		.global	MCP2515_ReadBuffer
 372              		.code	16
 373              		.thumb_func
 374              		.type	MCP2515_ReadBuffer, %function
 375              	MCP2515_ReadBuffer:
 376              	.LFB204:
 176:../../evt_lib/src/mcp2515.c **** 
 177:../../evt_lib/src/mcp2515.c **** void MCP2515_ReadBuffer(CCAN_MSG_OBJ_T *msgobj, uint8_t bufferNum) {
 377              		.loc 1 177 0
 378              		.cfi_startproc
 379              	.LVL23:
 380 0000 F8B5     		push	{r3, r4, r5, r6, r7, lr}	@
 381              		.cfi_def_cfa_offset 24
 382              		.cfi_offset 3, -24
 383              		.cfi_offset 4, -20
 384              		.cfi_offset 5, -16
 385              		.cfi_offset 6, -12
 386              		.cfi_offset 7, -8
 387              		.cfi_offset 14, -4
ARM GAS  /var/folders/f9/8bk2lnw15zn4cbgn6wrnb4lm0000gn/T//cc1V3B8l.s 			page 13


 178:../../evt_lib/src/mcp2515.c **** 	set_gpio_pin_low(_cs_gpio, _cs_pin);
 388              		.loc 1 178 0
 389 0002 214E     		ldr	r6, .L21	@ tmp210,
 390 0004 214F     		ldr	r7, .L21+4	@ tmp211,
 391              	.LBB52:
 392              	.LBB53:
 393              		.loc 2 104 0
 394 0006 3278     		ldrb	r2, [r6]	@ D.6540, _cs_gpio
 395 0008 A023     		mov	r3, #160	@,
 396 000a DB05     		lsl	r3, r3, #23	@,,
 397 000c 1204     		lsl	r2, r2, #16	@ D.6540, D.6540,
 398 000e D218     		add	r2, r2, r3	@ D.6541, D.6540,
 399 0010 3B78     		ldrb	r3, [r7]	@ D.6536, _cs_pin
 400              	.LBE53:
 401              	.LBE52:
 177:../../evt_lib/src/mcp2515.c **** void MCP2515_ReadBuffer(CCAN_MSG_OBJ_T *msgobj, uint8_t bufferNum) {
 402              		.loc 1 177 0
 403 0012 051C     		mov	r5, r0	@ msgobj, msgobj
 404              	.LBB55:
 405              	.LBB54:
 406              		.loc 2 104 0
 407 0014 0420     		mov	r0, #4	@ D.6536,
 408              	.LVL24:
 409 0016 9840     		lsl	r0, r0, r3	@ tmp167, D.6536, D.6536
 410 0018 0023     		mov	r3, #0	@ tmp168,
 411 001a 8350     		str	r3, [r0, r2]	@ tmp168, _43->DATA
 412              	.LVL25:
 413              	.LBE54:
 414              	.LBE55:
 179:../../evt_lib/src/mcp2515.c **** 	Tx_Buf[0] = MCP2515_READ_RX_BUF(bufferNum);
 415              		.loc 1 179 0
 416 001c 8A00     		lsl	r2, r1, #2	@ D.6536, bufferNum,
 417 001e 7021     		mov	r1, #112	@ tmp212,
 418              	.LVL26:
 419 0020 4942     		neg	r1, r1	@ tmp173, tmp212
 420 0022 1143     		orr	r1, r2	@ tmp172, D.6536
 421 0024 1A4A     		ldr	r2, .L21+8	@ tmp169,
 180:../../evt_lib/src/mcp2515.c **** 	xf_setup.length = 14;
 181:../../evt_lib/src/mcp2515.c **** 	xf_setup.rx_cnt = 0;
 182:../../evt_lib/src/mcp2515.c **** 	xf_setup.tx_cnt = 0;
 183:../../evt_lib/src/mcp2515.c **** 	Chip_SSP_RWFrames_Blocking(LPC_SSP, &xf_setup);
 422              		.loc 1 183 0
 423 0026 1B48     		ldr	r0, .L21+12	@,
 179:../../evt_lib/src/mcp2515.c **** 	Tx_Buf[0] = MCP2515_READ_RX_BUF(bufferNum);
 424              		.loc 1 179 0
 425 0028 1170     		strb	r1, [r2]	@ tmp172, Tx_Buf
 180:../../evt_lib/src/mcp2515.c **** 	xf_setup.length = 14;
 426              		.loc 1 180 0
 427 002a 1B49     		ldr	r1, .L21+16	@ tmp175,
 428 002c 0E22     		mov	r2, #14	@ tmp176,
 181:../../evt_lib/src/mcp2515.c **** 	xf_setup.rx_cnt = 0;
 429              		.loc 1 181 0
 430 002e CB60     		str	r3, [r1, #12]	@ tmp168, xf_setup.rx_cnt
 182:../../evt_lib/src/mcp2515.c **** 	xf_setup.tx_cnt = 0;
 431              		.loc 1 182 0
 432 0030 4B60     		str	r3, [r1, #4]	@ tmp168, xf_setup.tx_cnt
 180:../../evt_lib/src/mcp2515.c **** 	xf_setup.length = 14;
ARM GAS  /var/folders/f9/8bk2lnw15zn4cbgn6wrnb4lm0000gn/T//cc1V3B8l.s 			page 14


 433              		.loc 1 180 0
 434 0032 0A61     		str	r2, [r1, #16]	@ tmp176, xf_setup.length
 435              		.loc 1 183 0
 436 0034 FFF7FEFF 		bl	Chip_SSP_RWFrames_Blocking	@
 437              	.LVL27:
 184:../../evt_lib/src/mcp2515.c **** 	msgobj->mode_id = getIDFromBytes(Rx_Buf[1], Rx_Buf[2]);
 438              		.loc 1 184 0
 439 0038 184C     		ldr	r4, .L21+20	@ tmp209,
 440 003a 6078     		ldrb	r0, [r4, #1]	@ D.6536,
 441 003c A178     		ldrb	r1, [r4, #2]	@ D.6536,
 442 003e FFF7FEFF 		bl	getIDFromBytes	@
 443              	.LVL28:
 444 0042 2860     		str	r0, [r5]	@ D.6536, msgobj_26(D)->mode_id
 185:../../evt_lib/src/mcp2515.c **** 
 186:../../evt_lib/src/mcp2515.c **** 	msgobj->dlc = Rx_Buf[5] & 0x0F;
 445              		.loc 1 186 0
 446 0044 6379     		ldrb	r3, [r4, #5]	@ tmp191,
 447 0046 0F20     		mov	r0, #15	@ tmp193,
 448 0048 1840     		and	r0, r3	@ D.6538, tmp191
 449 004a 2874     		strb	r0, [r5, #16]	@ D.6538, msgobj_26(D)->dlc
 187:../../evt_lib/src/mcp2515.c **** 	if (msgobj->dlc > 8)
 450              		.loc 1 187 0
 451 004c 0828     		cmp	r0, #8	@ D.6538,
 452 004e 17D9     		bls	.L16	@,
 188:../../evt_lib/src/mcp2515.c **** 		msgobj->dlc = 8;
 453              		.loc 1 188 0
 454 0050 0823     		mov	r3, #8	@ tmp195,
 455 0052 2B74     		strb	r3, [r5, #16]	@ tmp195, msgobj_26(D)->dlc
 456              	.LVL29:
 457 0054 0820     		mov	r0, #8	@ D.6538,
 458              	.L18:
 459              		.loc 1 188 0 is_stmt 0 discriminator 2
 460 0056 0023     		mov	r3, #0	@ ivtmp.64,
 461              	.LVL30:
 462              	.L17:
 463 0058 E218     		add	r2, r4, r3	@ D.6542, tmp209, ivtmp.64
 189:../../evt_lib/src/mcp2515.c **** 
 190:../../evt_lib/src/mcp2515.c **** 	uint8_t i;
 191:../../evt_lib/src/mcp2515.c **** 	for (i = 0; i < msgobj->dlc; i++) {
 192:../../evt_lib/src/mcp2515.c **** 		msgobj->data[i] = Rx_Buf[6+i];
 464              		.loc 1 192 0 is_stmt 1 discriminator 2
 465 005a 9179     		ldrb	r1, [r2, #6]	@ D.6538, MEM[base: _59, offset: 6B]
 466 005c EA18     		add	r2, r5, r3	@ D.6535, msgobj, ivtmp.64
 467 005e 0133     		add	r3, r3, #1	@ ivtmp.64,
 468              	.LVL31:
 469 0060 1172     		strb	r1, [r2, #8]	@ D.6538, MEM[base: _2, offset: 8B]
 470              	.LVL32:
 191:../../evt_lib/src/mcp2515.c **** 	for (i = 0; i < msgobj->dlc; i++) {
 471              		.loc 1 191 0 discriminator 2
 472 0062 DAB2     		uxtb	r2, r3	@ ivtmp.64, ivtmp.64
 473 0064 9042     		cmp	r0, r2	@ D.6538, ivtmp.64
 474 0066 F7D8     		bhi	.L17	@,
 475              	.L19:
 476              	.LVL33:
 477              	.LBB56:
 478              	.LBB57:
 479              		.loc 2 104 0
ARM GAS  /var/folders/f9/8bk2lnw15zn4cbgn6wrnb4lm0000gn/T//cc1V3B8l.s 			page 15


 480 0068 3278     		ldrb	r2, [r6]	@ D.6540, _cs_gpio
 481 006a A023     		mov	r3, #160	@,
 482 006c DB05     		lsl	r3, r3, #23	@,,
 483 006e 1204     		lsl	r2, r2, #16	@ D.6540, D.6540,
 484 0070 D218     		add	r2, r2, r3	@ D.6541, D.6540,
 485 0072 3B78     		ldrb	r3, [r7]	@ D.6536, _cs_pin
 486 0074 0121     		mov	r1, #1	@ tmp202,
 487 0076 9940     		lsl	r1, r1, r3	@ tmp202, tmp202, D.6536
 488 0078 0B1C     		mov	r3, r1	@ D.6536, tmp202
 489 007a 8900     		lsl	r1, r1, #2	@ tmp203, D.6536,
 490 007c 8B50     		str	r3, [r1, r2]	@ D.6536, _48->DATA
 491              	.LVL34:
 492              	.LBE57:
 493              	.LBE56:
 193:../../evt_lib/src/mcp2515.c **** 	}
 194:../../evt_lib/src/mcp2515.c **** 
 195:../../evt_lib/src/mcp2515.c **** 	set_gpio_pin_high(_cs_gpio, _cs_pin);
 196:../../evt_lib/src/mcp2515.c **** }
 494              		.loc 1 196 0
 495              		@ sp needed	@
 496              	.LVL35:
 497 007e F8BD     		pop	{r3, r4, r5, r6, r7, pc}
 498              	.LVL36:
 499              	.L16:
 191:../../evt_lib/src/mcp2515.c **** 	for (i = 0; i < msgobj->dlc; i++) {
 500              		.loc 1 191 0 discriminator 1
 501 0080 0028     		cmp	r0, #0	@ D.6538,
 502 0082 E8D1     		bne	.L18	@,
 503 0084 F0E7     		b	.L19	@
 504              	.L22:
 505 0086 C046     		.align	2
 506              	.L21:
 507 0088 00000000 		.word	_cs_gpio
 508 008c 00000000 		.word	_cs_pin
 509 0090 00000000 		.word	.LANCHOR1
 510 0094 00000440 		.word	1074003968
 511 0098 00000000 		.word	.LANCHOR0
 512 009c 00000000 		.word	.LANCHOR2
 513              		.cfi_endproc
 514              	.LFE204:
 515              		.size	MCP2515_ReadBuffer, .-MCP2515_ReadBuffer
 516              		.section	.text.MCP2515_Write,"ax",%progbits
 517              		.align	2
 518              		.global	MCP2515_Write
 519              		.code	16
 520              		.thumb_func
 521              		.type	MCP2515_Write, %function
 522              	MCP2515_Write:
 523              	.LFB205:
 197:../../evt_lib/src/mcp2515.c **** 
 198:../../evt_lib/src/mcp2515.c **** void MCP2515_Write(uint8_t address, uint8_t data) {
 524              		.loc 1 198 0
 525              		.cfi_startproc
 526              	.LVL37:
 527 0000 F8B5     		push	{r3, r4, r5, r6, r7, lr}	@
 528              		.cfi_def_cfa_offset 24
 529              		.cfi_offset 3, -24
ARM GAS  /var/folders/f9/8bk2lnw15zn4cbgn6wrnb4lm0000gn/T//cc1V3B8l.s 			page 16


 530              		.cfi_offset 4, -20
 531              		.cfi_offset 5, -16
 532              		.cfi_offset 6, -12
 533              		.cfi_offset 7, -8
 534              		.cfi_offset 14, -4
 199:../../evt_lib/src/mcp2515.c **** 	set_gpio_pin_low(_cs_gpio, _cs_pin);
 535              		.loc 1 199 0
 536 0002 114E     		ldr	r6, .L24	@ tmp127,
 537 0004 114D     		ldr	r5, .L24+4	@ tmp130,
 538              	.LBB58:
 539              	.LBB59:
 540              		.loc 2 104 0
 541 0006 3378     		ldrb	r3, [r6]	@ D.6547, _cs_gpio
 542 0008 A022     		mov	r2, #160	@,
 543 000a D205     		lsl	r2, r2, #23	@,,
 544 000c 1B04     		lsl	r3, r3, #16	@ D.6547, D.6547,
 545 000e 9B18     		add	r3, r3, r2	@ D.6548, D.6547,
 546 0010 0124     		mov	r4, #1	@ tmp132,
 547 0012 2A78     		ldrb	r2, [r5]	@ D.6549, _cs_pin
 548 0014 271C     		mov	r7, r4	@, tmp132
 549 0016 9740     		lsl	r7, r7, r2	@,, D.6549
 550 0018 BA00     		lsl	r2, r7, #2	@ tmp133, D.6549,
 551 001a 0027     		mov	r7, #0	@ tmp134,
 552 001c D750     		str	r7, [r2, r3]	@ tmp134, _16->DATA
 553              	.LVL38:
 554              	.LBE59:
 555              	.LBE58:
 200:../../evt_lib/src/mcp2515.c **** 	Tx_Buf[0] = MCP2515_WRITE;
 556              		.loc 1 200 0
 557 001e 0C4B     		ldr	r3, .L24+8	@ tmp135,
 558 0020 0222     		mov	r2, #2	@ tmp136,
 559 0022 1A70     		strb	r2, [r3]	@ tmp136, Tx_Buf
 201:../../evt_lib/src/mcp2515.c **** 	Tx_Buf[1] = address;
 560              		.loc 1 201 0
 561 0024 5870     		strb	r0, [r3, #1]	@ address, Tx_Buf
 202:../../evt_lib/src/mcp2515.c **** 	Tx_Buf[2] = data;
 562              		.loc 1 202 0
 563 0026 9970     		strb	r1, [r3, #2]	@ data, Tx_Buf
 203:../../evt_lib/src/mcp2515.c **** 	Chip_SSP_WriteFrames_Blocking(LPC_SSP, Tx_Buf, 3);
 564              		.loc 1 203 0
 565 0028 0322     		mov	r2, #3	@,
 566 002a 191C     		mov	r1, r3	@, tmp135
 567              	.LVL39:
 568 002c 0948     		ldr	r0, .L24+12	@,
 569              	.LVL40:
 570 002e FFF7FEFF 		bl	Chip_SSP_WriteFrames_Blocking	@
 571              	.LVL41:
 572              	.LBB60:
 573              	.LBB61:
 574              		.loc 2 104 0
 575 0032 3378     		ldrb	r3, [r6]	@ D.6547, _cs_gpio
 576 0034 A022     		mov	r2, #160	@,
 577 0036 D205     		lsl	r2, r2, #23	@,,
 578 0038 1B04     		lsl	r3, r3, #16	@ D.6547, D.6547,
 579 003a 9B18     		add	r3, r3, r2	@ D.6548, D.6547,
 580 003c 2A78     		ldrb	r2, [r5]	@ D.6549, _cs_pin
 581              	.LBE61:
ARM GAS  /var/folders/f9/8bk2lnw15zn4cbgn6wrnb4lm0000gn/T//cc1V3B8l.s 			page 17


 582              	.LBE60:
 204:../../evt_lib/src/mcp2515.c **** 	set_gpio_pin_high(_cs_gpio, _cs_pin);
 205:../../evt_lib/src/mcp2515.c **** }
 583              		.loc 1 205 0
 584              		@ sp needed	@
 585              	.LBB63:
 586              	.LBB62:
 587              		.loc 2 104 0
 588 003e 9440     		lsl	r4, r4, r2	@ D.6549, tmp132, D.6549
 589 0040 A200     		lsl	r2, r4, #2	@ tmp150, D.6549,
 590 0042 D450     		str	r4, [r2, r3]	@ D.6549, _21->DATA
 591              	.LVL42:
 592              	.LBE62:
 593              	.LBE63:
 594              		.loc 1 205 0
 595 0044 F8BD     		pop	{r3, r4, r5, r6, r7, pc}
 596              	.L25:
 597 0046 C046     		.align	2
 598              	.L24:
 599 0048 00000000 		.word	_cs_gpio
 600 004c 00000000 		.word	_cs_pin
 601 0050 00000000 		.word	.LANCHOR1
 602 0054 00000440 		.word	1074003968
 603              		.cfi_endproc
 604              	.LFE205:
 605              		.size	MCP2515_Write, .-MCP2515_Write
 606              		.global	__aeabi_uidiv
 607              		.global	__aeabi_uldivmod
 608              		.global	__aeabi_i2d
 609              		.global	__aeabi_dmul
 610              		.global	__aeabi_d2uiz
 611              		.section	.text.MCP2515_SetBitRate,"ax",%progbits
 612              		.align	2
 613              		.global	MCP2515_SetBitRate
 614              		.code	16
 615              		.thumb_func
 616              		.type	MCP2515_SetBitRate, %function
 617              	MCP2515_SetBitRate:
 618              	.LFB199:
  42:../../evt_lib/src/mcp2515.c **** uint8_t MCP2515_SetBitRate(uint32_t baud, uint32_t freq, uint8_t SJW) {
 619              		.loc 1 42 0
 620              		.cfi_startproc
 621              	.LVL43:
 622 0000 F0B5     		push	{r4, r5, r6, r7, lr}	@
 623              		.cfi_def_cfa_offset 20
 624              		.cfi_offset 4, -20
 625              		.cfi_offset 5, -16
 626              		.cfi_offset 6, -12
 627              		.cfi_offset 7, -8
 628              		.cfi_offset 14, -4
 629 0002 5F46     		mov	r7, fp	@,
 630 0004 4D46     		mov	r5, r9	@,
 631 0006 4446     		mov	r4, r8	@,
 632 0008 5646     		mov	r6, r10	@,
 633 000a F0B4     		push	{r4, r5, r6, r7}	@
 634              		.cfi_def_cfa_offset 36
 635              		.cfi_offset 8, -36
ARM GAS  /var/folders/f9/8bk2lnw15zn4cbgn6wrnb4lm0000gn/T//cc1V3B8l.s 			page 18


 636              		.cfi_offset 9, -32
 637              		.cfi_offset 10, -28
 638              		.cfi_offset 11, -24
 639 000c 8946     		mov	r9, r1	@ freq, freq
 640 000e 83B0     		sub	sp, sp, #12	@,,
 641              		.cfi_def_cfa_offset 48
  42:../../evt_lib/src/mcp2515.c **** uint8_t MCP2515_SetBitRate(uint32_t baud, uint32_t freq, uint8_t SJW) {
 642              		.loc 1 42 0
 643 0010 041C     		mov	r4, r0	@ baud, baud
 644 0012 9346     		mov	fp, r2	@ SJW, SJW
  43:../../evt_lib/src/mcp2515.c **** 	if (SJW < 1) SJW = 1;
 645              		.loc 1 43 0
 646 0014 002A     		cmp	r2, #0	@ SJW,
 647 0016 0DD0     		beq	.L35	@,
  44:../../evt_lib/src/mcp2515.c **** 	if (SJW > 4) SJW = 4;
 648              		.loc 1 44 0
 649 0018 042A     		cmp	r2, #4	@ SJW,
 650 001a 01D9     		bls	.L28	@,
 651 001c 0423     		mov	r3, #4	@,
 652 001e 9B46     		mov	fp, r3	@ SJW,
 653              	.L28:
 654              	.LVL44:
 105:../../evt_lib/src/mcp2515.c **** 		return 5;
 655              		.loc 1 105 0
 656 0020 0520     		mov	r0, #5	@ D.6562,
 657              	.LVL45:
  45:../../evt_lib/src/mcp2515.c **** 	if (baud > 0) {
 658              		.loc 1 45 0
 659 0022 002C     		cmp	r4, #0	@ baud,
 660 0024 0BD1     		bne	.L45	@,
 661              	.LVL46:
 662              	.L29:
 109:../../evt_lib/src/mcp2515.c **** }
 663              		.loc 1 109 0
 664 0026 03B0     		add	sp, sp, #12	@,,
 665              		@ sp needed	@
 666 0028 3CBC     		pop	{r2, r3, r4, r5}
 667 002a 9046     		mov	r8, r2
 668 002c 9946     		mov	r9, r3
 669 002e A246     		mov	r10, r4
 670 0030 AB46     		mov	fp, r5
 671 0032 F0BD     		pop	{r4, r5, r6, r7, pc}
 672              	.LVL47:
 673              	.L35:
  43:../../evt_lib/src/mcp2515.c **** 	if (SJW < 1) SJW = 1;
 674              		.loc 1 43 0
 675 0034 0122     		mov	r2, #1	@,
 676              	.LVL48:
 677 0036 9346     		mov	fp, r2	@ SJW,
 678              	.LVL49:
 105:../../evt_lib/src/mcp2515.c **** 		return 5;
 679              		.loc 1 105 0
 680 0038 0520     		mov	r0, #5	@ D.6562,
 681              	.LVL50:
  45:../../evt_lib/src/mcp2515.c **** 	if (baud > 0) {
 682              		.loc 1 45 0
 683 003a 002C     		cmp	r4, #0	@ baud,
ARM GAS  /var/folders/f9/8bk2lnw15zn4cbgn6wrnb4lm0000gn/T//cc1V3B8l.s 			page 19


 684 003c F3D0     		beq	.L29	@,
 685              	.LVL51:
 686              	.L45:
 687              	.LBB64:
  46:../../evt_lib/src/mcp2515.c **** 		MCP2515_Reset();
 688              		.loc 1 46 0
 689 003e FFF7FEFF 		bl	MCP2515_Reset	@
 690              	.LVL52:
  53:../../evt_lib/src/mcp2515.c **** 		uint64_t NBT = 10000 * 1 / baud * 1000; 		// Since baud wil probably not go above 10 Mhz, 
 691              		.loc 1 53 0
 692 0042 211C     		mov	r1, r4	@, baud
 693 0044 3A48     		ldr	r0, .L46+8	@,
 694 0046 FFF7FEFF 		bl	__aeabi_uidiv	@
 695              	.LVL53:
 696 004a FA23     		mov	r3, #250	@ tmp229,
 697 004c 9B00     		lsl	r3, r3, #2	@ tmp166, tmp229,
 698 004e 4343     		mul	r3, r0	@ tmp166, D.6563
 699 0050 384F     		ldr	r7, .L46+12	@ ivtmp.81,
 700 0052 9A46     		mov	r10, r3	@ NBT, tmp166
 701              	.LVL54:
  55:../../evt_lib/src/mcp2515.c **** 		for (BRP = 0; BRP < 64; BRP++) {
 702              		.loc 1 55 0
 703 0054 0024     		mov	r4, #0	@ BRP,
 704              	.LVL55:
 705              	.L34:
  56:../../evt_lib/src/mcp2515.c **** 			TQ = 10000 * 2 * (BRP + 1) / freq;
 706              		.loc 1 56 0
 707 0056 4946     		mov	r1, r9	@, freq
 708 0058 381C     		mov	r0, r7	@, ivtmp.81
 709 005a FFF7FEFF 		bl	__aeabi_uidiv	@
 710              	.LVL56:
  57:../../evt_lib/src/mcp2515.c **** 			tempBT = NBT / TQ; 							// The added 10K should cancel out here
 711              		.loc 1 57 0
 712 005e 0021     		mov	r1, #0	@,
  56:../../evt_lib/src/mcp2515.c **** 			TQ = 10000 * 2 * (BRP + 1) / freq;
 713              		.loc 1 56 0
 714 0060 021C     		mov	r2, r0	@ D.6563,
  57:../../evt_lib/src/mcp2515.c **** 			tempBT = NBT / TQ; 							// The added 10K should cancel out here
 715              		.loc 1 57 0
 716 0062 0023     		mov	r3, #0	@,
 717 0064 5046     		mov	r0, r10	@, NBT
 718 0066 FFF7FEFF 		bl	__aeabi_uldivmod	@
 719              	.LVL57:
 720 006a 061C     		mov	r6, r0	@ tempBT, tmp230
 721 006c 0D1E     		sub	r5, r1, #0	@ tempBT, tmp231,
 722              	.LVL58:
  58:../../evt_lib/src/mcp2515.c **** 			if (tempBT <= 25) {
 723              		.loc 1 58 0
 724 006e 50D1     		bne	.L30	@,
 725 0070 1928     		cmp	r0, #25	@ tempBT,
 726 0072 4ED8     		bhi	.L30	@,
 727              	.LVL59:
 728 0074 FFF7FEFF 		bl	__aeabi_i2d	@
 729              	.LVL60:
 730 0078 2C4B     		ldr	r3, .L46+4	@,
 731 007a 2B4A     		ldr	r2, .L46	@,
 732 007c FFF7FEFF 		bl	__aeabi_dmul	@
ARM GAS  /var/folders/f9/8bk2lnw15zn4cbgn6wrnb4lm0000gn/T//cc1V3B8l.s 			page 20


 733              	.LVL61:
 734 0080 FFF7FEFF 		bl	__aeabi_d2uiz	@
 735              	.LVL62:
 736 0084 C0B2     		uxtb	r0, r0	@ D.6562, tmp180
 737 0086 0138     		sub	r0, r0, #1	@ D.6564,
 738 0088 C30F     		lsr	r3, r0, #31	@ tmp182, D.6564,
 739 008a 1B18     		add	r3, r3, r0	@ tmp183, tmp182, D.6564
 740 008c 5B10     		asr	r3, r3, #1	@ tmp184, tmp183,
 741 008e DAB2     		uxtb	r2, r3	@, tmp184
 742 0090 801A     		sub	r0, r0, r2	@ tmp187, D.6564,
 743 0092 C0B2     		uxtb	r0, r0	@, tmp187
 744 0094 361A     		sub	r6, r6, r0	@ tmp189, tempBT,
 745              	.LVL63:
 746 0096 B61A     		sub	r6, r6, r2	@ tmp191, tmp189,
 747 0098 F6B2     		uxtb	r6, r6	@ D.6567, tmp191
 748 009a 8046     		mov	r8, r0	@ D.6562,
 749 009c 9146     		mov	r9, r2	@ D.6562,
 750              	.LVL64:
 751 009e 721E     		sub	r2, r6, #1	@ tmp192, D.6567,
 752 00a0 D2B2     		uxtb	r2, r2	@ D.6562, tmp192
 753              	.LVL65:
 754 00a2 4344     		add	r3, r3, r8	@ D.6564, D.6562
 755              	.LVL66:
  71:../../evt_lib/src/mcp2515.c **** 			return 1;
 756              		.loc 1 71 0
 757 00a4 0120     		mov	r0, #1	@ D.6562,
  70:../../evt_lib/src/mcp2515.c **** 		if (PRSEG + PHSEG1 < PHSEG2) {
 758              		.loc 1 70 0
 759 00a6 9342     		cmp	r3, r2	@ D.6564, D.6562
 760 00a8 BDDB     		blt	.L29	@,
  75:../../evt_lib/src/mcp2515.c **** 			return 2;
 761              		.loc 1 75 0
 762 00aa 0220     		mov	r0, #2	@ D.6562,
  74:../../evt_lib/src/mcp2515.c **** 		if (PHSEG2 <= SJW) {
 763              		.loc 1 74 0
 764 00ac 9345     		cmp	fp, r2	@ SJW, D.6562
 765 00ae BAD2     		bcs	.L29	@,
 766              	.LVL67:
  82:../../evt_lib/src/mcp2515.c **** 		uint8_t data = (((SJW - 1) << 6) | BRP);
 767              		.loc 1 82 0
 768 00b0 5F46     		mov	r7, fp	@ D.6564, SJW
 769              	.LVL68:
 770 00b2 013F     		sub	r7, r7, #1	@ D.6564,
 771 00b4 BF01     		lsl	r7, r7, #6	@ D.6564, D.6564,
 772 00b6 3C43     		orr	r4, r7	@ tmp199, D.6564
 773              	.LVL69:
 774 00b8 E4B2     		uxtb	r4, r4	@ data, tmp199
 775              	.LVL70:
  84:../../evt_lib/src/mcp2515.c **** 		MCP2515_Write(CNF1, data);
 776              		.loc 1 84 0
 777 00ba 211C     		mov	r1, r4	@, data
 778 00bc 2A20     		mov	r0, #42	@,
 779 00be FFF7FEFF 		bl	MCP2515_Write	@
 780              	.LVL71:
  85:../../evt_lib/src/mcp2515.c **** 		MCP2515_Write(CNF2, ((BTLMODE << 7) | (SAM << 6) | ((PHSEG1 - 1) << 3) | (PRSEG - 1)));
 781              		.loc 1 85 0
 782 00c2 4B46     		mov	r3, r9	@ tmp200, D.6562
ARM GAS  /var/folders/f9/8bk2lnw15zn4cbgn6wrnb4lm0000gn/T//cc1V3B8l.s 			page 21


 783 00c4 8021     		mov	r1, #128	@ tmp228,
 784 00c6 013B     		sub	r3, r3, #1	@ tmp200,
 785 00c8 4942     		neg	r1, r1	@ tmp203, tmp228
 786 00ca 1943     		orr	r1, r3	@ tmp202, tmp200
 787 00cc 4346     		mov	r3, r8	@ D.6564, D.6562
 788 00ce 013B     		sub	r3, r3, #1	@ D.6564,
 789 00d0 DB00     		lsl	r3, r3, #3	@ D.6564, D.6564,
 790 00d2 1943     		orr	r1, r3	@ tmp208, D.6564
 791 00d4 C9B2     		uxtb	r1, r1	@ tmp209, tmp208
 792 00d6 2920     		mov	r0, #41	@,
 793 00d8 FFF7FEFF 		bl	MCP2515_Write	@
 794              	.LVL72:
  86:../../evt_lib/src/mcp2515.c **** 		MCP2515_Write(CNF3, (0x00 | (PHSEG2 - 1)));
 795              		.loc 1 86 0
 796 00dc B11E     		sub	r1, r6, #2	@ tmp210, D.6567,
 797 00de C9B2     		uxtb	r1, r1	@ tmp211, tmp210
 798 00e0 2820     		mov	r0, #40	@,
 799 00e2 FFF7FEFF 		bl	MCP2515_Write	@
 800              	.LVL73:
  87:../../evt_lib/src/mcp2515.c **** 		MCP2515_Write(TXRTSCTRL, 0);
 801              		.loc 1 87 0
 802 00e6 0D20     		mov	r0, #13	@,
 803 00e8 0021     		mov	r1, #0	@,
 804 00ea FFF7FEFF 		bl	MCP2515_Write	@
 805              	.LVL74:
  97:../../evt_lib/src/mcp2515.c **** 		uint8_t rtn = 0;
 806              		.loc 1 97 0
 807 00ee 6E46     		mov	r6, sp	@ tmp212,
 808              	.LVL75:
  94:../../evt_lib/src/mcp2515.c **** 		MCP2515_Write(CANINTE, 0x03);
 809              		.loc 1 94 0
 810 00f0 2B20     		mov	r0, #43	@,
 811 00f2 0321     		mov	r1, #3	@,
 812 00f4 FFF7FEFF 		bl	MCP2515_Write	@
 813              	.LVL76:
  97:../../evt_lib/src/mcp2515.c **** 		uint8_t rtn = 0;
 814              		.loc 1 97 0
 815 00f8 0736     		add	r6, r6, #7	@ tmp212,
 816 00fa 3570     		strb	r5, [r6]	@ tempBT, rtn
  98:../../evt_lib/src/mcp2515.c **** 		MCP2515_Read(CNF1, &rtn, 1);
 817              		.loc 1 98 0
 818 00fc 2A20     		mov	r0, #42	@,
 819 00fe 311C     		mov	r1, r6	@, tmp212
 820 0100 0122     		mov	r2, #1	@,
 821 0102 FFF7FEFF 		bl	MCP2515_Read	@
 822              	.LVL77:
  99:../../evt_lib/src/mcp2515.c **** 		if (rtn == data) {
 823              		.loc 1 99 0
 824 0106 3078     		ldrb	r0, [r6]	@ rtn, rtn
 100:../../evt_lib/src/mcp2515.c **** 			return 0;
 825              		.loc 1 100 0
 826 0108 001B     		sub	r0, r0, r4	@ tmp226, rtn, data
 827 010a 441E     		sub	r4, r0, #1	@ tmp227, tmp226
 828 010c A041     		sbc	r0, r0, r4	@ tmp225, tmp226, tmp227
 829              	.LVL78:
 830 010e 8000     		lsl	r0, r0, #2	@ D.6562, tmp225,
 831 0110 89E7     		b	.L29	@
ARM GAS  /var/folders/f9/8bk2lnw15zn4cbgn6wrnb4lm0000gn/T//cc1V3B8l.s 			page 22


 832              	.LVL79:
 833              	.L30:
  55:../../evt_lib/src/mcp2515.c **** 		for (BRP = 0; BRP < 64; BRP++) {
 834              		.loc 1 55 0
 835 0112 0134     		add	r4, r4, #1	@ tmp194,
 836              	.LVL80:
 837 0114 074B     		ldr	r3, .L46+12	@,
 838 0116 E4B2     		uxtb	r4, r4	@ BRP, tmp194
 839              	.LVL81:
 840 0118 FF18     		add	r7, r7, r3	@ ivtmp.81, ivtmp.81,
 841              	.LVL82:
 842 011a 402C     		cmp	r4, #64	@ BRP,
 843 011c 9BD1     		bne	.L34	@,
  75:../../evt_lib/src/mcp2515.c **** 			return 2;
 844              		.loc 1 75 0
 845 011e 0220     		mov	r0, #2	@ D.6562,
 846              	.LVL83:
 847 0120 81E7     		b	.L29	@
 848              	.L47:
 849 0122 C046C046 		.align	3
 849      C046
 850              	.L46:
 851 0128 66666666 		.word	1717986918
 852 012c 6666E63F 		.word	1072064102
 853 0130 10270000 		.word	10000
 854 0134 204E0000 		.word	20000
 855              	.LBE64:
 856              		.cfi_endproc
 857              	.LFE199:
 858              		.size	MCP2515_SetBitRate, .-MCP2515_SetBitRate
 859              		.section	.text.MCP2515_LoadBuffer,"ax",%progbits
 860              		.align	2
 861              		.global	MCP2515_LoadBuffer
 862              		.code	16
 863              		.thumb_func
 864              		.type	MCP2515_LoadBuffer, %function
 865              	MCP2515_LoadBuffer:
 866              	.LFB206:
 206:../../evt_lib/src/mcp2515.c **** 
 207:../../evt_lib/src/mcp2515.c **** void MCP2515_LoadBuffer(uint8_t buffer, CCAN_MSG_OBJ_T *msgobj) {
 867              		.loc 1 207 0
 868              		.cfi_startproc
 869              	.LVL84:
 870 0000 F8B5     		push	{r3, r4, r5, r6, r7, lr}	@
 871              		.cfi_def_cfa_offset 24
 872              		.cfi_offset 3, -24
 873              		.cfi_offset 4, -20
 874              		.cfi_offset 5, -16
 875              		.cfi_offset 6, -12
 876              		.cfi_offset 7, -8
 877              		.cfi_offset 14, -4
 878              		.loc 1 207 0
 879 0002 0A1C     		mov	r2, r1	@ msgobj, msgobj
 208:../../evt_lib/src/mcp2515.c **** 	Tx_Buf[0] = MCP2515_LOAD_TX_BUF(buffer);
 880              		.loc 1 208 0
 881 0004 4023     		mov	r3, #64	@ tmp152,
 882 0006 1B49     		ldr	r1, .L54	@ tmp199,
ARM GAS  /var/folders/f9/8bk2lnw15zn4cbgn6wrnb4lm0000gn/T//cc1V3B8l.s 			page 23


 883              	.LVL85:
 884 0008 4000     		lsl	r0, r0, #1	@ D.6575, buffer,
 885              	.LVL86:
 886 000a 1843     		orr	r0, r3	@ tmp155, tmp152
 887 000c 0870     		strb	r0, [r1]	@ tmp155, Tx_Buf
 209:../../evt_lib/src/mcp2515.c **** 	Tx_Buf[1] = (msgobj->mode_id >> 3) & 0xFF;
 888              		.loc 1 209 0
 889 000e 1068     		ldr	r0, [r2]	@, msgobj_11(D)->mode_id
 890 0010 C308     		lsr	r3, r0, #3	@ D.6578,,
 891 0012 4B70     		strb	r3, [r1, #1]	@ D.6578, Tx_Buf
 210:../../evt_lib/src/mcp2515.c **** 	Tx_Buf[2] = (msgobj->mode_id & 0x7) << 5;
 892              		.loc 1 210 0
 893 0014 1768     		ldr	r7, [r2]	@, msgobj_11(D)->mode_id
 894 0016 7B01     		lsl	r3, r7, #5	@ tmp164,,
 895 0018 8B70     		strb	r3, [r1, #2]	@ tmp164, Tx_Buf
 211:../../evt_lib/src/mcp2515.c **** 	Tx_Buf[3] = 0;
 896              		.loc 1 211 0
 897 001a 0023     		mov	r3, #0	@ tmp167,
 898 001c CB70     		strb	r3, [r1, #3]	@ tmp167, Tx_Buf
 212:../../evt_lib/src/mcp2515.c **** 	Tx_Buf[4] = 0;
 899              		.loc 1 212 0
 900 001e 0B71     		strb	r3, [r1, #4]	@ tmp167, Tx_Buf
 213:../../evt_lib/src/mcp2515.c **** 	Tx_Buf[5] = msgobj->dlc;
 901              		.loc 1 213 0
 902 0020 107C     		ldrb	r0, [r2, #16]	@ D.6577,
 903 0022 4871     		strb	r0, [r1, #5]	@ D.6577, Tx_Buf
 904              	.LVL87:
 214:../../evt_lib/src/mcp2515.c **** 
 215:../../evt_lib/src/mcp2515.c **** 	uint8_t i;
 216:../../evt_lib/src/mcp2515.c **** 	for (i = 0 ; i < msgobj->dlc; i++) {
 905              		.loc 1 216 0
 906 0024 0028     		cmp	r0, #0	@ D.6577,
 907 0026 08D0     		beq	.L50	@,
 908              	.LVL88:
 909              	.L52:
 217:../../evt_lib/src/mcp2515.c **** 		Tx_Buf[6 + i] = msgobj->data[i];
 910              		.loc 1 217 0 discriminator 2
 911 0028 D018     		add	r0, r2, r3	@ tmp193, msgobj, i
 912 002a 047A     		ldrb	r4, [r0, #8]	@ D.6577, *msgobj_11(D)
 913 002c C818     		add	r0, r1, r3	@ tmp195, tmp199, i
 914 002e 8471     		strb	r4, [r0, #6]	@ D.6577, Tx_Buf
 216:../../evt_lib/src/mcp2515.c **** 	for (i = 0 ; i < msgobj->dlc; i++) {
 915              		.loc 1 216 0 discriminator 2
 916 0030 0133     		add	r3, r3, #1	@ tmp197,
 917              	.LVL89:
 918 0032 107C     		ldrb	r0, [r2, #16]	@ tmp198,
 919 0034 DBB2     		uxtb	r3, r3	@ i, tmp197
 920              	.LVL90:
 921 0036 9842     		cmp	r0, r3	@ tmp198, i
 922 0038 F6D8     		bhi	.L52	@,
 923              	.LVL91:
 924              	.L50:
 218:../../evt_lib/src/mcp2515.c **** 	}
 219:../../evt_lib/src/mcp2515.c **** 
 220:../../evt_lib/src/mcp2515.c **** 	set_gpio_pin_low(_cs_gpio, _cs_pin);
 925              		.loc 1 220 0
 926 003a 0F4E     		ldr	r6, .L54+4	@ tmp174,
ARM GAS  /var/folders/f9/8bk2lnw15zn4cbgn6wrnb4lm0000gn/T//cc1V3B8l.s 			page 24


 927 003c 0F4D     		ldr	r5, .L54+8	@ tmp177,
 928              	.LBB65:
 929              	.LBB66:
 930              		.loc 2 104 0
 931 003e 3378     		ldrb	r3, [r6]	@ D.6579, _cs_gpio
 932 0040 A020     		mov	r0, #160	@,
 933 0042 C005     		lsl	r0, r0, #23	@,,
 934 0044 1B04     		lsl	r3, r3, #16	@ D.6579, D.6579,
 935 0046 1B18     		add	r3, r3, r0	@ D.6580, D.6579,
 936 0048 0124     		mov	r4, #1	@ tmp179,
 937 004a 2878     		ldrb	r0, [r5]	@ D.6575, _cs_pin
 938 004c 271C     		mov	r7, r4	@, tmp179
 939 004e 8740     		lsl	r7, r7, r0	@,, D.6575
 940 0050 B800     		lsl	r0, r7, #2	@ tmp180, D.6575,
 941 0052 0027     		mov	r7, #0	@ tmp181,
 942 0054 C750     		str	r7, [r0, r3]	@ tmp181, _43->DATA
 943              	.LVL92:
 944              	.LBE66:
 945              	.LBE65:
 221:../../evt_lib/src/mcp2515.c **** 	Chip_SSP_WriteFrames_Blocking(LPC_SSP, Tx_Buf, 6 + msgobj->dlc);
 946              		.loc 1 221 0
 947 0056 127C     		ldrb	r2, [r2, #16]	@ D.6575,
 948              	.LVL93:
 949 0058 0948     		ldr	r0, .L54+12	@,
 950 005a 0632     		add	r2, r2, #6	@ D.6575,
 951 005c FFF7FEFF 		bl	Chip_SSP_WriteFrames_Blocking	@
 952              	.LVL94:
 953              	.LBB67:
 954              	.LBB68:
 955              		.loc 2 104 0
 956 0060 2A78     		ldrb	r2, [r5]	@ D.6575, _cs_pin
 957 0062 3378     		ldrb	r3, [r6]	@ D.6579, _cs_gpio
 958 0064 A020     		mov	r0, #160	@,
 959 0066 9440     		lsl	r4, r4, r2	@ D.6575, tmp179, D.6575
 960 0068 C005     		lsl	r0, r0, #23	@,,
 961 006a 1B04     		lsl	r3, r3, #16	@ D.6579, D.6579,
 962 006c 1B18     		add	r3, r3, r0	@ D.6580, D.6579,
 963 006e A200     		lsl	r2, r4, #2	@ tmp192, D.6575,
 964 0070 D450     		str	r4, [r2, r3]	@ D.6575, _48->DATA
 965              	.LVL95:
 966              	.LBE68:
 967              	.LBE67:
 222:../../evt_lib/src/mcp2515.c **** 	set_gpio_pin_high(_cs_gpio, _cs_pin);
 223:../../evt_lib/src/mcp2515.c **** }
 968              		.loc 1 223 0
 969              		@ sp needed	@
 970 0072 F8BD     		pop	{r3, r4, r5, r6, r7, pc}
 971              	.L55:
 972              		.align	2
 973              	.L54:
 974 0074 00000000 		.word	.LANCHOR1
 975 0078 00000000 		.word	_cs_gpio
 976 007c 00000000 		.word	_cs_pin
 977 0080 00000440 		.word	1074003968
 978              		.cfi_endproc
 979              	.LFE206:
 980              		.size	MCP2515_LoadBuffer, .-MCP2515_LoadBuffer
ARM GAS  /var/folders/f9/8bk2lnw15zn4cbgn6wrnb4lm0000gn/T//cc1V3B8l.s 			page 25


 981              		.section	.text.MCP2515_LoadBufferData,"ax",%progbits
 982              		.align	2
 983              		.global	MCP2515_LoadBufferData
 984              		.code	16
 985              		.thumb_func
 986              		.type	MCP2515_LoadBufferData, %function
 987              	MCP2515_LoadBufferData:
 988              	.LFB207:
 224:../../evt_lib/src/mcp2515.c **** 
 225:../../evt_lib/src/mcp2515.c **** void MCP2515_LoadBufferData(uint8_t buffer, CCAN_MSG_OBJ_T *msgobj) {
 989              		.loc 1 225 0
 990              		.cfi_startproc
 991              	.LVL96:
 992 0000 F8B5     		push	{r3, r4, r5, r6, r7, lr}	@
 993              		.cfi_def_cfa_offset 24
 994              		.cfi_offset 3, -24
 995              		.cfi_offset 4, -20
 996              		.cfi_offset 5, -16
 997              		.cfi_offset 6, -12
 998              		.cfi_offset 7, -8
 999              		.cfi_offset 14, -4
 1000              		.loc 1 225 0
 1001 0002 0A1C     		mov	r2, r1	@ msgobj, msgobj
 226:../../evt_lib/src/mcp2515.c **** 	Tx_Buf[0] = MCP2515_LOAD_TX_BUF(buffer) & 0x1;
 1002              		.loc 1 226 0
 1003 0004 1549     		ldr	r1, .L62	@ tmp168,
 1004              	.LVL97:
 1005 0006 0023     		mov	r3, #0	@ tmp140,
 1006 0008 0B70     		strb	r3, [r1]	@ tmp140, Tx_Buf
 1007              	.LVL98:
 227:../../evt_lib/src/mcp2515.c **** 
 228:../../evt_lib/src/mcp2515.c **** 	uint8_t i;
 229:../../evt_lib/src/mcp2515.c **** 	for (i = 0 ; i < msgobj->dlc; i++) {
 1008              		.loc 1 229 0
 1009 000a 107C     		ldrb	r0, [r2, #16]	@ tmp142,
 1010              	.LVL99:
 1011 000c 0028     		cmp	r0, #0	@ tmp142,
 1012 000e 08D0     		beq	.L58	@,
 1013              	.LVL100:
 1014              	.L60:
 230:../../evt_lib/src/mcp2515.c **** 		Tx_Buf[1 + i] = msgobj->data[i];
 1015              		.loc 1 230 0 discriminator 2
 1016 0010 D018     		add	r0, r2, r3	@ tmp162, msgobj, i
 1017 0012 047A     		ldrb	r4, [r0, #8]	@ D.6587, *msgobj_5(D)
 1018 0014 C818     		add	r0, r1, r3	@ tmp164, tmp168, i
 1019 0016 4470     		strb	r4, [r0, #1]	@ D.6587, Tx_Buf
 229:../../evt_lib/src/mcp2515.c **** 	for (i = 0 ; i < msgobj->dlc; i++) {
 1020              		.loc 1 229 0 discriminator 2
 1021 0018 0133     		add	r3, r3, #1	@ tmp166,
 1022              	.LVL101:
 1023 001a 107C     		ldrb	r0, [r2, #16]	@ tmp167,
 1024 001c DBB2     		uxtb	r3, r3	@ i, tmp166
 1025              	.LVL102:
 1026 001e 9842     		cmp	r0, r3	@ tmp167, i
 1027 0020 F6D8     		bhi	.L60	@,
 1028              	.LVL103:
 1029              	.L58:
ARM GAS  /var/folders/f9/8bk2lnw15zn4cbgn6wrnb4lm0000gn/T//cc1V3B8l.s 			page 26


 231:../../evt_lib/src/mcp2515.c **** 	}
 232:../../evt_lib/src/mcp2515.c **** 
 233:../../evt_lib/src/mcp2515.c **** 	set_gpio_pin_low(_cs_gpio, _cs_pin);
 1030              		.loc 1 233 0
 1031 0022 0F4E     		ldr	r6, .L62+4	@ tmp143,
 1032 0024 0F4D     		ldr	r5, .L62+8	@ tmp146,
 1033              	.LBB69:
 1034              	.LBB70:
 1035              		.loc 2 104 0
 1036 0026 3378     		ldrb	r3, [r6]	@ D.6590, _cs_gpio
 1037 0028 A020     		mov	r0, #160	@,
 1038 002a C005     		lsl	r0, r0, #23	@,,
 1039 002c 1B04     		lsl	r3, r3, #16	@ D.6590, D.6590,
 1040 002e 1B18     		add	r3, r3, r0	@ D.6591, D.6590,
 1041 0030 0124     		mov	r4, #1	@ tmp148,
 1042 0032 2878     		ldrb	r0, [r5]	@ D.6588, _cs_pin
 1043 0034 271C     		mov	r7, r4	@, tmp148
 1044 0036 8740     		lsl	r7, r7, r0	@,, D.6588
 1045 0038 B800     		lsl	r0, r7, #2	@ tmp149, D.6588,
 1046 003a 0027     		mov	r7, #0	@ tmp150,
 1047 003c C750     		str	r7, [r0, r3]	@ tmp150, _25->DATA
 1048              	.LVL104:
 1049              	.LBE70:
 1050              	.LBE69:
 234:../../evt_lib/src/mcp2515.c **** 	Chip_SSP_WriteFrames_Blocking(LPC_SSP, Tx_Buf, 1 + msgobj->dlc);
 1051              		.loc 1 234 0
 1052 003e 127C     		ldrb	r2, [r2, #16]	@ D.6588,
 1053              	.LVL105:
 1054 0040 0948     		ldr	r0, .L62+12	@,
 1055 0042 0132     		add	r2, r2, #1	@ D.6588,
 1056 0044 FFF7FEFF 		bl	Chip_SSP_WriteFrames_Blocking	@
 1057              	.LVL106:
 1058              	.LBB71:
 1059              	.LBB72:
 1060              		.loc 2 104 0
 1061 0048 2A78     		ldrb	r2, [r5]	@ D.6588, _cs_pin
 1062 004a 3378     		ldrb	r3, [r6]	@ D.6590, _cs_gpio
 1063 004c A020     		mov	r0, #160	@,
 1064 004e 9440     		lsl	r4, r4, r2	@ D.6588, tmp148, D.6588
 1065 0050 C005     		lsl	r0, r0, #23	@,,
 1066 0052 1B04     		lsl	r3, r3, #16	@ D.6590, D.6590,
 1067 0054 1B18     		add	r3, r3, r0	@ D.6591, D.6590,
 1068 0056 A200     		lsl	r2, r4, #2	@ tmp161, D.6588,
 1069 0058 D450     		str	r4, [r2, r3]	@ D.6588, _30->DATA
 1070              	.LVL107:
 1071              	.LBE72:
 1072              	.LBE71:
 235:../../evt_lib/src/mcp2515.c **** 	set_gpio_pin_high(_cs_gpio, _cs_pin);
 236:../../evt_lib/src/mcp2515.c **** }
 1073              		.loc 1 236 0
 1074              		@ sp needed	@
 1075 005a F8BD     		pop	{r3, r4, r5, r6, r7, pc}
 1076              	.L63:
 1077              		.align	2
 1078              	.L62:
 1079 005c 00000000 		.word	.LANCHOR1
 1080 0060 00000000 		.word	_cs_gpio
ARM GAS  /var/folders/f9/8bk2lnw15zn4cbgn6wrnb4lm0000gn/T//cc1V3B8l.s 			page 27


 1081 0064 00000000 		.word	_cs_pin
 1082 0068 00000440 		.word	1074003968
 1083              		.cfi_endproc
 1084              	.LFE207:
 1085              		.size	MCP2515_LoadBufferData, .-MCP2515_LoadBufferData
 1086              		.section	.text.MCP2515_SendBuffer,"ax",%progbits
 1087              		.align	2
 1088              		.global	MCP2515_SendBuffer
 1089              		.code	16
 1090              		.thumb_func
 1091              		.type	MCP2515_SendBuffer, %function
 1092              	MCP2515_SendBuffer:
 1093              	.LFB208:
 237:../../evt_lib/src/mcp2515.c **** 
 238:../../evt_lib/src/mcp2515.c **** void MCP2515_SendBuffer(uint8_t buffer) {
 1094              		.loc 1 238 0
 1095              		.cfi_startproc
 1096              	.LVL108:
 1097 0000 38B5     		push	{r3, r4, r5, lr}	@
 1098              		.cfi_def_cfa_offset 16
 1099              		.cfi_offset 3, -16
 1100              		.cfi_offset 4, -12
 1101              		.cfi_offset 5, -8
 1102              		.cfi_offset 14, -4
 239:../../evt_lib/src/mcp2515.c **** 	set_gpio_pin_low(_cs_gpio, _cs_pin);
 1103              		.loc 1 239 0
 1104 0002 164D     		ldr	r5, .L69	@ tmp152,
 1105              	.LBB73:
 1106              	.LBB74:
 1107              		.loc 2 104 0
 1108 0004 A022     		mov	r2, #160	@,
 1109 0006 2B78     		ldrb	r3, [r5]	@ D.6596, _cs_gpio
 1110              	.LBE74:
 1111              	.LBE73:
 1112              		.loc 1 239 0
 1113 0008 154C     		ldr	r4, .L69+4	@ tmp153,
 1114              	.LBB76:
 1115              	.LBB75:
 1116              		.loc 2 104 0
 1117 000a D205     		lsl	r2, r2, #23	@,,
 1118 000c 1B04     		lsl	r3, r3, #16	@ D.6596, D.6596,
 1119 000e 9B18     		add	r3, r3, r2	@ D.6597, D.6596,
 1120 0010 2278     		ldrb	r2, [r4]	@ D.6598, _cs_pin
 1121 0012 0421     		mov	r1, #4	@ D.6598,
 1122 0014 9140     		lsl	r1, r1, r2	@ D.6598, D.6598, D.6598
 1123 0016 0A1C     		mov	r2, r1	@ tmp132, D.6598
 1124 0018 0021     		mov	r1, #0	@ tmp133,
 1125 001a D150     		str	r1, [r2, r3]	@ tmp133, _16->DATA
 1126              	.LVL109:
 1127              	.LBE75:
 1128              	.LBE76:
 240:../../evt_lib/src/mcp2515.c **** 	switch (buffer) {
 241:../../evt_lib/src/mcp2515.c **** 		case 0:
 242:../../evt_lib/src/mcp2515.c **** 			Tx_Buf[0] = MCP2515_RTS0;
 243:../../evt_lib/src/mcp2515.c **** 			break;
 244:../../evt_lib/src/mcp2515.c **** 		case 1:
 245:../../evt_lib/src/mcp2515.c **** 			Tx_Buf[0] = MCP2515_RTS1;
ARM GAS  /var/folders/f9/8bk2lnw15zn4cbgn6wrnb4lm0000gn/T//cc1V3B8l.s 			page 28


 1129              		.loc 1 245 0
 1130 001c 1149     		ldr	r1, .L69+8	@ tmp154,
 240:../../evt_lib/src/mcp2515.c **** 	switch (buffer) {
 1131              		.loc 1 240 0
 1132 001e 0128     		cmp	r0, #1	@ buffer,
 1133 0020 18D0     		beq	.L66	@,
 1134 0022 0028     		cmp	r0, #0	@ buffer,
 1135 0024 13D0     		beq	.L67	@,
 1136 0026 0228     		cmp	r0, #2	@ buffer,
 1137 0028 01D1     		bne	.L65	@,
 246:../../evt_lib/src/mcp2515.c **** 			break;
 247:../../evt_lib/src/mcp2515.c **** 		case 2:
 248:../../evt_lib/src/mcp2515.c **** 			Tx_Buf[0] = MCP2515_RTS2;
 1138              		.loc 1 248 0
 1139 002a 8423     		mov	r3, #132	@ tmp141,
 1140 002c 0B70     		strb	r3, [r1]	@ tmp141, Tx_Buf
 1141              	.L65:
 249:../../evt_lib/src/mcp2515.c **** 			break;
 250:../../evt_lib/src/mcp2515.c **** 	}
 251:../../evt_lib/src/mcp2515.c **** 	Chip_SSP_WriteFrames_Blocking(LPC_SSP, Tx_Buf, 1);
 1142              		.loc 1 251 0
 1143 002e 0122     		mov	r2, #1	@,
 1144 0030 0D48     		ldr	r0, .L69+12	@,
 1145              	.LVL110:
 1146 0032 FFF7FEFF 		bl	Chip_SSP_WriteFrames_Blocking	@
 1147              	.LVL111:
 1148              	.LBB77:
 1149              	.LBB78:
 1150              		.loc 2 104 0
 1151 0036 2A78     		ldrb	r2, [r5]	@ D.6596, _cs_gpio
 1152 0038 A023     		mov	r3, #160	@,
 1153 003a DB05     		lsl	r3, r3, #23	@,,
 1154 003c 1204     		lsl	r2, r2, #16	@ D.6596, D.6596,
 1155 003e D218     		add	r2, r2, r3	@ D.6597, D.6596,
 1156 0040 2378     		ldrb	r3, [r4]	@ D.6598, _cs_pin
 1157 0042 0121     		mov	r1, #1	@ tmp150,
 1158 0044 9940     		lsl	r1, r1, r3	@ tmp150, tmp150, D.6598
 1159 0046 0B1C     		mov	r3, r1	@ D.6598, tmp150
 1160 0048 8900     		lsl	r1, r1, #2	@ tmp151, D.6598,
 1161 004a 8B50     		str	r3, [r1, r2]	@ D.6598, _21->DATA
 1162              	.LVL112:
 1163              	.LBE78:
 1164              	.LBE77:
 252:../../evt_lib/src/mcp2515.c **** 	set_gpio_pin_high(_cs_gpio, _cs_pin);
 253:../../evt_lib/src/mcp2515.c **** }
 1165              		.loc 1 253 0
 1166              		@ sp needed	@
 1167 004c 38BD     		pop	{r3, r4, r5, pc}
 1168              	.LVL113:
 1169              	.L67:
 242:../../evt_lib/src/mcp2515.c **** 			Tx_Buf[0] = MCP2515_RTS0;
 1170              		.loc 1 242 0
 1171 004e 8123     		mov	r3, #129	@ tmp135,
 1172 0050 0B70     		strb	r3, [r1]	@ tmp135, Tx_Buf
 243:../../evt_lib/src/mcp2515.c **** 			break;
 1173              		.loc 1 243 0
 1174 0052 ECE7     		b	.L65	@
ARM GAS  /var/folders/f9/8bk2lnw15zn4cbgn6wrnb4lm0000gn/T//cc1V3B8l.s 			page 29


 1175              	.L66:
 245:../../evt_lib/src/mcp2515.c **** 			Tx_Buf[0] = MCP2515_RTS1;
 1176              		.loc 1 245 0
 1177 0054 8223     		mov	r3, #130	@ tmp138,
 1178 0056 0B70     		strb	r3, [r1]	@ tmp138, Tx_Buf
 246:../../evt_lib/src/mcp2515.c **** 			break;
 1179              		.loc 1 246 0
 1180 0058 E9E7     		b	.L65	@
 1181              	.L70:
 1182 005a C046     		.align	2
 1183              	.L69:
 1184 005c 00000000 		.word	_cs_gpio
 1185 0060 00000000 		.word	_cs_pin
 1186 0064 00000000 		.word	.LANCHOR1
 1187 0068 00000440 		.word	1074003968
 1188              		.cfi_endproc
 1189              	.LFE208:
 1190              		.size	MCP2515_SendBuffer, .-MCP2515_SendBuffer
 1191              		.section	.text.MCP2515_BitModify,"ax",%progbits
 1192              		.align	2
 1193              		.global	MCP2515_BitModify
 1194              		.code	16
 1195              		.thumb_func
 1196              		.type	MCP2515_BitModify, %function
 1197              	MCP2515_BitModify:
 1198              	.LFB209:
 254:../../evt_lib/src/mcp2515.c **** 
 255:../../evt_lib/src/mcp2515.c **** void MCP2515_BitModify(uint8_t address, uint8_t mask, uint8_t data) {
 1199              		.loc 1 255 0
 1200              		.cfi_startproc
 1201              	.LVL114:
 1202 0000 F8B5     		push	{r3, r4, r5, r6, r7, lr}	@
 1203              		.cfi_def_cfa_offset 24
 1204              		.cfi_offset 3, -24
 1205              		.cfi_offset 4, -20
 1206              		.cfi_offset 5, -16
 1207              		.cfi_offset 6, -12
 1208              		.cfi_offset 7, -8
 1209              		.cfi_offset 14, -4
 1210 0002 4F46     		mov	r7, r9	@,
 1211 0004 4646     		mov	r6, r8	@,
 1212 0006 C0B4     		push	{r6, r7}	@
 1213              		.cfi_def_cfa_offset 32
 1214              		.cfi_offset 8, -32
 1215              		.cfi_offset 9, -28
 256:../../evt_lib/src/mcp2515.c **** 	set_gpio_pin_low(_cs_gpio, _cs_pin);
 1216              		.loc 1 256 0
 1217 0008 154E     		ldr	r6, .L72	@ tmp128,
 1218              	.LBB79:
 1219              	.LBB80:
 1220              		.loc 2 104 0
 1221 000a A024     		mov	r4, #160	@,
 1222 000c 3378     		ldrb	r3, [r6]	@ D.6603, _cs_gpio
 1223              	.LBE80:
 1224              	.LBE79:
 1225              		.loc 1 256 0
 1226 000e 154D     		ldr	r5, .L72+4	@ tmp131,
ARM GAS  /var/folders/f9/8bk2lnw15zn4cbgn6wrnb4lm0000gn/T//cc1V3B8l.s 			page 30


 1227              	.LBB82:
 1228              	.LBB81:
 1229              		.loc 2 104 0
 1230 0010 1B04     		lsl	r3, r3, #16	@ D.6603, D.6603,
 1231 0012 E405     		lsl	r4, r4, #23	@,,
 1232 0014 E418     		add	r4, r4, r3	@,, D.6603
 1233 0016 A046     		mov	r8, r4	@ D.6604,
 1234 0018 2B78     		ldrb	r3, [r5]	@ D.6605, _cs_pin
 1235 001a 0124     		mov	r4, #1	@ tmp133,
 1236 001c 271C     		mov	r7, r4	@, tmp133
 1237 001e 9F40     		lsl	r7, r7, r3	@,, D.6605
 1238 0020 BB00     		lsl	r3, r7, #2	@, D.6605,
 1239 0022 9946     		mov	r9, r3	@ tmp134,
 1240 0024 0023     		mov	r3, #0	@,
 1241 0026 1F1C     		mov	r7, r3	@, tmp135
 1242 0028 4B46     		mov	r3, r9	@, tmp134
 1243 002a 4344     		add	r3, r3, r8	@, D.6604
 1244 002c 1F60     		str	r7, [r3]	@, _18->DATA
 1245              	.LVL115:
 1246              	.LBE81:
 1247              	.LBE82:
 257:../../evt_lib/src/mcp2515.c **** 	Tx_Buf[0] = MCP2515_BIT_MODIFY;
 1248              		.loc 1 257 0
 1249 002e 0E4B     		ldr	r3, .L72+8	@ tmp136,
 1250 0030 0527     		mov	r7, #5	@ tmp137,
 258:../../evt_lib/src/mcp2515.c **** 	Tx_Buf[1] = address;
 1251              		.loc 1 258 0
 1252 0032 5870     		strb	r0, [r3, #1]	@ address, Tx_Buf
 259:../../evt_lib/src/mcp2515.c **** 	Tx_Buf[2] = mask;
 1253              		.loc 1 259 0
 1254 0034 9970     		strb	r1, [r3, #2]	@ mask, Tx_Buf
 260:../../evt_lib/src/mcp2515.c **** 	Tx_Buf[3] = data;
 1255              		.loc 1 260 0
 1256 0036 DA70     		strb	r2, [r3, #3]	@ data, Tx_Buf
 261:../../evt_lib/src/mcp2515.c **** 	Chip_SSP_WriteFrames_Blocking(LPC_SSP, Tx_Buf, 4);
 1257              		.loc 1 261 0
 1258 0038 191C     		mov	r1, r3	@, tmp136
 1259              	.LVL116:
 1260 003a 0422     		mov	r2, #4	@,
 1261              	.LVL117:
 1262 003c 0B48     		ldr	r0, .L72+12	@,
 1263              	.LVL118:
 257:../../evt_lib/src/mcp2515.c **** 	Tx_Buf[0] = MCP2515_BIT_MODIFY;
 1264              		.loc 1 257 0
 1265 003e 1F70     		strb	r7, [r3]	@ tmp137, Tx_Buf
 1266              		.loc 1 261 0
 1267 0040 FFF7FEFF 		bl	Chip_SSP_WriteFrames_Blocking	@
 1268              	.LVL119:
 1269              	.LBB83:
 1270              	.LBB84:
 1271              		.loc 2 104 0
 1272 0044 2A78     		ldrb	r2, [r5]	@ D.6605, _cs_pin
 1273 0046 3378     		ldrb	r3, [r6]	@ D.6603, _cs_gpio
 1274 0048 A027     		mov	r7, #160	@,
 1275 004a FF05     		lsl	r7, r7, #23	@,,
 1276 004c 9440     		lsl	r4, r4, r2	@ D.6605, tmp133, D.6605
 1277 004e 1B04     		lsl	r3, r3, #16	@ D.6603, D.6603,
ARM GAS  /var/folders/f9/8bk2lnw15zn4cbgn6wrnb4lm0000gn/T//cc1V3B8l.s 			page 31


 1278 0050 DB19     		add	r3, r3, r7	@ D.6604, D.6603,
 1279 0052 A200     		lsl	r2, r4, #2	@ tmp153, D.6605,
 1280 0054 D450     		str	r4, [r2, r3]	@ D.6605, _23->DATA
 1281              	.LVL120:
 1282              	.LBE84:
 1283              	.LBE83:
 262:../../evt_lib/src/mcp2515.c **** 	set_gpio_pin_high(_cs_gpio, _cs_pin);
 263:../../evt_lib/src/mcp2515.c **** }
 1284              		.loc 1 263 0
 1285              		@ sp needed	@
 1286 0056 0CBC     		pop	{r2, r3}
 1287 0058 9046     		mov	r8, r2
 1288 005a 9946     		mov	r9, r3
 1289 005c F8BD     		pop	{r3, r4, r5, r6, r7, pc}
 1290              	.L73:
 1291 005e C046     		.align	2
 1292              	.L72:
 1293 0060 00000000 		.word	_cs_gpio
 1294 0064 00000000 		.word	_cs_pin
 1295 0068 00000000 		.word	.LANCHOR1
 1296 006c 00000440 		.word	1074003968
 1297              		.cfi_endproc
 1298              	.LFE209:
 1299              		.size	MCP2515_BitModify, .-MCP2515_BitModify
 1300              		.section	.text.MCP2515_GetFullReceiveBuffer,"ax",%progbits
 1301              		.align	2
 1302              		.global	MCP2515_GetFullReceiveBuffer
 1303              		.code	16
 1304              		.thumb_func
 1305              		.type	MCP2515_GetFullReceiveBuffer, %function
 1306              	MCP2515_GetFullReceiveBuffer:
 1307              	.LFB201:
 118:../../evt_lib/src/mcp2515.c **** int8_t MCP2515_GetFullReceiveBuffer(void) {
 1308              		.loc 1 118 0
 1309              		.cfi_startproc
 1310              	.LVL121:
 1311 0000 30B5     		push	{r4, r5, lr}	@
 1312              		.cfi_def_cfa_offset 12
 1313              		.cfi_offset 4, -12
 1314              		.cfi_offset 5, -8
 1315              		.cfi_offset 14, -4
 119:../../evt_lib/src/mcp2515.c **** 	if (Chip_GPIO_GetPinState(LPC_GPIO, _int_gpio, _int_pin))
 1316              		.loc 1 119 0
 1317 0002 1B4B     		ldr	r3, .L85	@ tmp124,
 1318 0004 1B4A     		ldr	r2, .L85+4	@ tmp127,
 1319              	.LBB85:
 1320              	.LBB86:
 105:../../lpc_chip_11cxx_lib/inc/gpio_11xx_2.h **** }
 106:../../lpc_chip_11cxx_lib/inc/gpio_11xx_2.h **** 
 107:../../lpc_chip_11cxx_lib/inc/gpio_11xx_2.h **** /**
 108:../../lpc_chip_11cxx_lib/inc/gpio_11xx_2.h ****  * @brief	Read a GPIO state
 109:../../lpc_chip_11cxx_lib/inc/gpio_11xx_2.h ****  * @param	pGPIO	: The base of GPIO peripheral on the chip
 110:../../lpc_chip_11cxx_lib/inc/gpio_11xx_2.h ****  * @param	port	: GPIO port to read
 111:../../lpc_chip_11cxx_lib/inc/gpio_11xx_2.h ****  * @param	bit		: GPIO bit to read
 112:../../lpc_chip_11cxx_lib/inc/gpio_11xx_2.h ****  * @return	true of the GPIO is high, false if low
 113:../../lpc_chip_11cxx_lib/inc/gpio_11xx_2.h ****  * @note	It is recommended to use the Chip_GPIO_GetPinState() function instead.
 114:../../lpc_chip_11cxx_lib/inc/gpio_11xx_2.h ****  */
ARM GAS  /var/folders/f9/8bk2lnw15zn4cbgn6wrnb4lm0000gn/T//cc1V3B8l.s 			page 32


 115:../../lpc_chip_11cxx_lib/inc/gpio_11xx_2.h **** STATIC INLINE bool Chip_GPIO_ReadPortBit(LPC_GPIO_T *pGPIO, uint32_t port, uint8_t bit)
 116:../../lpc_chip_11cxx_lib/inc/gpio_11xx_2.h **** {
 117:../../lpc_chip_11cxx_lib/inc/gpio_11xx_2.h **** 	return (bool) ((pGPIO[port].DATA[1 << bit] >> bit) & 1);
 118:../../lpc_chip_11cxx_lib/inc/gpio_11xx_2.h **** }
 119:../../lpc_chip_11cxx_lib/inc/gpio_11xx_2.h **** 
 120:../../lpc_chip_11cxx_lib/inc/gpio_11xx_2.h **** /**
 121:../../lpc_chip_11cxx_lib/inc/gpio_11xx_2.h ****  * @brief	Get a GPIO pin state via the GPIO byte register
 122:../../lpc_chip_11cxx_lib/inc/gpio_11xx_2.h ****  * @param	pGPIO	: The base of GPIO peripheral on the chip
 123:../../lpc_chip_11cxx_lib/inc/gpio_11xx_2.h ****  * @param	port	: Port number
 124:../../lpc_chip_11cxx_lib/inc/gpio_11xx_2.h ****  * @param	pin		: GPIO pin to get state for
 125:../../lpc_chip_11cxx_lib/inc/gpio_11xx_2.h ****  * @return	true if the GPIO is high, false if low
 126:../../lpc_chip_11cxx_lib/inc/gpio_11xx_2.h ****  * @note	This function replaces Chip_GPIO_ReadPortBit()
 127:../../lpc_chip_11cxx_lib/inc/gpio_11xx_2.h ****  */
 128:../../lpc_chip_11cxx_lib/inc/gpio_11xx_2.h **** STATIC INLINE bool Chip_GPIO_GetPinState(LPC_GPIO_T *pGPIO, uint8_t port, uint8_t pin)
 129:../../lpc_chip_11cxx_lib/inc/gpio_11xx_2.h **** {
 130:../../lpc_chip_11cxx_lib/inc/gpio_11xx_2.h **** 	return (pGPIO[port].DATA[1 << pin]) != 0;
 1321              		.loc 2 130 0
 1322 0006 1B78     		ldrb	r3, [r3]	@ D.6612, _int_gpio
 1323 0008 A021     		mov	r1, #160	@,
 1324 000a C905     		lsl	r1, r1, #23	@,,
 1325 000c 1278     		ldrb	r2, [r2]	@ D.6614, _int_pin
 1326 000e 1B04     		lsl	r3, r3, #16	@ D.6612, D.6612,
 1327 0010 0125     		mov	r5, #1	@ tmp129,
 1328 0012 5B18     		add	r3, r3, r1	@ D.6613, D.6612,
 1329 0014 291C     		mov	r1, r5	@, tmp129
 1330 0016 9140     		lsl	r1, r1, r2	@,, D.6614
 1331 0018 8A00     		lsl	r2, r1, #2	@ tmp130, D.6614,
 1332 001a D358     		ldr	r3, [r2, r3]	@ D.6615, _17->DATA
 1333              	.LBE86:
 1334              	.LBE85:
 118:../../evt_lib/src/mcp2515.c **** int8_t MCP2515_GetFullReceiveBuffer(void) {
 1335              		.loc 1 118 0
 1336 001c 83B0     		sub	sp, sp, #12	@,,
 1337              		.cfi_def_cfa_offset 24
 119:../../evt_lib/src/mcp2515.c **** 	if (Chip_GPIO_GetPinState(LPC_GPIO, _int_gpio, _int_pin))
 1338              		.loc 1 119 0
 1339 001e 002B     		cmp	r3, #0	@ D.6615,
 1340 0020 1DD1     		bne	.L79	@,
 122:../../evt_lib/src/mcp2515.c **** 	MCP2515_Read(CANINTF, &tmp, 1);
 1341              		.loc 1 122 0
 1342 0022 6C46     		mov	r4, sp	@ tmp131,
 1343 0024 0734     		add	r4, r4, #7	@ tmp131,
 1344 0026 2C20     		mov	r0, #44	@,
 1345 0028 211C     		mov	r1, r4	@, tmp131
 1346 002a 0122     		mov	r2, #1	@,
 1347 002c FFF7FEFF 		bl	MCP2515_Read	@
 1348              	.LVL122:
 123:../../evt_lib/src/mcp2515.c **** 	if (tmp & 0x3) {
 1349              		.loc 1 123 0
 1350 0030 2378     		ldrb	r3, [r4]	@ tmp.11, tmp
 1351 0032 9A07     		lsl	r2, r3, #30	@, tmp.11,
 1352 0034 0CD1     		bne	.L83	@,
 126:../../evt_lib/src/mcp2515.c **** 	} else if (tmp & 0x1) {
 1353              		.loc 1 126 0
 1354 0036 1D42     		tst	r5, r3	@ tmp129, tmp.11
 1355 0038 13D1     		bne	.L84	@,
 129:../../evt_lib/src/mcp2515.c **** 	} else if (tmp & 0x2) {
ARM GAS  /var/folders/f9/8bk2lnw15zn4cbgn6wrnb4lm0000gn/T//cc1V3B8l.s 			page 33


 1356              		.loc 1 129 0
 1357 003a 9907     		lsl	r1, r3, #30	@, tmp.11,
 1358 003c 0FD5     		bpl	.L79	@,
 130:../../evt_lib/src/mcp2515.c **** 		MCP2515_BitModify(CANINTF, 0x02, 0x00);
 1359              		.loc 1 130 0
 1360 003e 2C20     		mov	r0, #44	@,
 1361 0040 0221     		mov	r1, #2	@,
 1362 0042 0022     		mov	r2, #0	@,
 1363 0044 FFF7FEFF 		bl	MCP2515_BitModify	@
 1364              	.LVL123:
 131:../../evt_lib/src/mcp2515.c **** 		return 1;
 1365              		.loc 1 131 0
 1366 0048 0120     		mov	r0, #1	@ D.6610,
 1367              	.L76:
 1368 004a 40B2     		sxtb	r0, r0	@ D.6610, D.6610
 135:../../evt_lib/src/mcp2515.c **** }
 1369              		.loc 1 135 0
 1370 004c 03B0     		add	sp, sp, #12	@,,
 1371              		@ sp needed	@
 1372 004e 30BD     		pop	{r4, r5, pc}
 1373              	.L83:
 124:../../evt_lib/src/mcp2515.c **** 		MCP2515_BitModify(CANINTF, 0x03, 0x00);
 1374              		.loc 1 124 0
 1375 0050 2C20     		mov	r0, #44	@,
 1376 0052 0321     		mov	r1, #3	@,
 1377 0054 0022     		mov	r2, #0	@,
 1378 0056 FFF7FEFF 		bl	MCP2515_BitModify	@
 1379              	.LVL124:
 125:../../evt_lib/src/mcp2515.c **** 		return 2;
 1380              		.loc 1 125 0
 1381 005a 0220     		mov	r0, #2	@ D.6610,
 1382 005c F5E7     		b	.L76	@
 1383              	.L79:
 120:../../evt_lib/src/mcp2515.c **** 		return -1;
 1384              		.loc 1 120 0
 1385 005e FF20     		mov	r0, #255	@ D.6610,
 1386 0060 F3E7     		b	.L76	@
 1387              	.L84:
 127:../../evt_lib/src/mcp2515.c **** 		MCP2515_BitModify(CANINTF, 0x01, 0x00);
 1388              		.loc 1 127 0
 1389 0062 2C20     		mov	r0, #44	@,
 1390 0064 0121     		mov	r1, #1	@,
 1391 0066 0022     		mov	r2, #0	@,
 1392 0068 FFF7FEFF 		bl	MCP2515_BitModify	@
 1393              	.LVL125:
 128:../../evt_lib/src/mcp2515.c **** 		return 0;
 1394              		.loc 1 128 0
 1395 006c 0020     		mov	r0, #0	@ D.6610,
 1396 006e ECE7     		b	.L76	@
 1397              	.L86:
 1398              		.align	2
 1399              	.L85:
 1400 0070 00000000 		.word	_int_gpio
 1401 0074 00000000 		.word	_int_pin
 1402              		.cfi_endproc
 1403              	.LFE201:
 1404              		.size	MCP2515_GetFullReceiveBuffer, .-MCP2515_GetFullReceiveBuffer
ARM GAS  /var/folders/f9/8bk2lnw15zn4cbgn6wrnb4lm0000gn/T//cc1V3B8l.s 			page 34


 1405              		.section	.text.MCP2515_GetEmptyTransmitBuffer,"ax",%progbits
 1406              		.align	2
 1407              		.global	MCP2515_GetEmptyTransmitBuffer
 1408              		.code	16
 1409              		.thumb_func
 1410              		.type	MCP2515_GetEmptyTransmitBuffer, %function
 1411              	MCP2515_GetEmptyTransmitBuffer:
 1412              	.LFB202:
 137:../../evt_lib/src/mcp2515.c **** int8_t MCP2515_GetEmptyTransmitBuffer(void) {
 1413              		.loc 1 137 0
 1414              		.cfi_startproc
 1415              	.LVL126:
 1416 0000 10B5     		push	{r4, lr}	@
 1417              		.cfi_def_cfa_offset 8
 1418              		.cfi_offset 4, -8
 1419              		.cfi_offset 14, -4
 138:../../evt_lib/src/mcp2515.c **** 	if (Chip_GPIO_GetPinState(LPC_GPIO, _int_gpio, _int_pin))
 1420              		.loc 1 138 0
 1421 0002 1A4B     		ldr	r3, .L98	@ tmp124,
 1422              	.LBB87:
 1423              	.LBB88:
 1424              		.loc 2 130 0
 1425 0004 A022     		mov	r2, #160	@,
 1426 0006 1B78     		ldrb	r3, [r3]	@ D.6620, _int_gpio
 1427 0008 D205     		lsl	r2, r2, #23	@,,
 1428 000a 1B04     		lsl	r3, r3, #16	@ D.6620, D.6620,
 1429 000c 9B18     		add	r3, r3, r2	@ D.6621, D.6620,
 1430              	.LBE88:
 1431              	.LBE87:
 138:../../evt_lib/src/mcp2515.c **** 	if (Chip_GPIO_GetPinState(LPC_GPIO, _int_gpio, _int_pin))
 1432              		.loc 1 138 0
 1433 000e 184A     		ldr	r2, .L98+4	@ tmp127,
 1434              	.LBB91:
 1435              	.LBB89:
 1436              		.loc 2 130 0
 1437 0010 0421     		mov	r1, #4	@ D.6622,
 1438 0012 1278     		ldrb	r2, [r2]	@ D.6622, _int_pin
 1439              	.LBE89:
 1440              	.LBE91:
 137:../../evt_lib/src/mcp2515.c **** int8_t MCP2515_GetEmptyTransmitBuffer(void) {
 1441              		.loc 1 137 0
 1442 0014 82B0     		sub	sp, sp, #8	@,,
 1443              		.cfi_def_cfa_offset 16
 1444              	.LBB92:
 1445              	.LBB90:
 1446              		.loc 2 130 0
 1447 0016 9140     		lsl	r1, r1, r2	@ D.6622, D.6622, D.6622
 1448 0018 CB58     		ldr	r3, [r1, r3]	@ D.6623, _17->DATA
 1449              	.LBE90:
 1450              	.LBE92:
 138:../../evt_lib/src/mcp2515.c **** 	if (Chip_GPIO_GetPinState(LPC_GPIO, _int_gpio, _int_pin))
 1451              		.loc 1 138 0
 1452 001a 002B     		cmp	r3, #0	@ D.6623,
 1453 001c 24D1     		bne	.L92	@,
 141:../../evt_lib/src/mcp2515.c **** 	MCP2515_Read(CANINTF, &tmp, 1);
 1454              		.loc 1 141 0
 1455 001e 6C46     		mov	r4, sp	@ tmp131,
ARM GAS  /var/folders/f9/8bk2lnw15zn4cbgn6wrnb4lm0000gn/T//cc1V3B8l.s 			page 35


 1456 0020 0734     		add	r4, r4, #7	@ tmp131,
 1457 0022 2C20     		mov	r0, #44	@,
 1458 0024 211C     		mov	r1, r4	@, tmp131
 1459 0026 0122     		mov	r2, #1	@,
 1460 0028 FFF7FEFF 		bl	MCP2515_Read	@
 1461              	.LVL127:
 142:../../evt_lib/src/mcp2515.c **** 	if (tmp & 0x4) {
 1462              		.loc 1 142 0
 1463 002c 2378     		ldrb	r3, [r4]	@ tmp.14, tmp
 1464 002e 5A07     		lsl	r2, r3, #29	@, tmp.14,
 1465 0030 0CD4     		bmi	.L96	@,
 145:../../evt_lib/src/mcp2515.c **** 	} else if (tmp & 0x8) {
 1466              		.loc 1 145 0
 1467 0032 1A07     		lsl	r2, r3, #28	@, tmp.14,
 1468 0034 11D4     		bmi	.L97	@,
 148:../../evt_lib/src/mcp2515.c **** 	} else if (tmp & 0x10) { 
 1469              		.loc 1 148 0
 1470 0036 DA06     		lsl	r2, r3, #27	@, tmp.14,
 1471 0038 16D5     		bpl	.L92	@,
 149:../../evt_lib/src/mcp2515.c **** 		MCP2515_BitModify(CANINTF, 0x10, 0x00);
 1472              		.loc 1 149 0
 1473 003a 2C20     		mov	r0, #44	@,
 1474 003c 1021     		mov	r1, #16	@,
 1475 003e 0022     		mov	r2, #0	@,
 1476 0040 FFF7FEFF 		bl	MCP2515_BitModify	@
 1477              	.LVL128:
 150:../../evt_lib/src/mcp2515.c **** 		return 2;
 1478              		.loc 1 150 0
 1479 0044 0220     		mov	r0, #2	@ D.6618,
 1480              	.L89:
 1481 0046 40B2     		sxtb	r0, r0	@ D.6618, D.6618
 154:../../evt_lib/src/mcp2515.c **** }
 1482              		.loc 1 154 0
 1483 0048 02B0     		add	sp, sp, #8	@,,
 1484              		@ sp needed	@
 1485 004a 10BD     		pop	{r4, pc}
 1486              	.L96:
 143:../../evt_lib/src/mcp2515.c **** 		MCP2515_BitModify(CANINTF, 0x04, 0x00);
 1487              		.loc 1 143 0
 1488 004c 2C20     		mov	r0, #44	@,
 1489 004e 0421     		mov	r1, #4	@,
 1490 0050 0022     		mov	r2, #0	@,
 1491 0052 FFF7FEFF 		bl	MCP2515_BitModify	@
 1492              	.LVL129:
 144:../../evt_lib/src/mcp2515.c **** 		return 0;
 1493              		.loc 1 144 0
 1494 0056 0020     		mov	r0, #0	@ D.6618,
 1495 0058 F5E7     		b	.L89	@
 1496              	.L97:
 146:../../evt_lib/src/mcp2515.c **** 		MCP2515_BitModify(CANINTF, 0x08, 0x00);
 1497              		.loc 1 146 0
 1498 005a 2C20     		mov	r0, #44	@,
 1499 005c 0821     		mov	r1, #8	@,
 1500 005e 0022     		mov	r2, #0	@,
 1501 0060 FFF7FEFF 		bl	MCP2515_BitModify	@
 1502              	.LVL130:
 147:../../evt_lib/src/mcp2515.c **** 		return 1;
ARM GAS  /var/folders/f9/8bk2lnw15zn4cbgn6wrnb4lm0000gn/T//cc1V3B8l.s 			page 36


 1503              		.loc 1 147 0
 1504 0064 0120     		mov	r0, #1	@ D.6618,
 1505 0066 EEE7     		b	.L89	@
 1506              	.L92:
 139:../../evt_lib/src/mcp2515.c **** 		return -1;
 1507              		.loc 1 139 0
 1508 0068 FF20     		mov	r0, #255	@ D.6618,
 1509 006a ECE7     		b	.L89	@
 1510              	.L99:
 1511              		.align	2
 1512              	.L98:
 1513 006c 00000000 		.word	_int_gpio
 1514 0070 00000000 		.word	_int_pin
 1515              		.cfi_endproc
 1516              	.LFE202:
 1517              		.size	MCP2515_GetEmptyTransmitBuffer, .-MCP2515_GetEmptyTransmitBuffer
 1518              		.section	.text.MCP2515_Mode,"ax",%progbits
 1519              		.align	2
 1520              		.global	MCP2515_Mode
 1521              		.code	16
 1522              		.thumb_func
 1523              		.type	MCP2515_Mode, %function
 1524              	MCP2515_Mode:
 1525              	.LFB210:
 264:../../evt_lib/src/mcp2515.c **** 
 265:../../evt_lib/src/mcp2515.c **** bool MCP2515_Mode(uint8_t mode) {
 1526              		.loc 1 265 0
 1527              		.cfi_startproc
 1528              	.LVL131:
 1529 0000 30B5     		push	{r4, r5, lr}	@
 1530              		.cfi_def_cfa_offset 12
 1531              		.cfi_offset 4, -12
 1532              		.cfi_offset 5, -8
 1533              		.cfi_offset 14, -4
 1534 0002 051C     		mov	r5, r0	@ mode, mode
 1535 0004 83B0     		sub	sp, sp, #12	@,,
 1536              		.cfi_def_cfa_offset 24
 266:../../evt_lib/src/mcp2515.c **** 	MCP2515_BitModify(CANCTRL, MODE_MASK, mode);
 1537              		.loc 1 266 0
 1538 0006 2A1C     		mov	r2, r5	@, mode
 1539 0008 0F20     		mov	r0, #15	@,
 1540              	.LVL132:
 1541 000a E021     		mov	r1, #224	@,
 1542 000c FFF7FEFF 		bl	MCP2515_BitModify	@
 1543              	.LVL133:
 267:../../evt_lib/src/mcp2515.c **** 	uint8_t data = 0;
 1544              		.loc 1 267 0
 1545 0010 6C46     		mov	r4, sp	@ tmp115,
 1546 0012 0023     		mov	r3, #0	@ tmp116,
 1547 0014 E371     		strb	r3, [r4, #7]	@ tmp116, data
 1548 0016 0734     		add	r4, r4, #7	@ tmp115,
 268:../../evt_lib/src/mcp2515.c **** 	MCP2515_Read(CANSTAT, &data, 1);
 1549              		.loc 1 268 0
 1550 0018 0E20     		mov	r0, #14	@,
 1551 001a 211C     		mov	r1, r4	@, tmp115
 1552 001c 0122     		mov	r2, #1	@,
 1553 001e FFF7FEFF 		bl	MCP2515_Read	@
ARM GAS  /var/folders/f9/8bk2lnw15zn4cbgn6wrnb4lm0000gn/T//cc1V3B8l.s 			page 37


 1554              	.LVL134:
 269:../../evt_lib/src/mcp2515.c **** 	return ((data & mode) == mode);
 1555              		.loc 1 269 0
 1556 0022 2078     		ldrb	r0, [r4]	@ data, data
 1557 0024 2840     		and	r0, r5	@ tmp125, mode
 1558 0026 401B     		sub	r0, r0, r5	@ tmp127, tmp125, mode
 1559 0028 4542     		neg	r5, r0	@ tmp128, tmp127
 1560 002a 6841     		adc	r0, r0, r5	@ tmp126, tmp127, tmp128
 1561 002c C0B2     		uxtb	r0, r0	@ D.6627, tmp126
 270:../../evt_lib/src/mcp2515.c **** }
 1562              		.loc 1 270 0
 1563 002e 03B0     		add	sp, sp, #12	@,,
 1564              		@ sp needed	@
 1565 0030 30BD     		pop	{r4, r5, pc}
 1566              		.cfi_endproc
 1567              	.LFE210:
 1568              		.size	MCP2515_Mode, .-MCP2515_Mode
 1569              		.comm	_int_pin,1,1
 1570              		.comm	_int_gpio,1,1
 1571              		.comm	_cs_pin,1,1
 1572              		.comm	_cs_gpio,1,1
 1573              		.section	.bss.Tx_Buf,"aw",%nobits
 1574              		.align	2
 1575              		.set	.LANCHOR1,. + 0
 1576              		.type	Tx_Buf, %object
 1577              		.size	Tx_Buf, 256
 1578              	Tx_Buf:
 1579 0000 00000000 		.space	256
 1579      00000000 
 1579      00000000 
 1579      00000000 
 1579      00000000 
 1580              		.section	.bss.Rx_Buf,"aw",%nobits
 1581              		.align	2
 1582              		.set	.LANCHOR2,. + 0
 1583              		.type	Rx_Buf, %object
 1584              		.size	Rx_Buf, 256
 1585              	Rx_Buf:
 1586 0000 00000000 		.space	256
 1586      00000000 
 1586      00000000 
 1586      00000000 
 1586      00000000 
 1587              		.section	.bss.xf_setup,"aw",%nobits
 1588              		.align	2
 1589              		.set	.LANCHOR0,. + 0
 1590              		.type	xf_setup, %object
 1591              		.size	xf_setup, 20
 1592              	xf_setup:
 1593 0000 00000000 		.space	20
 1593      00000000 
 1593      00000000 
 1593      00000000 
 1593      00000000 
 1594              		.text
 1595              	.Letext0:
 1596              		.file 3 "/usr/local/Cellar/gcc-arm-none-eabi/20140805/arm-none-eabi/include/machine/_default_types
ARM GAS  /var/folders/f9/8bk2lnw15zn4cbgn6wrnb4lm0000gn/T//cc1V3B8l.s 			page 38


 1597              		.file 4 "/usr/local/Cellar/gcc-arm-none-eabi/20140805/arm-none-eabi/include/stdint.h"
 1598              		.file 5 "../../lpc_chip_11cxx_lib/inc/ssp_11xx.h"
 1599              		.file 6 "../../lpc_chip_11cxx_lib/inc/ccand_11xx.h"
 1600              		.file 7 "../../lpc_chip_11cxx_lib/inc/chip.h"