ARM GAS  /var/folders/f9/8bk2lnw15zn4cbgn6wrnb4lm0000gn/T//ccNGCAL6.s 			page 1


   1              		.cpu cortex-m0
   2              		.fpu softvfp
   3              		.eabi_attribute 20, 1	@ Tag_ABI_FP_denormal
   4              		.eabi_attribute 21, 1	@ Tag_ABI_FP_exceptions
   5              		.eabi_attribute 23, 3	@ Tag_ABI_FP_number_model
   6              		.eabi_attribute 24, 1	@ Tag_ABI_align8_needed
   7              		.eabi_attribute 25, 1	@ Tag_ABI_align8_preserved
   8              		.eabi_attribute 26, 1	@ Tag_ABI_enum_size
   9              		.eabi_attribute 30, 2	@ Tag_ABI_optimization_goals
  10              		.eabi_attribute 34, 0	@ Tag_CPU_unaligned_access
  11              		.eabi_attribute 18, 4	@ Tag_ABI_PCS_wchar_t
  12              		.file	"ring_buffer.c"
  13              	@ GNU C (GNU Tools for ARM Embedded Processors) version 4.8.4 20140725 (release) [ARM/embedded-4_8-
  14              	@	compiled by GNU C version 4.2.1 (Based on Apple Inc. build 5658) (LLVM build 2336.9.00), GMP vers
  15              	@ GGC heuristics: --param ggc-min-expand=100 --param ggc-min-heapsize=131072
  16              	@ options passed:  -I . -I ../../lpc_chip_11cxx_lib/inc
  17              	@ -I ../../evt_lib/inc -imultilib armv6-m
  18              	@ -iprefix /usr/local/Cellar/gcc-arm-none-eabi/20140805/bin/../lib/gcc/arm-none-eabi/4.8.4/
  19              	@ -isysroot /usr/local/Cellar/gcc-arm-none-eabi/20140805/bin/../arm-none-eabi
  20              	@ -MD bin/ring_buffer.d -MF bin/ring_buffer.d -MP -MQ bin/ring_buffer.o
  21              	@ -D__USES_INITFINI__ -D CORE_M0 ../../lpc_chip_11cxx_lib/src/ring_buffer.c
  22              	@ -mcpu=cortex-m0 -mthumb -auxbase-strip bin/ring_buffer.o -g -ggdb3 -O2
  23              	@ -Wall -Wstrict-prototypes -Wextra -std=gnu90 -ffunction-sections
  24              	@ -fdata-sections -fverbose-asm
  25              	@ options enabled:  -faggressive-loop-optimizations -fauto-inc-dec
  26              	@ -fbranch-count-reg -fcaller-saves -fcombine-stack-adjustments -fcommon
  27              	@ -fcompare-elim -fcprop-registers -fcrossjumping -fcse-follow-jumps
  28              	@ -fdata-sections -fdefer-pop -fdelete-null-pointer-checks -fdevirtualize
  29              	@ -fdwarf2-cfi-asm -fearly-inlining -feliminate-unused-debug-types
  30              	@ -fexpensive-optimizations -fforward-propagate -ffunction-cse
  31              	@ -ffunction-sections -fgcse -fgcse-lm -fgnu-runtime -fgnu-unique
  32              	@ -fguess-branch-probability -fhoist-adjacent-loads -fident -fif-conversion
  33              	@ -fif-conversion2 -findirect-inlining -finline -finline-atomics
  34              	@ -finline-functions-called-once -finline-small-functions -fipa-cp
  35              	@ -fipa-profile -fipa-pure-const -fipa-reference -fipa-sra
  36              	@ -fira-hoist-pressure -fira-share-save-slots -fira-share-spill-slots
  37              	@ -fivopts -fkeep-static-consts -fleading-underscore -fmath-errno
  38              	@ -fmerge-constants -fmerge-debug-strings -fmove-loop-invariants
  39              	@ -fomit-frame-pointer -foptimize-register-move -foptimize-sibling-calls
  40              	@ -foptimize-strlen -fpartial-inlining -fpeephole -fpeephole2
  41              	@ -fprefetch-loop-arrays -freg-struct-return -fregmove -freorder-blocks
  42              	@ -freorder-functions -frerun-cse-after-loop
  43              	@ -fsched-critical-path-heuristic -fsched-dep-count-heuristic
  44              	@ -fsched-group-heuristic -fsched-interblock -fsched-last-insn-heuristic
  45              	@ -fsched-pressure -fsched-rank-heuristic -fsched-spec
  46              	@ -fsched-spec-insn-heuristic -fsched-stalled-insns-dep -fschedule-insns2
  47              	@ -fsection-anchors -fshow-column -fshrink-wrap -fsigned-zeros
  48              	@ -fsplit-ivs-in-unroller -fsplit-wide-types -fstrict-aliasing
  49              	@ -fstrict-overflow -fstrict-volatile-bitfields -fsync-libcalls
  50              	@ -fthread-jumps -ftoplevel-reorder -ftrapping-math -ftree-bit-ccp
  51              	@ -ftree-builtin-call-dce -ftree-ccp -ftree-ch -ftree-coalesce-vars
  52              	@ -ftree-copy-prop -ftree-copyrename -ftree-cselim -ftree-dce
  53              	@ -ftree-dominator-opts -ftree-dse -ftree-forwprop -ftree-fre
  54              	@ -ftree-loop-if-convert -ftree-loop-im -ftree-loop-ivcanon
  55              	@ -ftree-loop-optimize -ftree-parallelize-loops= -ftree-phiprop -ftree-pre
  56              	@ -ftree-pta -ftree-reassoc -ftree-scev-cprop -ftree-sink
  57              	@ -ftree-slp-vectorize -ftree-slsr -ftree-sra -ftree-switch-conversion
ARM GAS  /var/folders/f9/8bk2lnw15zn4cbgn6wrnb4lm0000gn/T//ccNGCAL6.s 			page 2


  58              	@ -ftree-tail-merge -ftree-ter -ftree-vect-loop-version -ftree-vrp
  59              	@ -funit-at-a-time -fvar-tracking -fvar-tracking-assignments -fverbose-asm
  60              	@ -fzero-initialized-in-bss -mlittle-endian -mpic-data-is-text-relative
  61              	@ -msched-prolog -mthumb -mvectorize-with-neon-quad
  62              	
  63              		.text
  64              	.Ltext0:
  65              		.cfi_sections	.debug_frame
  66              		.section	.text.RingBuffer_Init,"ax",%progbits
  67              		.align	2
  68              		.global	RingBuffer_Init
  69              		.code	16
  70              		.thumb_func
  71              		.type	RingBuffer_Init, %function
  72              	RingBuffer_Init:
  73              	.LFB6:
  74              		.file 1 "../../lpc_chip_11cxx_lib/src/ring_buffer.c"
   1:../../lpc_chip_11cxx_lib/src/ring_buffer.c **** /*
   2:../../lpc_chip_11cxx_lib/src/ring_buffer.c ****  * @brief Common ring buffer support functions
   3:../../lpc_chip_11cxx_lib/src/ring_buffer.c ****  *
   4:../../lpc_chip_11cxx_lib/src/ring_buffer.c ****  * @note
   5:../../lpc_chip_11cxx_lib/src/ring_buffer.c ****  * Copyright(C) NXP Semiconductors, 2012
   6:../../lpc_chip_11cxx_lib/src/ring_buffer.c ****  * All rights reserved.
   7:../../lpc_chip_11cxx_lib/src/ring_buffer.c ****  *
   8:../../lpc_chip_11cxx_lib/src/ring_buffer.c ****  * @par
   9:../../lpc_chip_11cxx_lib/src/ring_buffer.c ****  * Software that is described herein is for illustrative purposes only
  10:../../lpc_chip_11cxx_lib/src/ring_buffer.c ****  * which provides customers with programming information regarding the
  11:../../lpc_chip_11cxx_lib/src/ring_buffer.c ****  * LPC products.  This software is supplied "AS IS" without any warranties of
  12:../../lpc_chip_11cxx_lib/src/ring_buffer.c ****  * any kind, and NXP Semiconductors and its licensor disclaim any and
  13:../../lpc_chip_11cxx_lib/src/ring_buffer.c ****  * all warranties, express or implied, including all implied warranties of
  14:../../lpc_chip_11cxx_lib/src/ring_buffer.c ****  * merchantability, fitness for a particular purpose and non-infringement of
  15:../../lpc_chip_11cxx_lib/src/ring_buffer.c ****  * intellectual property rights.  NXP Semiconductors assumes no responsibility
  16:../../lpc_chip_11cxx_lib/src/ring_buffer.c ****  * or liability for the use of the software, conveys no license or rights under any
  17:../../lpc_chip_11cxx_lib/src/ring_buffer.c ****  * patent, copyright, mask work right, or any other intellectual property rights in
  18:../../lpc_chip_11cxx_lib/src/ring_buffer.c ****  * or to any products. NXP Semiconductors reserves the right to make changes
  19:../../lpc_chip_11cxx_lib/src/ring_buffer.c ****  * in the software without notification. NXP Semiconductors also makes no
  20:../../lpc_chip_11cxx_lib/src/ring_buffer.c ****  * representation or warranty that such application will be suitable for the
  21:../../lpc_chip_11cxx_lib/src/ring_buffer.c ****  * specified use without further testing or modification.
  22:../../lpc_chip_11cxx_lib/src/ring_buffer.c ****  *
  23:../../lpc_chip_11cxx_lib/src/ring_buffer.c ****  * @par
  24:../../lpc_chip_11cxx_lib/src/ring_buffer.c ****  * Permission to use, copy, modify, and distribute this software and its
  25:../../lpc_chip_11cxx_lib/src/ring_buffer.c ****  * documentation is hereby granted, under NXP Semiconductors' and its
  26:../../lpc_chip_11cxx_lib/src/ring_buffer.c ****  * licensor's relevant copyrights in the software, without fee, provided that it
  27:../../lpc_chip_11cxx_lib/src/ring_buffer.c ****  * is used in conjunction with NXP Semiconductors microcontrollers.  This
  28:../../lpc_chip_11cxx_lib/src/ring_buffer.c ****  * copyright, permission, and disclaimer notice must appear in all copies of
  29:../../lpc_chip_11cxx_lib/src/ring_buffer.c ****  * this code.
  30:../../lpc_chip_11cxx_lib/src/ring_buffer.c ****  */
  31:../../lpc_chip_11cxx_lib/src/ring_buffer.c **** 
  32:../../lpc_chip_11cxx_lib/src/ring_buffer.c **** #include <string.h>
  33:../../lpc_chip_11cxx_lib/src/ring_buffer.c **** #include "ring_buffer.h"
  34:../../lpc_chip_11cxx_lib/src/ring_buffer.c **** 
  35:../../lpc_chip_11cxx_lib/src/ring_buffer.c **** /*****************************************************************************
  36:../../lpc_chip_11cxx_lib/src/ring_buffer.c ****  * Private types/enumerations/variables
  37:../../lpc_chip_11cxx_lib/src/ring_buffer.c ****  ****************************************************************************/
  38:../../lpc_chip_11cxx_lib/src/ring_buffer.c **** 
  39:../../lpc_chip_11cxx_lib/src/ring_buffer.c **** #define RB_INDH(rb)                ((rb)->head & ((rb)->count - 1))
  40:../../lpc_chip_11cxx_lib/src/ring_buffer.c **** #define RB_INDT(rb)                ((rb)->tail & ((rb)->count - 1))
ARM GAS  /var/folders/f9/8bk2lnw15zn4cbgn6wrnb4lm0000gn/T//ccNGCAL6.s 			page 3


  41:../../lpc_chip_11cxx_lib/src/ring_buffer.c **** 
  42:../../lpc_chip_11cxx_lib/src/ring_buffer.c **** /*****************************************************************************
  43:../../lpc_chip_11cxx_lib/src/ring_buffer.c ****  * Public types/enumerations/variables
  44:../../lpc_chip_11cxx_lib/src/ring_buffer.c ****  ****************************************************************************/
  45:../../lpc_chip_11cxx_lib/src/ring_buffer.c **** 
  46:../../lpc_chip_11cxx_lib/src/ring_buffer.c **** /*****************************************************************************
  47:../../lpc_chip_11cxx_lib/src/ring_buffer.c ****  * Private functions
  48:../../lpc_chip_11cxx_lib/src/ring_buffer.c ****  ****************************************************************************/
  49:../../lpc_chip_11cxx_lib/src/ring_buffer.c **** 
  50:../../lpc_chip_11cxx_lib/src/ring_buffer.c **** /*****************************************************************************
  51:../../lpc_chip_11cxx_lib/src/ring_buffer.c ****  * Public functions
  52:../../lpc_chip_11cxx_lib/src/ring_buffer.c ****  ****************************************************************************/
  53:../../lpc_chip_11cxx_lib/src/ring_buffer.c **** 
  54:../../lpc_chip_11cxx_lib/src/ring_buffer.c **** /* Initialize ring buffer */
  55:../../lpc_chip_11cxx_lib/src/ring_buffer.c **** int RingBuffer_Init(RINGBUFF_T *RingBuff, void *buffer, int itemSize, int count)
  56:../../lpc_chip_11cxx_lib/src/ring_buffer.c **** {
  75              		.loc 1 56 0
  76              		.cfi_startproc
  77              	.LVL0:
  57:../../lpc_chip_11cxx_lib/src/ring_buffer.c **** 	RingBuff->data = buffer;
  58:../../lpc_chip_11cxx_lib/src/ring_buffer.c **** 	RingBuff->count = count;
  78              		.loc 1 58 0
  79 0000 4360     		str	r3, [r0, #4]	@ count, RingBuff_2(D)->count
  59:../../lpc_chip_11cxx_lib/src/ring_buffer.c **** 	RingBuff->itemSz = itemSize;
  60:../../lpc_chip_11cxx_lib/src/ring_buffer.c **** 	RingBuff->head = RingBuff->tail = 0;
  80              		.loc 1 60 0
  81 0002 0023     		mov	r3, #0	@ tmp115,
  82              	.LVL1:
  57:../../lpc_chip_11cxx_lib/src/ring_buffer.c **** 	RingBuff->data = buffer;
  83              		.loc 1 57 0
  84 0004 0160     		str	r1, [r0]	@ buffer, RingBuff_2(D)->data
  59:../../lpc_chip_11cxx_lib/src/ring_buffer.c **** 	RingBuff->itemSz = itemSize;
  85              		.loc 1 59 0
  86 0006 8260     		str	r2, [r0, #8]	@ itemSize, RingBuff_2(D)->itemSz
  87              		.loc 1 60 0
  88 0008 0361     		str	r3, [r0, #16]	@ tmp115, RingBuff_2(D)->tail
  89 000a C360     		str	r3, [r0, #12]	@ tmp115, RingBuff_2(D)->head
  61:../../lpc_chip_11cxx_lib/src/ring_buffer.c **** 
  62:../../lpc_chip_11cxx_lib/src/ring_buffer.c **** 	return 1;
  63:../../lpc_chip_11cxx_lib/src/ring_buffer.c **** }
  90              		.loc 1 63 0
  91              		@ sp needed	@
  92 000c 0120     		mov	r0, #1	@,
  93              	.LVL2:
  94 000e 7047     		bx	lr
  95              		.cfi_endproc
  96              	.LFE6:
  97              		.size	RingBuffer_Init, .-RingBuffer_Init
  98              		.section	.text.RingBuffer_Insert,"ax",%progbits
  99              		.align	2
 100              		.global	RingBuffer_Insert
 101              		.code	16
 102              		.thumb_func
 103              		.type	RingBuffer_Insert, %function
 104              	RingBuffer_Insert:
 105              	.LFB7:
  64:../../lpc_chip_11cxx_lib/src/ring_buffer.c **** 
ARM GAS  /var/folders/f9/8bk2lnw15zn4cbgn6wrnb4lm0000gn/T//ccNGCAL6.s 			page 4


  65:../../lpc_chip_11cxx_lib/src/ring_buffer.c **** /* Insert a single item into Ring Buffer */
  66:../../lpc_chip_11cxx_lib/src/ring_buffer.c **** int RingBuffer_Insert(RINGBUFF_T *RingBuff, const void *data)
  67:../../lpc_chip_11cxx_lib/src/ring_buffer.c **** {
 106              		.loc 1 67 0
 107              		.cfi_startproc
 108              	.LVL3:
 109 0000 70B5     		push	{r4, r5, r6, lr}	@
 110              		.cfi_def_cfa_offset 16
 111              		.cfi_offset 4, -16
 112              		.cfi_offset 5, -12
 113              		.cfi_offset 6, -8
 114              		.cfi_offset 14, -4
 115              	.LBB24:
 116              	.LBB25:
 117              		.file 2 "../../lpc_chip_11cxx_lib/inc/ring_buffer.h"
   1:../../lpc_chip_11cxx_lib/inc/ring_buffer.h **** /*
   2:../../lpc_chip_11cxx_lib/inc/ring_buffer.h ****  * @brief Common ring buffer support functions
   3:../../lpc_chip_11cxx_lib/inc/ring_buffer.h ****  *
   4:../../lpc_chip_11cxx_lib/inc/ring_buffer.h ****  * @note
   5:../../lpc_chip_11cxx_lib/inc/ring_buffer.h ****  * Copyright(C) NXP Semiconductors, 2012
   6:../../lpc_chip_11cxx_lib/inc/ring_buffer.h ****  * All rights reserved.
   7:../../lpc_chip_11cxx_lib/inc/ring_buffer.h ****  *
   8:../../lpc_chip_11cxx_lib/inc/ring_buffer.h ****  * @par
   9:../../lpc_chip_11cxx_lib/inc/ring_buffer.h ****  * Software that is described herein is for illustrative purposes only
  10:../../lpc_chip_11cxx_lib/inc/ring_buffer.h ****  * which provides customers with programming information regarding the
  11:../../lpc_chip_11cxx_lib/inc/ring_buffer.h ****  * LPC products.  This software is supplied "AS IS" without any warranties of
  12:../../lpc_chip_11cxx_lib/inc/ring_buffer.h ****  * any kind, and NXP Semiconductors and its licensor disclaim any and
  13:../../lpc_chip_11cxx_lib/inc/ring_buffer.h ****  * all warranties, express or implied, including all implied warranties of
  14:../../lpc_chip_11cxx_lib/inc/ring_buffer.h ****  * merchantability, fitness for a particular purpose and non-infringement of
  15:../../lpc_chip_11cxx_lib/inc/ring_buffer.h ****  * intellectual property rights.  NXP Semiconductors assumes no responsibility
  16:../../lpc_chip_11cxx_lib/inc/ring_buffer.h ****  * or liability for the use of the software, conveys no license or rights under any
  17:../../lpc_chip_11cxx_lib/inc/ring_buffer.h ****  * patent, copyright, mask work right, or any other intellectual property rights in
  18:../../lpc_chip_11cxx_lib/inc/ring_buffer.h ****  * or to any products. NXP Semiconductors reserves the right to make changes
  19:../../lpc_chip_11cxx_lib/inc/ring_buffer.h ****  * in the software without notification. NXP Semiconductors also makes no
  20:../../lpc_chip_11cxx_lib/inc/ring_buffer.h ****  * representation or warranty that such application will be suitable for the
  21:../../lpc_chip_11cxx_lib/inc/ring_buffer.h ****  * specified use without further testing or modification.
  22:../../lpc_chip_11cxx_lib/inc/ring_buffer.h ****  *
  23:../../lpc_chip_11cxx_lib/inc/ring_buffer.h ****  * @par
  24:../../lpc_chip_11cxx_lib/inc/ring_buffer.h ****  * Permission to use, copy, modify, and distribute this software and its
  25:../../lpc_chip_11cxx_lib/inc/ring_buffer.h ****  * documentation is hereby granted, under NXP Semiconductors' and its
  26:../../lpc_chip_11cxx_lib/inc/ring_buffer.h ****  * licensor's relevant copyrights in the software, without fee, provided that it
  27:../../lpc_chip_11cxx_lib/inc/ring_buffer.h ****  * is used in conjunction with NXP Semiconductors microcontrollers.  This
  28:../../lpc_chip_11cxx_lib/inc/ring_buffer.h ****  * copyright, permission, and disclaimer notice must appear in all copies of
  29:../../lpc_chip_11cxx_lib/inc/ring_buffer.h ****  * this code.
  30:../../lpc_chip_11cxx_lib/inc/ring_buffer.h ****  */
  31:../../lpc_chip_11cxx_lib/inc/ring_buffer.h **** 
  32:../../lpc_chip_11cxx_lib/inc/ring_buffer.h **** #ifndef __RING_BUFFER_H_
  33:../../lpc_chip_11cxx_lib/inc/ring_buffer.h **** #define __RING_BUFFER_H_
  34:../../lpc_chip_11cxx_lib/inc/ring_buffer.h **** 
  35:../../lpc_chip_11cxx_lib/inc/ring_buffer.h **** #include "lpc_types.h"
  36:../../lpc_chip_11cxx_lib/inc/ring_buffer.h **** 
  37:../../lpc_chip_11cxx_lib/inc/ring_buffer.h **** /** @defgroup Ring_Buffer CHIP: Simple ring buffer implementation
  38:../../lpc_chip_11cxx_lib/inc/ring_buffer.h ****  * @ingroup CHIP_Common
  39:../../lpc_chip_11cxx_lib/inc/ring_buffer.h ****  * @{
  40:../../lpc_chip_11cxx_lib/inc/ring_buffer.h ****  */
  41:../../lpc_chip_11cxx_lib/inc/ring_buffer.h **** 
  42:../../lpc_chip_11cxx_lib/inc/ring_buffer.h **** /**
ARM GAS  /var/folders/f9/8bk2lnw15zn4cbgn6wrnb4lm0000gn/T//ccNGCAL6.s 			page 5


  43:../../lpc_chip_11cxx_lib/inc/ring_buffer.h ****  * @brief Ring buffer structure
  44:../../lpc_chip_11cxx_lib/inc/ring_buffer.h ****  */
  45:../../lpc_chip_11cxx_lib/inc/ring_buffer.h **** typedef struct {
  46:../../lpc_chip_11cxx_lib/inc/ring_buffer.h **** 	void *data;
  47:../../lpc_chip_11cxx_lib/inc/ring_buffer.h **** 	int count;
  48:../../lpc_chip_11cxx_lib/inc/ring_buffer.h **** 	int itemSz;
  49:../../lpc_chip_11cxx_lib/inc/ring_buffer.h **** 	uint32_t head;
  50:../../lpc_chip_11cxx_lib/inc/ring_buffer.h **** 	uint32_t tail;
  51:../../lpc_chip_11cxx_lib/inc/ring_buffer.h **** } RINGBUFF_T;
  52:../../lpc_chip_11cxx_lib/inc/ring_buffer.h **** 
  53:../../lpc_chip_11cxx_lib/inc/ring_buffer.h **** /**
  54:../../lpc_chip_11cxx_lib/inc/ring_buffer.h ****  * @def		RB_VHEAD(rb)
  55:../../lpc_chip_11cxx_lib/inc/ring_buffer.h ****  * volatile typecasted head index
  56:../../lpc_chip_11cxx_lib/inc/ring_buffer.h ****  */
  57:../../lpc_chip_11cxx_lib/inc/ring_buffer.h **** #define RB_VHEAD(rb)              (*(volatile uint32_t *) &(rb)->head)
  58:../../lpc_chip_11cxx_lib/inc/ring_buffer.h **** 
  59:../../lpc_chip_11cxx_lib/inc/ring_buffer.h **** /**
  60:../../lpc_chip_11cxx_lib/inc/ring_buffer.h ****  * @def		RB_VTAIL(rb)
  61:../../lpc_chip_11cxx_lib/inc/ring_buffer.h ****  * volatile typecasted tail index
  62:../../lpc_chip_11cxx_lib/inc/ring_buffer.h ****  */
  63:../../lpc_chip_11cxx_lib/inc/ring_buffer.h **** #define RB_VTAIL(rb)              (*(volatile uint32_t *) &(rb)->tail)
  64:../../lpc_chip_11cxx_lib/inc/ring_buffer.h **** 
  65:../../lpc_chip_11cxx_lib/inc/ring_buffer.h **** /**
  66:../../lpc_chip_11cxx_lib/inc/ring_buffer.h ****  * @brief	Initialize ring buffer
  67:../../lpc_chip_11cxx_lib/inc/ring_buffer.h ****  * @param	RingBuff	: Pointer to ring buffer to initialize
  68:../../lpc_chip_11cxx_lib/inc/ring_buffer.h ****  * @param	buffer		: Pointer to buffer to associate with RingBuff
  69:../../lpc_chip_11cxx_lib/inc/ring_buffer.h ****  * @param	itemSize	: Size of each buffer item size
  70:../../lpc_chip_11cxx_lib/inc/ring_buffer.h ****  * @param	count		: Size of ring buffer
  71:../../lpc_chip_11cxx_lib/inc/ring_buffer.h ****  * @note	Memory pointed by @a buffer must have correct alignment of
  72:../../lpc_chip_11cxx_lib/inc/ring_buffer.h ****  * 			@a itemSize, and @a count must be a power of 2 and must at
  73:../../lpc_chip_11cxx_lib/inc/ring_buffer.h ****  * 			least be 2 or greater.
  74:../../lpc_chip_11cxx_lib/inc/ring_buffer.h ****  * @return	Nothing
  75:../../lpc_chip_11cxx_lib/inc/ring_buffer.h ****  */
  76:../../lpc_chip_11cxx_lib/inc/ring_buffer.h **** int RingBuffer_Init(RINGBUFF_T *RingBuff, void *buffer, int itemSize, int count);
  77:../../lpc_chip_11cxx_lib/inc/ring_buffer.h **** 
  78:../../lpc_chip_11cxx_lib/inc/ring_buffer.h **** /**
  79:../../lpc_chip_11cxx_lib/inc/ring_buffer.h ****  * @brief	Resets the ring buffer to empty
  80:../../lpc_chip_11cxx_lib/inc/ring_buffer.h ****  * @param	RingBuff	: Pointer to ring buffer
  81:../../lpc_chip_11cxx_lib/inc/ring_buffer.h ****  * @return	Nothing
  82:../../lpc_chip_11cxx_lib/inc/ring_buffer.h ****  */
  83:../../lpc_chip_11cxx_lib/inc/ring_buffer.h **** STATIC INLINE void RingBuffer_Flush(RINGBUFF_T *RingBuff)
  84:../../lpc_chip_11cxx_lib/inc/ring_buffer.h **** {
  85:../../lpc_chip_11cxx_lib/inc/ring_buffer.h **** 	RingBuff->head = RingBuff->tail = 0;
  86:../../lpc_chip_11cxx_lib/inc/ring_buffer.h **** }
  87:../../lpc_chip_11cxx_lib/inc/ring_buffer.h **** 
  88:../../lpc_chip_11cxx_lib/inc/ring_buffer.h **** /**
  89:../../lpc_chip_11cxx_lib/inc/ring_buffer.h ****  * @brief	Return size the ring buffer
  90:../../lpc_chip_11cxx_lib/inc/ring_buffer.h ****  * @param	RingBuff	: Pointer to ring buffer
  91:../../lpc_chip_11cxx_lib/inc/ring_buffer.h ****  * @return	Size of the ring buffer in bytes
  92:../../lpc_chip_11cxx_lib/inc/ring_buffer.h ****  */
  93:../../lpc_chip_11cxx_lib/inc/ring_buffer.h **** STATIC INLINE int RingBuffer_GetSize(RINGBUFF_T *RingBuff)
  94:../../lpc_chip_11cxx_lib/inc/ring_buffer.h **** {
  95:../../lpc_chip_11cxx_lib/inc/ring_buffer.h **** 	return RingBuff->count;
  96:../../lpc_chip_11cxx_lib/inc/ring_buffer.h **** }
  97:../../lpc_chip_11cxx_lib/inc/ring_buffer.h **** 
  98:../../lpc_chip_11cxx_lib/inc/ring_buffer.h **** /**
  99:../../lpc_chip_11cxx_lib/inc/ring_buffer.h ****  * @brief	Return number of items in the ring buffer
ARM GAS  /var/folders/f9/8bk2lnw15zn4cbgn6wrnb4lm0000gn/T//ccNGCAL6.s 			page 6


 100:../../lpc_chip_11cxx_lib/inc/ring_buffer.h ****  * @param	RingBuff	: Pointer to ring buffer
 101:../../lpc_chip_11cxx_lib/inc/ring_buffer.h ****  * @return	Number of items in the ring buffer
 102:../../lpc_chip_11cxx_lib/inc/ring_buffer.h ****  */
 103:../../lpc_chip_11cxx_lib/inc/ring_buffer.h **** STATIC INLINE int RingBuffer_GetCount(RINGBUFF_T *RingBuff)
 104:../../lpc_chip_11cxx_lib/inc/ring_buffer.h **** {
 105:../../lpc_chip_11cxx_lib/inc/ring_buffer.h **** 	return RB_VHEAD(RingBuff) - RB_VTAIL(RingBuff);
 106:../../lpc_chip_11cxx_lib/inc/ring_buffer.h **** }
 107:../../lpc_chip_11cxx_lib/inc/ring_buffer.h **** 
 108:../../lpc_chip_11cxx_lib/inc/ring_buffer.h **** /**
 109:../../lpc_chip_11cxx_lib/inc/ring_buffer.h ****  * @brief	Return number of free items in the ring buffer
 110:../../lpc_chip_11cxx_lib/inc/ring_buffer.h ****  * @param	RingBuff	: Pointer to ring buffer
 111:../../lpc_chip_11cxx_lib/inc/ring_buffer.h ****  * @return	Number of free items in the ring buffer
 112:../../lpc_chip_11cxx_lib/inc/ring_buffer.h ****  */
 113:../../lpc_chip_11cxx_lib/inc/ring_buffer.h **** STATIC INLINE int RingBuffer_GetFree(RINGBUFF_T *RingBuff)
 114:../../lpc_chip_11cxx_lib/inc/ring_buffer.h **** {
 115:../../lpc_chip_11cxx_lib/inc/ring_buffer.h **** 	return RingBuff->count - RingBuffer_GetCount(RingBuff);
 116:../../lpc_chip_11cxx_lib/inc/ring_buffer.h **** }
 117:../../lpc_chip_11cxx_lib/inc/ring_buffer.h **** 
 118:../../lpc_chip_11cxx_lib/inc/ring_buffer.h **** /**
 119:../../lpc_chip_11cxx_lib/inc/ring_buffer.h ****  * @brief	Return number of items in the ring buffer
 120:../../lpc_chip_11cxx_lib/inc/ring_buffer.h ****  * @param	RingBuff	: Pointer to ring buffer
 121:../../lpc_chip_11cxx_lib/inc/ring_buffer.h ****  * @return	1 if the ring buffer is full, otherwise 0
 122:../../lpc_chip_11cxx_lib/inc/ring_buffer.h ****  */
 123:../../lpc_chip_11cxx_lib/inc/ring_buffer.h **** STATIC INLINE int RingBuffer_IsFull(RINGBUFF_T *RingBuff)
 124:../../lpc_chip_11cxx_lib/inc/ring_buffer.h **** {
 125:../../lpc_chip_11cxx_lib/inc/ring_buffer.h **** 	return (RingBuffer_GetCount(RingBuff) >= RingBuff->count);
 118              		.loc 2 125 0
 119 0002 4368     		ldr	r3, [r0, #4]	@ D.4707, RingBuff_4(D)->count
 120              	.LBB26:
 121              	.LBB27:
 105:../../lpc_chip_11cxx_lib/inc/ring_buffer.h **** 	return RB_VHEAD(RingBuff) - RB_VTAIL(RingBuff);
 122              		.loc 2 105 0
 123 0004 C568     		ldr	r5, [r0, #12]	@ D.4708, MEM[(volatile uint32_t *)RingBuff_4(D) + 12B]
 124 0006 0269     		ldr	r2, [r0, #16]	@ D.4708, MEM[(volatile uint32_t *)RingBuff_4(D) + 16B]
 125              	.LBE27:
 126              	.LBE26:
 127              	.LBE25:
 128              	.LBE24:
 129              		.loc 1 67 0
 130 0008 041C     		mov	r4, r0	@ RingBuff, RingBuff
  68:../../lpc_chip_11cxx_lib/src/ring_buffer.c **** 	uint8_t *ptr = RingBuff->data;
 131              		.loc 1 68 0
 132 000a 0668     		ldr	r6, [r0]	@ ptr, RingBuff_4(D)->data
 133              	.LVL4:
 134              	.LBB31:
 135              	.LBB30:
 136              	.LBB29:
 137              	.LBB28:
 105:../../lpc_chip_11cxx_lib/inc/ring_buffer.h **** 	return RB_VHEAD(RingBuff) - RB_VTAIL(RingBuff);
 138              		.loc 2 105 0
 139 000c AA1A     		sub	r2, r5, r2	@ D.4708, D.4708, D.4708
 140              	.LBE28:
 141              	.LBE29:
 142              	.LBE30:
 143              	.LBE31:
  69:../../lpc_chip_11cxx_lib/src/ring_buffer.c **** 
  70:../../lpc_chip_11cxx_lib/src/ring_buffer.c **** 	/* We cannot insert when queue is full */
ARM GAS  /var/folders/f9/8bk2lnw15zn4cbgn6wrnb4lm0000gn/T//ccNGCAL6.s 			page 7


  71:../../lpc_chip_11cxx_lib/src/ring_buffer.c **** 	if (RingBuffer_IsFull(RingBuff))
  72:../../lpc_chip_11cxx_lib/src/ring_buffer.c **** 		return 0;
 144              		.loc 1 72 0
 145 000e 0020     		mov	r0, #0	@ D.4707,
 146              	.LVL5:
  71:../../lpc_chip_11cxx_lib/src/ring_buffer.c **** 	if (RingBuffer_IsFull(RingBuff))
 147              		.loc 1 71 0
 148 0010 9A42     		cmp	r2, r3	@ D.4708, D.4707
 149 0012 0CDA     		bge	.L3	@,
  73:../../lpc_chip_11cxx_lib/src/ring_buffer.c **** 
  74:../../lpc_chip_11cxx_lib/src/ring_buffer.c **** 	ptr += RB_INDH(RingBuff) * RingBuff->itemSz;
 150              		.loc 1 74 0
 151 0014 E068     		ldr	r0, [r4, #12]	@, RingBuff_4(D)->head
 152 0016 A268     		ldr	r2, [r4, #8]	@ D.4708, RingBuff_4(D)->itemSz
 153              	.LVL6:
 154 0018 013B     		sub	r3, r3, #1	@ D.4707,
 155              	.LVL7:
 156 001a 0340     		and	r3, r0	@ D.4708,
 157 001c 101C     		mov	r0, r2	@ D.4708, D.4708
 158 001e 5843     		mul	r0, r3	@ D.4708, D.4708
 159 0020 3018     		add	r0, r6, r0	@ ptr, ptr, D.4708
  75:../../lpc_chip_11cxx_lib/src/ring_buffer.c **** 	memcpy(ptr, data, RingBuff->itemSz);
 160              		.loc 1 75 0
 161 0022 FFF7FEFF 		bl	memcpy	@
 162              	.LVL8:
  76:../../lpc_chip_11cxx_lib/src/ring_buffer.c **** 	RingBuff->head++;
 163              		.loc 1 76 0
 164 0026 E368     		ldr	r3, [r4, #12]	@ D.4708, RingBuff_4(D)->head
  77:../../lpc_chip_11cxx_lib/src/ring_buffer.c **** 
  78:../../lpc_chip_11cxx_lib/src/ring_buffer.c **** 	return 1;
 165              		.loc 1 78 0
 166 0028 0120     		mov	r0, #1	@ D.4707,
  76:../../lpc_chip_11cxx_lib/src/ring_buffer.c **** 	RingBuff->head++;
 167              		.loc 1 76 0
 168 002a 0133     		add	r3, r3, #1	@ D.4708,
 169 002c E360     		str	r3, [r4, #12]	@ D.4708, RingBuff_4(D)->head
 170              	.L3:
  79:../../lpc_chip_11cxx_lib/src/ring_buffer.c **** }
 171              		.loc 1 79 0
 172              		@ sp needed	@
 173              	.LVL9:
 174 002e 70BD     		pop	{r4, r5, r6, pc}
 175              		.cfi_endproc
 176              	.LFE7:
 177              		.size	RingBuffer_Insert, .-RingBuffer_Insert
 178              		.section	.text.RingBuffer_InsertMult,"ax",%progbits
 179              		.align	2
 180              		.global	RingBuffer_InsertMult
 181              		.code	16
 182              		.thumb_func
 183              		.type	RingBuffer_InsertMult, %function
 184              	RingBuffer_InsertMult:
 185              	.LFB8:
  80:../../lpc_chip_11cxx_lib/src/ring_buffer.c **** 
  81:../../lpc_chip_11cxx_lib/src/ring_buffer.c **** /* Insert multiple items into Ring Buffer */
  82:../../lpc_chip_11cxx_lib/src/ring_buffer.c **** int RingBuffer_InsertMult(RINGBUFF_T *RingBuff, const void *data, int num)
  83:../../lpc_chip_11cxx_lib/src/ring_buffer.c **** {
ARM GAS  /var/folders/f9/8bk2lnw15zn4cbgn6wrnb4lm0000gn/T//ccNGCAL6.s 			page 8


 186              		.loc 1 83 0
 187              		.cfi_startproc
 188              	.LVL10:
 189 0000 F8B5     		push	{r3, r4, r5, r6, r7, lr}	@
 190              		.cfi_def_cfa_offset 24
 191              		.cfi_offset 3, -24
 192              		.cfi_offset 4, -20
 193              		.cfi_offset 5, -16
 194              		.cfi_offset 6, -12
 195              		.cfi_offset 7, -8
 196              		.cfi_offset 14, -4
 197              		.loc 1 83 0
 198 0002 041C     		mov	r4, r0	@ RingBuff, RingBuff
 199              	.LBB32:
 200              	.LBB33:
 201              	.LBB34:
 202              	.LBB35:
 105:../../lpc_chip_11cxx_lib/inc/ring_buffer.h **** 	return RB_VHEAD(RingBuff) - RB_VTAIL(RingBuff);
 203              		.loc 2 105 0
 204 0004 E668     		ldr	r6, [r4, #12]	@ D.4716, MEM[(volatile uint32_t *)RingBuff_5(D) + 12B]
 205              	.LBE35:
 206              	.LBE34:
 207              	.LBE33:
 208              	.LBE32:
  84:../../lpc_chip_11cxx_lib/src/ring_buffer.c **** 	uint8_t *ptr = RingBuff->data;
 209              		.loc 1 84 0
 210 0006 0068     		ldr	r0, [r0]	@, RingBuff_5(D)->data
 211              	.LVL11:
 212              	.LBB42:
 213              	.LBB40:
 214              	.LBB38:
 215              	.LBB36:
 105:../../lpc_chip_11cxx_lib/inc/ring_buffer.h **** 	return RB_VHEAD(RingBuff) - RB_VTAIL(RingBuff);
 216              		.loc 2 105 0
 217 0008 2569     		ldr	r5, [r4, #16]	@ D.4716, MEM[(volatile uint32_t *)RingBuff_5(D) + 16B]
 218              	.LBE36:
 219              	.LBE38:
 220              		.loc 2 125 0
 221 000a 6368     		ldr	r3, [r4, #4]	@ D.4715, RingBuff_5(D)->count
 222              	.LBE40:
 223              	.LBE42:
 224              		.loc 1 84 0
 225 000c 8446     		mov	ip, r0	@ ptr,
 226              	.LVL12:
  83:../../lpc_chip_11cxx_lib/src/ring_buffer.c **** {
 227              		.loc 1 83 0
 228 000e 0F1C     		mov	r7, r1	@ data, data
 229              	.LBB43:
 230              	.LBB41:
 231              	.LBB39:
 232              	.LBB37:
 105:../../lpc_chip_11cxx_lib/inc/ring_buffer.h **** 	return RB_VHEAD(RingBuff) - RB_VTAIL(RingBuff);
 233              		.loc 2 105 0
 234 0010 751B     		sub	r5, r6, r5	@ D.4716, D.4716, D.4716
 235              	.LBE37:
 236              	.LBE39:
 237              	.LBE41:
ARM GAS  /var/folders/f9/8bk2lnw15zn4cbgn6wrnb4lm0000gn/T//ccNGCAL6.s 			page 9


 238              	.LBE43:
  85:../../lpc_chip_11cxx_lib/src/ring_buffer.c **** 	int cnt1, cnt2;
  86:../../lpc_chip_11cxx_lib/src/ring_buffer.c **** 
  87:../../lpc_chip_11cxx_lib/src/ring_buffer.c **** 	/* We cannot insert when queue is full */
  88:../../lpc_chip_11cxx_lib/src/ring_buffer.c **** 	if (RingBuffer_IsFull(RingBuff))
  89:../../lpc_chip_11cxx_lib/src/ring_buffer.c **** 		return 0;
 239              		.loc 1 89 0
 240 0012 0020     		mov	r0, #0	@ D.4715,
 241              	.LVL13:
  88:../../lpc_chip_11cxx_lib/src/ring_buffer.c **** 	if (RingBuffer_IsFull(RingBuff))
 242              		.loc 1 88 0
 243 0014 9D42     		cmp	r5, r3	@ D.4716, D.4715
 244 0016 2FDA     		bge	.L7	@,
 245              	.LVL14:
 246              	.LBB44:
 247              	.LBB45:
 248              	.LBB46:
 249              	.LBB47:
 105:../../lpc_chip_11cxx_lib/inc/ring_buffer.h **** 	return RB_VHEAD(RingBuff) - RB_VTAIL(RingBuff);
 250              		.loc 2 105 0
 251 0018 E568     		ldr	r5, [r4, #12]	@ D.4716, MEM[(volatile uint32_t *)RingBuff_5(D) + 12B]
 252 001a 2169     		ldr	r1, [r4, #16]	@ D.4716, MEM[(volatile uint32_t *)RingBuff_5(D) + 16B]
 253              	.LVL15:
 254              	.LBE47:
 255              	.LBE46:
 256              	.LBE45:
 257              	.LBE44:
  90:../../lpc_chip_11cxx_lib/src/ring_buffer.c **** 
  91:../../lpc_chip_11cxx_lib/src/ring_buffer.c **** 	/* Calculate the segment lengths */
  92:../../lpc_chip_11cxx_lib/src/ring_buffer.c **** 	cnt1 = cnt2 = RingBuffer_GetFree(RingBuff);
  93:../../lpc_chip_11cxx_lib/src/ring_buffer.c **** 	if (RB_INDH(RingBuff) + cnt1 >= RingBuff->count)
 258              		.loc 1 93 0
 259 001c E068     		ldr	r0, [r4, #12]	@, RingBuff_5(D)->head
 260              	.LBB52:
 261              	.LBB50:
 262              	.LBB49:
 263              	.LBB48:
 105:../../lpc_chip_11cxx_lib/inc/ring_buffer.h **** 	return RB_VHEAD(RingBuff) - RB_VTAIL(RingBuff);
 264              		.loc 2 105 0
 265 001e 6D1A     		sub	r5, r5, r1	@ D.4716, D.4716, D.4716
 266              	.LBE48:
 267              	.LBE49:
 268              	.LBE50:
 269              	.LBE52:
 270              		.loc 1 93 0
 271 0020 591E     		sub	r1, r3, #1	@ D.4715, D.4715,
 272 0022 0140     		and	r1, r0	@ D.4716,
 273              	.LBB53:
 274              	.LBB51:
 115:../../lpc_chip_11cxx_lib/inc/ring_buffer.h **** 	return RingBuff->count - RingBuffer_GetCount(RingBuff);
 275              		.loc 2 115 0
 276 0024 5D1B     		sub	r5, r3, r5	@ cnt1, D.4715, D.4716
 277              	.LVL16:
 278              	.LBE51:
 279              	.LBE53:
 280              		.loc 1 93 0
 281 0026 6E18     		add	r6, r5, r1	@ D.4716, cnt1, D.4716
ARM GAS  /var/folders/f9/8bk2lnw15zn4cbgn6wrnb4lm0000gn/T//ccNGCAL6.s 			page 10


 282 0028 0020     		mov	r0, #0	@ D.4715,
 283 002a 9E42     		cmp	r6, r3	@ D.4716, D.4715
 284 002c 02D3     		bcc	.L8	@,
  94:../../lpc_chip_11cxx_lib/src/ring_buffer.c **** 		cnt1 = RingBuff->count - RB_INDH(RingBuff);
 285              		.loc 1 94 0
 286 002e 5B1A     		sub	r3, r3, r1	@ cnt1, D.4715, D.4716
 287              	.LVL17:
 288 0030 E81A     		sub	r0, r5, r3	@ D.4715, cnt1, cnt1
 289 0032 1D1C     		mov	r5, r3	@ cnt1, cnt1
 290              	.LVL18:
 291              	.L8:
  95:../../lpc_chip_11cxx_lib/src/ring_buffer.c **** 	cnt2 -= cnt1;
  96:../../lpc_chip_11cxx_lib/src/ring_buffer.c **** 
  97:../../lpc_chip_11cxx_lib/src/ring_buffer.c **** 	cnt1 = MIN(cnt1, num);
 292              		.loc 1 97 0
 293 0034 9542     		cmp	r5, r2	@ cnt1, num
 294 0036 22DC     		bgt	.L13	@,
 295              	.LVL19:
  98:../../lpc_chip_11cxx_lib/src/ring_buffer.c **** 	num -= cnt1;
 296              		.loc 1 98 0
 297 0038 561B     		sub	r6, r2, r5	@ cnt2, num, cnt1
 298              	.LVL20:
  99:../../lpc_chip_11cxx_lib/src/ring_buffer.c **** 
 100:../../lpc_chip_11cxx_lib/src/ring_buffer.c **** 	cnt2 = MIN(cnt2, num);
 299              		.loc 1 100 0
 300 003a 8642     		cmp	r6, r0	@ cnt2, D.4715
 301 003c 1DDC     		bgt	.L14	@,
 302              	.LVL21:
 303              	.L10:
 101:../../lpc_chip_11cxx_lib/src/ring_buffer.c **** 	num -= cnt2;
 102:../../lpc_chip_11cxx_lib/src/ring_buffer.c **** 
 103:../../lpc_chip_11cxx_lib/src/ring_buffer.c **** 	/* Write segment 1 */
 104:../../lpc_chip_11cxx_lib/src/ring_buffer.c **** 	ptr += RB_INDH(RingBuff) * RingBuff->itemSz;
 304              		.loc 1 104 0
 305 003e A268     		ldr	r2, [r4, #8]	@ D.4715, RingBuff_5(D)->itemSz
 306              	.LVL22:
 307 0040 6346     		mov	r3, ip	@, ptr
 308 0042 5143     		mul	r1, r2	@ D.4716, D.4715
 309              	.LVL23:
 105:../../lpc_chip_11cxx_lib/src/ring_buffer.c **** 	memcpy(ptr, data, cnt1 * RingBuff->itemSz);
 310              		.loc 1 105 0
 311 0044 6A43     		mul	r2, r5	@ D.4715, cnt1
 312              	.LVL24:
 104:../../lpc_chip_11cxx_lib/src/ring_buffer.c **** 	ptr += RB_INDH(RingBuff) * RingBuff->itemSz;
 313              		.loc 1 104 0
 314 0046 5818     		add	r0, r3, r1	@ ptr,, D.4716
 315              	.LVL25:
 316              		.loc 1 105 0
 317 0048 391C     		mov	r1, r7	@, data
 318 004a FFF7FEFF 		bl	memcpy	@
 319              	.LVL26:
 106:../../lpc_chip_11cxx_lib/src/ring_buffer.c **** 	RingBuff->head += cnt1;
 320              		.loc 1 106 0
 321 004e E068     		ldr	r0, [r4, #12]	@, RingBuff_5(D)->head
 107:../../lpc_chip_11cxx_lib/src/ring_buffer.c **** 
 108:../../lpc_chip_11cxx_lib/src/ring_buffer.c **** 	/* Write segment 2 */
 109:../../lpc_chip_11cxx_lib/src/ring_buffer.c **** 	ptr = (uint8_t *) RingBuff->data + RB_INDH(RingBuff) * RingBuff->itemSz;
ARM GAS  /var/folders/f9/8bk2lnw15zn4cbgn6wrnb4lm0000gn/T//ccNGCAL6.s 			page 11


 322              		.loc 1 109 0
 323 0050 A368     		ldr	r3, [r4, #8]	@ D.4715, RingBuff_5(D)->itemSz
 106:../../lpc_chip_11cxx_lib/src/ring_buffer.c **** 	RingBuff->head += cnt1;
 324              		.loc 1 106 0
 325 0052 2A18     		add	r2, r5, r0	@ D.4716, cnt1,
 326              	.LVL27:
 327              		.loc 1 109 0
 328 0054 6068     		ldr	r0, [r4, #4]	@ D.4715, RingBuff_5(D)->count
 106:../../lpc_chip_11cxx_lib/src/ring_buffer.c **** 	RingBuff->head += cnt1;
 329              		.loc 1 106 0
 330 0056 E260     		str	r2, [r4, #12]	@ D.4716, RingBuff_5(D)->head
 331              		.loc 1 109 0
 332 0058 0138     		sub	r0, r0, #1	@ D.4715,
 333 005a 0240     		and	r2, r0	@ D.4716, D.4715
 334              	.LVL28:
 335 005c 181C     		mov	r0, r3	@ D.4716, D.4715
 336 005e 5043     		mul	r0, r2	@ D.4716, D.4716
 110:../../lpc_chip_11cxx_lib/src/ring_buffer.c **** 	data = (const uint8_t *) data + cnt1 * RingBuff->itemSz;
 111:../../lpc_chip_11cxx_lib/src/ring_buffer.c **** 	memcpy(ptr, data, cnt2 * RingBuff->itemSz);
 337              		.loc 1 111 0
 338 0060 1A1C     		mov	r2, r3	@ D.4715, D.4715
 110:../../lpc_chip_11cxx_lib/src/ring_buffer.c **** 	data = (const uint8_t *) data + cnt1 * RingBuff->itemSz;
 339              		.loc 1 110 0
 340 0062 6B43     		mul	r3, r5	@ D.4715, cnt1
 341              	.LVL29:
 109:../../lpc_chip_11cxx_lib/src/ring_buffer.c **** 	ptr = (uint8_t *) RingBuff->data + RB_INDH(RingBuff) * RingBuff->itemSz;
 342              		.loc 1 109 0
 343 0064 2168     		ldr	r1, [r4]	@, RingBuff_5(D)->data
 344              		.loc 1 111 0
 345 0066 7243     		mul	r2, r6	@ D.4715, cnt2
 346              	.LVL30:
 109:../../lpc_chip_11cxx_lib/src/ring_buffer.c **** 	ptr = (uint8_t *) RingBuff->data + RB_INDH(RingBuff) * RingBuff->itemSz;
 347              		.loc 1 109 0
 348 0068 0818     		add	r0, r1, r0	@ ptr,, D.4716
 110:../../lpc_chip_11cxx_lib/src/ring_buffer.c **** 	data = (const uint8_t *) data + cnt1 * RingBuff->itemSz;
 349              		.loc 1 110 0
 350 006a F918     		add	r1, r7, r3	@ data, data, D.4715
 351              	.LVL31:
 352              		.loc 1 111 0
 353 006c FFF7FEFF 		bl	memcpy	@
 354              	.LVL32:
 112:../../lpc_chip_11cxx_lib/src/ring_buffer.c **** 	RingBuff->head += cnt2;
 355              		.loc 1 112 0
 356 0070 E268     		ldr	r2, [r4, #12]	@, RingBuff_5(D)->head
 113:../../lpc_chip_11cxx_lib/src/ring_buffer.c **** 
 114:../../lpc_chip_11cxx_lib/src/ring_buffer.c **** 	return cnt1 + cnt2;
 357              		.loc 1 114 0
 358 0072 A819     		add	r0, r5, r6	@ D.4715, cnt1, cnt2
 112:../../lpc_chip_11cxx_lib/src/ring_buffer.c **** 	RingBuff->head += cnt2;
 359              		.loc 1 112 0
 360 0074 9319     		add	r3, r2, r6	@ D.4716,, cnt2
 361 0076 E360     		str	r3, [r4, #12]	@ D.4716, RingBuff_5(D)->head
 362              	.LVL33:
 363              	.L7:
 115:../../lpc_chip_11cxx_lib/src/ring_buffer.c **** }
 364              		.loc 1 115 0
 365              		@ sp needed	@
ARM GAS  /var/folders/f9/8bk2lnw15zn4cbgn6wrnb4lm0000gn/T//ccNGCAL6.s 			page 12


 366              	.LVL34:
 367 0078 F8BD     		pop	{r3, r4, r5, r6, r7, pc}
 368              	.LVL35:
 369              	.L14:
 100:../../lpc_chip_11cxx_lib/src/ring_buffer.c **** 	cnt2 = MIN(cnt2, num);
 370              		.loc 1 100 0
 371 007a 061C     		mov	r6, r0	@ cnt2, D.4715
 372              	.LVL36:
 373 007c DFE7     		b	.L10	@
 374              	.LVL37:
 375              	.L13:
  97:../../lpc_chip_11cxx_lib/src/ring_buffer.c **** 	cnt1 = MIN(cnt1, num);
 376              		.loc 1 97 0
 377 007e 151C     		mov	r5, r2	@ cnt1, num
 378              	.LVL38:
  98:../../lpc_chip_11cxx_lib/src/ring_buffer.c **** 	num -= cnt1;
 379              		.loc 1 98 0
 380 0080 561B     		sub	r6, r2, r5	@ cnt2, num, cnt1
 381              	.LVL39:
 100:../../lpc_chip_11cxx_lib/src/ring_buffer.c **** 	cnt2 = MIN(cnt2, num);
 382              		.loc 1 100 0
 383 0082 8642     		cmp	r6, r0	@ cnt2, D.4715
 384 0084 DBDD     		ble	.L10	@,
 385              	.LVL40:
 386 0086 F8E7     		b	.L14	@
 387              		.cfi_endproc
 388              	.LFE8:
 389              		.size	RingBuffer_InsertMult, .-RingBuffer_InsertMult
 390              		.section	.text.RingBuffer_Pop,"ax",%progbits
 391              		.align	2
 392              		.global	RingBuffer_Pop
 393              		.code	16
 394              		.thumb_func
 395              		.type	RingBuffer_Pop, %function
 396              	RingBuffer_Pop:
 397              	.LFB9:
 116:../../lpc_chip_11cxx_lib/src/ring_buffer.c **** 
 117:../../lpc_chip_11cxx_lib/src/ring_buffer.c **** /* Pop single item from Ring Buffer */
 118:../../lpc_chip_11cxx_lib/src/ring_buffer.c **** int RingBuffer_Pop(RINGBUFF_T *RingBuff, void *data)
 119:../../lpc_chip_11cxx_lib/src/ring_buffer.c **** {
 398              		.loc 1 119 0
 399              		.cfi_startproc
 400              	.LVL41:
 401 0000 38B5     		push	{r3, r4, r5, lr}	@
 402              		.cfi_def_cfa_offset 16
 403              		.cfi_offset 3, -16
 404              		.cfi_offset 4, -12
 405              		.cfi_offset 5, -8
 406              		.cfi_offset 14, -4
 407              	.LBB54:
 408              	.LBB55:
 126:../../lpc_chip_11cxx_lib/inc/ring_buffer.h **** }
 127:../../lpc_chip_11cxx_lib/inc/ring_buffer.h **** 
 128:../../lpc_chip_11cxx_lib/inc/ring_buffer.h **** /**
 129:../../lpc_chip_11cxx_lib/inc/ring_buffer.h ****  * @brief	Return empty status of ring buffer
 130:../../lpc_chip_11cxx_lib/inc/ring_buffer.h ****  * @param	RingBuff	: Pointer to ring buffer
 131:../../lpc_chip_11cxx_lib/inc/ring_buffer.h ****  * @return	1 if the ring buffer is empty, otherwise 0
ARM GAS  /var/folders/f9/8bk2lnw15zn4cbgn6wrnb4lm0000gn/T//ccNGCAL6.s 			page 13


 132:../../lpc_chip_11cxx_lib/inc/ring_buffer.h ****  */
 133:../../lpc_chip_11cxx_lib/inc/ring_buffer.h **** STATIC INLINE int RingBuffer_IsEmpty(RINGBUFF_T *RingBuff)
 134:../../lpc_chip_11cxx_lib/inc/ring_buffer.h **** {
 135:../../lpc_chip_11cxx_lib/inc/ring_buffer.h **** 	return RB_VHEAD(RingBuff) == RB_VTAIL(RingBuff);
 409              		.loc 2 135 0
 410 0002 C268     		ldr	r2, [r0, #12]	@ D.4730, MEM[(volatile uint32_t *)RingBuff_4(D) + 12B]
 411 0004 0369     		ldr	r3, [r0, #16]	@ D.4730, MEM[(volatile uint32_t *)RingBuff_4(D) + 16B]
 412              	.LBE55:
 413              	.LBE54:
 414              		.loc 1 119 0
 415 0006 041C     		mov	r4, r0	@ RingBuff, RingBuff
 120:../../lpc_chip_11cxx_lib/src/ring_buffer.c **** 	uint8_t *ptr = RingBuff->data;
 416              		.loc 1 120 0
 417 0008 0568     		ldr	r5, [r0]	@ ptr, RingBuff_4(D)->data
 418              	.LVL42:
 121:../../lpc_chip_11cxx_lib/src/ring_buffer.c **** 
 122:../../lpc_chip_11cxx_lib/src/ring_buffer.c **** 	/* We cannot pop when queue is empty */
 123:../../lpc_chip_11cxx_lib/src/ring_buffer.c **** 	if (RingBuffer_IsEmpty(RingBuff))
 124:../../lpc_chip_11cxx_lib/src/ring_buffer.c **** 		return 0;
 419              		.loc 1 124 0
 420 000a 0020     		mov	r0, #0	@ D.4729,
 421              	.LVL43:
 123:../../lpc_chip_11cxx_lib/src/ring_buffer.c **** 	if (RingBuffer_IsEmpty(RingBuff))
 422              		.loc 1 123 0
 423 000c 9A42     		cmp	r2, r3	@ D.4730, D.4730
 424 000e 0ED0     		beq	.L16	@,
 125:../../lpc_chip_11cxx_lib/src/ring_buffer.c **** 
 126:../../lpc_chip_11cxx_lib/src/ring_buffer.c **** 	ptr += RB_INDT(RingBuff) * RingBuff->itemSz;
 425              		.loc 1 126 0
 426 0010 6368     		ldr	r3, [r4, #4]	@ D.4729, RingBuff_4(D)->count
 427 0012 2069     		ldr	r0, [r4, #16]	@, RingBuff_4(D)->tail
 428 0014 A268     		ldr	r2, [r4, #8]	@ D.4730, RingBuff_4(D)->itemSz
 429              	.LVL44:
 430 0016 013B     		sub	r3, r3, #1	@ D.4729,
 431              	.LVL45:
 432 0018 0340     		and	r3, r0	@ D.4730,
 433 001a 5343     		mul	r3, r2	@ D.4730, D.4730
 434 001c ED18     		add	r5, r5, r3	@ ptr, ptr, D.4730
 435              	.LVL46:
 127:../../lpc_chip_11cxx_lib/src/ring_buffer.c **** 	memcpy(data, ptr, RingBuff->itemSz);
 436              		.loc 1 127 0
 437 001e 081C     		mov	r0, r1	@, data
 438 0020 291C     		mov	r1, r5	@, ptr
 439              	.LVL47:
 440 0022 FFF7FEFF 		bl	memcpy	@
 441              	.LVL48:
 128:../../lpc_chip_11cxx_lib/src/ring_buffer.c **** 	RingBuff->tail++;
 442              		.loc 1 128 0
 443 0026 2369     		ldr	r3, [r4, #16]	@ D.4730, RingBuff_4(D)->tail
 129:../../lpc_chip_11cxx_lib/src/ring_buffer.c **** 
 130:../../lpc_chip_11cxx_lib/src/ring_buffer.c **** 	return 1;
 444              		.loc 1 130 0
 445 0028 0120     		mov	r0, #1	@ D.4729,
 128:../../lpc_chip_11cxx_lib/src/ring_buffer.c **** 	RingBuff->tail++;
 446              		.loc 1 128 0
 447 002a 0133     		add	r3, r3, #1	@ D.4730,
 448 002c 2361     		str	r3, [r4, #16]	@ D.4730, RingBuff_4(D)->tail
ARM GAS  /var/folders/f9/8bk2lnw15zn4cbgn6wrnb4lm0000gn/T//ccNGCAL6.s 			page 14


 449              	.L16:
 131:../../lpc_chip_11cxx_lib/src/ring_buffer.c **** }
 450              		.loc 1 131 0
 451              		@ sp needed	@
 452              	.LVL49:
 453 002e 38BD     		pop	{r3, r4, r5, pc}
 454              		.cfi_endproc
 455              	.LFE9:
 456              		.size	RingBuffer_Pop, .-RingBuffer_Pop
 457              		.section	.text.RingBuffer_PopMult,"ax",%progbits
 458              		.align	2
 459              		.global	RingBuffer_PopMult
 460              		.code	16
 461              		.thumb_func
 462              		.type	RingBuffer_PopMult, %function
 463              	RingBuffer_PopMult:
 464              	.LFB10:
 132:../../lpc_chip_11cxx_lib/src/ring_buffer.c **** 
 133:../../lpc_chip_11cxx_lib/src/ring_buffer.c **** /* Pop multiple items from Ring buffer */
 134:../../lpc_chip_11cxx_lib/src/ring_buffer.c **** int RingBuffer_PopMult(RINGBUFF_T *RingBuff, void *data, int num)
 135:../../lpc_chip_11cxx_lib/src/ring_buffer.c **** {
 465              		.loc 1 135 0
 466              		.cfi_startproc
 467              	.LVL50:
 468 0000 F8B5     		push	{r3, r4, r5, r6, r7, lr}	@
 469              		.cfi_def_cfa_offset 24
 470              		.cfi_offset 3, -24
 471              		.cfi_offset 4, -20
 472              		.cfi_offset 5, -16
 473              		.cfi_offset 6, -12
 474              		.cfi_offset 7, -8
 475              		.cfi_offset 14, -4
 476              		.loc 1 135 0
 477 0002 041C     		mov	r4, r0	@ RingBuff, RingBuff
 478              	.LBB56:
 479              	.LBB57:
 480              		.loc 2 135 0
 481 0004 E668     		ldr	r6, [r4, #12]	@ D.4737, MEM[(volatile uint32_t *)RingBuff_5(D) + 12B]
 482              	.LBE57:
 483              	.LBE56:
 136:../../lpc_chip_11cxx_lib/src/ring_buffer.c **** 	uint8_t *ptr = RingBuff->data;
 484              		.loc 1 136 0
 485 0006 0068     		ldr	r0, [r0]	@, RingBuff_5(D)->data
 486              	.LVL51:
 487              	.LBB59:
 488              	.LBB58:
 489              		.loc 2 135 0
 490 0008 2569     		ldr	r5, [r4, #16]	@ D.4737, MEM[(volatile uint32_t *)RingBuff_5(D) + 16B]
 491              	.LBE58:
 492              	.LBE59:
 135:../../lpc_chip_11cxx_lib/src/ring_buffer.c **** {
 493              		.loc 1 135 0
 494 000a 0F1C     		mov	r7, r1	@ data, data
 495              		.loc 1 136 0
 496 000c 8446     		mov	ip, r0	@ ptr,
 497              	.LVL52:
 137:../../lpc_chip_11cxx_lib/src/ring_buffer.c **** 	int cnt1, cnt2;
ARM GAS  /var/folders/f9/8bk2lnw15zn4cbgn6wrnb4lm0000gn/T//ccNGCAL6.s 			page 15


 138:../../lpc_chip_11cxx_lib/src/ring_buffer.c **** 
 139:../../lpc_chip_11cxx_lib/src/ring_buffer.c **** 	/* We cannot insert when queue is empty */
 140:../../lpc_chip_11cxx_lib/src/ring_buffer.c **** 	if (RingBuffer_IsEmpty(RingBuff))
 498              		.loc 1 140 0
 499 000e AE42     		cmp	r6, r5	@ D.4737, D.4737
 500 0010 38D0     		beq	.L23	@,
 501              	.LVL53:
 502              	.LBB60:
 503              	.LBB61:
 105:../../lpc_chip_11cxx_lib/inc/ring_buffer.h **** 	return RB_VHEAD(RingBuff) - RB_VTAIL(RingBuff);
 504              		.loc 2 105 0
 505 0012 E568     		ldr	r5, [r4, #12]	@ D.4737, MEM[(volatile uint32_t *)RingBuff_5(D) + 12B]
 506              	.LBE61:
 507              	.LBE60:
 141:../../lpc_chip_11cxx_lib/src/ring_buffer.c **** 		return 0;
 142:../../lpc_chip_11cxx_lib/src/ring_buffer.c **** 
 143:../../lpc_chip_11cxx_lib/src/ring_buffer.c **** 	/* Calculate the segment lengths */
 144:../../lpc_chip_11cxx_lib/src/ring_buffer.c **** 	cnt1 = cnt2 = RingBuffer_GetCount(RingBuff);
 145:../../lpc_chip_11cxx_lib/src/ring_buffer.c **** 	if (RB_INDT(RingBuff) + cnt1 >= RingBuff->count)
 508              		.loc 1 145 0
 509 0014 6068     		ldr	r0, [r4, #4]	@ D.4736, RingBuff_5(D)->count
 510              	.LVL54:
 511              	.LBB64:
 512              	.LBB62:
 105:../../lpc_chip_11cxx_lib/inc/ring_buffer.h **** 	return RB_VHEAD(RingBuff) - RB_VTAIL(RingBuff);
 513              		.loc 2 105 0
 514 0016 2369     		ldr	r3, [r4, #16]	@ D.4737, MEM[(volatile uint32_t *)RingBuff_5(D) + 16B]
 515              	.LBE62:
 516              	.LBE64:
 517              		.loc 1 145 0
 518 0018 2169     		ldr	r1, [r4, #16]	@, RingBuff_5(D)->tail
 519              	.LVL55:
 520              	.LBB65:
 521              	.LBB63:
 105:../../lpc_chip_11cxx_lib/inc/ring_buffer.h **** 	return RB_VHEAD(RingBuff) - RB_VTAIL(RingBuff);
 522              		.loc 2 105 0
 523 001a ED1A     		sub	r5, r5, r3	@ cnt1, D.4737, D.4737
 524              	.LVL56:
 525              	.LBE63:
 526              	.LBE65:
 527              		.loc 1 145 0
 528 001c 431E     		sub	r3, r0, #1	@ D.4736, D.4736,
 529 001e 0B40     		and	r3, r1	@ D.4737,
 530 0020 EE18     		add	r6, r5, r3	@ D.4737, cnt1, D.4737
 531 0022 0021     		mov	r1, #0	@ D.4736,
 532 0024 8642     		cmp	r6, r0	@ D.4737, D.4736
 533 0026 02D3     		bcc	.L20	@,
 146:../../lpc_chip_11cxx_lib/src/ring_buffer.c **** 		cnt1 = RingBuff->count - RB_INDT(RingBuff);
 534              		.loc 1 146 0
 535 0028 C01A     		sub	r0, r0, r3	@ cnt1, D.4736, D.4737
 536              	.LVL57:
 537 002a 291A     		sub	r1, r5, r0	@ D.4736, cnt1, cnt1
 538 002c 051C     		mov	r5, r0	@ cnt1, cnt1
 539              	.LVL58:
 540              	.L20:
 147:../../lpc_chip_11cxx_lib/src/ring_buffer.c **** 	cnt2 -= cnt1;
 148:../../lpc_chip_11cxx_lib/src/ring_buffer.c **** 
ARM GAS  /var/folders/f9/8bk2lnw15zn4cbgn6wrnb4lm0000gn/T//ccNGCAL6.s 			page 16


 149:../../lpc_chip_11cxx_lib/src/ring_buffer.c **** 	cnt1 = MIN(cnt1, num);
 541              		.loc 1 149 0
 542 002e 9542     		cmp	r5, r2	@ cnt1, num
 543 0030 23DC     		bgt	.L25	@,
 544              	.LVL59:
 150:../../lpc_chip_11cxx_lib/src/ring_buffer.c **** 	num -= cnt1;
 545              		.loc 1 150 0
 546 0032 561B     		sub	r6, r2, r5	@ cnt2, num, cnt1
 547              	.LVL60:
 151:../../lpc_chip_11cxx_lib/src/ring_buffer.c **** 
 152:../../lpc_chip_11cxx_lib/src/ring_buffer.c **** 	cnt2 = MIN(cnt2, num);
 548              		.loc 1 152 0
 549 0034 8E42     		cmp	r6, r1	@ cnt2, D.4736
 550 0036 1EDC     		bgt	.L26	@,
 551              	.LVL61:
 552              	.L22:
 153:../../lpc_chip_11cxx_lib/src/ring_buffer.c **** 	num -= cnt2;
 154:../../lpc_chip_11cxx_lib/src/ring_buffer.c **** 
 155:../../lpc_chip_11cxx_lib/src/ring_buffer.c **** 	/* Write segment 1 */
 156:../../lpc_chip_11cxx_lib/src/ring_buffer.c **** 	ptr += RB_INDT(RingBuff) * RingBuff->itemSz;
 553              		.loc 1 156 0
 554 0038 A068     		ldr	r0, [r4, #8]	@ D.4736, RingBuff_5(D)->itemSz
 555              	.LVL62:
 556 003a 4343     		mul	r3, r0	@ D.4737, D.4736
 557              	.LVL63:
 157:../../lpc_chip_11cxx_lib/src/ring_buffer.c **** 	memcpy(data, ptr, cnt1 * RingBuff->itemSz);
 558              		.loc 1 157 0
 559 003c 021C     		mov	r2, r0	@ D.4736, D.4736
 156:../../lpc_chip_11cxx_lib/src/ring_buffer.c **** 	ptr += RB_INDT(RingBuff) * RingBuff->itemSz;
 560              		.loc 1 156 0
 561 003e 6046     		mov	r0, ip	@, ptr
 562              	.LVL64:
 563 0040 C118     		add	r1, r0, r3	@ ptr,, D.4737
 564              	.LVL65:
 565              		.loc 1 157 0
 566 0042 6A43     		mul	r2, r5	@ D.4736, cnt1
 567 0044 381C     		mov	r0, r7	@, data
 568 0046 FFF7FEFF 		bl	memcpy	@
 569              	.LVL66:
 158:../../lpc_chip_11cxx_lib/src/ring_buffer.c **** 	RingBuff->tail += cnt1;
 159:../../lpc_chip_11cxx_lib/src/ring_buffer.c **** 
 160:../../lpc_chip_11cxx_lib/src/ring_buffer.c **** 	/* Write segment 2 */
 161:../../lpc_chip_11cxx_lib/src/ring_buffer.c **** 	ptr = (uint8_t *) RingBuff->data + RB_INDT(RingBuff) * RingBuff->itemSz;
 570              		.loc 1 161 0
 571 004a A368     		ldr	r3, [r4, #8]	@ D.4736, RingBuff_5(D)->itemSz
 158:../../lpc_chip_11cxx_lib/src/ring_buffer.c **** 	RingBuff->tail += cnt1;
 572              		.loc 1 158 0
 573 004c 2269     		ldr	r2, [r4, #16]	@, RingBuff_5(D)->tail
 162:../../lpc_chip_11cxx_lib/src/ring_buffer.c **** 	data = (uint8_t *) data + cnt1 * RingBuff->itemSz;
 574              		.loc 1 162 0
 575 004e 181C     		mov	r0, r3	@ D.4736, D.4736
 576 0050 6843     		mul	r0, r5	@ D.4736, cnt1
 577 0052 3818     		add	r0, r7, r0	@ data, data, D.4736
 161:../../lpc_chip_11cxx_lib/src/ring_buffer.c **** 	ptr = (uint8_t *) RingBuff->data + RB_INDT(RingBuff) * RingBuff->itemSz;
 578              		.loc 1 161 0
 579 0054 6768     		ldr	r7, [r4, #4]	@ D.4736, RingBuff_5(D)->count
 580              	.LVL67:
ARM GAS  /var/folders/f9/8bk2lnw15zn4cbgn6wrnb4lm0000gn/T//ccNGCAL6.s 			page 17


 158:../../lpc_chip_11cxx_lib/src/ring_buffer.c **** 	RingBuff->tail += cnt1;
 581              		.loc 1 158 0
 582 0056 A918     		add	r1, r5, r2	@ D.4737, cnt1,
 583              	.LVL68:
 161:../../lpc_chip_11cxx_lib/src/ring_buffer.c **** 	ptr = (uint8_t *) RingBuff->data + RB_INDT(RingBuff) * RingBuff->itemSz;
 584              		.loc 1 161 0
 585 0058 013F     		sub	r7, r7, #1	@ D.4736,
 586              	.LVL69:
 158:../../lpc_chip_11cxx_lib/src/ring_buffer.c **** 	RingBuff->tail += cnt1;
 587              		.loc 1 158 0
 588 005a 2161     		str	r1, [r4, #16]	@ D.4737, RingBuff_5(D)->tail
 161:../../lpc_chip_11cxx_lib/src/ring_buffer.c **** 	ptr = (uint8_t *) RingBuff->data + RB_INDT(RingBuff) * RingBuff->itemSz;
 589              		.loc 1 161 0
 590 005c 3940     		and	r1, r7	@ D.4737, D.4736
 591              	.LVL70:
 592 005e 5943     		mul	r1, r3	@ D.4737, D.4736
 163:../../lpc_chip_11cxx_lib/src/ring_buffer.c **** 	memcpy(data, ptr, cnt2 * RingBuff->itemSz);
 593              		.loc 1 163 0
 594 0060 1A1C     		mov	r2, r3	@ D.4736, D.4736
 161:../../lpc_chip_11cxx_lib/src/ring_buffer.c **** 	ptr = (uint8_t *) RingBuff->data + RB_INDT(RingBuff) * RingBuff->itemSz;
 595              		.loc 1 161 0
 596 0062 2368     		ldr	r3, [r4]	@, RingBuff_5(D)->data
 597              	.LVL71:
 598              		.loc 1 163 0
 599 0064 7243     		mul	r2, r6	@ D.4736, cnt2
 600              	.LVL72:
 161:../../lpc_chip_11cxx_lib/src/ring_buffer.c **** 	ptr = (uint8_t *) RingBuff->data + RB_INDT(RingBuff) * RingBuff->itemSz;
 601              		.loc 1 161 0
 602 0066 5918     		add	r1, r3, r1	@ ptr,, D.4737
 603              		.loc 1 163 0
 604 0068 FFF7FEFF 		bl	memcpy	@
 605              	.LVL73:
 164:../../lpc_chip_11cxx_lib/src/ring_buffer.c **** 	RingBuff->tail += cnt2;
 606              		.loc 1 164 0
 607 006c 2769     		ldr	r7, [r4, #16]	@, RingBuff_5(D)->tail
 165:../../lpc_chip_11cxx_lib/src/ring_buffer.c **** 
 166:../../lpc_chip_11cxx_lib/src/ring_buffer.c **** 	return cnt1 + cnt2;
 608              		.loc 1 166 0
 609 006e A819     		add	r0, r5, r6	@ D.4736, cnt1, cnt2
 164:../../lpc_chip_11cxx_lib/src/ring_buffer.c **** 	RingBuff->tail += cnt2;
 610              		.loc 1 164 0
 611 0070 BB19     		add	r3, r7, r6	@ D.4737,, cnt2
 612 0072 2361     		str	r3, [r4, #16]	@ D.4737, RingBuff_5(D)->tail
 613              	.LVL74:
 614              	.L19:
 167:../../lpc_chip_11cxx_lib/src/ring_buffer.c **** }
 615              		.loc 1 167 0
 616              		@ sp needed	@
 617              	.LVL75:
 618 0074 F8BD     		pop	{r3, r4, r5, r6, r7, pc}
 619              	.LVL76:
 620              	.L26:
 152:../../lpc_chip_11cxx_lib/src/ring_buffer.c **** 	cnt2 = MIN(cnt2, num);
 621              		.loc 1 152 0
 622 0076 0E1C     		mov	r6, r1	@ cnt2, D.4736
 623              	.LVL77:
 624 0078 DEE7     		b	.L22	@
ARM GAS  /var/folders/f9/8bk2lnw15zn4cbgn6wrnb4lm0000gn/T//ccNGCAL6.s 			page 18


 625              	.LVL78:
 626              	.L25:
 149:../../lpc_chip_11cxx_lib/src/ring_buffer.c **** 	cnt1 = MIN(cnt1, num);
 627              		.loc 1 149 0
 628 007a 151C     		mov	r5, r2	@ cnt1, num
 629              	.LVL79:
 150:../../lpc_chip_11cxx_lib/src/ring_buffer.c **** 	num -= cnt1;
 630              		.loc 1 150 0
 631 007c 561B     		sub	r6, r2, r5	@ cnt2, num, cnt1
 632              	.LVL80:
 152:../../lpc_chip_11cxx_lib/src/ring_buffer.c **** 	cnt2 = MIN(cnt2, num);
 633              		.loc 1 152 0
 634 007e 8E42     		cmp	r6, r1	@ cnt2, D.4736
 635 0080 DADD     		ble	.L22	@,
 636              	.LVL81:
 637 0082 F8E7     		b	.L26	@
 638              	.LVL82:
 639              	.L23:
 141:../../lpc_chip_11cxx_lib/src/ring_buffer.c **** 		return 0;
 640              		.loc 1 141 0
 641 0084 0020     		mov	r0, #0	@ D.4736,
 642              	.LVL83:
 643 0086 F5E7     		b	.L19	@
 644              		.cfi_endproc
 645              	.LFE10:
 646              		.size	RingBuffer_PopMult, .-RingBuffer_PopMult
 647              		.text
 648              	.Letext0:
 649              		.file 3 "/usr/local/Cellar/gcc-arm-none-eabi/20140805/arm-none-eabi/include/machine/_default_types
 650              		.file 4 "/usr/local/Cellar/gcc-arm-none-eabi/20140805/arm-none-eabi/include/stdint.h"