ARM GAS  /var/folders/f9/8bk2lnw15zn4cbgn6wrnb4lm0000gn/T//ccCGlkPS.s 			page 1


   1              		.cpu cortex-m0
   2              		.fpu softvfp
   3              		.eabi_attribute 20, 1	@ Tag_ABI_FP_denormal
   4              		.eabi_attribute 21, 1	@ Tag_ABI_FP_exceptions
   5              		.eabi_attribute 23, 3	@ Tag_ABI_FP_number_model
   6              		.eabi_attribute 24, 1	@ Tag_ABI_align8_needed
   7              		.eabi_attribute 25, 1	@ Tag_ABI_align8_preserved
   8              		.eabi_attribute 26, 1	@ Tag_ABI_enum_size
   9              		.eabi_attribute 30, 2	@ Tag_ABI_optimization_goals
  10              		.eabi_attribute 34, 0	@ Tag_CPU_unaligned_access
  11              		.eabi_attribute 18, 4	@ Tag_ABI_PCS_wchar_t
  12              		.file	"ssp_11xx.c"
  13              	@ GNU C (GNU Tools for ARM Embedded Processors) version 4.8.4 20140725 (release) [ARM/embedded-4_8-
  14              	@	compiled by GNU C version 4.2.1 (Based on Apple Inc. build 5658) (LLVM build 2336.9.00), GMP vers
  15              	@ GGC heuristics: --param ggc-min-expand=100 --param ggc-min-heapsize=131072
  16              	@ options passed:  -I . -I ../../lpc_chip_11cxx_lib/inc
  17              	@ -I ../../evt_lib/inc -imultilib armv6-m
  18              	@ -iprefix /usr/local/Cellar/gcc-arm-none-eabi/20140805/bin/../lib/gcc/arm-none-eabi/4.8.4/
  19              	@ -isysroot /usr/local/Cellar/gcc-arm-none-eabi/20140805/bin/../arm-none-eabi
  20              	@ -MD bin/ssp_11xx.d -MF bin/ssp_11xx.d -MP -MQ bin/ssp_11xx.o
  21              	@ -D__USES_INITFINI__ -D CORE_M0 ../../lpc_chip_11cxx_lib/src/ssp_11xx.c
  22              	@ -mcpu=cortex-m0 -mthumb -auxbase-strip bin/ssp_11xx.o -g -ggdb3 -O2 -Wall
  23              	@ -Wstrict-prototypes -Wextra -std=gnu90 -ffunction-sections
  24              	@ -fdata-sections -fverbose-asm
  25              	@ options enabled:  -faggressive-loop-optimizations -fauto-inc-dec
  26              	@ -fbranch-count-reg -fcaller-saves -fcombine-stack-adjustments -fcommon
  27              	@ -fcompare-elim -fcprop-registers -fcrossjumping -fcse-follow-jumps
  28              	@ -fdata-sections -fdefer-pop -fdelete-null-pointer-checks -fdevirtualize
  29              	@ -fdwarf2-cfi-asm -fearly-inlining -feliminate-unused-debug-types
  30              	@ -fexpensive-optimizations -fforward-propagate -ffunction-cse
  31              	@ -ffunction-sections -fgcse -fgcse-lm -fgnu-runtime -fgnu-unique
  32              	@ -fguess-branch-probability -fhoist-adjacent-loads -fident -fif-conversion
  33              	@ -fif-conversion2 -findirect-inlining -finline -finline-atomics
  34              	@ -finline-functions-called-once -finline-small-functions -fipa-cp
  35              	@ -fipa-profile -fipa-pure-const -fipa-reference -fipa-sra
  36              	@ -fira-hoist-pressure -fira-share-save-slots -fira-share-spill-slots
  37              	@ -fivopts -fkeep-static-consts -fleading-underscore -fmath-errno
  38              	@ -fmerge-constants -fmerge-debug-strings -fmove-loop-invariants
  39              	@ -fomit-frame-pointer -foptimize-register-move -foptimize-sibling-calls
  40              	@ -foptimize-strlen -fpartial-inlining -fpeephole -fpeephole2
  41              	@ -fprefetch-loop-arrays -freg-struct-return -fregmove -freorder-blocks
  42              	@ -freorder-functions -frerun-cse-after-loop
  43              	@ -fsched-critical-path-heuristic -fsched-dep-count-heuristic
  44              	@ -fsched-group-heuristic -fsched-interblock -fsched-last-insn-heuristic
  45              	@ -fsched-pressure -fsched-rank-heuristic -fsched-spec
  46              	@ -fsched-spec-insn-heuristic -fsched-stalled-insns-dep -fschedule-insns2
  47              	@ -fsection-anchors -fshow-column -fshrink-wrap -fsigned-zeros
  48              	@ -fsplit-ivs-in-unroller -fsplit-wide-types -fstrict-aliasing
  49              	@ -fstrict-overflow -fstrict-volatile-bitfields -fsync-libcalls
  50              	@ -fthread-jumps -ftoplevel-reorder -ftrapping-math -ftree-bit-ccp
  51              	@ -ftree-builtin-call-dce -ftree-ccp -ftree-ch -ftree-coalesce-vars
  52              	@ -ftree-copy-prop -ftree-copyrename -ftree-cselim -ftree-dce
  53              	@ -ftree-dominator-opts -ftree-dse -ftree-forwprop -ftree-fre
  54              	@ -ftree-loop-if-convert -ftree-loop-im -ftree-loop-ivcanon
  55              	@ -ftree-loop-optimize -ftree-parallelize-loops= -ftree-phiprop -ftree-pre
  56              	@ -ftree-pta -ftree-reassoc -ftree-scev-cprop -ftree-sink
  57              	@ -ftree-slp-vectorize -ftree-slsr -ftree-sra -ftree-switch-conversion
ARM GAS  /var/folders/f9/8bk2lnw15zn4cbgn6wrnb4lm0000gn/T//ccCGlkPS.s 			page 2


  58              	@ -ftree-tail-merge -ftree-ter -ftree-vect-loop-version -ftree-vrp
  59              	@ -funit-at-a-time -fvar-tracking -fvar-tracking-assignments -fverbose-asm
  60              	@ -fzero-initialized-in-bss -mlittle-endian -mpic-data-is-text-relative
  61              	@ -msched-prolog -mthumb -mvectorize-with-neon-quad
  62              	
  63              		.text
  64              	.Ltext0:
  65              		.cfi_sections	.debug_frame
  66              		.section	.text.SSP_Read1BFifo,"ax",%progbits
  67              		.align	2
  68              		.code	16
  69              		.thumb_func
  70              		.type	SSP_Read1BFifo, %function
  71              	SSP_Read1BFifo:
  72              	.LFB201:
  73              		.file 1 "../../lpc_chip_11cxx_lib/src/ssp_11xx.c"
   1:../../lpc_chip_11cxx_lib/src/ssp_11xx.c **** /*
   2:../../lpc_chip_11cxx_lib/src/ssp_11xx.c ****  * @brief LPC11xx SSP Registers and control functions
   3:../../lpc_chip_11cxx_lib/src/ssp_11xx.c ****  *
   4:../../lpc_chip_11cxx_lib/src/ssp_11xx.c ****  * @note
   5:../../lpc_chip_11cxx_lib/src/ssp_11xx.c ****  * Copyright(C) NXP Semiconductors, 2012
   6:../../lpc_chip_11cxx_lib/src/ssp_11xx.c ****  * All rights reserved.
   7:../../lpc_chip_11cxx_lib/src/ssp_11xx.c ****  *
   8:../../lpc_chip_11cxx_lib/src/ssp_11xx.c ****  * @par
   9:../../lpc_chip_11cxx_lib/src/ssp_11xx.c ****  * Software that is described herein is for illustrative purposes only
  10:../../lpc_chip_11cxx_lib/src/ssp_11xx.c ****  * which provides customers with programming information regarding the
  11:../../lpc_chip_11cxx_lib/src/ssp_11xx.c ****  * LPC products.  This software is supplied "AS IS" without any warranties of
  12:../../lpc_chip_11cxx_lib/src/ssp_11xx.c ****  * any kind, and NXP Semiconductors and its licensor disclaim any and
  13:../../lpc_chip_11cxx_lib/src/ssp_11xx.c ****  * all warranties, express or implied, including all implied warranties of
  14:../../lpc_chip_11cxx_lib/src/ssp_11xx.c ****  * merchantability, fitness for a particular purpose and non-infringement of
  15:../../lpc_chip_11cxx_lib/src/ssp_11xx.c ****  * intellectual property rights.  NXP Semiconductors assumes no responsibility
  16:../../lpc_chip_11cxx_lib/src/ssp_11xx.c ****  * or liability for the use of the software, conveys no license or rights under any
  17:../../lpc_chip_11cxx_lib/src/ssp_11xx.c ****  * patent, copyright, mask work right, or any other intellectual property rights in
  18:../../lpc_chip_11cxx_lib/src/ssp_11xx.c ****  * or to any products. NXP Semiconductors reserves the right to make changes
  19:../../lpc_chip_11cxx_lib/src/ssp_11xx.c ****  * in the software without notification. NXP Semiconductors also makes no
  20:../../lpc_chip_11cxx_lib/src/ssp_11xx.c ****  * representation or warranty that such application will be suitable for the
  21:../../lpc_chip_11cxx_lib/src/ssp_11xx.c ****  * specified use without further testing or modification.
  22:../../lpc_chip_11cxx_lib/src/ssp_11xx.c ****  *
  23:../../lpc_chip_11cxx_lib/src/ssp_11xx.c ****  * @par
  24:../../lpc_chip_11cxx_lib/src/ssp_11xx.c ****  * Permission to use, copy, modify, and distribute this software and its
  25:../../lpc_chip_11cxx_lib/src/ssp_11xx.c ****  * documentation is hereby granted, under NXP Semiconductors' and its
  26:../../lpc_chip_11cxx_lib/src/ssp_11xx.c ****  * licensor's relevant copyrights in the software, without fee, provided that it
  27:../../lpc_chip_11cxx_lib/src/ssp_11xx.c ****  * is used in conjunction with NXP Semiconductors microcontrollers.  This
  28:../../lpc_chip_11cxx_lib/src/ssp_11xx.c ****  * copyright, permission, and disclaimer notice must appear in all copies of
  29:../../lpc_chip_11cxx_lib/src/ssp_11xx.c ****  * this code.
  30:../../lpc_chip_11cxx_lib/src/ssp_11xx.c ****  */
  31:../../lpc_chip_11cxx_lib/src/ssp_11xx.c **** 
  32:../../lpc_chip_11cxx_lib/src/ssp_11xx.c **** #include "chip.h"
  33:../../lpc_chip_11cxx_lib/src/ssp_11xx.c **** 
  34:../../lpc_chip_11cxx_lib/src/ssp_11xx.c **** /*****************************************************************************
  35:../../lpc_chip_11cxx_lib/src/ssp_11xx.c ****  * Private types/enumerations/variables
  36:../../lpc_chip_11cxx_lib/src/ssp_11xx.c ****  ****************************************************************************/
  37:../../lpc_chip_11cxx_lib/src/ssp_11xx.c **** 
  38:../../lpc_chip_11cxx_lib/src/ssp_11xx.c **** /*****************************************************************************
  39:../../lpc_chip_11cxx_lib/src/ssp_11xx.c ****  * Public types/enumerations/variables
  40:../../lpc_chip_11cxx_lib/src/ssp_11xx.c ****  ****************************************************************************/
  41:../../lpc_chip_11cxx_lib/src/ssp_11xx.c **** 
ARM GAS  /var/folders/f9/8bk2lnw15zn4cbgn6wrnb4lm0000gn/T//ccCGlkPS.s 			page 3


  42:../../lpc_chip_11cxx_lib/src/ssp_11xx.c **** /*****************************************************************************
  43:../../lpc_chip_11cxx_lib/src/ssp_11xx.c ****  * Private functions
  44:../../lpc_chip_11cxx_lib/src/ssp_11xx.c ****  ****************************************************************************/
  45:../../lpc_chip_11cxx_lib/src/ssp_11xx.c **** 
  46:../../lpc_chip_11cxx_lib/src/ssp_11xx.c **** STATIC void SSP_Write2BFifo(LPC_SSP_T *pSSP, Chip_SSP_DATA_SETUP_T *xf_setup)
  47:../../lpc_chip_11cxx_lib/src/ssp_11xx.c **** {
  48:../../lpc_chip_11cxx_lib/src/ssp_11xx.c **** 	if (xf_setup->tx_data) {
  49:../../lpc_chip_11cxx_lib/src/ssp_11xx.c **** 		Chip_SSP_SendFrame(pSSP, (*(uint16_t *) ((uint32_t) xf_setup->tx_data +
  50:../../lpc_chip_11cxx_lib/src/ssp_11xx.c **** 												 xf_setup->tx_cnt)));
  51:../../lpc_chip_11cxx_lib/src/ssp_11xx.c **** 	}
  52:../../lpc_chip_11cxx_lib/src/ssp_11xx.c **** 	else {
  53:../../lpc_chip_11cxx_lib/src/ssp_11xx.c **** 		Chip_SSP_SendFrame(pSSP, 0xFFFF);
  54:../../lpc_chip_11cxx_lib/src/ssp_11xx.c **** 	}
  55:../../lpc_chip_11cxx_lib/src/ssp_11xx.c **** 
  56:../../lpc_chip_11cxx_lib/src/ssp_11xx.c **** 	xf_setup->tx_cnt += 2;
  57:../../lpc_chip_11cxx_lib/src/ssp_11xx.c **** }
  58:../../lpc_chip_11cxx_lib/src/ssp_11xx.c **** 
  59:../../lpc_chip_11cxx_lib/src/ssp_11xx.c **** /** SSP macro: write 1 bytes to FIFO buffer */
  60:../../lpc_chip_11cxx_lib/src/ssp_11xx.c **** STATIC void SSP_Write1BFifo(LPC_SSP_T *pSSP, Chip_SSP_DATA_SETUP_T *xf_setup)
  61:../../lpc_chip_11cxx_lib/src/ssp_11xx.c **** {
  62:../../lpc_chip_11cxx_lib/src/ssp_11xx.c **** 	if (xf_setup->tx_data) {
  63:../../lpc_chip_11cxx_lib/src/ssp_11xx.c **** 		Chip_SSP_SendFrame(pSSP, (*(uint8_t *) ((uint32_t) xf_setup->tx_data + xf_setup->tx_cnt)));
  64:../../lpc_chip_11cxx_lib/src/ssp_11xx.c **** 	}
  65:../../lpc_chip_11cxx_lib/src/ssp_11xx.c **** 	else {
  66:../../lpc_chip_11cxx_lib/src/ssp_11xx.c **** 		Chip_SSP_SendFrame(pSSP, 0xFF);
  67:../../lpc_chip_11cxx_lib/src/ssp_11xx.c **** 	}
  68:../../lpc_chip_11cxx_lib/src/ssp_11xx.c **** 
  69:../../lpc_chip_11cxx_lib/src/ssp_11xx.c **** 	xf_setup->tx_cnt++;
  70:../../lpc_chip_11cxx_lib/src/ssp_11xx.c **** }
  71:../../lpc_chip_11cxx_lib/src/ssp_11xx.c **** 
  72:../../lpc_chip_11cxx_lib/src/ssp_11xx.c **** /** SSP macro: read 1 bytes from FIFO buffer */
  73:../../lpc_chip_11cxx_lib/src/ssp_11xx.c **** STATIC void SSP_Read2BFifo(LPC_SSP_T *pSSP, Chip_SSP_DATA_SETUP_T *xf_setup)
  74:../../lpc_chip_11cxx_lib/src/ssp_11xx.c **** {
  75:../../lpc_chip_11cxx_lib/src/ssp_11xx.c **** 	uint16_t rDat;
  76:../../lpc_chip_11cxx_lib/src/ssp_11xx.c **** 
  77:../../lpc_chip_11cxx_lib/src/ssp_11xx.c **** 	while ((Chip_SSP_GetStatus(pSSP, SSP_STAT_RNE) == SET) &&
  78:../../lpc_chip_11cxx_lib/src/ssp_11xx.c **** 		   (xf_setup->rx_cnt < xf_setup->length)) {
  79:../../lpc_chip_11cxx_lib/src/ssp_11xx.c **** 		rDat = Chip_SSP_ReceiveFrame(pSSP);
  80:../../lpc_chip_11cxx_lib/src/ssp_11xx.c **** 		if (xf_setup->rx_data) {
  81:../../lpc_chip_11cxx_lib/src/ssp_11xx.c **** 			*(uint16_t *) ((uint32_t) xf_setup->rx_data + xf_setup->rx_cnt) = rDat;
  82:../../lpc_chip_11cxx_lib/src/ssp_11xx.c **** 		}
  83:../../lpc_chip_11cxx_lib/src/ssp_11xx.c **** 
  84:../../lpc_chip_11cxx_lib/src/ssp_11xx.c **** 		xf_setup->rx_cnt += 2;
  85:../../lpc_chip_11cxx_lib/src/ssp_11xx.c **** 	}
  86:../../lpc_chip_11cxx_lib/src/ssp_11xx.c **** }
  87:../../lpc_chip_11cxx_lib/src/ssp_11xx.c **** 
  88:../../lpc_chip_11cxx_lib/src/ssp_11xx.c **** /** SSP macro: read 2 bytes from FIFO buffer */
  89:../../lpc_chip_11cxx_lib/src/ssp_11xx.c **** STATIC void SSP_Read1BFifo(LPC_SSP_T *pSSP, Chip_SSP_DATA_SETUP_T *xf_setup)
  90:../../lpc_chip_11cxx_lib/src/ssp_11xx.c **** {
  74              		.loc 1 90 0
  75              		.cfi_startproc
  76              	.LVL0:
  77              	.LBB224:
  78              	.LBB225:
  79              		.file 2 "../../lpc_chip_11cxx_lib/inc/ssp_11xx.h"
   1:../../lpc_chip_11cxx_lib/inc/ssp_11xx.h **** /*
   2:../../lpc_chip_11cxx_lib/inc/ssp_11xx.h ****  * @brief LPC11xx SSP Registers and control functions
ARM GAS  /var/folders/f9/8bk2lnw15zn4cbgn6wrnb4lm0000gn/T//ccCGlkPS.s 			page 4


   3:../../lpc_chip_11cxx_lib/inc/ssp_11xx.h ****  *
   4:../../lpc_chip_11cxx_lib/inc/ssp_11xx.h ****  * @note
   5:../../lpc_chip_11cxx_lib/inc/ssp_11xx.h ****  * Copyright(C) NXP Semiconductors, 2012
   6:../../lpc_chip_11cxx_lib/inc/ssp_11xx.h ****  * All rights reserved.
   7:../../lpc_chip_11cxx_lib/inc/ssp_11xx.h ****  *
   8:../../lpc_chip_11cxx_lib/inc/ssp_11xx.h ****  * @par
   9:../../lpc_chip_11cxx_lib/inc/ssp_11xx.h ****  * Software that is described herein is for illustrative purposes only
  10:../../lpc_chip_11cxx_lib/inc/ssp_11xx.h ****  * which provides customers with programming information regarding the
  11:../../lpc_chip_11cxx_lib/inc/ssp_11xx.h ****  * LPC products.  This software is supplied "AS IS" without any warranties of
  12:../../lpc_chip_11cxx_lib/inc/ssp_11xx.h ****  * any kind, and NXP Semiconductors and its licensor disclaim any and
  13:../../lpc_chip_11cxx_lib/inc/ssp_11xx.h ****  * all warranties, express or implied, including all implied warranties of
  14:../../lpc_chip_11cxx_lib/inc/ssp_11xx.h ****  * merchantability, fitness for a particular purpose and non-infringement of
  15:../../lpc_chip_11cxx_lib/inc/ssp_11xx.h ****  * intellectual property rights.  NXP Semiconductors assumes no responsibility
  16:../../lpc_chip_11cxx_lib/inc/ssp_11xx.h ****  * or liability for the use of the software, conveys no license or rights under any
  17:../../lpc_chip_11cxx_lib/inc/ssp_11xx.h ****  * patent, copyright, mask work right, or any other intellectual property rights in
  18:../../lpc_chip_11cxx_lib/inc/ssp_11xx.h ****  * or to any products. NXP Semiconductors reserves the right to make changes
  19:../../lpc_chip_11cxx_lib/inc/ssp_11xx.h ****  * in the software without notification. NXP Semiconductors also makes no
  20:../../lpc_chip_11cxx_lib/inc/ssp_11xx.h ****  * representation or warranty that such application will be suitable for the
  21:../../lpc_chip_11cxx_lib/inc/ssp_11xx.h ****  * specified use without further testing or modification.
  22:../../lpc_chip_11cxx_lib/inc/ssp_11xx.h ****  *
  23:../../lpc_chip_11cxx_lib/inc/ssp_11xx.h ****  * @par
  24:../../lpc_chip_11cxx_lib/inc/ssp_11xx.h ****  * Permission to use, copy, modify, and distribute this software and its
  25:../../lpc_chip_11cxx_lib/inc/ssp_11xx.h ****  * documentation is hereby granted, under NXP Semiconductors' and its
  26:../../lpc_chip_11cxx_lib/inc/ssp_11xx.h ****  * licensor's relevant copyrights in the software, without fee, provided that it
  27:../../lpc_chip_11cxx_lib/inc/ssp_11xx.h ****  * is used in conjunction with NXP Semiconductors microcontrollers.  This
  28:../../lpc_chip_11cxx_lib/inc/ssp_11xx.h ****  * copyright, permission, and disclaimer notice must appear in all copies of
  29:../../lpc_chip_11cxx_lib/inc/ssp_11xx.h ****  * this code.
  30:../../lpc_chip_11cxx_lib/inc/ssp_11xx.h ****  */
  31:../../lpc_chip_11cxx_lib/inc/ssp_11xx.h **** 
  32:../../lpc_chip_11cxx_lib/inc/ssp_11xx.h **** #ifndef __SSP_11XX_H_
  33:../../lpc_chip_11cxx_lib/inc/ssp_11xx.h **** #define __SSP_11XX_H_
  34:../../lpc_chip_11cxx_lib/inc/ssp_11xx.h **** 
  35:../../lpc_chip_11cxx_lib/inc/ssp_11xx.h **** #ifdef __cplusplus
  36:../../lpc_chip_11cxx_lib/inc/ssp_11xx.h **** extern "C" {
  37:../../lpc_chip_11cxx_lib/inc/ssp_11xx.h **** #endif
  38:../../lpc_chip_11cxx_lib/inc/ssp_11xx.h **** 
  39:../../lpc_chip_11cxx_lib/inc/ssp_11xx.h **** /** @defgroup SSP_11XX CHIP: LPC11xx SSP register block and driver
  40:../../lpc_chip_11cxx_lib/inc/ssp_11xx.h ****  * @ingroup CHIP_11XX_Drivers
  41:../../lpc_chip_11cxx_lib/inc/ssp_11xx.h ****  * @{
  42:../../lpc_chip_11cxx_lib/inc/ssp_11xx.h ****  */
  43:../../lpc_chip_11cxx_lib/inc/ssp_11xx.h **** 
  44:../../lpc_chip_11cxx_lib/inc/ssp_11xx.h **** /**
  45:../../lpc_chip_11cxx_lib/inc/ssp_11xx.h ****  * @brief SSP register block structure
  46:../../lpc_chip_11cxx_lib/inc/ssp_11xx.h ****  */
  47:../../lpc_chip_11cxx_lib/inc/ssp_11xx.h **** typedef struct {			/*!< SSPn Structure         */
  48:../../lpc_chip_11cxx_lib/inc/ssp_11xx.h **** 	__IO uint32_t CR0;		/*!< Control Register 0. Selects the serial clock rate, bus type, and data siz
  49:../../lpc_chip_11cxx_lib/inc/ssp_11xx.h **** 	__IO uint32_t CR1;		/*!< Control Register 1. Selects master/slave and other modes. */
  50:../../lpc_chip_11cxx_lib/inc/ssp_11xx.h **** 	__IO uint32_t DR;		/*!< Data Register. Writes fill the transmit FIFO, and reads empty the receive 
  51:../../lpc_chip_11cxx_lib/inc/ssp_11xx.h **** 	__I  uint32_t SR;		/*!< Status Register        */
  52:../../lpc_chip_11cxx_lib/inc/ssp_11xx.h **** 	__IO uint32_t CPSR;		/*!< Clock Prescale Register */
  53:../../lpc_chip_11cxx_lib/inc/ssp_11xx.h **** 	__IO uint32_t IMSC;		/*!< Interrupt Mask Set and Clear Register */
  54:../../lpc_chip_11cxx_lib/inc/ssp_11xx.h **** 	__I  uint32_t RIS;		/*!< Raw Interrupt Status Register */
  55:../../lpc_chip_11cxx_lib/inc/ssp_11xx.h **** 	__I  uint32_t MIS;		/*!< Masked Interrupt Status Register */
  56:../../lpc_chip_11cxx_lib/inc/ssp_11xx.h **** 	__O  uint32_t ICR;		/*!< SSPICR Interrupt Clear Register */
  57:../../lpc_chip_11cxx_lib/inc/ssp_11xx.h **** } LPC_SSP_T;
  58:../../lpc_chip_11cxx_lib/inc/ssp_11xx.h **** 
  59:../../lpc_chip_11cxx_lib/inc/ssp_11xx.h **** /**
ARM GAS  /var/folders/f9/8bk2lnw15zn4cbgn6wrnb4lm0000gn/T//ccCGlkPS.s 			page 5


  60:../../lpc_chip_11cxx_lib/inc/ssp_11xx.h ****  * Macro defines for CR0 register
  61:../../lpc_chip_11cxx_lib/inc/ssp_11xx.h ****  */
  62:../../lpc_chip_11cxx_lib/inc/ssp_11xx.h **** 
  63:../../lpc_chip_11cxx_lib/inc/ssp_11xx.h **** /** SSP data size select, must be 4 bits to 16 bits */
  64:../../lpc_chip_11cxx_lib/inc/ssp_11xx.h **** #define SSP_CR0_DSS(n)          ((uint32_t) ((n) & 0xF))
  65:../../lpc_chip_11cxx_lib/inc/ssp_11xx.h **** /** SSP control 0 Motorola SPI mode */
  66:../../lpc_chip_11cxx_lib/inc/ssp_11xx.h **** #define SSP_CR0_FRF_SPI         ((uint32_t) (0 << 4))
  67:../../lpc_chip_11cxx_lib/inc/ssp_11xx.h **** /** SSP control 0 TI synchronous serial mode */
  68:../../lpc_chip_11cxx_lib/inc/ssp_11xx.h **** #define SSP_CR0_FRF_TI          ((uint32_t) (1 << 4))
  69:../../lpc_chip_11cxx_lib/inc/ssp_11xx.h **** /** SSP control 0 National Micro-wire mode */
  70:../../lpc_chip_11cxx_lib/inc/ssp_11xx.h **** #define SSP_CR0_FRF_MICROWIRE   ((uint32_t) (2 << 4))
  71:../../lpc_chip_11cxx_lib/inc/ssp_11xx.h **** /** SPI clock polarity bit (used in SPI mode only), (1) = maintains the
  72:../../lpc_chip_11cxx_lib/inc/ssp_11xx.h ****    bus clock high between frames, (0) = low */
  73:../../lpc_chip_11cxx_lib/inc/ssp_11xx.h **** #define SSP_CR0_CPOL_LO     ((uint32_t) (0))
  74:../../lpc_chip_11cxx_lib/inc/ssp_11xx.h **** #define SSP_CR0_CPOL_HI     ((uint32_t) (1 << 6))
  75:../../lpc_chip_11cxx_lib/inc/ssp_11xx.h **** /** SPI clock out phase bit (used in SPI mode only), (1) = captures data
  76:../../lpc_chip_11cxx_lib/inc/ssp_11xx.h ****    on the second clock transition of the frame, (0) = first */
  77:../../lpc_chip_11cxx_lib/inc/ssp_11xx.h **** #define SSP_CR0_CPHA_FIRST  ((uint32_t) (0))
  78:../../lpc_chip_11cxx_lib/inc/ssp_11xx.h **** #define SSP_CR0_CPHA_SECOND ((uint32_t) (1 << 7))
  79:../../lpc_chip_11cxx_lib/inc/ssp_11xx.h **** /** SSP serial clock rate value load macro, divider rate is
  80:../../lpc_chip_11cxx_lib/inc/ssp_11xx.h ****    PERIPH_CLK / (cpsr * (SCR + 1)) */
  81:../../lpc_chip_11cxx_lib/inc/ssp_11xx.h **** #define SSP_CR0_SCR(n)      ((uint32_t) ((n & 0xFF) << 8))
  82:../../lpc_chip_11cxx_lib/inc/ssp_11xx.h **** /** SSP CR0 bit mask */
  83:../../lpc_chip_11cxx_lib/inc/ssp_11xx.h **** #define SSP_CR0_BITMASK     ((uint32_t) (0xFFFF))
  84:../../lpc_chip_11cxx_lib/inc/ssp_11xx.h **** /** SSP CR0 bit mask */
  85:../../lpc_chip_11cxx_lib/inc/ssp_11xx.h **** #define SSP_CR0_BITMASK     ((uint32_t) (0xFFFF))
  86:../../lpc_chip_11cxx_lib/inc/ssp_11xx.h **** /** SSP serial clock rate value load macro, divider rate is
  87:../../lpc_chip_11cxx_lib/inc/ssp_11xx.h ****    PERIPH_CLK / (cpsr * (SCR + 1)) */
  88:../../lpc_chip_11cxx_lib/inc/ssp_11xx.h **** #define SSP_CR0_SCR(n)      ((uint32_t) ((n & 0xFF) << 8))
  89:../../lpc_chip_11cxx_lib/inc/ssp_11xx.h **** 
  90:../../lpc_chip_11cxx_lib/inc/ssp_11xx.h **** /**
  91:../../lpc_chip_11cxx_lib/inc/ssp_11xx.h ****  * Macro defines for CR1 register
  92:../../lpc_chip_11cxx_lib/inc/ssp_11xx.h ****  */
  93:../../lpc_chip_11cxx_lib/inc/ssp_11xx.h **** 
  94:../../lpc_chip_11cxx_lib/inc/ssp_11xx.h **** /** SSP control 1 loopback mode enable bit */
  95:../../lpc_chip_11cxx_lib/inc/ssp_11xx.h **** #define SSP_CR1_LBM_EN      ((uint32_t) (1 << 0))
  96:../../lpc_chip_11cxx_lib/inc/ssp_11xx.h **** /** SSP control 1 enable bit */
  97:../../lpc_chip_11cxx_lib/inc/ssp_11xx.h **** #define SSP_CR1_SSP_EN      ((uint32_t) (1 << 1))
  98:../../lpc_chip_11cxx_lib/inc/ssp_11xx.h **** /** SSP control 1 slave enable */
  99:../../lpc_chip_11cxx_lib/inc/ssp_11xx.h **** #define SSP_CR1_SLAVE_EN    ((uint32_t) (1 << 2))
 100:../../lpc_chip_11cxx_lib/inc/ssp_11xx.h **** #define SSP_CR1_MASTER_EN   ((uint32_t) (0))
 101:../../lpc_chip_11cxx_lib/inc/ssp_11xx.h **** /** SSP control 1 slave out disable bit, disables transmit line in slave
 102:../../lpc_chip_11cxx_lib/inc/ssp_11xx.h ****    mode */
 103:../../lpc_chip_11cxx_lib/inc/ssp_11xx.h **** #define SSP_CR1_SO_DISABLE  ((uint32_t) (1 << 3))
 104:../../lpc_chip_11cxx_lib/inc/ssp_11xx.h **** /** SSP CR1 bit mask */
 105:../../lpc_chip_11cxx_lib/inc/ssp_11xx.h **** #define SSP_CR1_BITMASK     ((uint32_t) (0x0F))
 106:../../lpc_chip_11cxx_lib/inc/ssp_11xx.h **** 
 107:../../lpc_chip_11cxx_lib/inc/ssp_11xx.h **** /** SSP CPSR bit mask */
 108:../../lpc_chip_11cxx_lib/inc/ssp_11xx.h **** #define SSP_CPSR_BITMASK    ((uint32_t) (0xFF))
 109:../../lpc_chip_11cxx_lib/inc/ssp_11xx.h **** /**
 110:../../lpc_chip_11cxx_lib/inc/ssp_11xx.h ****  * Macro defines for DR register
 111:../../lpc_chip_11cxx_lib/inc/ssp_11xx.h ****  */
 112:../../lpc_chip_11cxx_lib/inc/ssp_11xx.h **** 
 113:../../lpc_chip_11cxx_lib/inc/ssp_11xx.h **** /** SSP data bit mask */
 114:../../lpc_chip_11cxx_lib/inc/ssp_11xx.h **** #define SSP_DR_BITMASK(n)   ((n) & 0xFFFF)
 115:../../lpc_chip_11cxx_lib/inc/ssp_11xx.h **** 
 116:../../lpc_chip_11cxx_lib/inc/ssp_11xx.h **** /**
ARM GAS  /var/folders/f9/8bk2lnw15zn4cbgn6wrnb4lm0000gn/T//ccCGlkPS.s 			page 6


 117:../../lpc_chip_11cxx_lib/inc/ssp_11xx.h ****  * Macro defines for SR register
 118:../../lpc_chip_11cxx_lib/inc/ssp_11xx.h ****  */
 119:../../lpc_chip_11cxx_lib/inc/ssp_11xx.h **** 
 120:../../lpc_chip_11cxx_lib/inc/ssp_11xx.h **** /** SSP SR bit mask */
 121:../../lpc_chip_11cxx_lib/inc/ssp_11xx.h **** #define SSP_SR_BITMASK  ((uint32_t) (0x1F))
 122:../../lpc_chip_11cxx_lib/inc/ssp_11xx.h **** 
 123:../../lpc_chip_11cxx_lib/inc/ssp_11xx.h **** /** ICR bit mask */
 124:../../lpc_chip_11cxx_lib/inc/ssp_11xx.h **** #define SSP_ICR_BITMASK ((uint32_t) (0x03))
 125:../../lpc_chip_11cxx_lib/inc/ssp_11xx.h **** 
 126:../../lpc_chip_11cxx_lib/inc/ssp_11xx.h **** /**
 127:../../lpc_chip_11cxx_lib/inc/ssp_11xx.h ****  * @brief SSP Type of Status
 128:../../lpc_chip_11cxx_lib/inc/ssp_11xx.h ****  */
 129:../../lpc_chip_11cxx_lib/inc/ssp_11xx.h **** typedef enum _SSP_STATUS {
 130:../../lpc_chip_11cxx_lib/inc/ssp_11xx.h **** 	SSP_STAT_TFE = ((uint32_t)(1 << 0)),/**< TX FIFO Empty */
 131:../../lpc_chip_11cxx_lib/inc/ssp_11xx.h **** 	SSP_STAT_TNF = ((uint32_t)(1 << 1)),/**< TX FIFO not full */
 132:../../lpc_chip_11cxx_lib/inc/ssp_11xx.h **** 	SSP_STAT_RNE = ((uint32_t)(1 << 2)),/**< RX FIFO not empty */
 133:../../lpc_chip_11cxx_lib/inc/ssp_11xx.h **** 	SSP_STAT_RFF = ((uint32_t)(1 << 3)),/**< RX FIFO full */
 134:../../lpc_chip_11cxx_lib/inc/ssp_11xx.h **** 	SSP_STAT_BSY = ((uint32_t)(1 << 4)),/**< SSP Busy */
 135:../../lpc_chip_11cxx_lib/inc/ssp_11xx.h **** } SSP_STATUS_T;
 136:../../lpc_chip_11cxx_lib/inc/ssp_11xx.h **** 
 137:../../lpc_chip_11cxx_lib/inc/ssp_11xx.h **** /**
 138:../../lpc_chip_11cxx_lib/inc/ssp_11xx.h ****  * @brief SSP Type of Interrupt Mask
 139:../../lpc_chip_11cxx_lib/inc/ssp_11xx.h ****  */
 140:../../lpc_chip_11cxx_lib/inc/ssp_11xx.h **** typedef enum _SSP_INTMASK {
 141:../../lpc_chip_11cxx_lib/inc/ssp_11xx.h **** 	SSP_RORIM = ((uint32_t)(1 << 0)),	/**< Overun */
 142:../../lpc_chip_11cxx_lib/inc/ssp_11xx.h **** 	SSP_RTIM = ((uint32_t)(1 << 1)),/**< TimeOut */
 143:../../lpc_chip_11cxx_lib/inc/ssp_11xx.h **** 	SSP_RXIM = ((uint32_t)(1 << 2)),/**< Rx FIFO is at least half full */
 144:../../lpc_chip_11cxx_lib/inc/ssp_11xx.h **** 	SSP_TXIM = ((uint32_t)(1 << 3)),/**< Tx FIFO is at least half empty */
 145:../../lpc_chip_11cxx_lib/inc/ssp_11xx.h **** 	SSP_INT_MASK_BITMASK = ((uint32_t)(0xF)),
 146:../../lpc_chip_11cxx_lib/inc/ssp_11xx.h **** } SSP_INTMASK_T;
 147:../../lpc_chip_11cxx_lib/inc/ssp_11xx.h **** 
 148:../../lpc_chip_11cxx_lib/inc/ssp_11xx.h **** /**
 149:../../lpc_chip_11cxx_lib/inc/ssp_11xx.h ****  * @brief SSP Type of Mask Interrupt Status
 150:../../lpc_chip_11cxx_lib/inc/ssp_11xx.h ****  */
 151:../../lpc_chip_11cxx_lib/inc/ssp_11xx.h **** typedef enum _SSP_MASKINTSTATUS {
 152:../../lpc_chip_11cxx_lib/inc/ssp_11xx.h **** 	SSP_RORMIS = ((uint32_t)(1 << 0)),	/**< Overun */
 153:../../lpc_chip_11cxx_lib/inc/ssp_11xx.h **** 	SSP_RTMIS = ((uint32_t)(1 << 1)),	/**< TimeOut */
 154:../../lpc_chip_11cxx_lib/inc/ssp_11xx.h **** 	SSP_RXMIS = ((uint32_t)(1 << 2)),	/**< Rx FIFO is at least half full */
 155:../../lpc_chip_11cxx_lib/inc/ssp_11xx.h **** 	SSP_TXMIS = ((uint32_t)(1 << 3)),	/**< Tx FIFO is at least half empty */
 156:../../lpc_chip_11cxx_lib/inc/ssp_11xx.h **** 	SSP_MASK_INT_STAT_BITMASK = ((uint32_t)(0xF)),
 157:../../lpc_chip_11cxx_lib/inc/ssp_11xx.h **** } SSP_MASKINTSTATUS_T;
 158:../../lpc_chip_11cxx_lib/inc/ssp_11xx.h **** 
 159:../../lpc_chip_11cxx_lib/inc/ssp_11xx.h **** /**
 160:../../lpc_chip_11cxx_lib/inc/ssp_11xx.h ****  * @brief SSP Type of Raw Interrupt Status
 161:../../lpc_chip_11cxx_lib/inc/ssp_11xx.h ****  */
 162:../../lpc_chip_11cxx_lib/inc/ssp_11xx.h **** typedef enum _SSP_RAWINTSTATUS {
 163:../../lpc_chip_11cxx_lib/inc/ssp_11xx.h **** 	SSP_RORRIS = ((uint32_t)(1 << 0)),	/**< Overun */
 164:../../lpc_chip_11cxx_lib/inc/ssp_11xx.h **** 	SSP_RTRIS = ((uint32_t)(1 << 1)),	/**< TimeOut */
 165:../../lpc_chip_11cxx_lib/inc/ssp_11xx.h **** 	SSP_RXRIS = ((uint32_t)(1 << 2)),	/**< Rx FIFO is at least half full */
 166:../../lpc_chip_11cxx_lib/inc/ssp_11xx.h **** 	SSP_TXRIS = ((uint32_t)(1 << 3)),	/**< Tx FIFO is at least half empty */
 167:../../lpc_chip_11cxx_lib/inc/ssp_11xx.h **** 	SSP_RAW_INT_STAT_BITMASK = ((uint32_t)(0xF)),
 168:../../lpc_chip_11cxx_lib/inc/ssp_11xx.h **** } SSP_RAWINTSTATUS_T;
 169:../../lpc_chip_11cxx_lib/inc/ssp_11xx.h **** 
 170:../../lpc_chip_11cxx_lib/inc/ssp_11xx.h **** typedef enum _SSP_INTCLEAR {
 171:../../lpc_chip_11cxx_lib/inc/ssp_11xx.h **** 	SSP_RORIC = 0x0,
 172:../../lpc_chip_11cxx_lib/inc/ssp_11xx.h **** 	SSP_RTIC = 0x1,
 173:../../lpc_chip_11cxx_lib/inc/ssp_11xx.h **** 	SSP_INT_CLEAR_BITMASK = 0x3,
ARM GAS  /var/folders/f9/8bk2lnw15zn4cbgn6wrnb4lm0000gn/T//ccCGlkPS.s 			page 7


 174:../../lpc_chip_11cxx_lib/inc/ssp_11xx.h **** } SSP_INTCLEAR_T;
 175:../../lpc_chip_11cxx_lib/inc/ssp_11xx.h **** 
 176:../../lpc_chip_11cxx_lib/inc/ssp_11xx.h **** /*
 177:../../lpc_chip_11cxx_lib/inc/ssp_11xx.h ****  * @brief SSP clock format
 178:../../lpc_chip_11cxx_lib/inc/ssp_11xx.h ****  */
 179:../../lpc_chip_11cxx_lib/inc/ssp_11xx.h **** typedef enum CHIP_SSP_CLOCK_FORMAT {
 180:../../lpc_chip_11cxx_lib/inc/ssp_11xx.h **** 	SSP_CLOCK_CPHA0_CPOL0 = (0 << 6),		/**< CPHA = 0, CPOL = 0 */
 181:../../lpc_chip_11cxx_lib/inc/ssp_11xx.h **** 	SSP_CLOCK_CPHA0_CPOL1 = (1u << 6),		/**< CPHA = 0, CPOL = 1 */
 182:../../lpc_chip_11cxx_lib/inc/ssp_11xx.h **** 	SSP_CLOCK_CPHA1_CPOL0 = (2u << 6),		/**< CPHA = 1, CPOL = 0 */
 183:../../lpc_chip_11cxx_lib/inc/ssp_11xx.h **** 	SSP_CLOCK_CPHA1_CPOL1 = (3u << 6),		/**< CPHA = 1, CPOL = 1 */
 184:../../lpc_chip_11cxx_lib/inc/ssp_11xx.h **** 	SSP_CLOCK_MODE0 = SSP_CLOCK_CPHA0_CPOL0,/**< alias */
 185:../../lpc_chip_11cxx_lib/inc/ssp_11xx.h **** 	SSP_CLOCK_MODE1 = SSP_CLOCK_CPHA1_CPOL0,/**< alias */
 186:../../lpc_chip_11cxx_lib/inc/ssp_11xx.h **** 	SSP_CLOCK_MODE2 = SSP_CLOCK_CPHA0_CPOL1,/**< alias */
 187:../../lpc_chip_11cxx_lib/inc/ssp_11xx.h **** 	SSP_CLOCK_MODE3 = SSP_CLOCK_CPHA1_CPOL1,/**< alias */
 188:../../lpc_chip_11cxx_lib/inc/ssp_11xx.h **** } CHIP_SSP_CLOCK_MODE_T;
 189:../../lpc_chip_11cxx_lib/inc/ssp_11xx.h **** 
 190:../../lpc_chip_11cxx_lib/inc/ssp_11xx.h **** /*
 191:../../lpc_chip_11cxx_lib/inc/ssp_11xx.h ****  * @brief SSP frame format
 192:../../lpc_chip_11cxx_lib/inc/ssp_11xx.h ****  */
 193:../../lpc_chip_11cxx_lib/inc/ssp_11xx.h **** typedef enum CHIP_SSP_FRAME_FORMAT {
 194:../../lpc_chip_11cxx_lib/inc/ssp_11xx.h **** 	SSP_FRAMEFORMAT_SPI = (0 << 4),			/**< Frame format: SPI */
 195:../../lpc_chip_11cxx_lib/inc/ssp_11xx.h **** 	CHIP_SSP_FRAME_FORMAT_TI = (1u << 4),			/**< Frame format: TI SSI */
 196:../../lpc_chip_11cxx_lib/inc/ssp_11xx.h **** 	SSP_FRAMEFORMAT_MICROWIRE = (2u << 4),	/**< Frame format: Microwire */
 197:../../lpc_chip_11cxx_lib/inc/ssp_11xx.h **** } CHIP_SSP_FRAME_FORMAT_T;
 198:../../lpc_chip_11cxx_lib/inc/ssp_11xx.h **** 
 199:../../lpc_chip_11cxx_lib/inc/ssp_11xx.h **** /*
 200:../../lpc_chip_11cxx_lib/inc/ssp_11xx.h ****  * @brief Number of bits per frame
 201:../../lpc_chip_11cxx_lib/inc/ssp_11xx.h ****  */
 202:../../lpc_chip_11cxx_lib/inc/ssp_11xx.h **** typedef enum CHIP_SSP_BITS {
 203:../../lpc_chip_11cxx_lib/inc/ssp_11xx.h **** 	SSP_BITS_4 = (3u << 0),		/*!< 4 bits/frame */
 204:../../lpc_chip_11cxx_lib/inc/ssp_11xx.h **** 	SSP_BITS_5 = (4u << 0),		/*!< 5 bits/frame */
 205:../../lpc_chip_11cxx_lib/inc/ssp_11xx.h **** 	SSP_BITS_6 = (5u << 0),		/*!< 6 bits/frame */
 206:../../lpc_chip_11cxx_lib/inc/ssp_11xx.h **** 	SSP_BITS_7 = (6u << 0),		/*!< 7 bits/frame */
 207:../../lpc_chip_11cxx_lib/inc/ssp_11xx.h **** 	SSP_BITS_8 = (7u << 0),		/*!< 8 bits/frame */
 208:../../lpc_chip_11cxx_lib/inc/ssp_11xx.h **** 	SSP_BITS_9 = (8u << 0),		/*!< 9 bits/frame */
 209:../../lpc_chip_11cxx_lib/inc/ssp_11xx.h **** 	SSP_BITS_10 = (9u << 0),	/*!< 10 bits/frame */
 210:../../lpc_chip_11cxx_lib/inc/ssp_11xx.h **** 	SSP_BITS_11 = (10u << 0),	/*!< 11 bits/frame */
 211:../../lpc_chip_11cxx_lib/inc/ssp_11xx.h **** 	SSP_BITS_12 = (11u << 0),	/*!< 12 bits/frame */
 212:../../lpc_chip_11cxx_lib/inc/ssp_11xx.h **** 	SSP_BITS_13 = (12u << 0),	/*!< 13 bits/frame */
 213:../../lpc_chip_11cxx_lib/inc/ssp_11xx.h **** 	SSP_BITS_14 = (13u << 0),	/*!< 14 bits/frame */
 214:../../lpc_chip_11cxx_lib/inc/ssp_11xx.h **** 	SSP_BITS_15 = (14u << 0),	/*!< 15 bits/frame */
 215:../../lpc_chip_11cxx_lib/inc/ssp_11xx.h **** 	SSP_BITS_16 = (15u << 0),	/*!< 16 bits/frame */
 216:../../lpc_chip_11cxx_lib/inc/ssp_11xx.h **** } CHIP_SSP_BITS_T;
 217:../../lpc_chip_11cxx_lib/inc/ssp_11xx.h **** 
 218:../../lpc_chip_11cxx_lib/inc/ssp_11xx.h **** /*
 219:../../lpc_chip_11cxx_lib/inc/ssp_11xx.h ****  * @brief SSP config format
 220:../../lpc_chip_11cxx_lib/inc/ssp_11xx.h ****  */
 221:../../lpc_chip_11cxx_lib/inc/ssp_11xx.h **** typedef struct SSP_ConfigFormat {
 222:../../lpc_chip_11cxx_lib/inc/ssp_11xx.h **** 	CHIP_SSP_BITS_T bits;					/*!< Format config: bits/frame */
 223:../../lpc_chip_11cxx_lib/inc/ssp_11xx.h **** 	CHIP_SSP_CLOCK_MODE_T clockMode;	/*!< Format config: clock phase/polarity */
 224:../../lpc_chip_11cxx_lib/inc/ssp_11xx.h **** 	CHIP_SSP_FRAME_FORMAT_T frameFormat;	/*!< Format config: SPI/TI/Microwire */
 225:../../lpc_chip_11cxx_lib/inc/ssp_11xx.h **** } SSP_ConfigFormat;
 226:../../lpc_chip_11cxx_lib/inc/ssp_11xx.h **** 
 227:../../lpc_chip_11cxx_lib/inc/ssp_11xx.h **** /**
 228:../../lpc_chip_11cxx_lib/inc/ssp_11xx.h ****  * @brief	Enable SSP operation
 229:../../lpc_chip_11cxx_lib/inc/ssp_11xx.h ****  * @param	pSSP		: The base of SSP peripheral on the chip
 230:../../lpc_chip_11cxx_lib/inc/ssp_11xx.h ****  * @return	 Nothing
ARM GAS  /var/folders/f9/8bk2lnw15zn4cbgn6wrnb4lm0000gn/T//ccCGlkPS.s 			page 8


 231:../../lpc_chip_11cxx_lib/inc/ssp_11xx.h ****  */
 232:../../lpc_chip_11cxx_lib/inc/ssp_11xx.h **** STATIC INLINE void Chip_SSP_Enable(LPC_SSP_T *pSSP)
 233:../../lpc_chip_11cxx_lib/inc/ssp_11xx.h **** {
 234:../../lpc_chip_11cxx_lib/inc/ssp_11xx.h **** 	pSSP->CR1 |= SSP_CR1_SSP_EN;
 235:../../lpc_chip_11cxx_lib/inc/ssp_11xx.h **** }
 236:../../lpc_chip_11cxx_lib/inc/ssp_11xx.h **** 
 237:../../lpc_chip_11cxx_lib/inc/ssp_11xx.h **** /**
 238:../../lpc_chip_11cxx_lib/inc/ssp_11xx.h ****  * @brief	Disable SSP operation
 239:../../lpc_chip_11cxx_lib/inc/ssp_11xx.h ****  * @param	pSSP		: The base of SSP peripheral on the chip
 240:../../lpc_chip_11cxx_lib/inc/ssp_11xx.h ****  * @return	 Nothing
 241:../../lpc_chip_11cxx_lib/inc/ssp_11xx.h ****  */
 242:../../lpc_chip_11cxx_lib/inc/ssp_11xx.h **** STATIC INLINE void Chip_SSP_Disable(LPC_SSP_T *pSSP)
 243:../../lpc_chip_11cxx_lib/inc/ssp_11xx.h **** {
 244:../../lpc_chip_11cxx_lib/inc/ssp_11xx.h **** 	pSSP->CR1 &= (~SSP_CR1_SSP_EN) & SSP_CR1_BITMASK;
 245:../../lpc_chip_11cxx_lib/inc/ssp_11xx.h **** }
 246:../../lpc_chip_11cxx_lib/inc/ssp_11xx.h **** 
 247:../../lpc_chip_11cxx_lib/inc/ssp_11xx.h **** /**
 248:../../lpc_chip_11cxx_lib/inc/ssp_11xx.h ****  * @brief	Enable loopback mode
 249:../../lpc_chip_11cxx_lib/inc/ssp_11xx.h ****  * @param	pSSP		: The base of SSP peripheral on the chip
 250:../../lpc_chip_11cxx_lib/inc/ssp_11xx.h ****  * @return	 Nothing
 251:../../lpc_chip_11cxx_lib/inc/ssp_11xx.h ****  * @note	Serial input is taken from the serial output (MOSI or MISO) rather
 252:../../lpc_chip_11cxx_lib/inc/ssp_11xx.h ****  * than the serial input pin
 253:../../lpc_chip_11cxx_lib/inc/ssp_11xx.h ****  */
 254:../../lpc_chip_11cxx_lib/inc/ssp_11xx.h **** STATIC INLINE void Chip_SSP_EnableLoopBack(LPC_SSP_T *pSSP)
 255:../../lpc_chip_11cxx_lib/inc/ssp_11xx.h **** {
 256:../../lpc_chip_11cxx_lib/inc/ssp_11xx.h **** 	pSSP->CR1 |= SSP_CR1_LBM_EN;
 257:../../lpc_chip_11cxx_lib/inc/ssp_11xx.h **** }
 258:../../lpc_chip_11cxx_lib/inc/ssp_11xx.h **** 
 259:../../lpc_chip_11cxx_lib/inc/ssp_11xx.h **** /**
 260:../../lpc_chip_11cxx_lib/inc/ssp_11xx.h ****  * @brief	Disable loopback mode
 261:../../lpc_chip_11cxx_lib/inc/ssp_11xx.h ****  * @param	pSSP		: The base of SSP peripheral on the chip
 262:../../lpc_chip_11cxx_lib/inc/ssp_11xx.h ****  * @return	 Nothing
 263:../../lpc_chip_11cxx_lib/inc/ssp_11xx.h ****  * @note	Serial input is taken from the serial output (MOSI or MISO) rather
 264:../../lpc_chip_11cxx_lib/inc/ssp_11xx.h ****  * than the serial input pin
 265:../../lpc_chip_11cxx_lib/inc/ssp_11xx.h ****  */
 266:../../lpc_chip_11cxx_lib/inc/ssp_11xx.h **** STATIC INLINE void Chip_SSP_DisableLoopBack(LPC_SSP_T *pSSP)
 267:../../lpc_chip_11cxx_lib/inc/ssp_11xx.h **** {
 268:../../lpc_chip_11cxx_lib/inc/ssp_11xx.h **** 	pSSP->CR1 &= (~SSP_CR1_LBM_EN) & SSP_CR1_BITMASK;
 269:../../lpc_chip_11cxx_lib/inc/ssp_11xx.h **** }
 270:../../lpc_chip_11cxx_lib/inc/ssp_11xx.h **** 
 271:../../lpc_chip_11cxx_lib/inc/ssp_11xx.h **** /**
 272:../../lpc_chip_11cxx_lib/inc/ssp_11xx.h ****  * @brief	Get the current status of SSP controller
 273:../../lpc_chip_11cxx_lib/inc/ssp_11xx.h ****  * @param	pSSP	: The base of SSP peripheral on the chip
 274:../../lpc_chip_11cxx_lib/inc/ssp_11xx.h ****  * @param	Stat	: Type of status, should be :
 275:../../lpc_chip_11cxx_lib/inc/ssp_11xx.h ****  *						- SSP_STAT_TFE
 276:../../lpc_chip_11cxx_lib/inc/ssp_11xx.h ****  *						- SSP_STAT_TNF
 277:../../lpc_chip_11cxx_lib/inc/ssp_11xx.h ****  *						- SSP_STAT_RNE
 278:../../lpc_chip_11cxx_lib/inc/ssp_11xx.h ****  *						- SSP_STAT_RFF
 279:../../lpc_chip_11cxx_lib/inc/ssp_11xx.h ****  *						- SSP_STAT_BSY
 280:../../lpc_chip_11cxx_lib/inc/ssp_11xx.h ****  * @return	 SSP controller status, SET or RESET
 281:../../lpc_chip_11cxx_lib/inc/ssp_11xx.h ****  */
 282:../../lpc_chip_11cxx_lib/inc/ssp_11xx.h **** STATIC INLINE FlagStatus Chip_SSP_GetStatus(LPC_SSP_T *pSSP, SSP_STATUS_T Stat)
 283:../../lpc_chip_11cxx_lib/inc/ssp_11xx.h **** {
 284:../../lpc_chip_11cxx_lib/inc/ssp_11xx.h **** 	return (pSSP->SR & Stat) ? SET : RESET;
  80              		.loc 2 284 0
  81 0000 C368     		ldr	r3, [r0, #12]	@ D.6825, pSSP_4(D)->SR
  82              	.LBE225:
ARM GAS  /var/folders/f9/8bk2lnw15zn4cbgn6wrnb4lm0000gn/T//ccCGlkPS.s 			page 9


  83              	.LBE224:
  84              		.loc 1 90 0
  85 0002 30B5     		push	{r4, r5, lr}	@
  86              		.cfi_def_cfa_offset 12
  87              		.cfi_offset 4, -12
  88              		.cfi_offset 5, -8
  89              		.cfi_offset 14, -4
  91:../../lpc_chip_11cxx_lib/src/ssp_11xx.c **** 	uint16_t rDat;
  92:../../lpc_chip_11cxx_lib/src/ssp_11xx.c **** 
  93:../../lpc_chip_11cxx_lib/src/ssp_11xx.c **** 	while ((Chip_SSP_GetStatus(pSSP, SSP_STAT_RNE) == SET) &&
  90              		.loc 1 93 0
  91 0004 5A07     		lsl	r2, r3, #29	@, D.6825,
  92 0006 14D5     		bpl	.L1	@,
  94:../../lpc_chip_11cxx_lib/src/ssp_11xx.c **** 		   (xf_setup->rx_cnt < xf_setup->length)) {
  93              		.loc 1 94 0
  94 0008 CB68     		ldr	r3, [r1, #12]	@ xf_setup_6(D)->rx_cnt, xf_setup_6(D)->rx_cnt
  93:../../lpc_chip_11cxx_lib/src/ssp_11xx.c **** 	while ((Chip_SSP_GetStatus(pSSP, SSP_STAT_RNE) == SET) &&
  95              		.loc 1 93 0
  96 000a 0A69     		ldr	r2, [r1, #16]	@, xf_setup_6(D)->length
  97 000c 9342     		cmp	r3, r2	@ xf_setup_6(D)->rx_cnt,
  98 000e 10D2     		bcs	.L1	@,
  99              	.LBB229:
 100              	.LBB226:
 101              		.loc 2 284 0
 102 0010 0125     		mov	r5, #1	@ tmp149,
 103 0012 02E0     		b	.L5	@
 104              	.LVL1:
 105              	.L10:
 106              	.LBE226:
 107              	.LBE229:
  93:../../lpc_chip_11cxx_lib/src/ssp_11xx.c **** 	while ((Chip_SSP_GetStatus(pSSP, SSP_STAT_RNE) == SET) &&
 108              		.loc 1 93 0 discriminator 2
 109 0014 0A69     		ldr	r2, [r1, #16]	@, xf_setup_6(D)->length
 110 0016 9A42     		cmp	r2, r3	@, xf_setup_6(D)->rx_cnt
 111 0018 0BD9     		bls	.L1	@,
 112              	.LVL2:
 113              	.L5:
  95:../../lpc_chip_11cxx_lib/src/ssp_11xx.c **** 		rDat = Chip_SSP_ReceiveFrame(pSSP);
  96:../../lpc_chip_11cxx_lib/src/ssp_11xx.c **** 		if (xf_setup->rx_data) {
 114              		.loc 1 96 0
 115 001a 8A68     		ldr	r2, [r1, #8]	@ D.6826, xf_setup_6(D)->rx_data
 116              	.LBB230:
 117              	.LBB231:
 285:../../lpc_chip_11cxx_lib/inc/ssp_11xx.h **** }
 286:../../lpc_chip_11cxx_lib/inc/ssp_11xx.h **** 
 287:../../lpc_chip_11cxx_lib/inc/ssp_11xx.h **** /**
 288:../../lpc_chip_11cxx_lib/inc/ssp_11xx.h ****  * @brief	Get the masked interrupt status
 289:../../lpc_chip_11cxx_lib/inc/ssp_11xx.h ****  * @param	pSSP	: The base of SSP peripheral on the chip
 290:../../lpc_chip_11cxx_lib/inc/ssp_11xx.h ****  * @return	 SSP Masked Interrupt Status Register value
 291:../../lpc_chip_11cxx_lib/inc/ssp_11xx.h ****  * @note	The return value contains a 1 for each interrupt condition that is asserted and enabled (m
 292:../../lpc_chip_11cxx_lib/inc/ssp_11xx.h ****  */
 293:../../lpc_chip_11cxx_lib/inc/ssp_11xx.h **** STATIC INLINE uint32_t Chip_SSP_GetIntStatus(LPC_SSP_T *pSSP)
 294:../../lpc_chip_11cxx_lib/inc/ssp_11xx.h **** {
 295:../../lpc_chip_11cxx_lib/inc/ssp_11xx.h **** 	return pSSP->MIS;
 296:../../lpc_chip_11cxx_lib/inc/ssp_11xx.h **** }
 297:../../lpc_chip_11cxx_lib/inc/ssp_11xx.h **** 
 298:../../lpc_chip_11cxx_lib/inc/ssp_11xx.h **** /**
ARM GAS  /var/folders/f9/8bk2lnw15zn4cbgn6wrnb4lm0000gn/T//ccCGlkPS.s 			page 10


 299:../../lpc_chip_11cxx_lib/inc/ssp_11xx.h ****  * @brief	Get the raw interrupt status
 300:../../lpc_chip_11cxx_lib/inc/ssp_11xx.h ****  * @param	pSSP	: The base of SSP peripheral on the chip
 301:../../lpc_chip_11cxx_lib/inc/ssp_11xx.h ****  * @param	RawInt	: Interrupt condition to be get status, shoud be :
 302:../../lpc_chip_11cxx_lib/inc/ssp_11xx.h ****  *						- SSP_RORRIS
 303:../../lpc_chip_11cxx_lib/inc/ssp_11xx.h ****  *						- SSP_RTRIS
 304:../../lpc_chip_11cxx_lib/inc/ssp_11xx.h ****  *						- SSP_RXRIS
 305:../../lpc_chip_11cxx_lib/inc/ssp_11xx.h ****  *						- SSP_TXRIS
 306:../../lpc_chip_11cxx_lib/inc/ssp_11xx.h ****  * @return	 Raw interrupt status corresponding to interrupt condition , SET or RESET
 307:../../lpc_chip_11cxx_lib/inc/ssp_11xx.h ****  * @note	Get the status of each interrupt condition ,regardless of whether or not the interrupt is 
 308:../../lpc_chip_11cxx_lib/inc/ssp_11xx.h ****  */
 309:../../lpc_chip_11cxx_lib/inc/ssp_11xx.h **** STATIC INLINE IntStatus Chip_SSP_GetRawIntStatus(LPC_SSP_T *pSSP, SSP_RAWINTSTATUS_T RawInt)
 310:../../lpc_chip_11cxx_lib/inc/ssp_11xx.h **** {
 311:../../lpc_chip_11cxx_lib/inc/ssp_11xx.h **** 	return (pSSP->RIS & RawInt) ? SET : RESET;
 312:../../lpc_chip_11cxx_lib/inc/ssp_11xx.h **** }
 313:../../lpc_chip_11cxx_lib/inc/ssp_11xx.h **** 
 314:../../lpc_chip_11cxx_lib/inc/ssp_11xx.h **** /**
 315:../../lpc_chip_11cxx_lib/inc/ssp_11xx.h ****  * @brief	Get the number of bits transferred in each frame
 316:../../lpc_chip_11cxx_lib/inc/ssp_11xx.h ****  * @param	pSSP	: The base of SSP peripheral on the chip
 317:../../lpc_chip_11cxx_lib/inc/ssp_11xx.h ****  * @return	 the number of bits transferred in each frame minus one
 318:../../lpc_chip_11cxx_lib/inc/ssp_11xx.h ****  * @note	The return value is 0x03 -> 0xF corresponding to 4bit -> 16bit transfer
 319:../../lpc_chip_11cxx_lib/inc/ssp_11xx.h ****  */
 320:../../lpc_chip_11cxx_lib/inc/ssp_11xx.h **** STATIC INLINE uint8_t Chip_SSP_GetDataSize(LPC_SSP_T *pSSP)
 321:../../lpc_chip_11cxx_lib/inc/ssp_11xx.h **** {
 322:../../lpc_chip_11cxx_lib/inc/ssp_11xx.h **** 	return SSP_CR0_DSS(pSSP->CR0);
 323:../../lpc_chip_11cxx_lib/inc/ssp_11xx.h **** }
 324:../../lpc_chip_11cxx_lib/inc/ssp_11xx.h **** 
 325:../../lpc_chip_11cxx_lib/inc/ssp_11xx.h **** /**
 326:../../lpc_chip_11cxx_lib/inc/ssp_11xx.h ****  * @brief	Clear the corresponding interrupt condition(s) in the SSP controller
 327:../../lpc_chip_11cxx_lib/inc/ssp_11xx.h ****  * @param	pSSP	: The base of SSP peripheral on the chip
 328:../../lpc_chip_11cxx_lib/inc/ssp_11xx.h ****  * @param	IntClear: Type of cleared interrupt, should be :
 329:../../lpc_chip_11cxx_lib/inc/ssp_11xx.h ****  *						- SSP_RORIC
 330:../../lpc_chip_11cxx_lib/inc/ssp_11xx.h ****  *						- SSP_RTIC
 331:../../lpc_chip_11cxx_lib/inc/ssp_11xx.h ****  * @return	 Nothing
 332:../../lpc_chip_11cxx_lib/inc/ssp_11xx.h ****  * @note	Software can clear one or more interrupt condition(s) in the SSP controller
 333:../../lpc_chip_11cxx_lib/inc/ssp_11xx.h ****  */
 334:../../lpc_chip_11cxx_lib/inc/ssp_11xx.h **** STATIC INLINE void Chip_SSP_ClearIntPending(LPC_SSP_T *pSSP, SSP_INTCLEAR_T IntClear)
 335:../../lpc_chip_11cxx_lib/inc/ssp_11xx.h **** {
 336:../../lpc_chip_11cxx_lib/inc/ssp_11xx.h **** 	pSSP->ICR = IntClear;
 337:../../lpc_chip_11cxx_lib/inc/ssp_11xx.h **** }
 338:../../lpc_chip_11cxx_lib/inc/ssp_11xx.h **** 
 339:../../lpc_chip_11cxx_lib/inc/ssp_11xx.h **** /**
 340:../../lpc_chip_11cxx_lib/inc/ssp_11xx.h ****  * @brief	Enable interrupt for the SSP
 341:../../lpc_chip_11cxx_lib/inc/ssp_11xx.h ****  * @param	pSSP		: The base of SSP peripheral on the chip
 342:../../lpc_chip_11cxx_lib/inc/ssp_11xx.h ****  * @return	 Nothing
 343:../../lpc_chip_11cxx_lib/inc/ssp_11xx.h ****  */
 344:../../lpc_chip_11cxx_lib/inc/ssp_11xx.h **** STATIC INLINE void Chip_SSP_Int_Enable(LPC_SSP_T *pSSP)
 345:../../lpc_chip_11cxx_lib/inc/ssp_11xx.h **** {
 346:../../lpc_chip_11cxx_lib/inc/ssp_11xx.h **** 	pSSP->IMSC |= SSP_TXIM;
 347:../../lpc_chip_11cxx_lib/inc/ssp_11xx.h **** }
 348:../../lpc_chip_11cxx_lib/inc/ssp_11xx.h **** 
 349:../../lpc_chip_11cxx_lib/inc/ssp_11xx.h **** /**
 350:../../lpc_chip_11cxx_lib/inc/ssp_11xx.h ****  * @brief	Disable interrupt for the SSP
 351:../../lpc_chip_11cxx_lib/inc/ssp_11xx.h ****  * @param	pSSP		: The base of SSP peripheral on the chip
 352:../../lpc_chip_11cxx_lib/inc/ssp_11xx.h ****  * @return	 Nothing
 353:../../lpc_chip_11cxx_lib/inc/ssp_11xx.h ****  */
 354:../../lpc_chip_11cxx_lib/inc/ssp_11xx.h **** STATIC INLINE void Chip_SSP_Int_Disable(LPC_SSP_T *pSSP)
 355:../../lpc_chip_11cxx_lib/inc/ssp_11xx.h **** {
ARM GAS  /var/folders/f9/8bk2lnw15zn4cbgn6wrnb4lm0000gn/T//ccCGlkPS.s 			page 11


 356:../../lpc_chip_11cxx_lib/inc/ssp_11xx.h **** 	pSSP->IMSC &= (~SSP_TXIM);
 357:../../lpc_chip_11cxx_lib/inc/ssp_11xx.h **** }
 358:../../lpc_chip_11cxx_lib/inc/ssp_11xx.h **** 
 359:../../lpc_chip_11cxx_lib/inc/ssp_11xx.h **** /**
 360:../../lpc_chip_11cxx_lib/inc/ssp_11xx.h ****  * @brief	Get received SSP data
 361:../../lpc_chip_11cxx_lib/inc/ssp_11xx.h ****  * @param	pSSP	: The base of SSP peripheral on the chip
 362:../../lpc_chip_11cxx_lib/inc/ssp_11xx.h ****  * @return	 SSP 16-bit data received
 363:../../lpc_chip_11cxx_lib/inc/ssp_11xx.h ****  */
 364:../../lpc_chip_11cxx_lib/inc/ssp_11xx.h **** STATIC INLINE uint16_t Chip_SSP_ReceiveFrame(LPC_SSP_T *pSSP)
 365:../../lpc_chip_11cxx_lib/inc/ssp_11xx.h **** {
 366:../../lpc_chip_11cxx_lib/inc/ssp_11xx.h **** 	return (uint16_t) (SSP_DR_BITMASK(pSSP->DR));
 118              		.loc 2 366 0
 119 001c 8468     		ldr	r4, [r0, #8]	@ D.6825, pSSP_4(D)->DR
 120              	.LBE231:
 121              	.LBE230:
 122              		.loc 1 96 0
 123 001e 002A     		cmp	r2, #0	@ D.6826,
 124 0020 01D0     		beq	.L4	@,
  97:../../lpc_chip_11cxx_lib/src/ssp_11xx.c **** 			*(uint8_t *) ((uint32_t) xf_setup->rx_data + xf_setup->rx_cnt) = rDat;
 125              		.loc 1 97 0
 126 0022 D454     		strb	r4, [r2, r3]	@ D.6825, *_13
 127 0024 CB68     		ldr	r3, [r1, #12]	@ xf_setup_6(D)->rx_cnt, xf_setup_6(D)->rx_cnt
 128              	.L4:
 129              	.LBB232:
 130              	.LBB227:
 284:../../lpc_chip_11cxx_lib/inc/ssp_11xx.h **** 	return (pSSP->SR & Stat) ? SET : RESET;
 131              		.loc 2 284 0
 132 0026 C268     		ldr	r2, [r0, #12]	@ D.6825, pSSP_4(D)->SR
 133              	.LBE227:
 134              	.LBE232:
  98:../../lpc_chip_11cxx_lib/src/ssp_11xx.c **** 		}
  99:../../lpc_chip_11cxx_lib/src/ssp_11xx.c **** 
 100:../../lpc_chip_11cxx_lib/src/ssp_11xx.c **** 		xf_setup->rx_cnt++;
 135              		.loc 1 100 0
 136 0028 0133     		add	r3, r3, #1	@ xf_setup_6(D)->rx_cnt,
 137              	.LBB233:
 138              	.LBB228:
 284:../../lpc_chip_11cxx_lib/inc/ssp_11xx.h **** 	return (pSSP->SR & Stat) ? SET : RESET;
 139              		.loc 2 284 0
 140 002a 9208     		lsr	r2, r2, #2	@ tmp140, D.6825,
 141              	.LBE228:
 142              	.LBE233:
 143              		.loc 1 100 0
 144 002c CB60     		str	r3, [r1, #12]	@ xf_setup_6(D)->rx_cnt, xf_setup_6(D)->rx_cnt
  93:../../lpc_chip_11cxx_lib/src/ssp_11xx.c **** 	while ((Chip_SSP_GetStatus(pSSP, SSP_STAT_RNE) == SET) &&
 145              		.loc 1 93 0
 146 002e 1542     		tst	r5, r2	@ tmp149, tmp140
 147 0030 F0D1     		bne	.L10	@,
 148              	.LVL3:
 149              	.L1:
 101:../../lpc_chip_11cxx_lib/src/ssp_11xx.c **** 	}
 102:../../lpc_chip_11cxx_lib/src/ssp_11xx.c **** }
 150              		.loc 1 102 0
 151              		@ sp needed	@
 152 0032 30BD     		pop	{r4, r5, pc}
 153              		.cfi_endproc
 154              	.LFE201:
ARM GAS  /var/folders/f9/8bk2lnw15zn4cbgn6wrnb4lm0000gn/T//ccCGlkPS.s 			page 12


 155              		.size	SSP_Read1BFifo, .-SSP_Read1BFifo
 156              		.section	.text.Chip_SSP_SetClockRate,"ax",%progbits
 157              		.align	2
 158              		.global	Chip_SSP_SetClockRate
 159              		.code	16
 160              		.thumb_func
 161              		.type	Chip_SSP_SetClockRate, %function
 162              	Chip_SSP_SetClockRate:
 163              	.LFB206:
 103:../../lpc_chip_11cxx_lib/src/ssp_11xx.c **** 
 104:../../lpc_chip_11cxx_lib/src/ssp_11xx.c **** /* Returns clock for the peripheral block */
 105:../../lpc_chip_11cxx_lib/src/ssp_11xx.c **** STATIC CHIP_SYSCTL_CLOCK_T Chip_SSP_GetClockIndex(LPC_SSP_T *pSSP)
 106:../../lpc_chip_11cxx_lib/src/ssp_11xx.c **** {
 107:../../lpc_chip_11cxx_lib/src/ssp_11xx.c **** 	CHIP_SYSCTL_CLOCK_T clkSSP;
 108:../../lpc_chip_11cxx_lib/src/ssp_11xx.c **** 
 109:../../lpc_chip_11cxx_lib/src/ssp_11xx.c **** 	if (pSSP == LPC_SSP0) {
 110:../../lpc_chip_11cxx_lib/src/ssp_11xx.c **** 		clkSSP = SYSCTL_CLOCK_SSP0;
 111:../../lpc_chip_11cxx_lib/src/ssp_11xx.c **** 	}
 112:../../lpc_chip_11cxx_lib/src/ssp_11xx.c **** #if defined(CHIP_LPC11CXX) || defined(CHIP_LPC11EXX) || defined(CHIP_LPC11AXX) || defined(CHIP_LPC1
 113:../../lpc_chip_11cxx_lib/src/ssp_11xx.c **** 	else {
 114:../../lpc_chip_11cxx_lib/src/ssp_11xx.c **** 		clkSSP = SYSCTL_CLOCK_SSP1;
 115:../../lpc_chip_11cxx_lib/src/ssp_11xx.c **** 	}
 116:../../lpc_chip_11cxx_lib/src/ssp_11xx.c **** #endif
 117:../../lpc_chip_11cxx_lib/src/ssp_11xx.c **** 		
 118:../../lpc_chip_11cxx_lib/src/ssp_11xx.c **** 	return clkSSP;
 119:../../lpc_chip_11cxx_lib/src/ssp_11xx.c **** }
 120:../../lpc_chip_11cxx_lib/src/ssp_11xx.c **** 
 121:../../lpc_chip_11cxx_lib/src/ssp_11xx.c **** /* Returns reset ID for the peripheral block */
 122:../../lpc_chip_11cxx_lib/src/ssp_11xx.c **** STATIC CHIP_SYSCTL_PERIPH_RESET_T Chip_SSP_GetResetIndex(LPC_SSP_T *pSSP)
 123:../../lpc_chip_11cxx_lib/src/ssp_11xx.c **** {
 124:../../lpc_chip_11cxx_lib/src/ssp_11xx.c **** 	CHIP_SYSCTL_PERIPH_RESET_T resetSSP;
 125:../../lpc_chip_11cxx_lib/src/ssp_11xx.c **** 
 126:../../lpc_chip_11cxx_lib/src/ssp_11xx.c **** 	if (pSSP == LPC_SSP0) {
 127:../../lpc_chip_11cxx_lib/src/ssp_11xx.c **** 		resetSSP = RESET_SSP0;
 128:../../lpc_chip_11cxx_lib/src/ssp_11xx.c **** 	}
 129:../../lpc_chip_11cxx_lib/src/ssp_11xx.c **** 	else {
 130:../../lpc_chip_11cxx_lib/src/ssp_11xx.c **** 		resetSSP = RESET_SSP1;
 131:../../lpc_chip_11cxx_lib/src/ssp_11xx.c **** 	}
 132:../../lpc_chip_11cxx_lib/src/ssp_11xx.c **** 
 133:../../lpc_chip_11cxx_lib/src/ssp_11xx.c **** 	return resetSSP;
 134:../../lpc_chip_11cxx_lib/src/ssp_11xx.c **** }
 135:../../lpc_chip_11cxx_lib/src/ssp_11xx.c **** 
 136:../../lpc_chip_11cxx_lib/src/ssp_11xx.c **** /* Returns reset ID for the peripheral block */
 137:../../lpc_chip_11cxx_lib/src/ssp_11xx.c **** STATIC void Chip_SSP_SetSSPClkDivider(LPC_SSP_T *pSSP, uint32_t div)
 138:../../lpc_chip_11cxx_lib/src/ssp_11xx.c **** {
 139:../../lpc_chip_11cxx_lib/src/ssp_11xx.c **** 	if (pSSP == LPC_SSP0) {
 140:../../lpc_chip_11cxx_lib/src/ssp_11xx.c **** 		Chip_Clock_SetSSP0ClockDiv(div);
 141:../../lpc_chip_11cxx_lib/src/ssp_11xx.c **** 	}
 142:../../lpc_chip_11cxx_lib/src/ssp_11xx.c **** #if defined(CHIP_LPC11CXX) || defined(CHIP_LPC11EXX) || defined(CHIP_LPC11AXX) || defined(CHIP_LPC1
 143:../../lpc_chip_11cxx_lib/src/ssp_11xx.c **** 	else {
 144:../../lpc_chip_11cxx_lib/src/ssp_11xx.c **** 		Chip_Clock_SetSSP1ClockDiv(div);
 145:../../lpc_chip_11cxx_lib/src/ssp_11xx.c **** 	}
 146:../../lpc_chip_11cxx_lib/src/ssp_11xx.c **** #endif
 147:../../lpc_chip_11cxx_lib/src/ssp_11xx.c **** }
 148:../../lpc_chip_11cxx_lib/src/ssp_11xx.c **** 
 149:../../lpc_chip_11cxx_lib/src/ssp_11xx.c **** /* Returns SSP peripheral clock for the peripheral block */
 150:../../lpc_chip_11cxx_lib/src/ssp_11xx.c **** STATIC uint32_t Chip_SSP_GetPCLKkRate(LPC_SSP_T *pSSP)
ARM GAS  /var/folders/f9/8bk2lnw15zn4cbgn6wrnb4lm0000gn/T//ccCGlkPS.s 			page 13


 151:../../lpc_chip_11cxx_lib/src/ssp_11xx.c **** {
 152:../../lpc_chip_11cxx_lib/src/ssp_11xx.c **** 	uint32_t sspCLK = Chip_Clock_GetMainClockRate();
 153:../../lpc_chip_11cxx_lib/src/ssp_11xx.c **** 
 154:../../lpc_chip_11cxx_lib/src/ssp_11xx.c **** 	if (pSSP == LPC_SSP0) {
 155:../../lpc_chip_11cxx_lib/src/ssp_11xx.c **** 		sspCLK /= Chip_Clock_GetSSP0ClockDiv();
 156:../../lpc_chip_11cxx_lib/src/ssp_11xx.c **** 	}
 157:../../lpc_chip_11cxx_lib/src/ssp_11xx.c **** #if defined(CHIP_LPC11CXX) || defined(CHIP_LPC11EXX) || defined(CHIP_LPC11AXX) || defined(CHIP_LPC1
 158:../../lpc_chip_11cxx_lib/src/ssp_11xx.c **** 	else {
 159:../../lpc_chip_11cxx_lib/src/ssp_11xx.c **** 		sspCLK /= Chip_Clock_GetSSP1ClockDiv();
 160:../../lpc_chip_11cxx_lib/src/ssp_11xx.c **** 	}
 161:../../lpc_chip_11cxx_lib/src/ssp_11xx.c **** #endif
 162:../../lpc_chip_11cxx_lib/src/ssp_11xx.c **** 	
 163:../../lpc_chip_11cxx_lib/src/ssp_11xx.c ****     return sspCLK;
 164:../../lpc_chip_11cxx_lib/src/ssp_11xx.c **** }
 165:../../lpc_chip_11cxx_lib/src/ssp_11xx.c **** 
 166:../../lpc_chip_11cxx_lib/src/ssp_11xx.c **** /*****************************************************************************
 167:../../lpc_chip_11cxx_lib/src/ssp_11xx.c ****  * Public functions
 168:../../lpc_chip_11cxx_lib/src/ssp_11xx.c ****  ****************************************************************************/
 169:../../lpc_chip_11cxx_lib/src/ssp_11xx.c **** 
 170:../../lpc_chip_11cxx_lib/src/ssp_11xx.c **** /*Set up output clocks per bit for SSP bus*/
 171:../../lpc_chip_11cxx_lib/src/ssp_11xx.c **** void Chip_SSP_SetClockRate(LPC_SSP_T *pSSP, uint32_t clk_rate, uint32_t prescale)
 172:../../lpc_chip_11cxx_lib/src/ssp_11xx.c **** {
 164              		.loc 1 172 0
 165              		.cfi_startproc
 166              	.LVL4:
 167 0000 10B5     		push	{r4, lr}	@
 168              		.cfi_def_cfa_offset 8
 169              		.cfi_offset 4, -8
 170              		.cfi_offset 14, -4
 173:../../lpc_chip_11cxx_lib/src/ssp_11xx.c **** 	uint32_t temp;
 174:../../lpc_chip_11cxx_lib/src/ssp_11xx.c **** 	temp = pSSP->CR0 & (~(SSP_CR0_SCR(0xFF)));
 175:../../lpc_chip_11cxx_lib/src/ssp_11xx.c **** 	pSSP->CR0 = temp | (SSP_CR0_SCR(clk_rate));
 171              		.loc 1 175 0
 172 0002 0906     		lsl	r1, r1, #24	@ tmp120, clk_rate,
 173              	.LVL5:
 174:../../lpc_chip_11cxx_lib/src/ssp_11xx.c **** 	temp = pSSP->CR0 & (~(SSP_CR0_SCR(0xFF)));
 174              		.loc 1 174 0
 175 0004 0468     		ldr	r4, [r0]	@ D.6833, pSSP_2(D)->CR0
 176              	.LVL6:
 177              		.loc 1 175 0
 178 0006 0B0C     		lsr	r3, r1, #16	@ D.6833, tmp120,
 174:../../lpc_chip_11cxx_lib/src/ssp_11xx.c **** 	temp = pSSP->CR0 & (~(SSP_CR0_SCR(0xFF)));
 179              		.loc 1 174 0
 180 0008 0249     		ldr	r1, .L12	@ tmp122,
 176:../../lpc_chip_11cxx_lib/src/ssp_11xx.c **** 	pSSP->CPSR = prescale;
 177:../../lpc_chip_11cxx_lib/src/ssp_11xx.c **** }
 181              		.loc 1 177 0
 182              		@ sp needed	@
 174:../../lpc_chip_11cxx_lib/src/ssp_11xx.c **** 	temp = pSSP->CR0 & (~(SSP_CR0_SCR(0xFF)));
 183              		.loc 1 174 0
 184 000a 2140     		and	r1, r4	@ temp, D.6833
 185              	.LVL7:
 175:../../lpc_chip_11cxx_lib/src/ssp_11xx.c **** 	pSSP->CR0 = temp | (SSP_CR0_SCR(clk_rate));
 186              		.loc 1 175 0
 187 000c 1943     		orr	r1, r3	@ D.6833, D.6833
 188              	.LVL8:
 189 000e 0160     		str	r1, [r0]	@ D.6833, pSSP_2(D)->CR0
ARM GAS  /var/folders/f9/8bk2lnw15zn4cbgn6wrnb4lm0000gn/T//ccCGlkPS.s 			page 14


 176:../../lpc_chip_11cxx_lib/src/ssp_11xx.c **** 	pSSP->CPSR = prescale;
 190              		.loc 1 176 0
 191 0010 0261     		str	r2, [r0, #16]	@ prescale, pSSP_2(D)->CPSR
 192              	.LVL9:
 193              		.loc 1 177 0
 194 0012 10BD     		pop	{r4, pc}
 195              	.L13:
 196              		.align	2
 197              	.L12:
 198 0014 FF00FFFF 		.word	-65281
 199              		.cfi_endproc
 200              	.LFE206:
 201              		.size	Chip_SSP_SetClockRate, .-Chip_SSP_SetClockRate
 202              		.section	.text.Chip_SSP_RWFrames_Blocking,"ax",%progbits
 203              		.align	2
 204              		.global	Chip_SSP_RWFrames_Blocking
 205              		.code	16
 206              		.thumb_func
 207              		.type	Chip_SSP_RWFrames_Blocking, %function
 208              	Chip_SSP_RWFrames_Blocking:
 209              	.LFB207:
 178:../../lpc_chip_11cxx_lib/src/ssp_11xx.c **** 
 179:../../lpc_chip_11cxx_lib/src/ssp_11xx.c **** /* SSP Polling Read/Write in blocking mode */
 180:../../lpc_chip_11cxx_lib/src/ssp_11xx.c **** uint32_t Chip_SSP_RWFrames_Blocking(LPC_SSP_T *pSSP, Chip_SSP_DATA_SETUP_T *xf_setup)
 181:../../lpc_chip_11cxx_lib/src/ssp_11xx.c **** {
 210              		.loc 1 181 0
 211              		.cfi_startproc
 212              	.LVL10:
 213 0000 F8B5     		push	{r3, r4, r5, r6, r7, lr}	@
 214              		.cfi_def_cfa_offset 24
 215              		.cfi_offset 3, -24
 216              		.cfi_offset 4, -20
 217              		.cfi_offset 5, -16
 218              		.cfi_offset 6, -12
 219              		.cfi_offset 7, -8
 220              		.cfi_offset 14, -4
 221              	.LBB234:
 222              	.LBB235:
 284:../../lpc_chip_11cxx_lib/inc/ssp_11xx.h **** 	return (pSSP->SR & Stat) ? SET : RESET;
 223              		.loc 2 284 0
 224 0002 C368     		ldr	r3, [r0, #12]	@ D.6846, pSSP_10(D)->SR
 225              	.LBE235:
 226              	.LBE234:
 227              		.loc 1 181 0
 228 0004 041C     		mov	r4, r0	@ pSSP, pSSP
 229 0006 0D1C     		mov	r5, r1	@ xf_setup, xf_setup
 182:../../lpc_chip_11cxx_lib/src/ssp_11xx.c **** 	/* Clear all remaining frames in RX FIFO */
 183:../../lpc_chip_11cxx_lib/src/ssp_11xx.c **** 	while (Chip_SSP_GetStatus(pSSP, SSP_STAT_RNE)) {
 230              		.loc 1 183 0
 231 0008 5A07     		lsl	r2, r3, #29	@, D.6846,
 232 000a 05D5     		bpl	.L15	@,
 233              	.LBB238:
 234              	.LBB236:
 284:../../lpc_chip_11cxx_lib/inc/ssp_11xx.h **** 	return (pSSP->SR & Stat) ? SET : RESET;
 235              		.loc 2 284 0
 236 000c 0122     		mov	r2, #1	@ tmp282,
 237              	.L16:
ARM GAS  /var/folders/f9/8bk2lnw15zn4cbgn6wrnb4lm0000gn/T//ccCGlkPS.s 			page 15


 238              	.LVL11:
 239              	.LBE236:
 240              	.LBE238:
 241              	.LBB239:
 242              	.LBB240:
 243              		.loc 2 366 0
 244 000e A368     		ldr	r3, [r4, #8]	@ D.6846, pSSP_10(D)->DR
 245              	.LBE240:
 246              	.LBE239:
 247              	.LBB241:
 248              	.LBB237:
 284:../../lpc_chip_11cxx_lib/inc/ssp_11xx.h **** 	return (pSSP->SR & Stat) ? SET : RESET;
 249              		.loc 2 284 0
 250 0010 E368     		ldr	r3, [r4, #12]	@ D.6846, pSSP_10(D)->SR
 251 0012 9B08     		lsr	r3, r3, #2	@ tmp212, D.6846,
 252              	.LBE237:
 253              	.LBE241:
 254              		.loc 1 183 0
 255 0014 1A42     		tst	r2, r3	@ tmp282, tmp212
 256 0016 FAD1     		bne	.L16	@,
 257              	.LVL12:
 258              	.L15:
 259              	.LBB242:
 260              	.LBB243:
 336:../../lpc_chip_11cxx_lib/inc/ssp_11xx.h **** 	pSSP->ICR = IntClear;
 261              		.loc 2 336 0
 262 0018 0323     		mov	r3, #3	@ tmp220,
 263 001a 2362     		str	r3, [r4, #32]	@ tmp220, pSSP_10(D)->ICR
 264              	.LVL13:
 265              	.LBE243:
 266              	.LBE242:
 267              	.LBB244:
 268              	.LBB245:
 322:../../lpc_chip_11cxx_lib/inc/ssp_11xx.h **** 	return SSP_CR0_DSS(pSSP->CR0);
 269              		.loc 2 322 0
 270 001c 2368     		ldr	r3, [r4]	@ D.6846, pSSP_10(D)->CR0
 271              	.LBE245:
 272              	.LBE244:
 184:../../lpc_chip_11cxx_lib/src/ssp_11xx.c **** 		Chip_SSP_ReceiveFrame(pSSP);
 185:../../lpc_chip_11cxx_lib/src/ssp_11xx.c **** 	}
 186:../../lpc_chip_11cxx_lib/src/ssp_11xx.c **** 
 187:../../lpc_chip_11cxx_lib/src/ssp_11xx.c **** 	/* Clear status */
 188:../../lpc_chip_11cxx_lib/src/ssp_11xx.c **** 	Chip_SSP_ClearIntPending(pSSP, SSP_INT_CLEAR_BITMASK);
 189:../../lpc_chip_11cxx_lib/src/ssp_11xx.c **** 
 190:../../lpc_chip_11cxx_lib/src/ssp_11xx.c **** 	if (Chip_SSP_GetDataSize(pSSP) > SSP_BITS_8) {
 273              		.loc 1 190 0
 274 001e 0F22     		mov	r2, #15	@ tmp225,
 275 0020 1340     		and	r3, r2	@ tmp226, tmp225
 276 0022 072B     		cmp	r3, #7	@ tmp226,
 277 0024 24D8     		bhi	.L17	@,
 278              	.LBB246:
 279              	.LBB247:
 284:../../lpc_chip_11cxx_lib/inc/ssp_11xx.h **** 	return (pSSP->SR & Stat) ? SET : RESET;
 280              		.loc 2 284 0
 281 0026 0126     		mov	r6, #1	@ tmp280,
 282              	.LBE247:
 283              	.LBE246:
ARM GAS  /var/folders/f9/8bk2lnw15zn4cbgn6wrnb4lm0000gn/T//ccCGlkPS.s 			page 16


 284              	.LBB249:
 285              	.LBB250:
 286              	.LBB251:
 287              	.LBB252:
 367:../../lpc_chip_11cxx_lib/inc/ssp_11xx.h **** }
 368:../../lpc_chip_11cxx_lib/inc/ssp_11xx.h **** 
 369:../../lpc_chip_11cxx_lib/inc/ssp_11xx.h **** /**
 370:../../lpc_chip_11cxx_lib/inc/ssp_11xx.h ****  * @brief	Send SSP 16-bit data
 371:../../lpc_chip_11cxx_lib/inc/ssp_11xx.h ****  * @param	pSSP	: The base of SSP peripheral on the chip
 372:../../lpc_chip_11cxx_lib/inc/ssp_11xx.h ****  * @param	tx_data	: SSP 16-bit data to be transmited
 373:../../lpc_chip_11cxx_lib/inc/ssp_11xx.h ****  * @return	 Nothing
 374:../../lpc_chip_11cxx_lib/inc/ssp_11xx.h ****  */
 375:../../lpc_chip_11cxx_lib/inc/ssp_11xx.h **** STATIC INLINE void Chip_SSP_SendFrame(LPC_SSP_T *pSSP, uint16_t tx_data)
 376:../../lpc_chip_11cxx_lib/inc/ssp_11xx.h **** {
 377:../../lpc_chip_11cxx_lib/inc/ssp_11xx.h **** 	pSSP->DR = SSP_DR_BITMASK(tx_data);
 288              		.loc 2 377 0
 289 0028 FF27     		mov	r7, #255	@ tmp281,
 290 002a 06E0     		b	.L18	@
 291              	.LVL14:
 292              	.L33:
 293              	.LBE252:
 294              	.LBE251:
 295              	.LBE250:
 296              	.LBE249:
 297              	.LBB259:
 298              	.LBB260:
 311:../../lpc_chip_11cxx_lib/inc/ssp_11xx.h **** 	return (pSSP->RIS & RawInt) ? SET : RESET;
 299              		.loc 2 311 0
 300 002c A369     		ldr	r3, [r4, #24]	@ D.6846, pSSP_10(D)->RIS
 301              	.LBE260:
 302              	.LBE259:
 191:../../lpc_chip_11cxx_lib/src/ssp_11xx.c **** 		while (xf_setup->rx_cnt < xf_setup->length || xf_setup->tx_cnt < xf_setup->length) {
 192:../../lpc_chip_11cxx_lib/src/ssp_11xx.c **** 			/* write data to buffer */
 193:../../lpc_chip_11cxx_lib/src/ssp_11xx.c **** 			if (( Chip_SSP_GetStatus(pSSP, SSP_STAT_TNF) == SET) && ( xf_setup->tx_cnt < xf_setup->length) )
 194:../../lpc_chip_11cxx_lib/src/ssp_11xx.c **** 				SSP_Write2BFifo(pSSP, xf_setup);
 195:../../lpc_chip_11cxx_lib/src/ssp_11xx.c **** 			}
 196:../../lpc_chip_11cxx_lib/src/ssp_11xx.c **** 
 197:../../lpc_chip_11cxx_lib/src/ssp_11xx.c **** 			/* Check overrun error */
 198:../../lpc_chip_11cxx_lib/src/ssp_11xx.c **** 			if (Chip_SSP_GetRawIntStatus(pSSP, SSP_RORRIS) == SET) {
 199:../../lpc_chip_11cxx_lib/src/ssp_11xx.c **** 				return ERROR;
 200:../../lpc_chip_11cxx_lib/src/ssp_11xx.c **** 			}
 201:../../lpc_chip_11cxx_lib/src/ssp_11xx.c **** 
 202:../../lpc_chip_11cxx_lib/src/ssp_11xx.c **** 			/* Check for any data available in RX FIFO */
 203:../../lpc_chip_11cxx_lib/src/ssp_11xx.c **** 			SSP_Read2BFifo(pSSP, xf_setup);
 204:../../lpc_chip_11cxx_lib/src/ssp_11xx.c **** 		}
 205:../../lpc_chip_11cxx_lib/src/ssp_11xx.c **** 	}
 206:../../lpc_chip_11cxx_lib/src/ssp_11xx.c **** 	else {
 207:../../lpc_chip_11cxx_lib/src/ssp_11xx.c **** 		while (xf_setup->rx_cnt < xf_setup->length || xf_setup->tx_cnt < xf_setup->length) {
 208:../../lpc_chip_11cxx_lib/src/ssp_11xx.c **** 			/* write data to buffer */
 209:../../lpc_chip_11cxx_lib/src/ssp_11xx.c **** 			if (( Chip_SSP_GetStatus(pSSP, SSP_STAT_TNF) == SET) && ( xf_setup->tx_cnt < xf_setup->length) )
 210:../../lpc_chip_11cxx_lib/src/ssp_11xx.c **** 				SSP_Write1BFifo(pSSP, xf_setup);
 211:../../lpc_chip_11cxx_lib/src/ssp_11xx.c **** 			}
 212:../../lpc_chip_11cxx_lib/src/ssp_11xx.c **** 
 213:../../lpc_chip_11cxx_lib/src/ssp_11xx.c **** 			/* Check overrun error */
 214:../../lpc_chip_11cxx_lib/src/ssp_11xx.c **** 			if (Chip_SSP_GetRawIntStatus(pSSP, SSP_RORRIS) == SET) {
 303              		.loc 1 214 0
 304 002e 1E42     		tst	r6, r3	@ tmp280, D.6846
ARM GAS  /var/folders/f9/8bk2lnw15zn4cbgn6wrnb4lm0000gn/T//ccCGlkPS.s 			page 17


 305 0030 1CD1     		bne	.L36	@,
 306              	.L56:
 215:../../lpc_chip_11cxx_lib/src/ssp_11xx.c **** 				return ERROR;
 216:../../lpc_chip_11cxx_lib/src/ssp_11xx.c **** 			}
 217:../../lpc_chip_11cxx_lib/src/ssp_11xx.c **** 
 218:../../lpc_chip_11cxx_lib/src/ssp_11xx.c **** 			/* Check for any data available in RX FIFO */
 219:../../lpc_chip_11cxx_lib/src/ssp_11xx.c **** 			SSP_Read1BFifo(pSSP, xf_setup);
 307              		.loc 1 219 0
 308 0032 201C     		mov	r0, r4	@, pSSP
 309 0034 291C     		mov	r1, r5	@, xf_setup
 310 0036 FFF7FEFF 		bl	SSP_Read1BFifo	@
 311              	.LVL15:
 312              	.L18:
 207:../../lpc_chip_11cxx_lib/src/ssp_11xx.c **** 		while (xf_setup->rx_cnt < xf_setup->length || xf_setup->tx_cnt < xf_setup->length) {
 313              		.loc 1 207 0 discriminator 1
 314 003a 2B69     		ldr	r3, [r5, #16]	@ D.6846, xf_setup_15(D)->length
 315 003c EA68     		ldr	r2, [r5, #12]	@, xf_setup_15(D)->rx_cnt
 316 003e 9A42     		cmp	r2, r3	@, D.6846
 317 0040 02D3     		bcc	.L37	@,
 207:../../lpc_chip_11cxx_lib/src/ssp_11xx.c **** 		while (xf_setup->rx_cnt < xf_setup->length || xf_setup->tx_cnt < xf_setup->length) {
 318              		.loc 1 207 0 is_stmt 0 discriminator 2
 319 0042 6868     		ldr	r0, [r5, #4]	@ D.6845, xf_setup_15(D)->tx_cnt
 320 0044 8342     		cmp	r3, r0	@ D.6846, D.6845
 321 0046 45D9     		bls	.L38	@,
 322              	.L37:
 323              	.LVL16:
 324              	.LBB262:
 325              	.LBB248:
 284:../../lpc_chip_11cxx_lib/inc/ssp_11xx.h **** 	return (pSSP->SR & Stat) ? SET : RESET;
 326              		.loc 2 284 0 is_stmt 1
 327 0048 E268     		ldr	r2, [r4, #12]	@ D.6846, pSSP_10(D)->SR
 328 004a 5208     		lsr	r2, r2, #1	@ tmp257, D.6846,
 329              	.LBE248:
 330              	.LBE262:
 209:../../lpc_chip_11cxx_lib/src/ssp_11xx.c **** 			if (( Chip_SSP_GetStatus(pSSP, SSP_STAT_TNF) == SET) && ( xf_setup->tx_cnt < xf_setup->length) )
 331              		.loc 1 209 0
 332 004c 1642     		tst	r6, r2	@ tmp280, tmp257
 333 004e EDD0     		beq	.L33	@,
 209:../../lpc_chip_11cxx_lib/src/ssp_11xx.c **** 			if (( Chip_SSP_GetStatus(pSSP, SSP_STAT_TNF) == SET) && ( xf_setup->tx_cnt < xf_setup->length) )
 334              		.loc 1 209 0 is_stmt 0 discriminator 1
 335 0050 6A68     		ldr	r2, [r5, #4]	@ D.6846, xf_setup_15(D)->tx_cnt
 336 0052 9342     		cmp	r3, r2	@ D.6846, D.6846
 337 0054 EAD9     		bls	.L33	@,
 180:../../lpc_chip_11cxx_lib/src/ssp_11xx.c **** uint32_t Chip_SSP_RWFrames_Blocking(LPC_SSP_T *pSSP, Chip_SSP_DATA_SETUP_T *xf_setup)
 338              		.loc 1 180 0 is_stmt 1
 339 0056 2B68     		ldr	r3, [r5]	@ D.6847, MEM[(struct Chip_SSP_DATA_SETUP_T *)xf_setup_15(D)]
 340              	.LVL17:
 341              	.LBB263:
 342              	.LBB257:
  62:../../lpc_chip_11cxx_lib/src/ssp_11xx.c **** 	if (xf_setup->tx_data) {
 343              		.loc 1 62 0
 344 0058 002B     		cmp	r3, #0	@ D.6847,
 345 005a 43D0     		beq	.L34	@,
 346              	.LVL18:
 347              	.LBB254:
 348              	.LBB255:
 349              		.loc 2 377 0
ARM GAS  /var/folders/f9/8bk2lnw15zn4cbgn6wrnb4lm0000gn/T//ccCGlkPS.s 			page 18


 350 005c 9B5C     		ldrb	r3, [r3, r2]	@ D.6846, *_82
 351              	.LVL19:
 352 005e A360     		str	r3, [r4, #8]	@ D.6846, pSSP_10(D)->DR
 353              	.LVL20:
 354              	.L35:
 355              	.LBE255:
 356              	.LBE254:
  69:../../lpc_chip_11cxx_lib/src/ssp_11xx.c **** 	xf_setup->tx_cnt++;
 357              		.loc 1 69 0
 358 0060 6B68     		ldr	r3, [r5, #4]	@ D.6846, MEM[(uint32_t *)xf_setup_15(D) + 4B]
 359 0062 0133     		add	r3, r3, #1	@ D.6846,
 360 0064 6B60     		str	r3, [r5, #4]	@ D.6846, MEM[(uint32_t *)xf_setup_15(D) + 4B]
 361              	.LVL21:
 362              	.LBE257:
 363              	.LBE263:
 364              	.LBB264:
 365              	.LBB261:
 311:../../lpc_chip_11cxx_lib/inc/ssp_11xx.h **** 	return (pSSP->RIS & RawInt) ? SET : RESET;
 366              		.loc 2 311 0
 367 0066 A369     		ldr	r3, [r4, #24]	@ D.6846, pSSP_10(D)->RIS
 368              	.LBE261:
 369              	.LBE264:
 214:../../lpc_chip_11cxx_lib/src/ssp_11xx.c **** 			if (Chip_SSP_GetRawIntStatus(pSSP, SSP_RORRIS) == SET) {
 370              		.loc 1 214 0
 371 0068 1E42     		tst	r6, r3	@ tmp280, D.6846
 372 006a E2D0     		beq	.L56	@,
 373              	.LVL22:
 374              	.L36:
 199:../../lpc_chip_11cxx_lib/src/ssp_11xx.c **** 				return ERROR;
 375              		.loc 1 199 0
 376 006c 0020     		mov	r0, #0	@ D.6845,
 377              	.L24:
 220:../../lpc_chip_11cxx_lib/src/ssp_11xx.c **** 		}
 221:../../lpc_chip_11cxx_lib/src/ssp_11xx.c **** 	}
 222:../../lpc_chip_11cxx_lib/src/ssp_11xx.c **** 	if (xf_setup->tx_data) {
 223:../../lpc_chip_11cxx_lib/src/ssp_11xx.c **** 		return xf_setup->tx_cnt;
 224:../../lpc_chip_11cxx_lib/src/ssp_11xx.c **** 	}
 225:../../lpc_chip_11cxx_lib/src/ssp_11xx.c **** 	else if (xf_setup->rx_data) {
 226:../../lpc_chip_11cxx_lib/src/ssp_11xx.c **** 		return xf_setup->rx_cnt;
 227:../../lpc_chip_11cxx_lib/src/ssp_11xx.c **** 	}
 228:../../lpc_chip_11cxx_lib/src/ssp_11xx.c **** 
 229:../../lpc_chip_11cxx_lib/src/ssp_11xx.c **** 	return 0;
 230:../../lpc_chip_11cxx_lib/src/ssp_11xx.c **** }
 378              		.loc 1 230 0
 379              		@ sp needed	@
 380              	.LVL23:
 381              	.LVL24:
 382 006e F8BD     		pop	{r3, r4, r5, r6, r7, pc}
 383              	.LVL25:
 384              	.L17:
 385 0070 2E69     		ldr	r6, [r5, #16]	@ D.6845, xf_setup_15(D)->length
 386 0072 EB68     		ldr	r3, [r5, #12]	@ D.6846, xf_setup_15(D)->rx_cnt
 387              	.LBB265:
 388              	.LBB266:
 389              	.LBB267:
 390              	.LBB268:
 391              		.loc 2 377 0
ARM GAS  /var/folders/f9/8bk2lnw15zn4cbgn6wrnb4lm0000gn/T//ccCGlkPS.s 			page 19


 392 0074 1D4F     		ldr	r7, .L58	@ tmp279,
 393              	.LBE268:
 394              	.LBE267:
 395              	.LBE266:
 396              	.LBE265:
 397              	.LBB275:
 398              	.LBB276:
 284:../../lpc_chip_11cxx_lib/inc/ssp_11xx.h **** 	return (pSSP->SR & Stat) ? SET : RESET;
 399              		.loc 2 284 0
 400 0076 0121     		mov	r1, #1	@ tmp278,
 401              	.LVL26:
 402              	.L19:
 403              	.LBE276:
 404              	.LBE275:
 191:../../lpc_chip_11cxx_lib/src/ssp_11xx.c **** 		while (xf_setup->rx_cnt < xf_setup->length || xf_setup->tx_cnt < xf_setup->length) {
 405              		.loc 1 191 0 discriminator 1
 406 0078 B342     		cmp	r3, r6	@ D.6846, D.6845
 407 007a 02D3     		bcc	.L30	@,
 191:../../lpc_chip_11cxx_lib/src/ssp_11xx.c **** 		while (xf_setup->rx_cnt < xf_setup->length || xf_setup->tx_cnt < xf_setup->length) {
 408              		.loc 1 191 0 is_stmt 0 discriminator 2
 409 007c 6868     		ldr	r0, [r5, #4]	@ D.6845, xf_setup_15(D)->tx_cnt
 410 007e B042     		cmp	r0, r6	@ D.6845, D.6845
 411 0080 28D2     		bcs	.L38	@,
 412              	.L30:
 413              	.LVL27:
 414              	.LBB278:
 415              	.LBB277:
 284:../../lpc_chip_11cxx_lib/inc/ssp_11xx.h **** 	return (pSSP->SR & Stat) ? SET : RESET;
 416              		.loc 2 284 0 is_stmt 1
 417 0082 E268     		ldr	r2, [r4, #12]	@ D.6846, pSSP_10(D)->SR
 418 0084 5208     		lsr	r2, r2, #1	@ tmp227, D.6846,
 419              	.LBE277:
 420              	.LBE278:
 193:../../lpc_chip_11cxx_lib/src/ssp_11xx.c **** 			if (( Chip_SSP_GetStatus(pSSP, SSP_STAT_TNF) == SET) && ( xf_setup->tx_cnt < xf_setup->length) )
 421              		.loc 1 193 0
 422 0086 1142     		tst	r1, r2	@ tmp278, tmp227
 423 0088 18D1     		bne	.L57	@,
 424              	.L20:
 425              	.LVL28:
 426              	.LBB279:
 427              	.LBB280:
 311:../../lpc_chip_11cxx_lib/inc/ssp_11xx.h **** 	return (pSSP->RIS & RawInt) ? SET : RESET;
 428              		.loc 2 311 0
 429 008a A269     		ldr	r2, [r4, #24]	@ D.6846, pSSP_10(D)->RIS
 430              	.LBE280:
 431              	.LBE279:
 198:../../lpc_chip_11cxx_lib/src/ssp_11xx.c **** 			if (Chip_SSP_GetRawIntStatus(pSSP, SSP_RORRIS) == SET) {
 432              		.loc 1 198 0
 433 008c 1142     		tst	r1, r2	@ tmp278, D.6846
 434 008e EDD1     		bne	.L36	@,
 435              	.LVL29:
 436              	.LBB281:
 437              	.LBB282:
 438              	.LBB283:
 439              	.LBB284:
 284:../../lpc_chip_11cxx_lib/inc/ssp_11xx.h **** 	return (pSSP->SR & Stat) ? SET : RESET;
 440              		.loc 2 284 0
ARM GAS  /var/folders/f9/8bk2lnw15zn4cbgn6wrnb4lm0000gn/T//ccCGlkPS.s 			page 20


 441 0090 E268     		ldr	r2, [r4, #12]	@ D.6846, pSSP_10(D)->SR
 442 0092 9208     		lsr	r2, r2, #2	@ tmp240, D.6846,
 443              	.LBE284:
 444              	.LBE283:
  77:../../lpc_chip_11cxx_lib/src/ssp_11xx.c **** 	while ((Chip_SSP_GetStatus(pSSP, SSP_STAT_RNE) == SET) &&
 445              		.loc 1 77 0
 446 0094 1142     		tst	r1, r2	@ tmp278, tmp240
 447 0096 EFD0     		beq	.L19	@,
 448 0098 B342     		cmp	r3, r6	@ D.6846, D.6845
 449 009a EDD2     		bcs	.L19	@,
 450 009c A868     		ldr	r0, [r5, #8]	@ D.6847, xf_setup_15(D)->rx_data
 451 009e 01E0     		b	.L29	@
 452              	.LVL30:
 453              	.L27:
 454 00a0 B342     		cmp	r3, r6	@ D.6846, D.6845
 455 00a2 09D2     		bcs	.L55	@,
 456              	.LVL31:
 457              	.L29:
 458              	.LBB287:
 459              	.LBB288:
 366:../../lpc_chip_11cxx_lib/inc/ssp_11xx.h **** 	return (uint16_t) (SSP_DR_BITMASK(pSSP->DR));
 460              		.loc 2 366 0
 461 00a4 A268     		ldr	r2, [r4, #8]	@ D.6846, pSSP_10(D)->DR
 462 00a6 92B2     		uxth	r2, r2	@ D.6855, D.6846
 463              	.LBE288:
 464              	.LBE287:
  80:../../lpc_chip_11cxx_lib/src/ssp_11xx.c **** 		if (xf_setup->rx_data) {
 465              		.loc 1 80 0
 466 00a8 0028     		cmp	r0, #0	@ D.6847,
 467 00aa 00D0     		beq	.L26	@,
  81:../../lpc_chip_11cxx_lib/src/ssp_11xx.c **** 			*(uint16_t *) ((uint32_t) xf_setup->rx_data + xf_setup->rx_cnt) = rDat;
 468              		.loc 1 81 0
 469 00ac C252     		strh	r2, [r0, r3]	@ D.6855, MEM[base: _93, index: _119, offset: 0B]
 470              	.L26:
 471              	.LBB289:
 472              	.LBB285:
 284:../../lpc_chip_11cxx_lib/inc/ssp_11xx.h **** 	return (pSSP->SR & Stat) ? SET : RESET;
 473              		.loc 2 284 0
 474 00ae E268     		ldr	r2, [r4, #12]	@ D.6846, pSSP_10(D)->SR
 475              	.LBE285:
 476              	.LBE289:
  84:../../lpc_chip_11cxx_lib/src/ssp_11xx.c **** 		xf_setup->rx_cnt += 2;
 477              		.loc 1 84 0
 478 00b0 0233     		add	r3, r3, #2	@ D.6846,
 479              	.LBB290:
 480              	.LBB286:
 284:../../lpc_chip_11cxx_lib/inc/ssp_11xx.h **** 	return (pSSP->SR & Stat) ? SET : RESET;
 481              		.loc 2 284 0
 482 00b2 9208     		lsr	r2, r2, #2	@ tmp248, D.6846,
 483              	.LBE286:
 484              	.LBE290:
  77:../../lpc_chip_11cxx_lib/src/ssp_11xx.c **** 	while ((Chip_SSP_GetStatus(pSSP, SSP_STAT_RNE) == SET) &&
 485              		.loc 1 77 0
 486 00b4 1142     		tst	r1, r2	@ tmp278, tmp248
 487 00b6 F3D1     		bne	.L27	@,
 488              	.L55:
 489 00b8 EB60     		str	r3, [r5, #12]	@ D.6846, xf_setup_15(D)->rx_cnt
ARM GAS  /var/folders/f9/8bk2lnw15zn4cbgn6wrnb4lm0000gn/T//ccCGlkPS.s 			page 21


 490 00ba DDE7     		b	.L19	@
 491              	.LVL32:
 492              	.L57:
 493              	.LBE282:
 494              	.LBE281:
 193:../../lpc_chip_11cxx_lib/src/ssp_11xx.c **** 			if (( Chip_SSP_GetStatus(pSSP, SSP_STAT_TNF) == SET) && ( xf_setup->tx_cnt < xf_setup->length) )
 495              		.loc 1 193 0 discriminator 1
 496 00bc 6A68     		ldr	r2, [r5, #4]	@ D.6846, xf_setup_15(D)->tx_cnt
 497 00be B242     		cmp	r2, r6	@ D.6846, D.6845
 498 00c0 E3D2     		bcs	.L20	@,
 180:../../lpc_chip_11cxx_lib/src/ssp_11xx.c **** uint32_t Chip_SSP_RWFrames_Blocking(LPC_SSP_T *pSSP, Chip_SSP_DATA_SETUP_T *xf_setup)
 499              		.loc 1 180 0
 500 00c2 2868     		ldr	r0, [r5]	@ D.6847, MEM[(struct Chip_SSP_DATA_SETUP_T *)xf_setup_15(D)]
 501              	.LVL33:
 502              	.LBB291:
 503              	.LBB273:
  48:../../lpc_chip_11cxx_lib/src/ssp_11xx.c **** 	if (xf_setup->tx_data) {
 504              		.loc 1 48 0
 505 00c4 0028     		cmp	r0, #0	@ D.6847,
 506 00c6 0FD0     		beq	.L21	@,
 507              	.LVL34:
 508              	.LBB270:
 509              	.LBB271:
 510              		.loc 2 377 0
 511 00c8 825A     		ldrh	r2, [r0, r2]	@ D.6846, *_55
 512              	.LVL35:
 513 00ca A260     		str	r2, [r4, #8]	@ D.6846, pSSP_10(D)->DR
 514              	.LVL36:
 515              	.L22:
 516              	.LBE271:
 517              	.LBE270:
  56:../../lpc_chip_11cxx_lib/src/ssp_11xx.c **** 	xf_setup->tx_cnt += 2;
 518              		.loc 1 56 0
 519 00cc 6A68     		ldr	r2, [r5, #4]	@ D.6846, MEM[(uint32_t *)xf_setup_15(D) + 4B]
 520 00ce 0232     		add	r2, r2, #2	@ D.6846,
 521 00d0 6A60     		str	r2, [r5, #4]	@ D.6846, MEM[(uint32_t *)xf_setup_15(D) + 4B]
 522 00d2 DAE7     		b	.L20	@
 523              	.LVL37:
 524              	.L38:
 525              	.LBE273:
 526              	.LBE291:
 222:../../lpc_chip_11cxx_lib/src/ssp_11xx.c **** 	if (xf_setup->tx_data) {
 527              		.loc 1 222 0
 528 00d4 2B68     		ldr	r3, [r5]	@, xf_setup_15(D)->tx_data
 529 00d6 002B     		cmp	r3, #0	@,
 530 00d8 C9D1     		bne	.L24	@,
 225:../../lpc_chip_11cxx_lib/src/ssp_11xx.c **** 	else if (xf_setup->rx_data) {
 531              		.loc 1 225 0
 532 00da AB68     		ldr	r3, [r5, #8]	@, xf_setup_15(D)->rx_data
 533 00dc 002B     		cmp	r3, #0	@,
 534 00de C5D0     		beq	.L36	@,
 226:../../lpc_chip_11cxx_lib/src/ssp_11xx.c **** 		return xf_setup->rx_cnt;
 535              		.loc 1 226 0
 536 00e0 E868     		ldr	r0, [r5, #12]	@ D.6845, xf_setup_15(D)->rx_cnt
 537 00e2 C4E7     		b	.L24	@
 538              	.LVL38:
 539              	.L34:
ARM GAS  /var/folders/f9/8bk2lnw15zn4cbgn6wrnb4lm0000gn/T//ccCGlkPS.s 			page 22


 540              	.LBB292:
 541              	.LBB258:
 542              	.LBB256:
 543              	.LBB253:
 544              		.loc 2 377 0
 545 00e4 A760     		str	r7, [r4, #8]	@ tmp281, pSSP_10(D)->DR
 546 00e6 BBE7     		b	.L35	@
 547              	.LVL39:
 548              	.L21:
 549              	.LBE253:
 550              	.LBE256:
 551              	.LBE258:
 552              	.LBE292:
 553              	.LBB293:
 554              	.LBB274:
 555              	.LBB272:
 556              	.LBB269:
 557 00e8 A760     		str	r7, [r4, #8]	@ tmp279, pSSP_10(D)->DR
 558 00ea EFE7     		b	.L22	@
 559              	.L59:
 560              		.align	2
 561              	.L58:
 562 00ec FFFF0000 		.word	65535
 563              	.LBE269:
 564              	.LBE272:
 565              	.LBE274:
 566              	.LBE293:
 567              		.cfi_endproc
 568              	.LFE207:
 569              		.size	Chip_SSP_RWFrames_Blocking, .-Chip_SSP_RWFrames_Blocking
 570              		.section	.text.Chip_SSP_WriteFrames_Blocking,"ax",%progbits
 571              		.align	2
 572              		.global	Chip_SSP_WriteFrames_Blocking
 573              		.code	16
 574              		.thumb_func
 575              		.type	Chip_SSP_WriteFrames_Blocking, %function
 576              	Chip_SSP_WriteFrames_Blocking:
 577              	.LFB208:
 231:../../lpc_chip_11cxx_lib/src/ssp_11xx.c **** 
 232:../../lpc_chip_11cxx_lib/src/ssp_11xx.c **** /* SSP Polling Write in blocking mode */
 233:../../lpc_chip_11cxx_lib/src/ssp_11xx.c **** uint32_t Chip_SSP_WriteFrames_Blocking(LPC_SSP_T *pSSP, uint8_t *buffer, uint32_t buffer_len)
 234:../../lpc_chip_11cxx_lib/src/ssp_11xx.c **** {
 578              		.loc 1 234 0
 579              		.cfi_startproc
 580              	.LVL40:
 581              	.LBB294:
 582              	.LBB295:
 284:../../lpc_chip_11cxx_lib/inc/ssp_11xx.h **** 	return (pSSP->SR & Stat) ? SET : RESET;
 583              		.loc 2 284 0
 584 0000 C368     		ldr	r3, [r0, #12]	@ D.6868, pSSP_25(D)->SR
 585              	.LBE295:
 586              	.LBE294:
 587              		.loc 1 234 0
 588 0002 70B5     		push	{r4, r5, r6, lr}	@
 589              		.cfi_def_cfa_offset 16
 590              		.cfi_offset 4, -16
 591              		.cfi_offset 5, -12
ARM GAS  /var/folders/f9/8bk2lnw15zn4cbgn6wrnb4lm0000gn/T//ccCGlkPS.s 			page 23


 592              		.cfi_offset 6, -8
 593              		.cfi_offset 14, -4
 235:../../lpc_chip_11cxx_lib/src/ssp_11xx.c **** 	uint32_t tx_cnt = 0, rx_cnt = 0;
 236:../../lpc_chip_11cxx_lib/src/ssp_11xx.c **** 
 237:../../lpc_chip_11cxx_lib/src/ssp_11xx.c **** 	/* Clear all remaining frames in RX FIFO */
 238:../../lpc_chip_11cxx_lib/src/ssp_11xx.c **** 	while (Chip_SSP_GetStatus(pSSP, SSP_STAT_RNE)) {
 594              		.loc 1 238 0
 595 0004 5C07     		lsl	r4, r3, #29	@, D.6868,
 596 0006 05D5     		bpl	.L61	@,
 597              	.LBB298:
 598              	.LBB296:
 284:../../lpc_chip_11cxx_lib/inc/ssp_11xx.h **** 	return (pSSP->SR & Stat) ? SET : RESET;
 599              		.loc 2 284 0
 600 0008 0124     		mov	r4, #1	@ tmp245,
 601              	.L62:
 602              	.LVL41:
 603              	.LBE296:
 604              	.LBE298:
 605              	.LBB299:
 606              	.LBB300:
 366:../../lpc_chip_11cxx_lib/inc/ssp_11xx.h **** 	return (uint16_t) (SSP_DR_BITMASK(pSSP->DR));
 607              		.loc 2 366 0
 608 000a 8368     		ldr	r3, [r0, #8]	@ D.6868, pSSP_25(D)->DR
 609              	.LBE300:
 610              	.LBE299:
 611              	.LBB301:
 612              	.LBB297:
 284:../../lpc_chip_11cxx_lib/inc/ssp_11xx.h **** 	return (pSSP->SR & Stat) ? SET : RESET;
 613              		.loc 2 284 0
 614 000c C368     		ldr	r3, [r0, #12]	@ D.6868, pSSP_25(D)->SR
 615 000e 9B08     		lsr	r3, r3, #2	@ tmp177, D.6868,
 616              	.LBE297:
 617              	.LBE301:
 618              		.loc 1 238 0
 619 0010 1C42     		tst	r4, r3	@ tmp245, tmp177
 620 0012 FAD1     		bne	.L62	@,
 621              	.LVL42:
 622              	.L61:
 623              	.LBB302:
 624              	.LBB303:
 336:../../lpc_chip_11cxx_lib/inc/ssp_11xx.h **** 	pSSP->ICR = IntClear;
 625              		.loc 2 336 0
 626 0014 0323     		mov	r3, #3	@ tmp185,
 627 0016 0362     		str	r3, [r0, #32]	@ tmp185, pSSP_25(D)->ICR
 628              	.LVL43:
 629              	.LBE303:
 630              	.LBE302:
 631              	.LBB304:
 632              	.LBB305:
 322:../../lpc_chip_11cxx_lib/inc/ssp_11xx.h **** 	return SSP_CR0_DSS(pSSP->CR0);
 633              		.loc 2 322 0
 634 0018 0368     		ldr	r3, [r0]	@ D.6868, pSSP_25(D)->CR0
 635              	.LBE305:
 636              	.LBE304:
 239:../../lpc_chip_11cxx_lib/src/ssp_11xx.c **** 		Chip_SSP_ReceiveFrame(pSSP);
 240:../../lpc_chip_11cxx_lib/src/ssp_11xx.c **** 	}
 241:../../lpc_chip_11cxx_lib/src/ssp_11xx.c **** 
ARM GAS  /var/folders/f9/8bk2lnw15zn4cbgn6wrnb4lm0000gn/T//ccCGlkPS.s 			page 24


 242:../../lpc_chip_11cxx_lib/src/ssp_11xx.c **** 	/* Clear status */
 243:../../lpc_chip_11cxx_lib/src/ssp_11xx.c **** 	Chip_SSP_ClearIntPending(pSSP, SSP_INT_CLEAR_BITMASK);
 244:../../lpc_chip_11cxx_lib/src/ssp_11xx.c **** 
 245:../../lpc_chip_11cxx_lib/src/ssp_11xx.c **** 	if (Chip_SSP_GetDataSize(pSSP) > SSP_BITS_8) {
 637              		.loc 1 245 0
 638 001a 0F24     		mov	r4, #15	@ tmp190,
 639 001c 2340     		and	r3, r4	@ tmp191, tmp190
 640 001e 072B     		cmp	r3, #7	@ tmp191,
 641 0020 27D8     		bhi	.L63	@,
 642 0022 0023     		mov	r3, #0	@ rx_cnt,
 643 0024 0026     		mov	r6, #0	@ tx_cnt,
 644              	.LBB306:
 645              	.LBB307:
 646              	.LBB308:
 284:../../lpc_chip_11cxx_lib/inc/ssp_11xx.h **** 	return (pSSP->SR & Stat) ? SET : RESET;
 647              		.loc 2 284 0
 648 0026 0125     		mov	r5, #1	@ tmp244,
 649              	.LVL44:
 650              	.L64:
 651              	.LBE308:
 652              	.LBE307:
 246:../../lpc_chip_11cxx_lib/src/ssp_11xx.c **** 		uint16_t *wdata16;
 247:../../lpc_chip_11cxx_lib/src/ssp_11xx.c **** 
 248:../../lpc_chip_11cxx_lib/src/ssp_11xx.c **** 		wdata16 = (uint16_t *) buffer;
 249:../../lpc_chip_11cxx_lib/src/ssp_11xx.c **** 
 250:../../lpc_chip_11cxx_lib/src/ssp_11xx.c **** 		while (tx_cnt < buffer_len || rx_cnt < buffer_len) {
 251:../../lpc_chip_11cxx_lib/src/ssp_11xx.c **** 			/* write data to buffer */
 252:../../lpc_chip_11cxx_lib/src/ssp_11xx.c **** 			if ((Chip_SSP_GetStatus(pSSP, SSP_STAT_TNF) == SET) && (tx_cnt < buffer_len)) {
 253:../../lpc_chip_11cxx_lib/src/ssp_11xx.c **** 				Chip_SSP_SendFrame(pSSP, *wdata16);
 254:../../lpc_chip_11cxx_lib/src/ssp_11xx.c **** 				wdata16++;
 255:../../lpc_chip_11cxx_lib/src/ssp_11xx.c **** 				tx_cnt += 2;
 256:../../lpc_chip_11cxx_lib/src/ssp_11xx.c **** 			}
 257:../../lpc_chip_11cxx_lib/src/ssp_11xx.c **** 
 258:../../lpc_chip_11cxx_lib/src/ssp_11xx.c **** 			/* Check overrun error */
 259:../../lpc_chip_11cxx_lib/src/ssp_11xx.c **** 			if (Chip_SSP_GetRawIntStatus(pSSP, SSP_RORRIS) == SET) {
 260:../../lpc_chip_11cxx_lib/src/ssp_11xx.c **** 				return ERROR;
 261:../../lpc_chip_11cxx_lib/src/ssp_11xx.c **** 			}
 262:../../lpc_chip_11cxx_lib/src/ssp_11xx.c **** 
 263:../../lpc_chip_11cxx_lib/src/ssp_11xx.c **** 			/* Check for any data available in RX FIFO */
 264:../../lpc_chip_11cxx_lib/src/ssp_11xx.c **** 			while (Chip_SSP_GetStatus(pSSP, SSP_STAT_RNE) == SET) {
 265:../../lpc_chip_11cxx_lib/src/ssp_11xx.c **** 				Chip_SSP_ReceiveFrame(pSSP);	/* read dummy data */
 266:../../lpc_chip_11cxx_lib/src/ssp_11xx.c **** 				rx_cnt += 2;
 267:../../lpc_chip_11cxx_lib/src/ssp_11xx.c **** 			}
 268:../../lpc_chip_11cxx_lib/src/ssp_11xx.c **** 		}
 269:../../lpc_chip_11cxx_lib/src/ssp_11xx.c **** 	}
 270:../../lpc_chip_11cxx_lib/src/ssp_11xx.c **** 	else {
 271:../../lpc_chip_11cxx_lib/src/ssp_11xx.c **** 		uint8_t *wdata8;
 272:../../lpc_chip_11cxx_lib/src/ssp_11xx.c **** 
 273:../../lpc_chip_11cxx_lib/src/ssp_11xx.c **** 		wdata8 = buffer;
 274:../../lpc_chip_11cxx_lib/src/ssp_11xx.c **** 
 275:../../lpc_chip_11cxx_lib/src/ssp_11xx.c **** 		while (tx_cnt < buffer_len || rx_cnt < buffer_len) {
 653              		.loc 1 275 0 discriminator 1
 654 0028 9642     		cmp	r6, r2	@ tx_cnt, buffer_len
 655 002a 15D2     		bcs	.L95	@,
 656              	.L75:
 657              	.LVL45:
 658              	.LBB311:
ARM GAS  /var/folders/f9/8bk2lnw15zn4cbgn6wrnb4lm0000gn/T//ccCGlkPS.s 			page 25


 659              	.LBB309:
 284:../../lpc_chip_11cxx_lib/inc/ssp_11xx.h **** 	return (pSSP->SR & Stat) ? SET : RESET;
 660              		.loc 2 284 0
 661 002c C468     		ldr	r4, [r0, #12]	@ D.6868, pSSP_25(D)->SR
 662 002e 6408     		lsr	r4, r4, #1	@ tmp234, D.6868,
 663              	.LBE309:
 664              	.LBE311:
 276:../../lpc_chip_11cxx_lib/src/ssp_11xx.c **** 			/* write data to buffer */
 277:../../lpc_chip_11cxx_lib/src/ssp_11xx.c **** 			if ((Chip_SSP_GetStatus(pSSP, SSP_STAT_TNF) == SET) && (tx_cnt < buffer_len)) {
 665              		.loc 1 277 0
 666 0030 2542     		tst	r5, r4	@ tmp244, tmp234
 667 0032 15D1     		bne	.L96	@,
 668              	.L80:
 669              	.LVL46:
 670              	.LBB312:
 671              	.LBB313:
 311:../../lpc_chip_11cxx_lib/inc/ssp_11xx.h **** 	return (pSSP->RIS & RawInt) ? SET : RESET;
 672              		.loc 2 311 0
 673 0034 8469     		ldr	r4, [r0, #24]	@ D.6868, pSSP_25(D)->RIS
 674              	.LBE313:
 675              	.LBE312:
 278:../../lpc_chip_11cxx_lib/src/ssp_11xx.c **** 				Chip_SSP_SendFrame(pSSP, *wdata8);
 279:../../lpc_chip_11cxx_lib/src/ssp_11xx.c **** 				wdata8++;
 280:../../lpc_chip_11cxx_lib/src/ssp_11xx.c **** 				tx_cnt++;
 281:../../lpc_chip_11cxx_lib/src/ssp_11xx.c **** 			}
 282:../../lpc_chip_11cxx_lib/src/ssp_11xx.c **** 
 283:../../lpc_chip_11cxx_lib/src/ssp_11xx.c **** 			/* Check overrun error */
 284:../../lpc_chip_11cxx_lib/src/ssp_11xx.c **** 			if (Chip_SSP_GetRawIntStatus(pSSP, SSP_RORRIS) == SET) {
 676              		.loc 1 284 0
 677 0036 2542     		tst	r5, r4	@ tmp244, D.6868
 678 0038 19D1     		bne	.L72	@,
 679              	.L98:
 680              	.LVL47:
 681              	.LBB315:
 682              	.LBB316:
 284:../../lpc_chip_11cxx_lib/inc/ssp_11xx.h **** 	return (pSSP->SR & Stat) ? SET : RESET;
 683              		.loc 2 284 0 discriminator 1
 684 003a C468     		ldr	r4, [r0, #12]	@ D.6868,
 685 003c A408     		lsr	r4, r4, #2	@ tmp212, D.6868,
 686              	.LBE316:
 687              	.LBE315:
 285:../../lpc_chip_11cxx_lib/src/ssp_11xx.c **** 				return ERROR;
 286:../../lpc_chip_11cxx_lib/src/ssp_11xx.c **** 			}
 287:../../lpc_chip_11cxx_lib/src/ssp_11xx.c **** 
 288:../../lpc_chip_11cxx_lib/src/ssp_11xx.c **** 			/* Check for any data available in RX FIFO */
 289:../../lpc_chip_11cxx_lib/src/ssp_11xx.c **** 			while (Chip_SSP_GetStatus(pSSP, SSP_STAT_RNE) == SET && rx_cnt < buffer_len) {
 688              		.loc 1 289 0 discriminator 1
 689 003e 2542     		tst	r5, r4	@ tmp244, tmp212
 690 0040 06D1     		bne	.L92	@,
 691 0042 F1E7     		b	.L64	@
 692              	.L97:
 693              	.LVL48:
 694              	.LBB319:
 695              	.LBB320:
 366:../../lpc_chip_11cxx_lib/inc/ssp_11xx.h **** 	return (uint16_t) (SSP_DR_BITMASK(pSSP->DR));
 696              		.loc 2 366 0
 697 0044 8468     		ldr	r4, [r0, #8]	@ D.6868, pSSP_25(D)->DR
ARM GAS  /var/folders/f9/8bk2lnw15zn4cbgn6wrnb4lm0000gn/T//ccCGlkPS.s 			page 26


 698              	.LBE320:
 699              	.LBE319:
 700              	.LBB321:
 701              	.LBB317:
 284:../../lpc_chip_11cxx_lib/inc/ssp_11xx.h **** 	return (pSSP->SR & Stat) ? SET : RESET;
 702              		.loc 2 284 0
 703 0046 C468     		ldr	r4, [r0, #12]	@ D.6868,
 704              	.LBE317:
 705              	.LBE321:
 290:../../lpc_chip_11cxx_lib/src/ssp_11xx.c **** 				Chip_SSP_ReceiveFrame(pSSP);	/* read dummy data */
 291:../../lpc_chip_11cxx_lib/src/ssp_11xx.c **** 				rx_cnt++;
 706              		.loc 1 291 0
 707 0048 0133     		add	r3, r3, #1	@ rx_cnt,
 708              	.LVL49:
 709              	.LBB322:
 710              	.LBB318:
 284:../../lpc_chip_11cxx_lib/inc/ssp_11xx.h **** 	return (pSSP->SR & Stat) ? SET : RESET;
 711              		.loc 2 284 0
 712 004a A408     		lsr	r4, r4, #2	@ tmp219, D.6868,
 713              	.LBE318:
 714              	.LBE322:
 289:../../lpc_chip_11cxx_lib/src/ssp_11xx.c **** 			while (Chip_SSP_GetStatus(pSSP, SSP_STAT_RNE) == SET && rx_cnt < buffer_len) {
 715              		.loc 1 289 0
 716 004c 2542     		tst	r5, r4	@ tmp244, tmp219
 717 004e EBD0     		beq	.L64	@,
 718              	.LVL50:
 719              	.L92:
 720 0050 9342     		cmp	r3, r2	@ rx_cnt, buffer_len
 721 0052 F7D3     		bcc	.L97	@,
 275:../../lpc_chip_11cxx_lib/src/ssp_11xx.c **** 		while (tx_cnt < buffer_len || rx_cnt < buffer_len) {
 722              		.loc 1 275 0
 723 0054 9642     		cmp	r6, r2	@ tx_cnt, buffer_len
 724 0056 E9D3     		bcc	.L75	@,
 725              	.LVL51:
 726              	.L95:
 275:../../lpc_chip_11cxx_lib/src/ssp_11xx.c **** 		while (tx_cnt < buffer_len || rx_cnt < buffer_len) {
 727              		.loc 1 275 0 is_stmt 0 discriminator 2
 728 0058 9342     		cmp	r3, r2	@ rx_cnt, buffer_len
 729 005a 28D2     		bcs	.L93	@,
 730              	.LVL52:
 731              	.LBB323:
 732              	.LBB310:
 284:../../lpc_chip_11cxx_lib/inc/ssp_11xx.h **** 	return (pSSP->SR & Stat) ? SET : RESET;
 733              		.loc 2 284 0 is_stmt 1
 734 005c C468     		ldr	r4, [r0, #12]	@ D.6868, pSSP_25(D)->SR
 735 005e E9E7     		b	.L80	@
 736              	.L96:
 737              	.LVL53:
 738              	.LBE310:
 739              	.LBE323:
 740              	.LBB324:
 741              	.LBB325:
 742              		.loc 2 377 0
 743 0060 0C78     		ldrb	r4, [r1]	@ D.6868, *buffer_13
 744              	.LBE325:
 745              	.LBE324:
 280:../../lpc_chip_11cxx_lib/src/ssp_11xx.c **** 				tx_cnt++;
ARM GAS  /var/folders/f9/8bk2lnw15zn4cbgn6wrnb4lm0000gn/T//ccCGlkPS.s 			page 27


 746              		.loc 1 280 0
 747 0062 0136     		add	r6, r6, #1	@ tx_cnt,
 748              	.LVL54:
 749              	.LBB327:
 750              	.LBB326:
 751              		.loc 2 377 0
 752 0064 8460     		str	r4, [r0, #8]	@ D.6868, pSSP_25(D)->DR
 753              	.LVL55:
 754              	.LBE326:
 755              	.LBE327:
 756              	.LBB328:
 757              	.LBB314:
 311:../../lpc_chip_11cxx_lib/inc/ssp_11xx.h **** 	return (pSSP->RIS & RawInt) ? SET : RESET;
 758              		.loc 2 311 0
 759 0066 8469     		ldr	r4, [r0, #24]	@ D.6868, pSSP_25(D)->RIS
 760              	.LVL56:
 761              	.LBE314:
 762              	.LBE328:
 279:../../lpc_chip_11cxx_lib/src/ssp_11xx.c **** 				wdata8++;
 763              		.loc 1 279 0
 764 0068 0131     		add	r1, r1, #1	@ buffer,
 765              	.LVL57:
 284:../../lpc_chip_11cxx_lib/src/ssp_11xx.c **** 			if (Chip_SSP_GetRawIntStatus(pSSP, SSP_RORRIS) == SET) {
 766              		.loc 1 284 0
 767 006a 2542     		tst	r5, r4	@ tmp244, D.6868
 768 006c E5D0     		beq	.L98	@,
 769              	.LVL58:
 770              	.L72:
 771              	.LBE306:
 772              	.LBB329:
 260:../../lpc_chip_11cxx_lib/src/ssp_11xx.c **** 				return ERROR;
 773              		.loc 1 260 0
 774 006e 0020     		mov	r0, #0	@ D.6867,
 775              	.LVL59:
 776              	.L90:
 777              	.LBE329:
 292:../../lpc_chip_11cxx_lib/src/ssp_11xx.c **** 			}
 293:../../lpc_chip_11cxx_lib/src/ssp_11xx.c **** 		}
 294:../../lpc_chip_11cxx_lib/src/ssp_11xx.c **** 	}
 295:../../lpc_chip_11cxx_lib/src/ssp_11xx.c **** 
 296:../../lpc_chip_11cxx_lib/src/ssp_11xx.c **** 	return tx_cnt;
 297:../../lpc_chip_11cxx_lib/src/ssp_11xx.c **** 
 298:../../lpc_chip_11cxx_lib/src/ssp_11xx.c **** }
 778              		.loc 1 298 0
 779              		@ sp needed	@
 780              	.LVL60:
 781 0070 70BD     		pop	{r4, r5, r6, pc}
 782              	.LVL61:
 783              	.L63:
 245:../../lpc_chip_11cxx_lib/src/ssp_11xx.c **** 	if (Chip_SSP_GetDataSize(pSSP) > SSP_BITS_8) {
 784              		.loc 1 245 0
 785 0072 0026     		mov	r6, #0	@ tx_cnt,
 786 0074 0023     		mov	r3, #0	@ rx_cnt,
 787              	.LBB346:
 788              	.LBB330:
 789              	.LBB331:
 284:../../lpc_chip_11cxx_lib/inc/ssp_11xx.h **** 	return (pSSP->SR & Stat) ? SET : RESET;
ARM GAS  /var/folders/f9/8bk2lnw15zn4cbgn6wrnb4lm0000gn/T//ccCGlkPS.s 			page 28


 790              		.loc 2 284 0
 791 0076 0125     		mov	r5, #1	@ tmp242,
 792              	.LVL62:
 793              	.LBE331:
 794              	.LBE330:
 250:../../lpc_chip_11cxx_lib/src/ssp_11xx.c **** 		while (tx_cnt < buffer_len || rx_cnt < buffer_len) {
 795              		.loc 1 250 0
 796 0078 9642     		cmp	r6, r2	@ tx_cnt, buffer_len
 797 007a 0FD2     		bcs	.L99	@,
 798              	.LVL63:
 799              	.L70:
 800              	.LBB334:
 801              	.LBB332:
 284:../../lpc_chip_11cxx_lib/inc/ssp_11xx.h **** 	return (pSSP->SR & Stat) ? SET : RESET;
 802              		.loc 2 284 0
 803 007c C468     		ldr	r4, [r0, #12]	@ D.6868, pSSP_25(D)->SR
 804 007e 6408     		lsr	r4, r4, #1	@ tmp227, D.6868,
 805              	.LBE332:
 806              	.LBE334:
 252:../../lpc_chip_11cxx_lib/src/ssp_11xx.c **** 			if ((Chip_SSP_GetStatus(pSSP, SSP_STAT_TNF) == SET) && (tx_cnt < buffer_len)) {
 807              		.loc 1 252 0
 808 0080 2542     		tst	r5, r4	@ tmp242, tmp227
 809 0082 0FD1     		bne	.L100	@,
 810              	.L78:
 811              	.LVL64:
 812              	.LBB335:
 813              	.LBB336:
 311:../../lpc_chip_11cxx_lib/inc/ssp_11xx.h **** 	return (pSSP->RIS & RawInt) ? SET : RESET;
 814              		.loc 2 311 0
 815 0084 8469     		ldr	r4, [r0, #24]	@ D.6868, pSSP_25(D)->RIS
 816              	.LBE336:
 817              	.LBE335:
 259:../../lpc_chip_11cxx_lib/src/ssp_11xx.c **** 			if (Chip_SSP_GetRawIntStatus(pSSP, SSP_RORRIS) == SET) {
 818              		.loc 1 259 0
 819 0086 2542     		tst	r5, r4	@ tmp242, D.6868
 820 0088 02D0     		beq	.L91	@,
 821 008a F0E7     		b	.L72	@
 822              	.LVL65:
 823              	.L69:
 824              	.LBB337:
 825              	.LBB338:
 366:../../lpc_chip_11cxx_lib/inc/ssp_11xx.h **** 	return (uint16_t) (SSP_DR_BITMASK(pSSP->DR));
 826              		.loc 2 366 0
 827 008c 8468     		ldr	r4, [r0, #8]	@ D.6868, pSSP_25(D)->DR
 828              	.LBE338:
 829              	.LBE337:
 266:../../lpc_chip_11cxx_lib/src/ssp_11xx.c **** 				rx_cnt += 2;
 830              		.loc 1 266 0
 831 008e 0233     		add	r3, r3, #2	@ rx_cnt,
 832              	.LVL66:
 833              	.L91:
 834              	.LBB339:
 835              	.LBB340:
 284:../../lpc_chip_11cxx_lib/inc/ssp_11xx.h **** 	return (pSSP->SR & Stat) ? SET : RESET;
 836              		.loc 2 284 0
 837 0090 C468     		ldr	r4, [r0, #12]	@ D.6868,
 838 0092 A408     		lsr	r4, r4, #2	@ tmp202, D.6868,
ARM GAS  /var/folders/f9/8bk2lnw15zn4cbgn6wrnb4lm0000gn/T//ccCGlkPS.s 			page 29


 839              	.LBE340:
 840              	.LBE339:
 264:../../lpc_chip_11cxx_lib/src/ssp_11xx.c **** 			while (Chip_SSP_GetStatus(pSSP, SSP_STAT_RNE) == SET) {
 841              		.loc 1 264 0
 842 0094 2542     		tst	r5, r4	@ tmp242, tmp202
 843 0096 F9D1     		bne	.L69	@,
 250:../../lpc_chip_11cxx_lib/src/ssp_11xx.c **** 		while (tx_cnt < buffer_len || rx_cnt < buffer_len) {
 844              		.loc 1 250 0
 845 0098 9642     		cmp	r6, r2	@ tx_cnt, buffer_len
 846 009a EFD3     		bcc	.L70	@,
 847              	.LVL67:
 848              	.L99:
 250:../../lpc_chip_11cxx_lib/src/ssp_11xx.c **** 		while (tx_cnt < buffer_len || rx_cnt < buffer_len) {
 849              		.loc 1 250 0 is_stmt 0 discriminator 2
 850 009c 9342     		cmp	r3, r2	@ rx_cnt, buffer_len
 851 009e 06D2     		bcs	.L93	@,
 852              	.LVL68:
 853              	.LBB341:
 854              	.LBB333:
 284:../../lpc_chip_11cxx_lib/inc/ssp_11xx.h **** 	return (pSSP->SR & Stat) ? SET : RESET;
 855              		.loc 2 284 0 is_stmt 1
 856 00a0 C468     		ldr	r4, [r0, #12]	@ D.6868, pSSP_25(D)->SR
 857 00a2 EFE7     		b	.L78	@
 858              	.L100:
 859              	.LVL69:
 860              	.LBE333:
 861              	.LBE341:
 862              	.LBB342:
 863              	.LBB343:
 864              		.loc 2 377 0
 865 00a4 0C88     		ldrh	r4, [r1]	@ D.6868, MEM[(uint16_t *)buffer_11]
 866              	.LBE343:
 867              	.LBE342:
 255:../../lpc_chip_11cxx_lib/src/ssp_11xx.c **** 				tx_cnt += 2;
 868              		.loc 1 255 0
 869 00a6 0236     		add	r6, r6, #2	@ tx_cnt,
 870              	.LVL70:
 871              	.LBB345:
 872              	.LBB344:
 873              		.loc 2 377 0
 874 00a8 8460     		str	r4, [r0, #8]	@ D.6868, pSSP_25(D)->DR
 875              	.LVL71:
 876              	.LBE344:
 877              	.LBE345:
 254:../../lpc_chip_11cxx_lib/src/ssp_11xx.c **** 				wdata16++;
 878              		.loc 1 254 0
 879 00aa 0231     		add	r1, r1, #2	@ buffer,
 880              	.LVL72:
 881 00ac EAE7     		b	.L78	@
 882              	.LVL73:
 883              	.L93:
 884              	.LBE346:
 885              	.LBB347:
 886 00ae 301C     		mov	r0, r6	@ D.6867, tx_cnt
 887              	.LVL74:
 888 00b0 DEE7     		b	.L90	@
 889              	.LBE347:
ARM GAS  /var/folders/f9/8bk2lnw15zn4cbgn6wrnb4lm0000gn/T//ccCGlkPS.s 			page 30


 890              		.cfi_endproc
 891              	.LFE208:
 892              		.size	Chip_SSP_WriteFrames_Blocking, .-Chip_SSP_WriteFrames_Blocking
 893 00b2 C046     		.section	.text.Chip_SSP_ReadFrames_Blocking,"ax",%progbits
 894              		.align	2
 895              		.global	Chip_SSP_ReadFrames_Blocking
 896              		.code	16
 897              		.thumb_func
 898              		.type	Chip_SSP_ReadFrames_Blocking, %function
 899              	Chip_SSP_ReadFrames_Blocking:
 900              	.LFB209:
 299:../../lpc_chip_11cxx_lib/src/ssp_11xx.c **** 
 300:../../lpc_chip_11cxx_lib/src/ssp_11xx.c **** /* SSP Polling Read in blocking mode */
 301:../../lpc_chip_11cxx_lib/src/ssp_11xx.c **** uint32_t Chip_SSP_ReadFrames_Blocking(LPC_SSP_T *pSSP, uint8_t *buffer, uint32_t buffer_len)
 302:../../lpc_chip_11cxx_lib/src/ssp_11xx.c **** {
 901              		.loc 1 302 0
 902              		.cfi_startproc
 903              	.LVL75:
 904              	.LBB348:
 905              	.LBB349:
 284:../../lpc_chip_11cxx_lib/inc/ssp_11xx.h **** 	return (pSSP->SR & Stat) ? SET : RESET;
 906              		.loc 2 284 0
 907 0000 C368     		ldr	r3, [r0, #12]	@ D.6889, pSSP_25(D)->SR
 908              	.LBE349:
 909              	.LBE348:
 910              		.loc 1 302 0
 911 0002 F0B5     		push	{r4, r5, r6, r7, lr}	@
 912              		.cfi_def_cfa_offset 20
 913              		.cfi_offset 4, -20
 914              		.cfi_offset 5, -16
 915              		.cfi_offset 6, -12
 916              		.cfi_offset 7, -8
 917              		.cfi_offset 14, -4
 303:../../lpc_chip_11cxx_lib/src/ssp_11xx.c **** 	uint32_t rx_cnt = 0, tx_cnt = 0;
 304:../../lpc_chip_11cxx_lib/src/ssp_11xx.c **** 
 305:../../lpc_chip_11cxx_lib/src/ssp_11xx.c **** 	/* Clear all remaining frames in RX FIFO */
 306:../../lpc_chip_11cxx_lib/src/ssp_11xx.c **** 	while (Chip_SSP_GetStatus(pSSP, SSP_STAT_RNE)) {
 918              		.loc 1 306 0
 919 0004 5C07     		lsl	r4, r3, #29	@, D.6889,
 920 0006 05D5     		bpl	.L102	@,
 921              	.LBB352:
 922              	.LBB350:
 284:../../lpc_chip_11cxx_lib/inc/ssp_11xx.h **** 	return (pSSP->SR & Stat) ? SET : RESET;
 923              		.loc 2 284 0
 924 0008 0124     		mov	r4, #1	@ tmp273,
 925              	.L103:
 926              	.LVL76:
 927              	.LBE350:
 928              	.LBE352:
 929              	.LBB353:
 930              	.LBB354:
 366:../../lpc_chip_11cxx_lib/inc/ssp_11xx.h **** 	return (uint16_t) (SSP_DR_BITMASK(pSSP->DR));
 931              		.loc 2 366 0
 932 000a 8368     		ldr	r3, [r0, #8]	@ D.6889, pSSP_25(D)->DR
 933              	.LBE354:
 934              	.LBE353:
 935              	.LBB355:
ARM GAS  /var/folders/f9/8bk2lnw15zn4cbgn6wrnb4lm0000gn/T//ccCGlkPS.s 			page 31


 936              	.LBB351:
 284:../../lpc_chip_11cxx_lib/inc/ssp_11xx.h **** 	return (pSSP->SR & Stat) ? SET : RESET;
 937              		.loc 2 284 0
 938 000c C368     		ldr	r3, [r0, #12]	@ D.6889, pSSP_25(D)->SR
 939 000e 9B08     		lsr	r3, r3, #2	@ tmp199, D.6889,
 940              	.LBE351:
 941              	.LBE355:
 942              		.loc 1 306 0
 943 0010 1C42     		tst	r4, r3	@ tmp273, tmp199
 944 0012 FAD1     		bne	.L103	@,
 945              	.LVL77:
 946              	.L102:
 947              	.LBB356:
 948              	.LBB357:
 336:../../lpc_chip_11cxx_lib/inc/ssp_11xx.h **** 	pSSP->ICR = IntClear;
 949              		.loc 2 336 0
 950 0014 0323     		mov	r3, #3	@ tmp207,
 951 0016 0362     		str	r3, [r0, #32]	@ tmp207, pSSP_25(D)->ICR
 952              	.LVL78:
 953              	.LBE357:
 954              	.LBE356:
 955              	.LBB358:
 956              	.LBB359:
 322:../../lpc_chip_11cxx_lib/inc/ssp_11xx.h **** 	return SSP_CR0_DSS(pSSP->CR0);
 957              		.loc 2 322 0
 958 0018 0368     		ldr	r3, [r0]	@ D.6889, pSSP_25(D)->CR0
 959              	.LBE359:
 960              	.LBE358:
 307:../../lpc_chip_11cxx_lib/src/ssp_11xx.c **** 		Chip_SSP_ReceiveFrame(pSSP);
 308:../../lpc_chip_11cxx_lib/src/ssp_11xx.c **** 	}
 309:../../lpc_chip_11cxx_lib/src/ssp_11xx.c **** 
 310:../../lpc_chip_11cxx_lib/src/ssp_11xx.c **** 	/* Clear status */
 311:../../lpc_chip_11cxx_lib/src/ssp_11xx.c **** 	Chip_SSP_ClearIntPending(pSSP, SSP_INT_CLEAR_BITMASK);
 312:../../lpc_chip_11cxx_lib/src/ssp_11xx.c **** 
 313:../../lpc_chip_11cxx_lib/src/ssp_11xx.c **** 	if (Chip_SSP_GetDataSize(pSSP) > SSP_BITS_8) {
 961              		.loc 1 313 0
 962 001a 0F24     		mov	r4, #15	@ tmp212,
 963 001c 2340     		and	r3, r4	@ tmp213, tmp212
 964 001e 0026     		mov	r6, #0	@ tx_cnt,
 965 0020 072B     		cmp	r3, #7	@ tmp213,
 966 0022 27D8     		bhi	.L104	@,
 967 0024 0023     		mov	r3, #0	@ rx_cnt,
 968              	.LBB360:
 969              	.LBB361:
 970              	.LBB362:
 284:../../lpc_chip_11cxx_lib/inc/ssp_11xx.h **** 	return (pSSP->SR & Stat) ? SET : RESET;
 971              		.loc 2 284 0
 972 0026 0125     		mov	r5, #1	@ tmp271,
 973              	.LBE362:
 974              	.LBE361:
 975              	.LBB365:
 976              	.LBB366:
 977              		.loc 2 377 0
 978 0028 FF27     		mov	r7, #255	@ tmp272,
 979              	.LVL79:
 980              	.L105:
 981              	.LBE366:
ARM GAS  /var/folders/f9/8bk2lnw15zn4cbgn6wrnb4lm0000gn/T//ccCGlkPS.s 			page 32


 982              	.LBE365:
 314:../../lpc_chip_11cxx_lib/src/ssp_11xx.c **** 		uint16_t *rdata16;
 315:../../lpc_chip_11cxx_lib/src/ssp_11xx.c **** 
 316:../../lpc_chip_11cxx_lib/src/ssp_11xx.c **** 		rdata16 = (uint16_t *) buffer;
 317:../../lpc_chip_11cxx_lib/src/ssp_11xx.c **** 
 318:../../lpc_chip_11cxx_lib/src/ssp_11xx.c **** 		while (tx_cnt < buffer_len || rx_cnt < buffer_len) {
 319:../../lpc_chip_11cxx_lib/src/ssp_11xx.c **** 			/* write data to buffer */
 320:../../lpc_chip_11cxx_lib/src/ssp_11xx.c **** 			if ((Chip_SSP_GetStatus(pSSP, SSP_STAT_TNF) == SET) && (tx_cnt < buffer_len)) {
 321:../../lpc_chip_11cxx_lib/src/ssp_11xx.c **** 				Chip_SSP_SendFrame(pSSP, 0xFFFF);	/* just send dummy data */
 322:../../lpc_chip_11cxx_lib/src/ssp_11xx.c **** 				tx_cnt += 2;
 323:../../lpc_chip_11cxx_lib/src/ssp_11xx.c **** 			}
 324:../../lpc_chip_11cxx_lib/src/ssp_11xx.c **** 
 325:../../lpc_chip_11cxx_lib/src/ssp_11xx.c **** 			/* Check overrun error */
 326:../../lpc_chip_11cxx_lib/src/ssp_11xx.c **** 			if (Chip_SSP_GetRawIntStatus(pSSP, SSP_RORRIS) == SET) {
 327:../../lpc_chip_11cxx_lib/src/ssp_11xx.c **** 				return ERROR;
 328:../../lpc_chip_11cxx_lib/src/ssp_11xx.c **** 			}
 329:../../lpc_chip_11cxx_lib/src/ssp_11xx.c **** 
 330:../../lpc_chip_11cxx_lib/src/ssp_11xx.c **** 			/* Check for any data available in RX FIFO */
 331:../../lpc_chip_11cxx_lib/src/ssp_11xx.c **** 			while (Chip_SSP_GetStatus(pSSP, SSP_STAT_RNE) == SET && rx_cnt < buffer_len) {
 332:../../lpc_chip_11cxx_lib/src/ssp_11xx.c **** 				*rdata16 = Chip_SSP_ReceiveFrame(pSSP);
 333:../../lpc_chip_11cxx_lib/src/ssp_11xx.c **** 				rdata16++;
 334:../../lpc_chip_11cxx_lib/src/ssp_11xx.c **** 				rx_cnt += 2;
 335:../../lpc_chip_11cxx_lib/src/ssp_11xx.c **** 			}
 336:../../lpc_chip_11cxx_lib/src/ssp_11xx.c **** 		}
 337:../../lpc_chip_11cxx_lib/src/ssp_11xx.c **** 	}
 338:../../lpc_chip_11cxx_lib/src/ssp_11xx.c **** 	else {
 339:../../lpc_chip_11cxx_lib/src/ssp_11xx.c **** 		uint8_t *rdata8;
 340:../../lpc_chip_11cxx_lib/src/ssp_11xx.c **** 
 341:../../lpc_chip_11cxx_lib/src/ssp_11xx.c **** 		rdata8 = buffer;
 342:../../lpc_chip_11cxx_lib/src/ssp_11xx.c **** 
 343:../../lpc_chip_11cxx_lib/src/ssp_11xx.c **** 		while (tx_cnt < buffer_len || rx_cnt < buffer_len) {
 983              		.loc 1 343 0 discriminator 1
 984 002a 9642     		cmp	r6, r2	@ tx_cnt, buffer_len
 985 002c 17D2     		bcs	.L137	@,
 986              	.L116:
 987              	.LVL80:
 988              	.LBB368:
 989              	.LBB363:
 284:../../lpc_chip_11cxx_lib/inc/ssp_11xx.h **** 	return (pSSP->SR & Stat) ? SET : RESET;
 990              		.loc 2 284 0
 991 002e C468     		ldr	r4, [r0, #12]	@ D.6889, pSSP_25(D)->SR
 992 0030 6408     		lsr	r4, r4, #1	@ tmp260, D.6889,
 993              	.LBE363:
 994              	.LBE368:
 344:../../lpc_chip_11cxx_lib/src/ssp_11xx.c **** 			/* write data to buffer */
 345:../../lpc_chip_11cxx_lib/src/ssp_11xx.c **** 			if ((Chip_SSP_GetStatus(pSSP, SSP_STAT_TNF) == SET) && (tx_cnt < buffer_len)) {
 995              		.loc 1 345 0
 996 0032 2542     		tst	r5, r4	@ tmp271, tmp260
 997 0034 17D1     		bne	.L138	@,
 998              	.L120:
 999              	.LVL81:
 1000              	.LBB369:
 1001              	.LBB370:
 311:../../lpc_chip_11cxx_lib/inc/ssp_11xx.h **** 	return (pSSP->RIS & RawInt) ? SET : RESET;
 1002              		.loc 2 311 0
 1003 0036 8469     		ldr	r4, [r0, #24]	@ D.6889, pSSP_25(D)->RIS
 1004              	.LBE370:
ARM GAS  /var/folders/f9/8bk2lnw15zn4cbgn6wrnb4lm0000gn/T//ccCGlkPS.s 			page 33


 1005              	.LBE369:
 346:../../lpc_chip_11cxx_lib/src/ssp_11xx.c **** 				Chip_SSP_SendFrame(pSSP, 0xFF);	/* just send dummy data		 */
 347:../../lpc_chip_11cxx_lib/src/ssp_11xx.c **** 				tx_cnt++;
 348:../../lpc_chip_11cxx_lib/src/ssp_11xx.c **** 			}
 349:../../lpc_chip_11cxx_lib/src/ssp_11xx.c **** 
 350:../../lpc_chip_11cxx_lib/src/ssp_11xx.c **** 			/* Check overrun error */
 351:../../lpc_chip_11cxx_lib/src/ssp_11xx.c **** 			if (Chip_SSP_GetRawIntStatus(pSSP, SSP_RORRIS) == SET) {
 1006              		.loc 1 351 0
 1007 0038 2542     		tst	r5, r4	@ tmp271, D.6889
 1008 003a 19D1     		bne	.L113	@,
 1009              	.L140:
 1010              	.LVL82:
 1011              	.LBB372:
 1012              	.LBB373:
 284:../../lpc_chip_11cxx_lib/inc/ssp_11xx.h **** 	return (pSSP->SR & Stat) ? SET : RESET;
 1013              		.loc 2 284 0 discriminator 1
 1014 003c C468     		ldr	r4, [r0, #12]	@ D.6889,
 1015 003e A408     		lsr	r4, r4, #2	@ tmp237, D.6889,
 1016              	.LBE373:
 1017              	.LBE372:
 352:../../lpc_chip_11cxx_lib/src/ssp_11xx.c **** 				return ERROR;
 353:../../lpc_chip_11cxx_lib/src/ssp_11xx.c **** 			}
 354:../../lpc_chip_11cxx_lib/src/ssp_11xx.c **** 
 355:../../lpc_chip_11cxx_lib/src/ssp_11xx.c **** 			/* Check for any data available in RX FIFO */
 356:../../lpc_chip_11cxx_lib/src/ssp_11xx.c **** 			while (Chip_SSP_GetStatus(pSSP, SSP_STAT_RNE) == SET && rx_cnt < buffer_len) {
 1018              		.loc 1 356 0 discriminator 1
 1019 0040 2542     		tst	r5, r4	@ tmp271, tmp237
 1020 0042 08D1     		bne	.L133	@,
 1021 0044 F1E7     		b	.L105	@
 1022              	.L139:
 1023              	.LVL83:
 1024              	.LBB376:
 1025              	.LBB377:
 366:../../lpc_chip_11cxx_lib/inc/ssp_11xx.h **** 	return (uint16_t) (SSP_DR_BITMASK(pSSP->DR));
 1026              		.loc 2 366 0
 1027 0046 8468     		ldr	r4, [r0, #8]	@ D.6889, pSSP_25(D)->DR
 1028              	.LBE377:
 1029              	.LBE376:
 357:../../lpc_chip_11cxx_lib/src/ssp_11xx.c **** 				*rdata8 = Chip_SSP_ReceiveFrame(pSSP);
 358:../../lpc_chip_11cxx_lib/src/ssp_11xx.c **** 				rdata8++;
 359:../../lpc_chip_11cxx_lib/src/ssp_11xx.c **** 				rx_cnt++;
 1030              		.loc 1 359 0
 1031 0048 0133     		add	r3, r3, #1	@ rx_cnt,
 1032              	.LVL84:
 357:../../lpc_chip_11cxx_lib/src/ssp_11xx.c **** 				*rdata8 = Chip_SSP_ReceiveFrame(pSSP);
 1033              		.loc 1 357 0
 1034 004a 0C70     		strb	r4, [r1]	@ D.6889, MEM[base: buffer_122, offset: 0B]
 1035              	.LBB378:
 1036              	.LBB374:
 284:../../lpc_chip_11cxx_lib/inc/ssp_11xx.h **** 	return (pSSP->SR & Stat) ? SET : RESET;
 1037              		.loc 2 284 0
 1038 004c C468     		ldr	r4, [r0, #12]	@ D.6889,
 1039              	.LBE374:
 1040              	.LBE378:
 358:../../lpc_chip_11cxx_lib/src/ssp_11xx.c **** 				rdata8++;
 1041              		.loc 1 358 0
 1042 004e 0131     		add	r1, r1, #1	@ buffer,
ARM GAS  /var/folders/f9/8bk2lnw15zn4cbgn6wrnb4lm0000gn/T//ccCGlkPS.s 			page 34


 1043              	.LVL85:
 1044              	.LBB379:
 1045              	.LBB375:
 284:../../lpc_chip_11cxx_lib/inc/ssp_11xx.h **** 	return (pSSP->SR & Stat) ? SET : RESET;
 1046              		.loc 2 284 0
 1047 0050 A408     		lsr	r4, r4, #2	@ tmp245, D.6889,
 1048              	.LBE375:
 1049              	.LBE379:
 356:../../lpc_chip_11cxx_lib/src/ssp_11xx.c **** 			while (Chip_SSP_GetStatus(pSSP, SSP_STAT_RNE) == SET && rx_cnt < buffer_len) {
 1050              		.loc 1 356 0
 1051 0052 2542     		tst	r5, r4	@ tmp271, tmp245
 1052 0054 E9D0     		beq	.L105	@,
 1053              	.LVL86:
 1054              	.L133:
 1055 0056 9342     		cmp	r3, r2	@ rx_cnt, buffer_len
 1056 0058 F5D3     		bcc	.L139	@,
 343:../../lpc_chip_11cxx_lib/src/ssp_11xx.c **** 		while (tx_cnt < buffer_len || rx_cnt < buffer_len) {
 1057              		.loc 1 343 0
 1058 005a 9642     		cmp	r6, r2	@ tx_cnt, buffer_len
 1059 005c E7D3     		bcc	.L116	@,
 1060              	.LVL87:
 1061              	.L137:
 343:../../lpc_chip_11cxx_lib/src/ssp_11xx.c **** 		while (tx_cnt < buffer_len || rx_cnt < buffer_len) {
 1062              		.loc 1 343 0 is_stmt 0 discriminator 2
 1063 005e 9342     		cmp	r3, r2	@ rx_cnt, buffer_len
 1064 0060 2CD2     		bcs	.L134	@,
 1065              	.LVL88:
 1066              	.LBB380:
 1067              	.LBB364:
 284:../../lpc_chip_11cxx_lib/inc/ssp_11xx.h **** 	return (pSSP->SR & Stat) ? SET : RESET;
 1068              		.loc 2 284 0 is_stmt 1
 1069 0062 C468     		ldr	r4, [r0, #12]	@ D.6889, pSSP_25(D)->SR
 1070 0064 E7E7     		b	.L120	@
 1071              	.L138:
 1072              	.LVL89:
 1073              	.LBE364:
 1074              	.LBE380:
 1075              	.LBB381:
 1076              	.LBB367:
 1077              		.loc 2 377 0
 1078 0066 8760     		str	r7, [r0, #8]	@ tmp272, pSSP_25(D)->DR
 1079              	.LBE367:
 1080              	.LBE381:
 1081              	.LBB382:
 1082              	.LBB371:
 311:../../lpc_chip_11cxx_lib/inc/ssp_11xx.h **** 	return (pSSP->RIS & RawInt) ? SET : RESET;
 1083              		.loc 2 311 0
 1084 0068 8469     		ldr	r4, [r0, #24]	@ D.6889, pSSP_25(D)->RIS
 1085              	.LBE371:
 1086              	.LBE382:
 347:../../lpc_chip_11cxx_lib/src/ssp_11xx.c **** 				tx_cnt++;
 1087              		.loc 1 347 0
 1088 006a 0136     		add	r6, r6, #1	@ tx_cnt,
 1089              	.LVL90:
 351:../../lpc_chip_11cxx_lib/src/ssp_11xx.c **** 			if (Chip_SSP_GetRawIntStatus(pSSP, SSP_RORRIS) == SET) {
 1090              		.loc 1 351 0
 1091 006c 2542     		tst	r5, r4	@ tmp271, D.6889
ARM GAS  /var/folders/f9/8bk2lnw15zn4cbgn6wrnb4lm0000gn/T//ccCGlkPS.s 			page 35


 1092 006e E5D0     		beq	.L140	@,
 1093              	.LVL91:
 1094              	.L113:
 1095              	.LBE360:
 1096              	.LBB383:
 327:../../lpc_chip_11cxx_lib/src/ssp_11xx.c **** 				return ERROR;
 1097              		.loc 1 327 0
 1098 0070 0020     		mov	r0, #0	@ D.6890,
 1099              	.LVL92:
 1100              	.L131:
 1101              	.LBE383:
 360:../../lpc_chip_11cxx_lib/src/ssp_11xx.c **** 			}
 361:../../lpc_chip_11cxx_lib/src/ssp_11xx.c **** 		}
 362:../../lpc_chip_11cxx_lib/src/ssp_11xx.c **** 	}
 363:../../lpc_chip_11cxx_lib/src/ssp_11xx.c **** 
 364:../../lpc_chip_11cxx_lib/src/ssp_11xx.c **** 	return rx_cnt;
 365:../../lpc_chip_11cxx_lib/src/ssp_11xx.c **** 
 366:../../lpc_chip_11cxx_lib/src/ssp_11xx.c **** }
 1102              		.loc 1 366 0
 1103              		@ sp needed	@
 1104              	.LVL93:
 1105 0072 F0BD     		pop	{r4, r5, r6, r7, pc}
 1106              	.LVL94:
 1107              	.L104:
 1108              	.LBB406:
 1109              	.LBB384:
 1110              	.LBB385:
 1111              		.loc 2 377 0
 1112 0074 124F     		ldr	r7, .L144	@ tmp269,
 1113              	.LBE385:
 1114              	.LBE384:
 1115              	.LBE406:
 313:../../lpc_chip_11cxx_lib/src/ssp_11xx.c **** 	if (Chip_SSP_GetDataSize(pSSP) > SSP_BITS_8) {
 1116              		.loc 1 313 0
 1117 0076 0023     		mov	r3, #0	@ rx_cnt,
 1118              	.LBB407:
 1119              	.LBB387:
 1120              	.LBB388:
 284:../../lpc_chip_11cxx_lib/inc/ssp_11xx.h **** 	return (pSSP->SR & Stat) ? SET : RESET;
 1121              		.loc 2 284 0
 1122 0078 0125     		mov	r5, #1	@ tmp268,
 1123              	.LVL95:
 1124              	.L106:
 1125              	.LBE388:
 1126              	.LBE387:
 318:../../lpc_chip_11cxx_lib/src/ssp_11xx.c **** 		while (tx_cnt < buffer_len || rx_cnt < buffer_len) {
 1127              		.loc 1 318 0 discriminator 1
 1128 007a 9642     		cmp	r6, r2	@ tx_cnt, buffer_len
 1129 007c 17D2     		bcs	.L141	@,
 1130              	.L111:
 1131              	.LVL96:
 1132              	.LBB391:
 1133              	.LBB389:
 284:../../lpc_chip_11cxx_lib/inc/ssp_11xx.h **** 	return (pSSP->SR & Stat) ? SET : RESET;
 1134              		.loc 2 284 0
 1135 007e C468     		ldr	r4, [r0, #12]	@ D.6889, pSSP_25(D)->SR
 1136 0080 6408     		lsr	r4, r4, #1	@ tmp253, D.6889,
ARM GAS  /var/folders/f9/8bk2lnw15zn4cbgn6wrnb4lm0000gn/T//ccCGlkPS.s 			page 36


 1137              	.LBE389:
 1138              	.LBE391:
 320:../../lpc_chip_11cxx_lib/src/ssp_11xx.c **** 			if ((Chip_SSP_GetStatus(pSSP, SSP_STAT_TNF) == SET) && (tx_cnt < buffer_len)) {
 1139              		.loc 1 320 0
 1140 0082 2542     		tst	r5, r4	@ tmp268, tmp253
 1141 0084 17D1     		bne	.L142	@,
 1142              	.L119:
 1143              	.LVL97:
 1144              	.LBB392:
 1145              	.LBB393:
 311:../../lpc_chip_11cxx_lib/inc/ssp_11xx.h **** 	return (pSSP->RIS & RawInt) ? SET : RESET;
 1146              		.loc 2 311 0
 1147 0086 8469     		ldr	r4, [r0, #24]	@ D.6889, pSSP_25(D)->RIS
 1148              	.LBE393:
 1149              	.LBE392:
 326:../../lpc_chip_11cxx_lib/src/ssp_11xx.c **** 			if (Chip_SSP_GetRawIntStatus(pSSP, SSP_RORRIS) == SET) {
 1150              		.loc 1 326 0
 1151 0088 2542     		tst	r5, r4	@ tmp268, D.6889
 1152 008a F1D1     		bne	.L113	@,
 1153              	.LVL98:
 1154              	.LBB394:
 1155              	.LBB395:
 284:../../lpc_chip_11cxx_lib/inc/ssp_11xx.h **** 	return (pSSP->SR & Stat) ? SET : RESET;
 1156              		.loc 2 284 0 discriminator 1
 1157 008c C468     		ldr	r4, [r0, #12]	@ D.6889,
 1158 008e A408     		lsr	r4, r4, #2	@ tmp218, D.6889,
 1159              	.LBE395:
 1160              	.LBE394:
 331:../../lpc_chip_11cxx_lib/src/ssp_11xx.c **** 			while (Chip_SSP_GetStatus(pSSP, SSP_STAT_RNE) == SET && rx_cnt < buffer_len) {
 1161              		.loc 1 331 0 discriminator 1
 1162 0090 2542     		tst	r5, r4	@ tmp268, tmp218
 1163 0092 08D1     		bne	.L132	@,
 1164 0094 F1E7     		b	.L106	@
 1165              	.L143:
 1166              	.LVL99:
 1167              	.LBB398:
 1168              	.LBB399:
 366:../../lpc_chip_11cxx_lib/inc/ssp_11xx.h **** 	return (uint16_t) (SSP_DR_BITMASK(pSSP->DR));
 1169              		.loc 2 366 0
 1170 0096 8468     		ldr	r4, [r0, #8]	@ D.6889, pSSP_25(D)->DR
 1171              	.LBE399:
 1172              	.LBE398:
 334:../../lpc_chip_11cxx_lib/src/ssp_11xx.c **** 				rx_cnt += 2;
 1173              		.loc 1 334 0
 1174 0098 0233     		add	r3, r3, #2	@ rx_cnt,
 1175              	.LVL100:
 1176              	.LBB401:
 1177              	.LBB400:
 366:../../lpc_chip_11cxx_lib/inc/ssp_11xx.h **** 	return (uint16_t) (SSP_DR_BITMASK(pSSP->DR));
 1178              		.loc 2 366 0
 1179 009a 0C80     		strh	r4, [r1]	@ D.6889, MEM[base: buffer_102, offset: 0B]
 1180              	.LBE400:
 1181              	.LBE401:
 1182              	.LBB402:
 1183              	.LBB396:
 284:../../lpc_chip_11cxx_lib/inc/ssp_11xx.h **** 	return (pSSP->SR & Stat) ? SET : RESET;
 1184              		.loc 2 284 0
ARM GAS  /var/folders/f9/8bk2lnw15zn4cbgn6wrnb4lm0000gn/T//ccCGlkPS.s 			page 37


 1185 009c C468     		ldr	r4, [r0, #12]	@ D.6889,
 1186              	.LBE396:
 1187              	.LBE402:
 333:../../lpc_chip_11cxx_lib/src/ssp_11xx.c **** 				rdata16++;
 1188              		.loc 1 333 0
 1189 009e 0231     		add	r1, r1, #2	@ buffer,
 1190              	.LVL101:
 1191              	.LBB403:
 1192              	.LBB397:
 284:../../lpc_chip_11cxx_lib/inc/ssp_11xx.h **** 	return (pSSP->SR & Stat) ? SET : RESET;
 1193              		.loc 2 284 0
 1194 00a0 A408     		lsr	r4, r4, #2	@ tmp226, D.6889,
 1195              	.LBE397:
 1196              	.LBE403:
 331:../../lpc_chip_11cxx_lib/src/ssp_11xx.c **** 			while (Chip_SSP_GetStatus(pSSP, SSP_STAT_RNE) == SET && rx_cnt < buffer_len) {
 1197              		.loc 1 331 0
 1198 00a2 2542     		tst	r5, r4	@ tmp268, tmp226
 1199 00a4 E9D0     		beq	.L106	@,
 1200              	.LVL102:
 1201              	.L132:
 1202 00a6 9342     		cmp	r3, r2	@ rx_cnt, buffer_len
 1203 00a8 F5D3     		bcc	.L143	@,
 318:../../lpc_chip_11cxx_lib/src/ssp_11xx.c **** 		while (tx_cnt < buffer_len || rx_cnt < buffer_len) {
 1204              		.loc 1 318 0
 1205 00aa 9642     		cmp	r6, r2	@ tx_cnt, buffer_len
 1206 00ac E7D3     		bcc	.L111	@,
 1207              	.LVL103:
 1208              	.L141:
 318:../../lpc_chip_11cxx_lib/src/ssp_11xx.c **** 		while (tx_cnt < buffer_len || rx_cnt < buffer_len) {
 1209              		.loc 1 318 0 is_stmt 0 discriminator 2
 1210 00ae 9342     		cmp	r3, r2	@ rx_cnt, buffer_len
 1211 00b0 04D2     		bcs	.L134	@,
 1212              	.LVL104:
 1213              	.LBB404:
 1214              	.LBB390:
 284:../../lpc_chip_11cxx_lib/inc/ssp_11xx.h **** 	return (pSSP->SR & Stat) ? SET : RESET;
 1215              		.loc 2 284 0 is_stmt 1
 1216 00b2 C468     		ldr	r4, [r0, #12]	@ D.6889, pSSP_25(D)->SR
 1217 00b4 E7E7     		b	.L119	@
 1218              	.L142:
 1219              	.LVL105:
 1220              	.LBE390:
 1221              	.LBE404:
 1222              	.LBB405:
 1223              	.LBB386:
 1224              		.loc 2 377 0
 1225 00b6 8760     		str	r7, [r0, #8]	@ tmp269, pSSP_25(D)->DR
 1226              	.LBE386:
 1227              	.LBE405:
 322:../../lpc_chip_11cxx_lib/src/ssp_11xx.c **** 				tx_cnt += 2;
 1228              		.loc 1 322 0
 1229 00b8 0236     		add	r6, r6, #2	@ tx_cnt,
 1230              	.LVL106:
 1231 00ba E4E7     		b	.L119	@
 1232              	.LVL107:
 1233              	.L134:
 1234              	.LBE407:
ARM GAS  /var/folders/f9/8bk2lnw15zn4cbgn6wrnb4lm0000gn/T//ccCGlkPS.s 			page 38


 1235              	.LBB408:
 1236 00bc 181C     		mov	r0, r3	@ D.6890, rx_cnt
 1237              	.LVL108:
 1238 00be D8E7     		b	.L131	@
 1239              	.L145:
 1240              		.align	2
 1241              	.L144:
 1242 00c0 FFFF0000 		.word	65535
 1243              	.LBE408:
 1244              		.cfi_endproc
 1245              	.LFE209:
 1246              		.size	Chip_SSP_ReadFrames_Blocking, .-Chip_SSP_ReadFrames_Blocking
 1247              		.section	.text.Chip_SSP_Int_FlushData,"ax",%progbits
 1248              		.align	2
 1249              		.global	Chip_SSP_Int_FlushData
 1250              		.code	16
 1251              		.thumb_func
 1252              		.type	Chip_SSP_Int_FlushData, %function
 1253              	Chip_SSP_Int_FlushData:
 1254              	.LFB210:
 367:../../lpc_chip_11cxx_lib/src/ssp_11xx.c **** 
 368:../../lpc_chip_11cxx_lib/src/ssp_11xx.c **** /* Clean all data in RX FIFO of SSP */
 369:../../lpc_chip_11cxx_lib/src/ssp_11xx.c **** void Chip_SSP_Int_FlushData(LPC_SSP_T *pSSP)
 370:../../lpc_chip_11cxx_lib/src/ssp_11xx.c **** {
 1255              		.loc 1 370 0
 1256              		.cfi_startproc
 1257              	.LVL109:
 1258              	.LBB409:
 1259              	.LBB410:
 284:../../lpc_chip_11cxx_lib/inc/ssp_11xx.h **** 	return (pSSP->SR & Stat) ? SET : RESET;
 1260              		.loc 2 284 0
 1261 0000 C368     		ldr	r3, [r0, #12]	@ D.6899, pSSP_4(D)->SR
 1262              	.LBE410:
 1263              	.LBE409:
 371:../../lpc_chip_11cxx_lib/src/ssp_11xx.c **** 	if (Chip_SSP_GetStatus(pSSP, SSP_STAT_BSY)) {
 1264              		.loc 1 371 0
 1265 0002 D906     		lsl	r1, r3, #27	@, D.6899,
 1266 0004 04D5     		bpl	.L150	@,
 1267              	.LBB411:
 1268              	.LBB412:
 284:../../lpc_chip_11cxx_lib/inc/ssp_11xx.h **** 	return (pSSP->SR & Stat) ? SET : RESET;
 1269              		.loc 2 284 0
 1270 0006 0122     		mov	r2, #1	@ tmp162,
 1271              	.L151:
 1272              	.LVL110:
 1273 0008 C368     		ldr	r3, [r0, #12]	@ D.6899, pSSP_4(D)->SR
 1274 000a 1B09     		lsr	r3, r3, #4	@ tmp144, D.6899,
 1275              	.LBE412:
 1276              	.LBE411:
 372:../../lpc_chip_11cxx_lib/src/ssp_11xx.c **** 		while (Chip_SSP_GetStatus(pSSP, SSP_STAT_BSY)) {}
 1277              		.loc 1 372 0
 1278 000c 1A42     		tst	r2, r3	@ tmp162, tmp144
 1279 000e FBD1     		bne	.L151	@,
 1280              	.LVL111:
 1281              	.L150:
 1282              	.LBB413:
 1283              	.LBB414:
ARM GAS  /var/folders/f9/8bk2lnw15zn4cbgn6wrnb4lm0000gn/T//ccCGlkPS.s 			page 39


 284:../../lpc_chip_11cxx_lib/inc/ssp_11xx.h **** 	return (pSSP->SR & Stat) ? SET : RESET;
 1284              		.loc 2 284 0 discriminator 1
 1285 0010 C368     		ldr	r3, [r0, #12]	@ D.6899, pSSP_4(D)->SR
 1286 0012 0122     		mov	r2, #1	@ tmp161,
 1287              	.LBE414:
 1288              	.LBE413:
 373:../../lpc_chip_11cxx_lib/src/ssp_11xx.c **** 	}
 374:../../lpc_chip_11cxx_lib/src/ssp_11xx.c **** 
 375:../../lpc_chip_11cxx_lib/src/ssp_11xx.c **** 	/* Clear all remaining frames in RX FIFO */
 376:../../lpc_chip_11cxx_lib/src/ssp_11xx.c **** 	while (Chip_SSP_GetStatus(pSSP, SSP_STAT_RNE)) {
 1289              		.loc 1 376 0 discriminator 1
 1290 0014 5907     		lsl	r1, r3, #29	@, D.6899,
 1291 0016 04D5     		bpl	.L149	@,
 1292              	.L159:
 1293              	.LVL112:
 1294              	.LBB416:
 1295              	.LBB417:
 366:../../lpc_chip_11cxx_lib/inc/ssp_11xx.h **** 	return (uint16_t) (SSP_DR_BITMASK(pSSP->DR));
 1296              		.loc 2 366 0
 1297 0018 8368     		ldr	r3, [r0, #8]	@ D.6899, pSSP_4(D)->DR
 1298              	.LBE417:
 1299              	.LBE416:
 1300              	.LBB418:
 1301              	.LBB415:
 284:../../lpc_chip_11cxx_lib/inc/ssp_11xx.h **** 	return (pSSP->SR & Stat) ? SET : RESET;
 1302              		.loc 2 284 0
 1303 001a C368     		ldr	r3, [r0, #12]	@ D.6899, pSSP_4(D)->SR
 1304 001c 9B08     		lsr	r3, r3, #2	@ tmp152, D.6899,
 1305              	.LBE415:
 1306              	.LBE418:
 1307              		.loc 1 376 0
 1308 001e 1A42     		tst	r2, r3	@ tmp161, tmp152
 1309 0020 FAD1     		bne	.L159	@,
 1310              	.LVL113:
 1311              	.L149:
 1312              	.LBB419:
 1313              	.LBB420:
 336:../../lpc_chip_11cxx_lib/inc/ssp_11xx.h **** 	pSSP->ICR = IntClear;
 1314              		.loc 2 336 0
 1315 0022 0323     		mov	r3, #3	@ tmp160,
 1316 0024 0362     		str	r3, [r0, #32]	@ tmp160, pSSP_4(D)->ICR
 1317              	.LBE420:
 1318              	.LBE419:
 377:../../lpc_chip_11cxx_lib/src/ssp_11xx.c **** 		Chip_SSP_ReceiveFrame(pSSP);
 378:../../lpc_chip_11cxx_lib/src/ssp_11xx.c **** 	}
 379:../../lpc_chip_11cxx_lib/src/ssp_11xx.c **** 
 380:../../lpc_chip_11cxx_lib/src/ssp_11xx.c **** 	/* Clear status */
 381:../../lpc_chip_11cxx_lib/src/ssp_11xx.c **** 	Chip_SSP_ClearIntPending(pSSP, SSP_INT_CLEAR_BITMASK);
 382:../../lpc_chip_11cxx_lib/src/ssp_11xx.c **** }
 1319              		.loc 1 382 0
 1320              		@ sp needed	@
 1321 0026 7047     		bx	lr
 1322              		.cfi_endproc
 1323              	.LFE210:
 1324              		.size	Chip_SSP_Int_FlushData, .-Chip_SSP_Int_FlushData
 1325              		.section	.text.Chip_SSP_Int_RWFrames8Bits,"ax",%progbits
 1326              		.align	2
ARM GAS  /var/folders/f9/8bk2lnw15zn4cbgn6wrnb4lm0000gn/T//ccCGlkPS.s 			page 40


 1327              		.global	Chip_SSP_Int_RWFrames8Bits
 1328              		.code	16
 1329              		.thumb_func
 1330              		.type	Chip_SSP_Int_RWFrames8Bits, %function
 1331              	Chip_SSP_Int_RWFrames8Bits:
 1332              	.LFB211:
 383:../../lpc_chip_11cxx_lib/src/ssp_11xx.c **** 
 384:../../lpc_chip_11cxx_lib/src/ssp_11xx.c **** /* SSP Interrupt Read/Write with 8-bit frame width */
 385:../../lpc_chip_11cxx_lib/src/ssp_11xx.c **** Status Chip_SSP_Int_RWFrames8Bits(LPC_SSP_T *pSSP, Chip_SSP_DATA_SETUP_T *xf_setup)
 386:../../lpc_chip_11cxx_lib/src/ssp_11xx.c **** {
 1333              		.loc 1 386 0
 1334              		.cfi_startproc
 1335              	.LVL114:
 1336 0000 F8B5     		push	{r3, r4, r5, r6, r7, lr}	@
 1337              		.cfi_def_cfa_offset 24
 1338              		.cfi_offset 3, -24
 1339              		.cfi_offset 4, -20
 1340              		.cfi_offset 5, -16
 1341              		.cfi_offset 6, -12
 1342              		.cfi_offset 7, -8
 1343              		.cfi_offset 14, -4
 1344              	.LBB421:
 1345              	.LBB422:
 311:../../lpc_chip_11cxx_lib/inc/ssp_11xx.h **** 	return (pSSP->RIS & RawInt) ? SET : RESET;
 1346              		.loc 2 311 0
 1347 0002 8369     		ldr	r3, [r0, #24]	@ D.6905, pSSP_5(D)->RIS
 1348              	.LBE422:
 1349              	.LBE421:
 1350              		.loc 1 386 0
 1351 0004 051C     		mov	r5, r0	@ pSSP, pSSP
 1352 0006 0C1C     		mov	r4, r1	@ xf_setup, xf_setup
 387:../../lpc_chip_11cxx_lib/src/ssp_11xx.c **** 	/* Check overrun error in RIS register */
 388:../../lpc_chip_11cxx_lib/src/ssp_11xx.c **** 	if (Chip_SSP_GetRawIntStatus(pSSP, SSP_RORRIS) == SET) {
 1353              		.loc 1 388 0
 1354 0008 DA07     		lsl	r2, r3, #31	@, D.6905,
 1355 000a 2FD4     		bmi	.L164	@,
 389:../../lpc_chip_11cxx_lib/src/ssp_11xx.c **** 		return ERROR;
 390:../../lpc_chip_11cxx_lib/src/ssp_11xx.c **** 	}
 391:../../lpc_chip_11cxx_lib/src/ssp_11xx.c **** 
 392:../../lpc_chip_11cxx_lib/src/ssp_11xx.c **** 	if ((xf_setup->tx_cnt != xf_setup->length) || (xf_setup->rx_cnt != xf_setup->length)) {
 1356              		.loc 1 392 0
 1357 000c 4B68     		ldr	r3, [r1, #4]	@ D.6905, xf_setup_7(D)->tx_cnt
 1358 000e 0A69     		ldr	r2, [r1, #16]	@, xf_setup_7(D)->length
 1359 0010 9342     		cmp	r3, r2	@ D.6905,
 1360 0012 2DD0     		beq	.L176	@,
 1361              	.L163:
 393:../../lpc_chip_11cxx_lib/src/ssp_11xx.c **** 		/* check if RX FIFO contains data */
 394:../../lpc_chip_11cxx_lib/src/ssp_11xx.c **** 		SSP_Read1BFifo(pSSP, xf_setup);
 1362              		.loc 1 394 0
 1363 0014 281C     		mov	r0, r5	@, pSSP
 1364              	.LVL115:
 1365 0016 211C     		mov	r1, r4	@, xf_setup
 1366              	.LVL116:
 1367 0018 FFF7FEFF 		bl	SSP_Read1BFifo	@
 1368              	.LVL117:
 1369              	.LBB423:
 1370              	.LBB424:
ARM GAS  /var/folders/f9/8bk2lnw15zn4cbgn6wrnb4lm0000gn/T//ccCGlkPS.s 			page 41


 284:../../lpc_chip_11cxx_lib/inc/ssp_11xx.h **** 	return (pSSP->SR & Stat) ? SET : RESET;
 1371              		.loc 2 284 0
 1372 001c EB68     		ldr	r3, [r5, #12]	@ D.6905, pSSP_5(D)->SR
 1373              	.LBE424:
 1374              	.LBE423:
 395:../../lpc_chip_11cxx_lib/src/ssp_11xx.c **** 
 396:../../lpc_chip_11cxx_lib/src/ssp_11xx.c **** 		while ((Chip_SSP_GetStatus(pSSP, SSP_STAT_TNF)) && (xf_setup->tx_cnt != xf_setup->length)) {
 1375              		.loc 1 396 0
 1376 001e 9A07     		lsl	r2, r3, #30	@, D.6905,
 1377 0020 2AD5     		bpl	.L166	@,
 1378 0022 6368     		ldr	r3, [r4, #4]	@ D.6905, xf_setup_7(D)->tx_cnt
 1379 0024 2269     		ldr	r2, [r4, #16]	@, xf_setup_7(D)->length
 1380 0026 9342     		cmp	r3, r2	@ D.6905,
 1381 0028 26D0     		beq	.L166	@,
 1382              	.LBB426:
 1383              	.LBB427:
 1384              	.LBB428:
 1385              	.LBB429:
 1386              		.loc 2 377 0
 1387 002a FF27     		mov	r7, #255	@ tmp172,
 1388              	.LBE429:
 1389              	.LBE428:
 1390              	.LBE427:
 1391              	.LBE426:
 1392              	.LBB436:
 1393              	.LBB437:
 311:../../lpc_chip_11cxx_lib/inc/ssp_11xx.h **** 	return (pSSP->RIS & RawInt) ? SET : RESET;
 1394              		.loc 2 311 0
 1395 002c 0126     		mov	r6, #1	@ tmp173,
 1396 002e 13E0     		b	.L169	@
 1397              	.LVL118:
 1398              	.L177:
 1399              	.LBE437:
 1400              	.LBE436:
 1401              	.LBB440:
 1402              	.LBB434:
 1403              	.LBB431:
 1404              	.LBB432:
 1405              		.loc 2 377 0
 1406 0030 D35C     		ldrb	r3, [r2, r3]	@ D.6905, *_25
 1407              	.LVL119:
 1408 0032 AB60     		str	r3, [r5, #8]	@ D.6905, pSSP_5(D)->DR
 1409              	.LBE432:
 1410              	.LBE431:
  69:../../lpc_chip_11cxx_lib/src/ssp_11xx.c **** 	xf_setup->tx_cnt++;
 1411              		.loc 1 69 0
 1412 0034 6368     		ldr	r3, [r4, #4]	@ D.6905, MEM[(uint32_t *)xf_setup_7(D) + 4B]
 1413              	.LVL120:
 1414 0036 0133     		add	r3, r3, #1	@ D.6905,
 1415 0038 6360     		str	r3, [r4, #4]	@ D.6905, MEM[(uint32_t *)xf_setup_7(D) + 4B]
 1416              	.LVL121:
 1417              	.LBE434:
 1418              	.LBE440:
 1419              	.LBB441:
 1420              	.LBB438:
 311:../../lpc_chip_11cxx_lib/inc/ssp_11xx.h **** 	return (pSSP->RIS & RawInt) ? SET : RESET;
 1421              		.loc 2 311 0
ARM GAS  /var/folders/f9/8bk2lnw15zn4cbgn6wrnb4lm0000gn/T//ccCGlkPS.s 			page 42


 1422 003a AB69     		ldr	r3, [r5, #24]	@ D.6905, pSSP_5(D)->RIS
 1423              	.LBE438:
 1424              	.LBE441:
 397:../../lpc_chip_11cxx_lib/src/ssp_11xx.c **** 			/* Write data to buffer */
 398:../../lpc_chip_11cxx_lib/src/ssp_11xx.c **** 			SSP_Write1BFifo(pSSP, xf_setup);
 399:../../lpc_chip_11cxx_lib/src/ssp_11xx.c **** 
 400:../../lpc_chip_11cxx_lib/src/ssp_11xx.c **** 			/* Check overrun error in RIS register */
 401:../../lpc_chip_11cxx_lib/src/ssp_11xx.c **** 			if (Chip_SSP_GetRawIntStatus(pSSP, SSP_RORRIS) == SET) {
 1425              		.loc 1 401 0
 1426 003c 1E42     		tst	r6, r3	@ tmp173, D.6905
 1427 003e 15D1     		bne	.L164	@,
 1428              	.LVL122:
 1429              	.L178:
 402:../../lpc_chip_11cxx_lib/src/ssp_11xx.c **** 				return ERROR;
 403:../../lpc_chip_11cxx_lib/src/ssp_11xx.c **** 			}
 404:../../lpc_chip_11cxx_lib/src/ssp_11xx.c **** 
 405:../../lpc_chip_11cxx_lib/src/ssp_11xx.c **** 			/*  Check for any data available in RX FIFO */
 406:../../lpc_chip_11cxx_lib/src/ssp_11xx.c **** 			SSP_Read1BFifo(pSSP, xf_setup);
 1430              		.loc 1 406 0
 1431 0040 281C     		mov	r0, r5	@, pSSP
 1432 0042 211C     		mov	r1, r4	@, xf_setup
 1433 0044 FFF7FEFF 		bl	SSP_Read1BFifo	@
 1434              	.LVL123:
 1435              	.LBB442:
 1436              	.LBB425:
 284:../../lpc_chip_11cxx_lib/inc/ssp_11xx.h **** 	return (pSSP->SR & Stat) ? SET : RESET;
 1437              		.loc 2 284 0
 1438 0048 EB68     		ldr	r3, [r5, #12]	@ D.6905, pSSP_5(D)->SR
 1439 004a 5B08     		lsr	r3, r3, #1	@ tmp162, D.6905,
 1440              	.LBE425:
 1441              	.LBE442:
 396:../../lpc_chip_11cxx_lib/src/ssp_11xx.c **** 		while ((Chip_SSP_GetStatus(pSSP, SSP_STAT_TNF)) && (xf_setup->tx_cnt != xf_setup->length)) {
 1442              		.loc 1 396 0
 1443 004c 1E42     		tst	r6, r3	@ tmp173, tmp162
 1444 004e 13D0     		beq	.L166	@,
 396:../../lpc_chip_11cxx_lib/src/ssp_11xx.c **** 		while ((Chip_SSP_GetStatus(pSSP, SSP_STAT_TNF)) && (xf_setup->tx_cnt != xf_setup->length)) {
 1445              		.loc 1 396 0 is_stmt 0 discriminator 2
 1446 0050 6368     		ldr	r3, [r4, #4]	@ D.6905, xf_setup_7(D)->tx_cnt
 1447 0052 2269     		ldr	r2, [r4, #16]	@, xf_setup_7(D)->length
 1448 0054 9342     		cmp	r3, r2	@ D.6905,
 1449 0056 0FD0     		beq	.L166	@,
 1450              	.LVL124:
 1451              	.L169:
 385:../../lpc_chip_11cxx_lib/src/ssp_11xx.c **** Status Chip_SSP_Int_RWFrames8Bits(LPC_SSP_T *pSSP, Chip_SSP_DATA_SETUP_T *xf_setup)
 1452              		.loc 1 385 0 is_stmt 1
 1453 0058 2268     		ldr	r2, [r4]	@ D.6906, MEM[(struct Chip_SSP_DATA_SETUP_T *)xf_setup_7(D)]
 1454              	.LVL125:
 1455              	.LBB443:
 1456              	.LBB435:
  62:../../lpc_chip_11cxx_lib/src/ssp_11xx.c **** 	if (xf_setup->tx_data) {
 1457              		.loc 1 62 0
 1458 005a 002A     		cmp	r2, #0	@ D.6906,
 1459 005c E8D1     		bne	.L177	@,
 1460              	.LVL126:
 1461              	.LBB433:
 1462              	.LBB430:
 1463              		.loc 2 377 0
ARM GAS  /var/folders/f9/8bk2lnw15zn4cbgn6wrnb4lm0000gn/T//ccCGlkPS.s 			page 43


 1464 005e AF60     		str	r7, [r5, #8]	@ tmp172, pSSP_5(D)->DR
 1465              	.LBE430:
 1466              	.LBE433:
  69:../../lpc_chip_11cxx_lib/src/ssp_11xx.c **** 	xf_setup->tx_cnt++;
 1467              		.loc 1 69 0
 1468 0060 6368     		ldr	r3, [r4, #4]	@ D.6905, MEM[(uint32_t *)xf_setup_7(D) + 4B]
 1469 0062 0133     		add	r3, r3, #1	@ D.6905,
 1470 0064 6360     		str	r3, [r4, #4]	@ D.6905, MEM[(uint32_t *)xf_setup_7(D) + 4B]
 1471              	.LVL127:
 1472              	.LBE435:
 1473              	.LBE443:
 1474              	.LBB444:
 1475              	.LBB439:
 311:../../lpc_chip_11cxx_lib/inc/ssp_11xx.h **** 	return (pSSP->RIS & RawInt) ? SET : RESET;
 1476              		.loc 2 311 0
 1477 0066 AB69     		ldr	r3, [r5, #24]	@ D.6905, pSSP_5(D)->RIS
 1478              	.LBE439:
 1479              	.LBE444:
 401:../../lpc_chip_11cxx_lib/src/ssp_11xx.c **** 			if (Chip_SSP_GetRawIntStatus(pSSP, SSP_RORRIS) == SET) {
 1480              		.loc 1 401 0
 1481 0068 1E42     		tst	r6, r3	@ tmp173, D.6905
 1482 006a E9D0     		beq	.L178	@,
 1483              	.LVL128:
 1484              	.L164:
 389:../../lpc_chip_11cxx_lib/src/ssp_11xx.c **** 		return ERROR;
 1485              		.loc 1 389 0
 1486 006c 0020     		mov	r0, #0	@ D.6904,
 1487              	.L162:
 407:../../lpc_chip_11cxx_lib/src/ssp_11xx.c **** 		}
 408:../../lpc_chip_11cxx_lib/src/ssp_11xx.c **** 
 409:../../lpc_chip_11cxx_lib/src/ssp_11xx.c **** 		return SUCCESS;
 410:../../lpc_chip_11cxx_lib/src/ssp_11xx.c **** 	}
 411:../../lpc_chip_11cxx_lib/src/ssp_11xx.c **** 
 412:../../lpc_chip_11cxx_lib/src/ssp_11xx.c **** 	return ERROR;
 413:../../lpc_chip_11cxx_lib/src/ssp_11xx.c **** }
 1488              		.loc 1 413 0
 1489              		@ sp needed	@
 1490              	.LVL129:
 1491              	.LVL130:
 1492 006e F8BD     		pop	{r3, r4, r5, r6, r7, pc}
 1493              	.LVL131:
 1494              	.L176:
 392:../../lpc_chip_11cxx_lib/src/ssp_11xx.c **** 	if ((xf_setup->tx_cnt != xf_setup->length) || (xf_setup->rx_cnt != xf_setup->length)) {
 1495              		.loc 1 392 0 discriminator 1
 1496 0070 CA68     		ldr	r2, [r1, #12]	@, xf_setup_7(D)->rx_cnt
 1497 0072 9342     		cmp	r3, r2	@ D.6905,
 1498 0074 CED1     		bne	.L163	@,
 1499 0076 F9E7     		b	.L164	@
 1500              	.LVL132:
 1501              	.L166:
 409:../../lpc_chip_11cxx_lib/src/ssp_11xx.c **** 		return SUCCESS;
 1502              		.loc 1 409 0
 1503 0078 0120     		mov	r0, #1	@ D.6904,
 1504 007a F8E7     		b	.L162	@
 1505              		.cfi_endproc
 1506              	.LFE211:
 1507              		.size	Chip_SSP_Int_RWFrames8Bits, .-Chip_SSP_Int_RWFrames8Bits
ARM GAS  /var/folders/f9/8bk2lnw15zn4cbgn6wrnb4lm0000gn/T//ccCGlkPS.s 			page 44


 1508              		.section	.text.Chip_SSP_Int_RWFrames16Bits,"ax",%progbits
 1509              		.align	2
 1510              		.global	Chip_SSP_Int_RWFrames16Bits
 1511              		.code	16
 1512              		.thumb_func
 1513              		.type	Chip_SSP_Int_RWFrames16Bits, %function
 1514              	Chip_SSP_Int_RWFrames16Bits:
 1515              	.LFB212:
 414:../../lpc_chip_11cxx_lib/src/ssp_11xx.c **** 
 415:../../lpc_chip_11cxx_lib/src/ssp_11xx.c **** /* SSP Interrupt Read/Write with 16-bit frame width */
 416:../../lpc_chip_11cxx_lib/src/ssp_11xx.c **** Status Chip_SSP_Int_RWFrames16Bits(LPC_SSP_T *pSSP, Chip_SSP_DATA_SETUP_T *xf_setup)
 417:../../lpc_chip_11cxx_lib/src/ssp_11xx.c **** {
 1516              		.loc 1 417 0
 1517              		.cfi_startproc
 1518              	.LVL133:
 1519              	.LBB445:
 1520              	.LBB446:
 311:../../lpc_chip_11cxx_lib/inc/ssp_11xx.h **** 	return (pSSP->RIS & RawInt) ? SET : RESET;
 1521              		.loc 2 311 0
 1522 0000 8369     		ldr	r3, [r0, #24]	@ D.6927, pSSP_5(D)->RIS
 1523              	.LBE446:
 1524              	.LBE445:
 1525              		.loc 1 417 0
 1526 0002 F0B5     		push	{r4, r5, r6, r7, lr}	@
 1527              		.cfi_def_cfa_offset 20
 1528              		.cfi_offset 4, -20
 1529              		.cfi_offset 5, -16
 1530              		.cfi_offset 6, -12
 1531              		.cfi_offset 7, -8
 1532              		.cfi_offset 14, -4
 418:../../lpc_chip_11cxx_lib/src/ssp_11xx.c **** 	/* Check overrun error in RIS register */
 419:../../lpc_chip_11cxx_lib/src/ssp_11xx.c **** 	if (Chip_SSP_GetRawIntStatus(pSSP, SSP_RORRIS) == SET) {
 1533              		.loc 1 419 0
 1534 0004 DA07     		lsl	r2, r3, #31	@, D.6927,
 1535 0006 50D4     		bmi	.L183	@,
 420:../../lpc_chip_11cxx_lib/src/ssp_11xx.c **** 		return ERROR;
 421:../../lpc_chip_11cxx_lib/src/ssp_11xx.c **** 	}
 422:../../lpc_chip_11cxx_lib/src/ssp_11xx.c **** 
 423:../../lpc_chip_11cxx_lib/src/ssp_11xx.c **** 	if ((xf_setup->tx_cnt != xf_setup->length) || (xf_setup->rx_cnt != xf_setup->length)) {
 1536              		.loc 1 423 0
 1537 0008 0E69     		ldr	r6, [r1, #16]	@ D.6927, xf_setup_7(D)->length
 1538 000a 4B68     		ldr	r3, [r1, #4]	@, xf_setup_7(D)->tx_cnt
 1539 000c B342     		cmp	r3, r6	@, D.6927
 1540 000e 4ED0     		beq	.L213	@,
 1541              	.L182:
 1542              	.LVL134:
 1543              	.LBB447:
 1544              	.LBB448:
 1545              	.LBB449:
 1546              	.LBB450:
 284:../../lpc_chip_11cxx_lib/inc/ssp_11xx.h **** 	return (pSSP->SR & Stat) ? SET : RESET;
 1547              		.loc 2 284 0
 1548 0010 C368     		ldr	r3, [r0, #12]	@ D.6927, pSSP_5(D)->SR
 1549              	.LBE450:
 1550              	.LBE449:
  77:../../lpc_chip_11cxx_lib/src/ssp_11xx.c **** 	while ((Chip_SSP_GetStatus(pSSP, SSP_STAT_RNE) == SET) &&
 1551              		.loc 1 77 0
ARM GAS  /var/folders/f9/8bk2lnw15zn4cbgn6wrnb4lm0000gn/T//ccCGlkPS.s 			page 45


 1552 0012 5A07     		lsl	r2, r3, #29	@, D.6927,
 1553 0014 12D5     		bpl	.L185	@,
  78:../../lpc_chip_11cxx_lib/src/ssp_11xx.c **** 		   (xf_setup->rx_cnt < xf_setup->length)) {
 1554              		.loc 1 78 0
 1555 0016 CB68     		ldr	r3, [r1, #12]	@ D.6927, xf_setup_7(D)->rx_cnt
  77:../../lpc_chip_11cxx_lib/src/ssp_11xx.c **** 	while ((Chip_SSP_GetStatus(pSSP, SSP_STAT_RNE) == SET) &&
 1556              		.loc 1 77 0
 1557 0018 9E42     		cmp	r6, r3	@ D.6927, D.6927
 1558 001a 0FD9     		bls	.L185	@,
 1559 001c 8C68     		ldr	r4, [r1, #8]	@ D.6928, xf_setup_7(D)->rx_data
 1560              	.LBB454:
 1561              	.LBB451:
 284:../../lpc_chip_11cxx_lib/inc/ssp_11xx.h **** 	return (pSSP->SR & Stat) ? SET : RESET;
 1562              		.loc 2 284 0
 1563 001e 0125     		mov	r5, #1	@ tmp218,
 1564 0020 01E0     		b	.L191	@
 1565              	.LVL135:
 1566              	.L188:
 1567              	.LBE451:
 1568              	.LBE454:
  77:../../lpc_chip_11cxx_lib/src/ssp_11xx.c **** 	while ((Chip_SSP_GetStatus(pSSP, SSP_STAT_RNE) == SET) &&
 1569              		.loc 1 77 0
 1570 0022 9E42     		cmp	r6, r3	@ D.6927, D.6927
 1571 0024 09D9     		bls	.L210	@,
 1572              	.LVL136:
 1573              	.L191:
 1574              	.LBB455:
 1575              	.LBB456:
 366:../../lpc_chip_11cxx_lib/inc/ssp_11xx.h **** 	return (uint16_t) (SSP_DR_BITMASK(pSSP->DR));
 1576              		.loc 2 366 0
 1577 0026 8268     		ldr	r2, [r0, #8]	@ D.6927, pSSP_5(D)->DR
 1578 0028 92B2     		uxth	r2, r2	@ D.6930, D.6927
 1579              	.LBE456:
 1580              	.LBE455:
  80:../../lpc_chip_11cxx_lib/src/ssp_11xx.c **** 		if (xf_setup->rx_data) {
 1581              		.loc 1 80 0
 1582 002a 002C     		cmp	r4, #0	@ D.6928,
 1583 002c 00D0     		beq	.L187	@,
  81:../../lpc_chip_11cxx_lib/src/ssp_11xx.c **** 			*(uint16_t *) ((uint32_t) xf_setup->rx_data + xf_setup->rx_cnt) = rDat;
 1584              		.loc 1 81 0
 1585 002e E252     		strh	r2, [r4, r3]	@ D.6930, MEM[base: _23, index: _91, offset: 0B]
 1586              	.L187:
 1587              	.LBB457:
 1588              	.LBB452:
 284:../../lpc_chip_11cxx_lib/inc/ssp_11xx.h **** 	return (pSSP->SR & Stat) ? SET : RESET;
 1589              		.loc 2 284 0
 1590 0030 C268     		ldr	r2, [r0, #12]	@ D.6927, pSSP_5(D)->SR
 1591              	.LBE452:
 1592              	.LBE457:
  84:../../lpc_chip_11cxx_lib/src/ssp_11xx.c **** 		xf_setup->rx_cnt += 2;
 1593              		.loc 1 84 0
 1594 0032 0233     		add	r3, r3, #2	@ D.6927,
 1595              	.LBB458:
 1596              	.LBB453:
 284:../../lpc_chip_11cxx_lib/inc/ssp_11xx.h **** 	return (pSSP->SR & Stat) ? SET : RESET;
 1597              		.loc 2 284 0
 1598 0034 9208     		lsr	r2, r2, #2	@ tmp184, D.6927,
ARM GAS  /var/folders/f9/8bk2lnw15zn4cbgn6wrnb4lm0000gn/T//ccCGlkPS.s 			page 46


 1599              	.LBE453:
 1600              	.LBE458:
  77:../../lpc_chip_11cxx_lib/src/ssp_11xx.c **** 	while ((Chip_SSP_GetStatus(pSSP, SSP_STAT_RNE) == SET) &&
 1601              		.loc 1 77 0
 1602 0036 1542     		tst	r5, r2	@ tmp218, tmp184
 1603 0038 F3D1     		bne	.L188	@,
 1604              	.L210:
 1605 003a CB60     		str	r3, [r1, #12]	@ D.6927, xf_setup_7(D)->rx_cnt
 1606              	.LVL137:
 1607              	.L185:
 1608              	.LBE448:
 1609              	.LBE447:
 1610              	.LBB459:
 1611              	.LBB460:
 1612              	.LBB461:
 1613              	.LBB462:
 1614              		.loc 2 377 0
 1615 003c 1E4F     		ldr	r7, .L215	@ tmp217,
 1616              	.LBE462:
 1617              	.LBE461:
 1618              	.LBE460:
 1619              	.LBE459:
 1620              	.LBB469:
 1621              	.LBB470:
 284:../../lpc_chip_11cxx_lib/inc/ssp_11xx.h **** 	return (pSSP->SR & Stat) ? SET : RESET;
 1622              		.loc 2 284 0
 1623 003e 0125     		mov	r5, #1	@ tmp216,
 1624              	.L190:
 1625              	.LVL138:
 1626 0040 C368     		ldr	r3, [r0, #12]	@ D.6927, pSSP_5(D)->SR
 1627 0042 5B08     		lsr	r3, r3, #1	@ tmp175, D.6927,
 1628              	.LBE470:
 1629              	.LBE469:
 424:../../lpc_chip_11cxx_lib/src/ssp_11xx.c **** 		/* check if RX FIFO contains data */
 425:../../lpc_chip_11cxx_lib/src/ssp_11xx.c **** 		SSP_Read2BFifo(pSSP, xf_setup);
 426:../../lpc_chip_11cxx_lib/src/ssp_11xx.c **** 
 427:../../lpc_chip_11cxx_lib/src/ssp_11xx.c **** 		while ((Chip_SSP_GetStatus(pSSP, SSP_STAT_TNF)) && (xf_setup->tx_cnt != xf_setup->length)) {
 1630              		.loc 1 427 0
 1631 0044 1D42     		tst	r5, r3	@ tmp216, tmp175
 1632 0046 27D0     		beq	.L211	@,
 1633              	.L186:
 1634              		.loc 1 427 0 is_stmt 0 discriminator 2
 1635 0048 4B68     		ldr	r3, [r1, #4]	@ D.6927, xf_setup_7(D)->tx_cnt
 1636 004a 9E42     		cmp	r6, r3	@ D.6927, D.6927
 1637 004c 24D0     		beq	.L211	@,
 416:../../lpc_chip_11cxx_lib/src/ssp_11xx.c **** Status Chip_SSP_Int_RWFrames16Bits(LPC_SSP_T *pSSP, Chip_SSP_DATA_SETUP_T *xf_setup)
 1638              		.loc 1 416 0 is_stmt 1
 1639 004e 0A68     		ldr	r2, [r1]	@ D.6928, MEM[(struct Chip_SSP_DATA_SETUP_T *)xf_setup_7(D)]
 1640              	.LVL139:
 1641              	.LBB472:
 1642              	.LBB467:
  48:../../lpc_chip_11cxx_lib/src/ssp_11xx.c **** 	if (xf_setup->tx_data) {
 1643              		.loc 1 48 0
 1644 0050 002A     		cmp	r2, #0	@ D.6928,
 1645 0052 23D0     		beq	.L192	@,
 1646              	.LVL140:
 1647              	.LBB464:
ARM GAS  /var/folders/f9/8bk2lnw15zn4cbgn6wrnb4lm0000gn/T//ccCGlkPS.s 			page 47


 1648              	.LBB465:
 1649              		.loc 2 377 0
 1650 0054 D35A     		ldrh	r3, [r2, r3]	@ D.6927, *_39
 1651              	.LVL141:
 1652 0056 8360     		str	r3, [r0, #8]	@ D.6927, pSSP_5(D)->DR
 1653              	.LVL142:
 1654              	.LBE465:
 1655              	.LBE464:
  56:../../lpc_chip_11cxx_lib/src/ssp_11xx.c **** 	xf_setup->tx_cnt += 2;
 1656              		.loc 1 56 0
 1657 0058 4B68     		ldr	r3, [r1, #4]	@ D.6927, MEM[(uint32_t *)xf_setup_7(D) + 4B]
 1658              	.LVL143:
 1659 005a 0233     		add	r3, r3, #2	@ D.6927,
 1660 005c 4B60     		str	r3, [r1, #4]	@ D.6927, MEM[(uint32_t *)xf_setup_7(D) + 4B]
 1661              	.LVL144:
 1662              	.LBE467:
 1663              	.LBE472:
 1664              	.LBB473:
 1665              	.LBB474:
 311:../../lpc_chip_11cxx_lib/inc/ssp_11xx.h **** 	return (pSSP->RIS & RawInt) ? SET : RESET;
 1666              		.loc 2 311 0
 1667 005e 8369     		ldr	r3, [r0, #24]	@ D.6927, pSSP_5(D)->RIS
 1668              	.LBE474:
 1669              	.LBE473:
 428:../../lpc_chip_11cxx_lib/src/ssp_11xx.c **** 			/* Write data to buffer */
 429:../../lpc_chip_11cxx_lib/src/ssp_11xx.c **** 			SSP_Write2BFifo(pSSP, xf_setup);
 430:../../lpc_chip_11cxx_lib/src/ssp_11xx.c **** 
 431:../../lpc_chip_11cxx_lib/src/ssp_11xx.c **** 			/* Check overrun error in RIS register */
 432:../../lpc_chip_11cxx_lib/src/ssp_11xx.c **** 			if (Chip_SSP_GetRawIntStatus(pSSP, SSP_RORRIS) == SET) {
 1670              		.loc 1 432 0
 1671 0060 1D42     		tst	r5, r3	@ tmp216, D.6927
 1672 0062 22D1     		bne	.L183	@,
 1673              	.LVL145:
 1674              	.L214:
 1675              	.LBB476:
 1676              	.LBB477:
 1677              	.LBB478:
 1678              	.LBB479:
 284:../../lpc_chip_11cxx_lib/inc/ssp_11xx.h **** 	return (pSSP->SR & Stat) ? SET : RESET;
 1679              		.loc 2 284 0
 1680 0064 C368     		ldr	r3, [r0, #12]	@ D.6927, pSSP_5(D)->SR
 1681 0066 9B08     		lsr	r3, r3, #2	@ tmp197, D.6927,
 1682              	.LBE479:
 1683              	.LBE478:
  77:../../lpc_chip_11cxx_lib/src/ssp_11xx.c **** 	while ((Chip_SSP_GetStatus(pSSP, SSP_STAT_RNE) == SET) &&
 1684              		.loc 1 77 0
 1685 0068 1D42     		tst	r5, r3	@ tmp216, tmp197
 1686 006a E9D0     		beq	.L190	@,
  78:../../lpc_chip_11cxx_lib/src/ssp_11xx.c **** 		   (xf_setup->rx_cnt < xf_setup->length)) {
 1687              		.loc 1 78 0
 1688 006c CB68     		ldr	r3, [r1, #12]	@ D.6927, xf_setup_7(D)->rx_cnt
  77:../../lpc_chip_11cxx_lib/src/ssp_11xx.c **** 	while ((Chip_SSP_GetStatus(pSSP, SSP_STAT_RNE) == SET) &&
 1689              		.loc 1 77 0
 1690 006e 9E42     		cmp	r6, r3	@ D.6927, D.6927
 1691 0070 E6D9     		bls	.L190	@,
 1692 0072 8C68     		ldr	r4, [r1, #8]	@ D.6928, xf_setup_7(D)->rx_data
 1693 0074 01E0     		b	.L198	@
ARM GAS  /var/folders/f9/8bk2lnw15zn4cbgn6wrnb4lm0000gn/T//ccCGlkPS.s 			page 48


 1694              	.LVL146:
 1695              	.L196:
 1696 0076 9E42     		cmp	r6, r3	@ D.6927, D.6927
 1697 0078 09D9     		bls	.L209	@,
 1698              	.LVL147:
 1699              	.L198:
 1700              	.LBB482:
 1701              	.LBB483:
 366:../../lpc_chip_11cxx_lib/inc/ssp_11xx.h **** 	return (uint16_t) (SSP_DR_BITMASK(pSSP->DR));
 1702              		.loc 2 366 0
 1703 007a 8268     		ldr	r2, [r0, #8]	@ D.6927, pSSP_5(D)->DR
 1704 007c 92B2     		uxth	r2, r2	@ D.6930, D.6927
 1705              	.LBE483:
 1706              	.LBE482:
  80:../../lpc_chip_11cxx_lib/src/ssp_11xx.c **** 		if (xf_setup->rx_data) {
 1707              		.loc 1 80 0
 1708 007e 002C     		cmp	r4, #0	@ D.6928,
 1709 0080 00D0     		beq	.L195	@,
  81:../../lpc_chip_11cxx_lib/src/ssp_11xx.c **** 			*(uint16_t *) ((uint32_t) xf_setup->rx_data + xf_setup->rx_cnt) = rDat;
 1710              		.loc 1 81 0
 1711 0082 E252     		strh	r2, [r4, r3]	@ D.6930, MEM[base: _15, index: _85, offset: 0B]
 1712              	.L195:
 1713              	.LBB484:
 1714              	.LBB480:
 284:../../lpc_chip_11cxx_lib/inc/ssp_11xx.h **** 	return (pSSP->SR & Stat) ? SET : RESET;
 1715              		.loc 2 284 0
 1716 0084 C268     		ldr	r2, [r0, #12]	@ D.6927, pSSP_5(D)->SR
 1717              	.LBE480:
 1718              	.LBE484:
  84:../../lpc_chip_11cxx_lib/src/ssp_11xx.c **** 		xf_setup->rx_cnt += 2;
 1719              		.loc 1 84 0
 1720 0086 0233     		add	r3, r3, #2	@ D.6927,
 1721              	.LBB485:
 1722              	.LBB481:
 284:../../lpc_chip_11cxx_lib/inc/ssp_11xx.h **** 	return (pSSP->SR & Stat) ? SET : RESET;
 1723              		.loc 2 284 0
 1724 0088 9208     		lsr	r2, r2, #2	@ tmp205, D.6927,
 1725              	.LBE481:
 1726              	.LBE485:
  77:../../lpc_chip_11cxx_lib/src/ssp_11xx.c **** 	while ((Chip_SSP_GetStatus(pSSP, SSP_STAT_RNE) == SET) &&
 1727              		.loc 1 77 0
 1728 008a 1542     		tst	r5, r2	@ tmp216, tmp205
 1729 008c F3D1     		bne	.L196	@,
 1730              	.L209:
 1731 008e CB60     		str	r3, [r1, #12]	@ D.6927, xf_setup_7(D)->rx_cnt
 1732              	.LBE477:
 1733              	.LBE476:
 1734              	.LBB486:
 1735              	.LBB471:
 284:../../lpc_chip_11cxx_lib/inc/ssp_11xx.h **** 	return (pSSP->SR & Stat) ? SET : RESET;
 1736              		.loc 2 284 0
 1737 0090 C368     		ldr	r3, [r0, #12]	@ D.6927, pSSP_5(D)->SR
 1738 0092 5B08     		lsr	r3, r3, #1	@ tmp175, D.6927,
 1739              	.LBE471:
 1740              	.LBE486:
 427:../../lpc_chip_11cxx_lib/src/ssp_11xx.c **** 		while ((Chip_SSP_GetStatus(pSSP, SSP_STAT_TNF)) && (xf_setup->tx_cnt != xf_setup->length)) {
 1741              		.loc 1 427 0
ARM GAS  /var/folders/f9/8bk2lnw15zn4cbgn6wrnb4lm0000gn/T//ccCGlkPS.s 			page 49


 1742 0094 1D42     		tst	r5, r3	@ tmp216, tmp175
 1743 0096 D7D1     		bne	.L186	@,
 1744              	.LVL148:
 1745              	.L211:
 433:../../lpc_chip_11cxx_lib/src/ssp_11xx.c **** 				return ERROR;
 434:../../lpc_chip_11cxx_lib/src/ssp_11xx.c **** 			}
 435:../../lpc_chip_11cxx_lib/src/ssp_11xx.c **** 
 436:../../lpc_chip_11cxx_lib/src/ssp_11xx.c **** 			/*  Check for any data available in RX FIFO			 */
 437:../../lpc_chip_11cxx_lib/src/ssp_11xx.c **** 			SSP_Read2BFifo(pSSP, xf_setup);
 438:../../lpc_chip_11cxx_lib/src/ssp_11xx.c **** 		}
 439:../../lpc_chip_11cxx_lib/src/ssp_11xx.c **** 
 440:../../lpc_chip_11cxx_lib/src/ssp_11xx.c **** 		return SUCCESS;
 1746              		.loc 1 440 0
 1747 0098 0120     		mov	r0, #1	@ D.6926,
 1748              	.LVL149:
 1749              	.L181:
 441:../../lpc_chip_11cxx_lib/src/ssp_11xx.c **** 	}
 442:../../lpc_chip_11cxx_lib/src/ssp_11xx.c **** 
 443:../../lpc_chip_11cxx_lib/src/ssp_11xx.c **** 	return ERROR;
 444:../../lpc_chip_11cxx_lib/src/ssp_11xx.c **** }
 1750              		.loc 1 444 0
 1751              		@ sp needed	@
 1752 009a F0BD     		pop	{r4, r5, r6, r7, pc}
 1753              	.LVL150:
 1754              	.L192:
 1755              	.LBB487:
 1756              	.LBB468:
 1757              	.LBB466:
 1758              	.LBB463:
 1759              		.loc 2 377 0
 1760 009c 8760     		str	r7, [r0, #8]	@ tmp217, pSSP_5(D)->DR
 1761              	.LBE463:
 1762              	.LBE466:
  56:../../lpc_chip_11cxx_lib/src/ssp_11xx.c **** 	xf_setup->tx_cnt += 2;
 1763              		.loc 1 56 0
 1764 009e 4B68     		ldr	r3, [r1, #4]	@ D.6927, MEM[(uint32_t *)xf_setup_7(D) + 4B]
 1765 00a0 0233     		add	r3, r3, #2	@ D.6927,
 1766 00a2 4B60     		str	r3, [r1, #4]	@ D.6927, MEM[(uint32_t *)xf_setup_7(D) + 4B]
 1767              	.LVL151:
 1768              	.LBE468:
 1769              	.LBE487:
 1770              	.LBB488:
 1771              	.LBB475:
 311:../../lpc_chip_11cxx_lib/inc/ssp_11xx.h **** 	return (pSSP->RIS & RawInt) ? SET : RESET;
 1772              		.loc 2 311 0
 1773 00a4 8369     		ldr	r3, [r0, #24]	@ D.6927, pSSP_5(D)->RIS
 1774              	.LBE475:
 1775              	.LBE488:
 432:../../lpc_chip_11cxx_lib/src/ssp_11xx.c **** 			if (Chip_SSP_GetRawIntStatus(pSSP, SSP_RORRIS) == SET) {
 1776              		.loc 1 432 0
 1777 00a6 1D42     		tst	r5, r3	@ tmp216, D.6927
 1778 00a8 DCD0     		beq	.L214	@,
 1779              	.LVL152:
 1780              	.L183:
 420:../../lpc_chip_11cxx_lib/src/ssp_11xx.c **** 		return ERROR;
 1781              		.loc 1 420 0
 1782 00aa 0020     		mov	r0, #0	@ D.6926,
ARM GAS  /var/folders/f9/8bk2lnw15zn4cbgn6wrnb4lm0000gn/T//ccCGlkPS.s 			page 50


 1783              	.LVL153:
 1784 00ac F5E7     		b	.L181	@
 1785              	.LVL154:
 1786              	.L213:
 423:../../lpc_chip_11cxx_lib/src/ssp_11xx.c **** 	if ((xf_setup->tx_cnt != xf_setup->length) || (xf_setup->rx_cnt != xf_setup->length)) {
 1787              		.loc 1 423 0 discriminator 1
 1788 00ae CA68     		ldr	r2, [r1, #12]	@, xf_setup_7(D)->rx_cnt
 1789 00b0 9642     		cmp	r6, r2	@ D.6927,
 1790 00b2 ADD1     		bne	.L182	@,
 420:../../lpc_chip_11cxx_lib/src/ssp_11xx.c **** 		return ERROR;
 1791              		.loc 1 420 0
 1792 00b4 0020     		mov	r0, #0	@ D.6926,
 1793              	.LVL155:
 1794 00b6 F0E7     		b	.L181	@
 1795              	.L216:
 1796              		.align	2
 1797              	.L215:
 1798 00b8 FFFF0000 		.word	65535
 1799              		.cfi_endproc
 1800              	.LFE212:
 1801              		.size	Chip_SSP_Int_RWFrames16Bits, .-Chip_SSP_Int_RWFrames16Bits
 1802              		.section	.text.Chip_SSP_SetMaster,"ax",%progbits
 1803              		.align	2
 1804              		.global	Chip_SSP_SetMaster
 1805              		.code	16
 1806              		.thumb_func
 1807              		.type	Chip_SSP_SetMaster, %function
 1808              	Chip_SSP_SetMaster:
 1809              	.LFB213:
 445:../../lpc_chip_11cxx_lib/src/ssp_11xx.c **** 
 446:../../lpc_chip_11cxx_lib/src/ssp_11xx.c **** /* Set the SSP operating modes, master or slave */
 447:../../lpc_chip_11cxx_lib/src/ssp_11xx.c **** void Chip_SSP_SetMaster(LPC_SSP_T *pSSP, bool master)
 448:../../lpc_chip_11cxx_lib/src/ssp_11xx.c **** {
 1810              		.loc 1 448 0
 1811              		.cfi_startproc
 1812              	.LVL156:
 449:../../lpc_chip_11cxx_lib/src/ssp_11xx.c **** 	if (master) {
 1813              		.loc 1 449 0
 1814 0000 0029     		cmp	r1, #0	@ master,
 1815 0002 04D1     		bne	.L220	@,
 1816              	.LVL157:
 1817              	.LBB489:
 1818              	.LBB490:
 378:../../lpc_chip_11cxx_lib/inc/ssp_11xx.h **** }
 379:../../lpc_chip_11cxx_lib/inc/ssp_11xx.h **** 
 380:../../lpc_chip_11cxx_lib/inc/ssp_11xx.h **** /**
 381:../../lpc_chip_11cxx_lib/inc/ssp_11xx.h ****  * @brief	Set up output clocks per bit for SSP bus
 382:../../lpc_chip_11cxx_lib/inc/ssp_11xx.h ****  * @param	pSSP		: The base of SSP peripheral on the chip
 383:../../lpc_chip_11cxx_lib/inc/ssp_11xx.h ****  * @param	clk_rate	fs: The number of prescaler-output clocks per bit on the bus, minus one
 384:../../lpc_chip_11cxx_lib/inc/ssp_11xx.h ****  * @param	prescale	: The factor by which the Prescaler divides the SSP peripheral clock PCLK
 385:../../lpc_chip_11cxx_lib/inc/ssp_11xx.h ****  * @return	 Nothing
 386:../../lpc_chip_11cxx_lib/inc/ssp_11xx.h ****  * @note	The bit frequency is PCLK / (prescale x[clk_rate+1])
 387:../../lpc_chip_11cxx_lib/inc/ssp_11xx.h ****  */
 388:../../lpc_chip_11cxx_lib/inc/ssp_11xx.h **** void Chip_SSP_SetClockRate(LPC_SSP_T *pSSP, uint32_t clk_rate, uint32_t prescale);
 389:../../lpc_chip_11cxx_lib/inc/ssp_11xx.h **** 
 390:../../lpc_chip_11cxx_lib/inc/ssp_11xx.h **** /**
 391:../../lpc_chip_11cxx_lib/inc/ssp_11xx.h ****  * @brief	Set up the SSP frame format
ARM GAS  /var/folders/f9/8bk2lnw15zn4cbgn6wrnb4lm0000gn/T//ccCGlkPS.s 			page 51


 392:../../lpc_chip_11cxx_lib/inc/ssp_11xx.h ****  * @param	pSSP		: The base of SSP peripheral on the chip
 393:../../lpc_chip_11cxx_lib/inc/ssp_11xx.h ****  * @param	bits		: The number of bits transferred in each frame, should be SSP_BITS_4 to SSP_BITS_16
 394:../../lpc_chip_11cxx_lib/inc/ssp_11xx.h ****  * @param	frameFormat	: Frame format, should be :
 395:../../lpc_chip_11cxx_lib/inc/ssp_11xx.h ****  *							- SSP_FRAMEFORMAT_SPI
 396:../../lpc_chip_11cxx_lib/inc/ssp_11xx.h ****  *							- SSP_FRAME_FORMAT_TI
 397:../../lpc_chip_11cxx_lib/inc/ssp_11xx.h ****  *							- SSP_FRAMEFORMAT_MICROWIRE
 398:../../lpc_chip_11cxx_lib/inc/ssp_11xx.h ****  * @param	clockMode	: Select Clock polarity and Clock phase, should be :
 399:../../lpc_chip_11cxx_lib/inc/ssp_11xx.h ****  *							- SSP_CLOCK_CPHA0_CPOL0
 400:../../lpc_chip_11cxx_lib/inc/ssp_11xx.h ****  *							- SSP_CLOCK_CPHA0_CPOL1
 401:../../lpc_chip_11cxx_lib/inc/ssp_11xx.h ****  *							- SSP_CLOCK_CPHA1_CPOL0
 402:../../lpc_chip_11cxx_lib/inc/ssp_11xx.h ****  *							- SSP_CLOCK_CPHA1_CPOL1
 403:../../lpc_chip_11cxx_lib/inc/ssp_11xx.h ****  * @return	 Nothing
 404:../../lpc_chip_11cxx_lib/inc/ssp_11xx.h ****  * @note	Note: The clockFormat is only used in SPI mode
 405:../../lpc_chip_11cxx_lib/inc/ssp_11xx.h ****  */
 406:../../lpc_chip_11cxx_lib/inc/ssp_11xx.h **** STATIC INLINE void Chip_SSP_SetFormat(LPC_SSP_T *pSSP, uint32_t bits, uint32_t frameFormat, uint32_
 407:../../lpc_chip_11cxx_lib/inc/ssp_11xx.h **** {
 408:../../lpc_chip_11cxx_lib/inc/ssp_11xx.h **** 	pSSP->CR0 = (pSSP->CR0 & ~0xFF) | bits | frameFormat | clockMode;
 409:../../lpc_chip_11cxx_lib/inc/ssp_11xx.h **** }
 410:../../lpc_chip_11cxx_lib/inc/ssp_11xx.h **** 
 411:../../lpc_chip_11cxx_lib/inc/ssp_11xx.h **** /**
 412:../../lpc_chip_11cxx_lib/inc/ssp_11xx.h ****  * @brief	Set the SSP working as master or slave mode
 413:../../lpc_chip_11cxx_lib/inc/ssp_11xx.h ****  * @param	pSSP	: The base of SSP peripheral on the chip
 414:../../lpc_chip_11cxx_lib/inc/ssp_11xx.h ****  * @param	mode	: Operating mode, should be
 415:../../lpc_chip_11cxx_lib/inc/ssp_11xx.h ****  *						- SSP_MODE_MASTER
 416:../../lpc_chip_11cxx_lib/inc/ssp_11xx.h ****  *						- SSP_MODE_SLAVE
 417:../../lpc_chip_11cxx_lib/inc/ssp_11xx.h ****  * @return	 Nothing
 418:../../lpc_chip_11cxx_lib/inc/ssp_11xx.h ****  */
 419:../../lpc_chip_11cxx_lib/inc/ssp_11xx.h **** STATIC INLINE void Chip_SSP_Set_Mode(LPC_SSP_T *pSSP, uint32_t mode)
 420:../../lpc_chip_11cxx_lib/inc/ssp_11xx.h **** {
 421:../../lpc_chip_11cxx_lib/inc/ssp_11xx.h **** 	pSSP->CR1 = (pSSP->CR1 & ~(1 << 2)) | mode;
 1819              		.loc 2 421 0
 1820 0004 4268     		ldr	r2, [r0, #4]	@ D.6937, pSSP_4(D)->CR1
 1821 0006 0423     		mov	r3, #4	@ D.6937,
 1822 0008 1343     		orr	r3, r2	@ D.6937, D.6937
 1823 000a 4360     		str	r3, [r0, #4]	@ D.6937,
 1824              	.LVL158:
 1825              	.L217:
 1826              	.LBE490:
 1827              	.LBE489:
 450:../../lpc_chip_11cxx_lib/src/ssp_11xx.c **** 		Chip_SSP_Set_Mode(pSSP, SSP_MODE_MASTER);
 451:../../lpc_chip_11cxx_lib/src/ssp_11xx.c **** 	}
 452:../../lpc_chip_11cxx_lib/src/ssp_11xx.c **** 	else {
 453:../../lpc_chip_11cxx_lib/src/ssp_11xx.c **** 		Chip_SSP_Set_Mode(pSSP, SSP_MODE_SLAVE);
 454:../../lpc_chip_11cxx_lib/src/ssp_11xx.c **** 	}
 455:../../lpc_chip_11cxx_lib/src/ssp_11xx.c **** }
 1828              		.loc 1 455 0
 1829              		@ sp needed	@
 1830 000c 7047     		bx	lr
 1831              	.L220:
 1832              	.LVL159:
 1833              	.LBB491:
 1834              	.LBB492:
 1835              		.loc 2 421 0
 1836 000e 4368     		ldr	r3, [r0, #4]	@ D.6937, pSSP_4(D)->CR1
 1837 0010 0422     		mov	r2, #4	@ tmp117,
 1838 0012 9343     		bic	r3, r2	@ D.6937, tmp117
 1839 0014 4360     		str	r3, [r0, #4]	@ D.6937,
ARM GAS  /var/folders/f9/8bk2lnw15zn4cbgn6wrnb4lm0000gn/T//ccCGlkPS.s 			page 52


 1840 0016 F9E7     		b	.L217	@
 1841              	.LBE492:
 1842              	.LBE491:
 1843              		.cfi_endproc
 1844              	.LFE213:
 1845              		.size	Chip_SSP_SetMaster, .-Chip_SSP_SetMaster
 1846              		.global	__aeabi_uidiv
 1847              		.section	.text.Chip_SSP_SetBitRate,"ax",%progbits
 1848              		.align	2
 1849              		.global	Chip_SSP_SetBitRate
 1850              		.code	16
 1851              		.thumb_func
 1852              		.type	Chip_SSP_SetBitRate, %function
 1853              	Chip_SSP_SetBitRate:
 1854              	.LFB214:
 456:../../lpc_chip_11cxx_lib/src/ssp_11xx.c **** 
 457:../../lpc_chip_11cxx_lib/src/ssp_11xx.c **** /* Set the clock frequency for SSP interface */
 458:../../lpc_chip_11cxx_lib/src/ssp_11xx.c **** void Chip_SSP_SetBitRate(LPC_SSP_T *pSSP, uint32_t bitRate)
 459:../../lpc_chip_11cxx_lib/src/ssp_11xx.c **** {
 1855              		.loc 1 459 0
 1856              		.cfi_startproc
 1857              	.LVL160:
 1858 0000 F8B5     		push	{r3, r4, r5, r6, r7, lr}	@
 1859              		.cfi_def_cfa_offset 24
 1860              		.cfi_offset 3, -24
 1861              		.cfi_offset 4, -20
 1862              		.cfi_offset 5, -16
 1863              		.cfi_offset 6, -12
 1864              		.cfi_offset 7, -8
 1865              		.cfi_offset 14, -4
 1866 0002 4F46     		mov	r7, r9	@,
 1867 0004 4646     		mov	r6, r8	@,
 1868 0006 C0B4     		push	{r6, r7}	@
 1869              		.cfi_def_cfa_offset 32
 1870              		.cfi_offset 8, -32
 1871              		.cfi_offset 9, -28
 1872              		.loc 1 459 0
 1873 0008 8146     		mov	r9, r0	@ pSSP, pSSP
 1874              	.LVL161:
 1875 000a 0F1C     		mov	r7, r1	@ bitRate, bitRate
 1876              	.LBB493:
 1877              	.LBB494:
 152:../../lpc_chip_11cxx_lib/src/ssp_11xx.c **** 	uint32_t sspCLK = Chip_Clock_GetMainClockRate();
 1878              		.loc 1 152 0
 1879 000c FFF7FEFF 		bl	Chip_Clock_GetMainClockRate	@
 1880              	.LVL162:
 154:../../lpc_chip_11cxx_lib/src/ssp_11xx.c **** 	if (pSSP == LPC_SSP0) {
 1881              		.loc 1 154 0
 1882 0010 194B     		ldr	r3, .L231	@ tmp126,
 1883 0012 9945     		cmp	r9, r3	@ pSSP, tmp126
 1884 0014 25D0     		beq	.L230	@,
 1885              	.LBB495:
 1886              	.LBB496:
 1887              		.file 3 "../../lpc_chip_11cxx_lib/inc/clock_11xx.h"
   1:../../lpc_chip_11cxx_lib/inc/clock_11xx.h **** /*
   2:../../lpc_chip_11cxx_lib/inc/clock_11xx.h ****  * @brief LPC11XX Clock control functions
   3:../../lpc_chip_11cxx_lib/inc/clock_11xx.h ****  *
ARM GAS  /var/folders/f9/8bk2lnw15zn4cbgn6wrnb4lm0000gn/T//ccCGlkPS.s 			page 53


   4:../../lpc_chip_11cxx_lib/inc/clock_11xx.h ****  * @note
   5:../../lpc_chip_11cxx_lib/inc/clock_11xx.h ****  * Copyright(C) NXP Semiconductors, 2012
   6:../../lpc_chip_11cxx_lib/inc/clock_11xx.h ****  * All rights reserved.
   7:../../lpc_chip_11cxx_lib/inc/clock_11xx.h ****  *
   8:../../lpc_chip_11cxx_lib/inc/clock_11xx.h ****  * @par
   9:../../lpc_chip_11cxx_lib/inc/clock_11xx.h ****  * Software that is described herein is for illustrative purposes only
  10:../../lpc_chip_11cxx_lib/inc/clock_11xx.h ****  * which provides customers with programming information regarding the
  11:../../lpc_chip_11cxx_lib/inc/clock_11xx.h ****  * LPC products.  This software is supplied "AS IS" without any warranties of
  12:../../lpc_chip_11cxx_lib/inc/clock_11xx.h ****  * any kind, and NXP Semiconductors and its licensor disclaim any and
  13:../../lpc_chip_11cxx_lib/inc/clock_11xx.h ****  * all warranties, express or implied, including all implied warranties of
  14:../../lpc_chip_11cxx_lib/inc/clock_11xx.h ****  * merchantability, fitness for a particular purpose and non-infringement of
  15:../../lpc_chip_11cxx_lib/inc/clock_11xx.h ****  * intellectual property rights.  NXP Semiconductors assumes no responsibility
  16:../../lpc_chip_11cxx_lib/inc/clock_11xx.h ****  * or liability for the use of the software, conveys no license or rights under any
  17:../../lpc_chip_11cxx_lib/inc/clock_11xx.h ****  * patent, copyright, mask work right, or any other intellectual property rights in
  18:../../lpc_chip_11cxx_lib/inc/clock_11xx.h ****  * or to any products. NXP Semiconductors reserves the right to make changes
  19:../../lpc_chip_11cxx_lib/inc/clock_11xx.h ****  * in the software without notification. NXP Semiconductors also makes no
  20:../../lpc_chip_11cxx_lib/inc/clock_11xx.h ****  * representation or warranty that such application will be suitable for the
  21:../../lpc_chip_11cxx_lib/inc/clock_11xx.h ****  * specified use without further testing or modification.
  22:../../lpc_chip_11cxx_lib/inc/clock_11xx.h ****  *
  23:../../lpc_chip_11cxx_lib/inc/clock_11xx.h ****  * @par
  24:../../lpc_chip_11cxx_lib/inc/clock_11xx.h ****  * Permission to use, copy, modify, and distribute this software and its
  25:../../lpc_chip_11cxx_lib/inc/clock_11xx.h ****  * documentation is hereby granted, under NXP Semiconductors' and its
  26:../../lpc_chip_11cxx_lib/inc/clock_11xx.h ****  * licensor's relevant copyrights in the software, without fee, provided that it
  27:../../lpc_chip_11cxx_lib/inc/clock_11xx.h ****  * is used in conjunction with NXP Semiconductors microcontrollers.  This
  28:../../lpc_chip_11cxx_lib/inc/clock_11xx.h ****  * copyright, permission, and disclaimer notice must appear in all copies of
  29:../../lpc_chip_11cxx_lib/inc/clock_11xx.h ****  * this code.
  30:../../lpc_chip_11cxx_lib/inc/clock_11xx.h ****  */
  31:../../lpc_chip_11cxx_lib/inc/clock_11xx.h **** 
  32:../../lpc_chip_11cxx_lib/inc/clock_11xx.h **** #ifndef __CLOCK_11XX_H_
  33:../../lpc_chip_11cxx_lib/inc/clock_11xx.h **** #define __CLOCK_11XX_H_
  34:../../lpc_chip_11cxx_lib/inc/clock_11xx.h **** 
  35:../../lpc_chip_11cxx_lib/inc/clock_11xx.h **** #ifdef __cplusplus
  36:../../lpc_chip_11cxx_lib/inc/clock_11xx.h **** extern "C" {
  37:../../lpc_chip_11cxx_lib/inc/clock_11xx.h **** #endif
  38:../../lpc_chip_11cxx_lib/inc/clock_11xx.h **** 
  39:../../lpc_chip_11cxx_lib/inc/clock_11xx.h **** /** @defgroup CLOCK_11XX CHIP: LPC11xx Clock Control block driver
  40:../../lpc_chip_11cxx_lib/inc/clock_11xx.h ****  * @ingroup CHIP_11XX_Drivers
  41:../../lpc_chip_11cxx_lib/inc/clock_11xx.h ****  * @{
  42:../../lpc_chip_11cxx_lib/inc/clock_11xx.h ****  */
  43:../../lpc_chip_11cxx_lib/inc/clock_11xx.h **** 
  44:../../lpc_chip_11cxx_lib/inc/clock_11xx.h **** /** Internal oscillator frequency */
  45:../../lpc_chip_11cxx_lib/inc/clock_11xx.h **** #define SYSCTL_IRC_FREQ (12000000)
  46:../../lpc_chip_11cxx_lib/inc/clock_11xx.h **** 
  47:../../lpc_chip_11cxx_lib/inc/clock_11xx.h **** /**
  48:../../lpc_chip_11cxx_lib/inc/clock_11xx.h ****  * @brief	Set System PLL divider values
  49:../../lpc_chip_11cxx_lib/inc/clock_11xx.h ****  * @param	msel    : PLL feedback divider value. M = msel + 1.
  50:../../lpc_chip_11cxx_lib/inc/clock_11xx.h ****  * @param	psel    : PLL post divider value. P =  (1<<psel).
  51:../../lpc_chip_11cxx_lib/inc/clock_11xx.h ****  * @return	Nothing
  52:../../lpc_chip_11cxx_lib/inc/clock_11xx.h ****  * @note	See the user manual for how to setup the PLL.
  53:../../lpc_chip_11cxx_lib/inc/clock_11xx.h ****  */
  54:../../lpc_chip_11cxx_lib/inc/clock_11xx.h **** STATIC INLINE void Chip_Clock_SetupSystemPLL(uint8_t msel, uint8_t psel)
  55:../../lpc_chip_11cxx_lib/inc/clock_11xx.h **** {
  56:../../lpc_chip_11cxx_lib/inc/clock_11xx.h **** 	LPC_SYSCTL->SYSPLLCTRL = (msel & 0x1F) | ((psel & 0x3) << 5);
  57:../../lpc_chip_11cxx_lib/inc/clock_11xx.h **** }
  58:../../lpc_chip_11cxx_lib/inc/clock_11xx.h **** 
  59:../../lpc_chip_11cxx_lib/inc/clock_11xx.h **** /**
  60:../../lpc_chip_11cxx_lib/inc/clock_11xx.h ****  * @brief	Read System PLL lock status
ARM GAS  /var/folders/f9/8bk2lnw15zn4cbgn6wrnb4lm0000gn/T//ccCGlkPS.s 			page 54


  61:../../lpc_chip_11cxx_lib/inc/clock_11xx.h ****  * @return	true of the PLL is locked. false if not locked
  62:../../lpc_chip_11cxx_lib/inc/clock_11xx.h ****  */
  63:../../lpc_chip_11cxx_lib/inc/clock_11xx.h **** STATIC INLINE bool Chip_Clock_IsSystemPLLLocked(void)
  64:../../lpc_chip_11cxx_lib/inc/clock_11xx.h **** {
  65:../../lpc_chip_11cxx_lib/inc/clock_11xx.h **** 	return (bool) ((LPC_SYSCTL->SYSPLLSTAT & 1) != 0);
  66:../../lpc_chip_11cxx_lib/inc/clock_11xx.h **** }
  67:../../lpc_chip_11cxx_lib/inc/clock_11xx.h **** 
  68:../../lpc_chip_11cxx_lib/inc/clock_11xx.h **** /**
  69:../../lpc_chip_11cxx_lib/inc/clock_11xx.h ****  * Clock sources for system and USB PLLs
  70:../../lpc_chip_11cxx_lib/inc/clock_11xx.h ****  */
  71:../../lpc_chip_11cxx_lib/inc/clock_11xx.h **** typedef enum CHIP_SYSCTL_PLLCLKSRC {
  72:../../lpc_chip_11cxx_lib/inc/clock_11xx.h **** 	SYSCTL_PLLCLKSRC_IRC = 0,		/*!< Internal oscillator in */
  73:../../lpc_chip_11cxx_lib/inc/clock_11xx.h **** 	SYSCTL_PLLCLKSRC_MAINOSC,		/*!< Crystal (main) oscillator in */
  74:../../lpc_chip_11cxx_lib/inc/clock_11xx.h **** #if defined(CHIP_LPC11AXX)
  75:../../lpc_chip_11cxx_lib/inc/clock_11xx.h **** 	SYSCTL_PLLCLKSRC_EXT_CLKIN,	/*!< External clock in (11Axx only) */
  76:../../lpc_chip_11cxx_lib/inc/clock_11xx.h **** #else
  77:../../lpc_chip_11cxx_lib/inc/clock_11xx.h **** 	SYSCTL_PLLCLKSRC_RESERVED1,	/*!< Reserved */
  78:../../lpc_chip_11cxx_lib/inc/clock_11xx.h **** #endif
  79:../../lpc_chip_11cxx_lib/inc/clock_11xx.h **** 	SYSCTL_PLLCLKSRC_RESERVED2,	/*!< Reserved */
  80:../../lpc_chip_11cxx_lib/inc/clock_11xx.h **** } CHIP_SYSCTL_PLLCLKSRC_T;
  81:../../lpc_chip_11cxx_lib/inc/clock_11xx.h **** 
  82:../../lpc_chip_11cxx_lib/inc/clock_11xx.h **** /**
  83:../../lpc_chip_11cxx_lib/inc/clock_11xx.h ****  * @brief	Set System PLL clock source
  84:../../lpc_chip_11cxx_lib/inc/clock_11xx.h ****  * @param	src	: Clock source for system PLL
  85:../../lpc_chip_11cxx_lib/inc/clock_11xx.h ****  * @return	Nothing
  86:../../lpc_chip_11cxx_lib/inc/clock_11xx.h ****  * @note	This function will also toggle the clock source update register
  87:../../lpc_chip_11cxx_lib/inc/clock_11xx.h ****  * to update the clock source.
  88:../../lpc_chip_11cxx_lib/inc/clock_11xx.h ****  */
  89:../../lpc_chip_11cxx_lib/inc/clock_11xx.h **** void Chip_Clock_SetSystemPLLSource(CHIP_SYSCTL_PLLCLKSRC_T src);
  90:../../lpc_chip_11cxx_lib/inc/clock_11xx.h **** 
  91:../../lpc_chip_11cxx_lib/inc/clock_11xx.h **** #if defined(CHIP_LPC11UXX)
  92:../../lpc_chip_11cxx_lib/inc/clock_11xx.h **** /**
  93:../../lpc_chip_11cxx_lib/inc/clock_11xx.h ****  * @brief	Set USB PLL divider values
  94:../../lpc_chip_11cxx_lib/inc/clock_11xx.h ****  * @param	msel    : PLL feedback divider value. M = msel + 1.
  95:../../lpc_chip_11cxx_lib/inc/clock_11xx.h ****  * @param	psel    : PLL post divider value. P = (1<<psel).
  96:../../lpc_chip_11cxx_lib/inc/clock_11xx.h ****  * @return	Nothing
  97:../../lpc_chip_11cxx_lib/inc/clock_11xx.h ****  * @note	See the user manual for how to setup the PLL.
  98:../../lpc_chip_11cxx_lib/inc/clock_11xx.h ****  */
  99:../../lpc_chip_11cxx_lib/inc/clock_11xx.h **** STATIC INLINE void Chip_Clock_SetupUSBPLL(uint8_t msel, uint8_t psel)
 100:../../lpc_chip_11cxx_lib/inc/clock_11xx.h **** {
 101:../../lpc_chip_11cxx_lib/inc/clock_11xx.h **** 	LPC_SYSCTL->USBPLLCTRL = (msel & 0x1F) | ((psel & 0x3) << 5);
 102:../../lpc_chip_11cxx_lib/inc/clock_11xx.h **** }
 103:../../lpc_chip_11cxx_lib/inc/clock_11xx.h **** 
 104:../../lpc_chip_11cxx_lib/inc/clock_11xx.h **** /**
 105:../../lpc_chip_11cxx_lib/inc/clock_11xx.h ****  * @brief	Read USB PLL lock status
 106:../../lpc_chip_11cxx_lib/inc/clock_11xx.h ****  * @return	true of the PLL is locked. false if not locked
 107:../../lpc_chip_11cxx_lib/inc/clock_11xx.h ****  */
 108:../../lpc_chip_11cxx_lib/inc/clock_11xx.h **** STATIC INLINE bool Chip_Clock_IsUSBPLLLocked(void)
 109:../../lpc_chip_11cxx_lib/inc/clock_11xx.h **** {
 110:../../lpc_chip_11cxx_lib/inc/clock_11xx.h **** 	return (bool) ((LPC_SYSCTL->USBPLLSTAT & 1) != 0);
 111:../../lpc_chip_11cxx_lib/inc/clock_11xx.h **** }
 112:../../lpc_chip_11cxx_lib/inc/clock_11xx.h **** 
 113:../../lpc_chip_11cxx_lib/inc/clock_11xx.h **** /**
 114:../../lpc_chip_11cxx_lib/inc/clock_11xx.h ****  * @brief	Set USB PLL clock source
 115:../../lpc_chip_11cxx_lib/inc/clock_11xx.h ****  * @param	src	: Clock source for USB PLL
 116:../../lpc_chip_11cxx_lib/inc/clock_11xx.h ****  * @return	Nothing
 117:../../lpc_chip_11cxx_lib/inc/clock_11xx.h ****  * @note	This function will also toggle the clock source update register
ARM GAS  /var/folders/f9/8bk2lnw15zn4cbgn6wrnb4lm0000gn/T//ccCGlkPS.s 			page 55


 118:../../lpc_chip_11cxx_lib/inc/clock_11xx.h ****  * to update the clock source.
 119:../../lpc_chip_11cxx_lib/inc/clock_11xx.h ****  */
 120:../../lpc_chip_11cxx_lib/inc/clock_11xx.h **** void Chip_Clock_SetUSBPLLSource(CHIP_SYSCTL_PLLCLKSRC_T src);
 121:../../lpc_chip_11cxx_lib/inc/clock_11xx.h **** 
 122:../../lpc_chip_11cxx_lib/inc/clock_11xx.h **** #endif /*defined(CHIP_LPC11UXX)*/
 123:../../lpc_chip_11cxx_lib/inc/clock_11xx.h **** 
 124:../../lpc_chip_11cxx_lib/inc/clock_11xx.h **** /**
 125:../../lpc_chip_11cxx_lib/inc/clock_11xx.h ****  * @brief	Bypass System Oscillator and set oscillator frequency range
 126:../../lpc_chip_11cxx_lib/inc/clock_11xx.h ****  * @param	bypass	: Flag to bypass oscillator
 127:../../lpc_chip_11cxx_lib/inc/clock_11xx.h ****  * @param	highfr	: Flag to set oscillator range from 15-25 MHz
 128:../../lpc_chip_11cxx_lib/inc/clock_11xx.h ****  * @return	Nothing
 129:../../lpc_chip_11cxx_lib/inc/clock_11xx.h ****  * @note	Sets the PLL input to bypass the oscillator. This would be
 130:../../lpc_chip_11cxx_lib/inc/clock_11xx.h ****  * used if an external clock that is not an oscillator is attached
 131:../../lpc_chip_11cxx_lib/inc/clock_11xx.h ****  * to the XTALIN pin.
 132:../../lpc_chip_11cxx_lib/inc/clock_11xx.h ****  */
 133:../../lpc_chip_11cxx_lib/inc/clock_11xx.h **** void Chip_Clock_SetPLLBypass(bool bypass, bool highfr);
 134:../../lpc_chip_11cxx_lib/inc/clock_11xx.h **** 
 135:../../lpc_chip_11cxx_lib/inc/clock_11xx.h **** /**
 136:../../lpc_chip_11cxx_lib/inc/clock_11xx.h ****  * Watchdog and low frequency oscillator frequencies plus or minus 40%
 137:../../lpc_chip_11cxx_lib/inc/clock_11xx.h ****  */
 138:../../lpc_chip_11cxx_lib/inc/clock_11xx.h **** typedef enum CHIP_WDTLFO_OSC {
 139:../../lpc_chip_11cxx_lib/inc/clock_11xx.h **** 	WDTLFO_OSC_ILLEGAL,
 140:../../lpc_chip_11cxx_lib/inc/clock_11xx.h **** 	WDTLFO_OSC_0_60,	/*!< 0.6 MHz watchdog/LFO rate */
 141:../../lpc_chip_11cxx_lib/inc/clock_11xx.h **** 	WDTLFO_OSC_1_05,	/*!< 1.05 MHz watchdog/LFO rate */
 142:../../lpc_chip_11cxx_lib/inc/clock_11xx.h **** 	WDTLFO_OSC_1_40,	/*!< 1.4 MHz watchdog/LFO rate */
 143:../../lpc_chip_11cxx_lib/inc/clock_11xx.h **** 	WDTLFO_OSC_1_75,	/*!< 1.75 MHz watchdog/LFO rate */
 144:../../lpc_chip_11cxx_lib/inc/clock_11xx.h **** 	WDTLFO_OSC_2_10,	/*!< 2.1 MHz watchdog/LFO rate */
 145:../../lpc_chip_11cxx_lib/inc/clock_11xx.h **** 	WDTLFO_OSC_2_40,	/*!< 2.4 MHz watchdog/LFO rate */
 146:../../lpc_chip_11cxx_lib/inc/clock_11xx.h **** 	WDTLFO_OSC_2_70,	/*!< 2.7 MHz watchdog/LFO rate */
 147:../../lpc_chip_11cxx_lib/inc/clock_11xx.h **** 	WDTLFO_OSC_3_00,	/*!< 3.0 MHz watchdog/LFO rate */
 148:../../lpc_chip_11cxx_lib/inc/clock_11xx.h **** 	WDTLFO_OSC_3_25,	/*!< 3.25 MHz watchdog/LFO rate */
 149:../../lpc_chip_11cxx_lib/inc/clock_11xx.h **** 	WDTLFO_OSC_3_50,	/*!< 3.5 MHz watchdog/LFO rate */
 150:../../lpc_chip_11cxx_lib/inc/clock_11xx.h **** 	WDTLFO_OSC_3_75,	/*!< 3.75 MHz watchdog/LFO rate */
 151:../../lpc_chip_11cxx_lib/inc/clock_11xx.h **** 	WDTLFO_OSC_4_00,	/*!< 4.0 MHz watchdog/LFO rate */
 152:../../lpc_chip_11cxx_lib/inc/clock_11xx.h **** 	WDTLFO_OSC_4_20,	/*!< 4.2 MHz watchdog/LFO rate */
 153:../../lpc_chip_11cxx_lib/inc/clock_11xx.h **** 	WDTLFO_OSC_4_40,	/*!< 4.4 MHz watchdog/LFO rate */
 154:../../lpc_chip_11cxx_lib/inc/clock_11xx.h **** 	WDTLFO_OSC_4_60		/*!< 4.6 MHz watchdog/LFO rate */
 155:../../lpc_chip_11cxx_lib/inc/clock_11xx.h **** } CHIP_WDTLFO_OSC_T;
 156:../../lpc_chip_11cxx_lib/inc/clock_11xx.h **** 
 157:../../lpc_chip_11cxx_lib/inc/clock_11xx.h **** /**
 158:../../lpc_chip_11cxx_lib/inc/clock_11xx.h ****  * @brief	Setup Watchdog oscillator rate and divider
 159:../../lpc_chip_11cxx_lib/inc/clock_11xx.h ****  * @param	wdtclk	: Selected watchdog clock rate
 160:../../lpc_chip_11cxx_lib/inc/clock_11xx.h ****  * @param	div		: Watchdog divider value, even value between 2 and 64
 161:../../lpc_chip_11cxx_lib/inc/clock_11xx.h ****  * @return	Nothing
 162:../../lpc_chip_11cxx_lib/inc/clock_11xx.h ****  * @note	Watchdog rate = selected rate divided by divider rate
 163:../../lpc_chip_11cxx_lib/inc/clock_11xx.h ****  */
 164:../../lpc_chip_11cxx_lib/inc/clock_11xx.h **** STATIC INLINE void Chip_Clock_SetWDTOSC(CHIP_WDTLFO_OSC_T wdtclk, uint8_t div)
 165:../../lpc_chip_11cxx_lib/inc/clock_11xx.h **** {
 166:../../lpc_chip_11cxx_lib/inc/clock_11xx.h **** 	LPC_SYSCTL->WDTOSCCTRL  = (((uint32_t) wdtclk) << 5) | ((div >> 1) - 1);
 167:../../lpc_chip_11cxx_lib/inc/clock_11xx.h **** }
 168:../../lpc_chip_11cxx_lib/inc/clock_11xx.h **** 
 169:../../lpc_chip_11cxx_lib/inc/clock_11xx.h **** #if defined(CHIP_LPC11AXX)
 170:../../lpc_chip_11cxx_lib/inc/clock_11xx.h **** /**
 171:../../lpc_chip_11cxx_lib/inc/clock_11xx.h ****  * @brief	Setup low frequency oscillator rate and divider
 172:../../lpc_chip_11cxx_lib/inc/clock_11xx.h ****  * @param	lfoclk	: Selected low frequency clock rate
 173:../../lpc_chip_11cxx_lib/inc/clock_11xx.h ****  * @param	div		: Low frequency divider value, even value between 2 and 64
 174:../../lpc_chip_11cxx_lib/inc/clock_11xx.h ****  * @return	Nothing
ARM GAS  /var/folders/f9/8bk2lnw15zn4cbgn6wrnb4lm0000gn/T//ccCGlkPS.s 			page 56


 175:../../lpc_chip_11cxx_lib/inc/clock_11xx.h ****  * @note	Low frequency oscillator rate = selected rate divided by divider rate
 176:../../lpc_chip_11cxx_lib/inc/clock_11xx.h ****  */
 177:../../lpc_chip_11cxx_lib/inc/clock_11xx.h **** STATIC INLINE void Chip_Clock_SetLFOSC(CHIP_WDTLFO_OSC_T lfoclk, uint8_t div)
 178:../../lpc_chip_11cxx_lib/inc/clock_11xx.h **** {
 179:../../lpc_chip_11cxx_lib/inc/clock_11xx.h **** 	LPC_SYSCTL->LFOSCCTRL  = (((uint32_t) lfoclk) << 5) | ((div >> 1) - 1);
 180:../../lpc_chip_11cxx_lib/inc/clock_11xx.h **** }
 181:../../lpc_chip_11cxx_lib/inc/clock_11xx.h **** 
 182:../../lpc_chip_11cxx_lib/inc/clock_11xx.h **** #endif /*CHIP_LPC11AXX*/
 183:../../lpc_chip_11cxx_lib/inc/clock_11xx.h **** 
 184:../../lpc_chip_11cxx_lib/inc/clock_11xx.h **** /**
 185:../../lpc_chip_11cxx_lib/inc/clock_11xx.h ****  * Clock sources for main system clock
 186:../../lpc_chip_11cxx_lib/inc/clock_11xx.h ****  */
 187:../../lpc_chip_11cxx_lib/inc/clock_11xx.h **** typedef enum CHIP_SYSCTL_MAINCLKSRC {
 188:../../lpc_chip_11cxx_lib/inc/clock_11xx.h **** 	SYSCTL_MAINCLKSRC_IRC = 0,		/*!< Internal oscillator */
 189:../../lpc_chip_11cxx_lib/inc/clock_11xx.h **** 	SYSCTL_MAINCLKSRC_PLLIN,		/*!< System PLL input */
 190:../../lpc_chip_11cxx_lib/inc/clock_11xx.h **** 	SYSCTL_MAINCLKSRC_LFOSC,		/*!< LF oscillator rate (11Axx only) */
 191:../../lpc_chip_11cxx_lib/inc/clock_11xx.h **** 	SYSCTL_MAINCLKSRC_WDTOSC = SYSCTL_MAINCLKSRC_LFOSC,	/*!< Watchdog oscillator rate */
 192:../../lpc_chip_11cxx_lib/inc/clock_11xx.h **** 	SYSCTL_MAINCLKSRC_PLLOUT,		/*!< System PLL output */
 193:../../lpc_chip_11cxx_lib/inc/clock_11xx.h **** } CHIP_SYSCTL_MAINCLKSRC_T;
 194:../../lpc_chip_11cxx_lib/inc/clock_11xx.h **** 
 195:../../lpc_chip_11cxx_lib/inc/clock_11xx.h **** /**
 196:../../lpc_chip_11cxx_lib/inc/clock_11xx.h ****  * @brief	Set main system clock source
 197:../../lpc_chip_11cxx_lib/inc/clock_11xx.h ****  * @param	src	: Clock source for main system
 198:../../lpc_chip_11cxx_lib/inc/clock_11xx.h ****  * @return	Nothing
 199:../../lpc_chip_11cxx_lib/inc/clock_11xx.h ****  * @note	This function will also toggle the clock source update register
 200:../../lpc_chip_11cxx_lib/inc/clock_11xx.h ****  * to update the clock source.
 201:../../lpc_chip_11cxx_lib/inc/clock_11xx.h ****  */
 202:../../lpc_chip_11cxx_lib/inc/clock_11xx.h **** void Chip_Clock_SetMainClockSource(CHIP_SYSCTL_MAINCLKSRC_T src);
 203:../../lpc_chip_11cxx_lib/inc/clock_11xx.h **** 
 204:../../lpc_chip_11cxx_lib/inc/clock_11xx.h **** /**
 205:../../lpc_chip_11cxx_lib/inc/clock_11xx.h ****  * @brief   Returns the main clock source
 206:../../lpc_chip_11cxx_lib/inc/clock_11xx.h ****  * @return	Which clock is used for the core clock source?
 207:../../lpc_chip_11cxx_lib/inc/clock_11xx.h ****  */
 208:../../lpc_chip_11cxx_lib/inc/clock_11xx.h **** STATIC INLINE CHIP_SYSCTL_MAINCLKSRC_T Chip_Clock_GetMainClockSource(void)
 209:../../lpc_chip_11cxx_lib/inc/clock_11xx.h **** {
 210:../../lpc_chip_11cxx_lib/inc/clock_11xx.h **** 	return (CHIP_SYSCTL_MAINCLKSRC_T) (LPC_SYSCTL->MAINCLKSEL);
 211:../../lpc_chip_11cxx_lib/inc/clock_11xx.h **** }
 212:../../lpc_chip_11cxx_lib/inc/clock_11xx.h **** 
 213:../../lpc_chip_11cxx_lib/inc/clock_11xx.h **** /**
 214:../../lpc_chip_11cxx_lib/inc/clock_11xx.h ****  * @brief	Set system clock divider
 215:../../lpc_chip_11cxx_lib/inc/clock_11xx.h ****  * @param	div	: divider for system clock
 216:../../lpc_chip_11cxx_lib/inc/clock_11xx.h ****  * @return	Nothing
 217:../../lpc_chip_11cxx_lib/inc/clock_11xx.h ****  * @note	Use 0 to disable, or a divider value of 1 to 255. The system clock
 218:../../lpc_chip_11cxx_lib/inc/clock_11xx.h ****  * rate is the main system clock divided by this value.
 219:../../lpc_chip_11cxx_lib/inc/clock_11xx.h ****  */
 220:../../lpc_chip_11cxx_lib/inc/clock_11xx.h **** STATIC INLINE void Chip_Clock_SetSysClockDiv(uint32_t div)
 221:../../lpc_chip_11cxx_lib/inc/clock_11xx.h **** {
 222:../../lpc_chip_11cxx_lib/inc/clock_11xx.h **** 	LPC_SYSCTL->SYSAHBCLKDIV  = div;
 223:../../lpc_chip_11cxx_lib/inc/clock_11xx.h **** }
 224:../../lpc_chip_11cxx_lib/inc/clock_11xx.h **** 
 225:../../lpc_chip_11cxx_lib/inc/clock_11xx.h **** /**
 226:../../lpc_chip_11cxx_lib/inc/clock_11xx.h ****  * System and peripheral clocks
 227:../../lpc_chip_11cxx_lib/inc/clock_11xx.h ****  */
 228:../../lpc_chip_11cxx_lib/inc/clock_11xx.h **** typedef enum CHIP_SYSCTL_CLOCK {
 229:../../lpc_chip_11cxx_lib/inc/clock_11xx.h **** 	SYSCTL_CLOCK_SYS = 0,				/*!< 0: System clock */
 230:../../lpc_chip_11cxx_lib/inc/clock_11xx.h **** 	SYSCTL_CLOCK_ROM,					/*!<1:  ROM clock */
 231:../../lpc_chip_11cxx_lib/inc/clock_11xx.h **** 	SYSCTL_CLOCK_RAM,					/*!< 2: RAM clock */
ARM GAS  /var/folders/f9/8bk2lnw15zn4cbgn6wrnb4lm0000gn/T//ccCGlkPS.s 			page 57


 232:../../lpc_chip_11cxx_lib/inc/clock_11xx.h **** 	SYSCTL_CLOCK_FLASHREG,				/*!< 3: FLASH register interface clock */
 233:../../lpc_chip_11cxx_lib/inc/clock_11xx.h **** 	SYSCTL_CLOCK_FLASHARRAY,			/*!< 4: FLASH array access clock */
 234:../../lpc_chip_11cxx_lib/inc/clock_11xx.h **** #if defined(CHIP_LPC110X)
 235:../../lpc_chip_11cxx_lib/inc/clock_11xx.h **** 	SYSCTL_CLOCK_RESERVED5,				/*!< 5: Reserved */
 236:../../lpc_chip_11cxx_lib/inc/clock_11xx.h **** #else
 237:../../lpc_chip_11cxx_lib/inc/clock_11xx.h **** 	SYSCTL_CLOCK_I2C,					/*!< 5: I2C clock, not on LPC110x */
 238:../../lpc_chip_11cxx_lib/inc/clock_11xx.h **** #endif
 239:../../lpc_chip_11cxx_lib/inc/clock_11xx.h **** 	SYSCTL_CLOCK_GPIO,					/*!< 6: GPIO clock */
 240:../../lpc_chip_11cxx_lib/inc/clock_11xx.h **** 	SYSCTL_CLOCK_CT16B0,				/*!< 7: 16-bit Counter/timer 0 clock */
 241:../../lpc_chip_11cxx_lib/inc/clock_11xx.h **** 	SYSCTL_CLOCK_CT16B1,				/*!< 8: 16-bit Counter/timer 1 clock */
 242:../../lpc_chip_11cxx_lib/inc/clock_11xx.h **** 	SYSCTL_CLOCK_CT32B0,				/*!< 9: 32-bit Counter/timer 0 clock */
 243:../../lpc_chip_11cxx_lib/inc/clock_11xx.h **** 	SYSCTL_CLOCK_CT32B1,				/*!< 10: 32-bit Counter/timer 1 clock */
 244:../../lpc_chip_11cxx_lib/inc/clock_11xx.h **** 	SYSCTL_CLOCK_SSP0,					/*!< 11: SSP0 clock */
 245:../../lpc_chip_11cxx_lib/inc/clock_11xx.h **** 	SYSCTL_CLOCK_UART0,					/*!< 12: UART0 clock */
 246:../../lpc_chip_11cxx_lib/inc/clock_11xx.h **** 	SYSCTL_CLOCK_ADC,					/*!< 13: ADC clock */
 247:../../lpc_chip_11cxx_lib/inc/clock_11xx.h **** #if defined(CHIP_LPC11UXX)
 248:../../lpc_chip_11cxx_lib/inc/clock_11xx.h **** 	SYSCTL_CLOCK_USB,					/*!< 14: USB clock, LPC11Uxx only */
 249:../../lpc_chip_11cxx_lib/inc/clock_11xx.h **** #else
 250:../../lpc_chip_11cxx_lib/inc/clock_11xx.h **** 	SYSCTL_CLOCK_RESERVED14,			/*!< 14: Reserved */
 251:../../lpc_chip_11cxx_lib/inc/clock_11xx.h **** #endif
 252:../../lpc_chip_11cxx_lib/inc/clock_11xx.h **** 	SYSCTL_CLOCK_WDT,					/*!< 15: Watchdog timer clock */
 253:../../lpc_chip_11cxx_lib/inc/clock_11xx.h **** 	SYSCTL_CLOCK_IOCON,					/*!< 16: IOCON block clock */
 254:../../lpc_chip_11cxx_lib/inc/clock_11xx.h **** #if defined(CHIP_LPC11CXX)
 255:../../lpc_chip_11cxx_lib/inc/clock_11xx.h **** 	SYSCTL_CLOCK_CAN,					/*!< 17: CAN clock, LPC11Cxx only */
 256:../../lpc_chip_11cxx_lib/inc/clock_11xx.h **** #else
 257:../../lpc_chip_11cxx_lib/inc/clock_11xx.h **** 	SYSCTL_CLOCK_RESERVED17,			/*!< 17: Reserved */
 258:../../lpc_chip_11cxx_lib/inc/clock_11xx.h **** #endif
 259:../../lpc_chip_11cxx_lib/inc/clock_11xx.h **** #if !(defined(CHIP_LPC110X) || defined(CHIP_LPC11XXLV))  
 260:../../lpc_chip_11cxx_lib/inc/clock_11xx.h **** 	SYSCTL_CLOCK_SSP1,					/*!< 18: SSP1 clock, LPC11A/C/E/Uxx//1125 only */
 261:../../lpc_chip_11cxx_lib/inc/clock_11xx.h **** #if !defined(CHIP_LPC11CXX)
 262:../../lpc_chip_11cxx_lib/inc/clock_11xx.h **** 	SYSCTL_CLOCK_PINT,					/*!< 19: GPIO Pin int register interface clock, LPC11A/E/Uxx only */
 263:../../lpc_chip_11cxx_lib/inc/clock_11xx.h **** #if defined(CHIP_LPC11AXX)
 264:../../lpc_chip_11cxx_lib/inc/clock_11xx.h **** 	SYSCTL_CLOCK_ACOMP,					/*!< 20: Analog comparator clock, LPC11Axx only */
 265:../../lpc_chip_11cxx_lib/inc/clock_11xx.h **** 	SYSCTL_CLOCK_DAC,					/*!< 21: DAC clock, LPC11Axx only */
 266:../../lpc_chip_11cxx_lib/inc/clock_11xx.h **** #else
 267:../../lpc_chip_11cxx_lib/inc/clock_11xx.h **** 	SYSCTL_CLOCK_RESERVED20,			/*!< 20: Reserved */
 268:../../lpc_chip_11cxx_lib/inc/clock_11xx.h **** 	SYSCTL_CLOCK_RESERVED21,			/*!< 21: Reserved */
 269:../../lpc_chip_11cxx_lib/inc/clock_11xx.h **** #endif
 270:../../lpc_chip_11cxx_lib/inc/clock_11xx.h **** 	SYSCTL_CLOCK_RESERVED22,			/*!< 22: Reserved */
 271:../../lpc_chip_11cxx_lib/inc/clock_11xx.h **** 	SYSCTL_CLOCK_P0INT,					/*!< 23: GPIO GROUP1 interrupt register clock, LPC11Axx only */
 272:../../lpc_chip_11cxx_lib/inc/clock_11xx.h **** 	SYSCTL_CLOCK_GROUP0INT = SYSCTL_CLOCK_P0INT,/*!< 23: GPIO GROUP0 interrupt register interface cloc
 273:../../lpc_chip_11cxx_lib/inc/clock_11xx.h **** 	SYSCTL_CLOCK_P1INT,					/*!< 24: GPIO GROUP1 interrupt register clock, LPC11Axx only */
 274:../../lpc_chip_11cxx_lib/inc/clock_11xx.h **** 	SYSCTL_CLOCK_GROUP1INT = SYSCTL_CLOCK_P1INT,/*!< 24: GPIO GROUP1 interrupt register interface cloc
 275:../../lpc_chip_11cxx_lib/inc/clock_11xx.h **** 	SYSCTL_CLOCK_RESERVED25,			/*!< 25: Reserved */
 276:../../lpc_chip_11cxx_lib/inc/clock_11xx.h **** #if defined(CHIP_LPC11EXX)  || defined(CHIP_LPC11UXX)
 277:../../lpc_chip_11cxx_lib/inc/clock_11xx.h **** 	SYSCTL_CLOCK_RAM1,					/*!< 26: SRAM block (0x20000000) clock, LPC11E/Uxx only */
 278:../../lpc_chip_11cxx_lib/inc/clock_11xx.h **** #else
 279:../../lpc_chip_11cxx_lib/inc/clock_11xx.h **** 	SYSCTL_CLOCK_RESERVED26,			/*!< 26: Reserved */
 280:../../lpc_chip_11cxx_lib/inc/clock_11xx.h **** #endif
 281:../../lpc_chip_11cxx_lib/inc/clock_11xx.h **** #if defined(CHIP_LPC11UXX)
 282:../../lpc_chip_11cxx_lib/inc/clock_11xx.h **** 	SYSCTL_CLOCK_USBRAM,				/*!< 27: USB SRAM block clock, LPC11Uxx only */
 283:../../lpc_chip_11cxx_lib/inc/clock_11xx.h **** #else
 284:../../lpc_chip_11cxx_lib/inc/clock_11xx.h **** 	SYSCTL_CLOCK_RESERVED27,			/*!< 27: Reserved */
 285:../../lpc_chip_11cxx_lib/inc/clock_11xx.h **** #endif
 286:../../lpc_chip_11cxx_lib/inc/clock_11xx.h **** #endif /* !defined(CHIP_LPC11CXX) */
 287:../../lpc_chip_11cxx_lib/inc/clock_11xx.h **** #endif /* !(defined(CHIP_LPC110X) || defined(CHIP_LPC11XXLV)) */
 288:../../lpc_chip_11cxx_lib/inc/clock_11xx.h **** } CHIP_SYSCTL_CLOCK_T;
ARM GAS  /var/folders/f9/8bk2lnw15zn4cbgn6wrnb4lm0000gn/T//ccCGlkPS.s 			page 58


 289:../../lpc_chip_11cxx_lib/inc/clock_11xx.h **** 
 290:../../lpc_chip_11cxx_lib/inc/clock_11xx.h **** /**
 291:../../lpc_chip_11cxx_lib/inc/clock_11xx.h ****  * @brief	Enable a system or peripheral clock
 292:../../lpc_chip_11cxx_lib/inc/clock_11xx.h ****  * @param	clk	: Clock to enable
 293:../../lpc_chip_11cxx_lib/inc/clock_11xx.h ****  * @return	Nothing
 294:../../lpc_chip_11cxx_lib/inc/clock_11xx.h ****  */
 295:../../lpc_chip_11cxx_lib/inc/clock_11xx.h **** STATIC INLINE void Chip_Clock_EnablePeriphClock(CHIP_SYSCTL_CLOCK_T clk)
 296:../../lpc_chip_11cxx_lib/inc/clock_11xx.h **** {
 297:../../lpc_chip_11cxx_lib/inc/clock_11xx.h **** 	LPC_SYSCTL->SYSAHBCLKCTRL |= (1 << clk);
 298:../../lpc_chip_11cxx_lib/inc/clock_11xx.h **** }
 299:../../lpc_chip_11cxx_lib/inc/clock_11xx.h **** 
 300:../../lpc_chip_11cxx_lib/inc/clock_11xx.h **** /**
 301:../../lpc_chip_11cxx_lib/inc/clock_11xx.h ****  * @brief	Disable a system or peripheral clock
 302:../../lpc_chip_11cxx_lib/inc/clock_11xx.h ****  * @param	clk	: Clock to disable
 303:../../lpc_chip_11cxx_lib/inc/clock_11xx.h ****  * @return	Nothing
 304:../../lpc_chip_11cxx_lib/inc/clock_11xx.h ****  */
 305:../../lpc_chip_11cxx_lib/inc/clock_11xx.h **** STATIC INLINE void Chip_Clock_DisablePeriphClock(CHIP_SYSCTL_CLOCK_T clk)
 306:../../lpc_chip_11cxx_lib/inc/clock_11xx.h **** {
 307:../../lpc_chip_11cxx_lib/inc/clock_11xx.h **** 	LPC_SYSCTL->SYSAHBCLKCTRL &= ~(1 << clk);
 308:../../lpc_chip_11cxx_lib/inc/clock_11xx.h **** }
 309:../../lpc_chip_11cxx_lib/inc/clock_11xx.h **** 
 310:../../lpc_chip_11cxx_lib/inc/clock_11xx.h **** /**
 311:../../lpc_chip_11cxx_lib/inc/clock_11xx.h ****  * @brief	Set SSP0 divider
 312:../../lpc_chip_11cxx_lib/inc/clock_11xx.h ****  * @param	div	: divider for SSP0 clock
 313:../../lpc_chip_11cxx_lib/inc/clock_11xx.h ****  * @return	Nothing
 314:../../lpc_chip_11cxx_lib/inc/clock_11xx.h ****  * @note	Use 0 to disable, or a divider value of 1 to 255. The SSP0 clock
 315:../../lpc_chip_11cxx_lib/inc/clock_11xx.h ****  * rate is the main system clock divided by this value.
 316:../../lpc_chip_11cxx_lib/inc/clock_11xx.h ****  */
 317:../../lpc_chip_11cxx_lib/inc/clock_11xx.h **** STATIC INLINE void Chip_Clock_SetSSP0ClockDiv(uint32_t div)
 318:../../lpc_chip_11cxx_lib/inc/clock_11xx.h **** {
 319:../../lpc_chip_11cxx_lib/inc/clock_11xx.h **** 	LPC_SYSCTL->SSP0CLKDIV  = div;
 320:../../lpc_chip_11cxx_lib/inc/clock_11xx.h **** }
 321:../../lpc_chip_11cxx_lib/inc/clock_11xx.h **** 
 322:../../lpc_chip_11cxx_lib/inc/clock_11xx.h **** /**
 323:../../lpc_chip_11cxx_lib/inc/clock_11xx.h ****  * @brief	Return SSP0 divider
 324:../../lpc_chip_11cxx_lib/inc/clock_11xx.h ****  * @return	divider for SSP0 clock
 325:../../lpc_chip_11cxx_lib/inc/clock_11xx.h ****  * @note	A value of 0 means the clock is disabled.
 326:../../lpc_chip_11cxx_lib/inc/clock_11xx.h ****  */
 327:../../lpc_chip_11cxx_lib/inc/clock_11xx.h **** STATIC INLINE uint32_t Chip_Clock_GetSSP0ClockDiv(void)
 328:../../lpc_chip_11cxx_lib/inc/clock_11xx.h **** {
 329:../../lpc_chip_11cxx_lib/inc/clock_11xx.h **** 	return LPC_SYSCTL->SSP0CLKDIV;
 330:../../lpc_chip_11cxx_lib/inc/clock_11xx.h **** }
 331:../../lpc_chip_11cxx_lib/inc/clock_11xx.h **** 
 332:../../lpc_chip_11cxx_lib/inc/clock_11xx.h **** /**
 333:../../lpc_chip_11cxx_lib/inc/clock_11xx.h ****  * @brief	Set UART divider clock
 334:../../lpc_chip_11cxx_lib/inc/clock_11xx.h ****  * @param	div	: divider for UART clock
 335:../../lpc_chip_11cxx_lib/inc/clock_11xx.h ****  * @return	Nothing
 336:../../lpc_chip_11cxx_lib/inc/clock_11xx.h ****  * @note	Use 0 to disable, or a divider value of 1 to 255. The UART clock
 337:../../lpc_chip_11cxx_lib/inc/clock_11xx.h ****  * rate is the main system clock divided by this value.
 338:../../lpc_chip_11cxx_lib/inc/clock_11xx.h ****  */
 339:../../lpc_chip_11cxx_lib/inc/clock_11xx.h **** STATIC INLINE void Chip_Clock_SetUARTClockDiv(uint32_t div)
 340:../../lpc_chip_11cxx_lib/inc/clock_11xx.h **** {
 341:../../lpc_chip_11cxx_lib/inc/clock_11xx.h **** 	LPC_SYSCTL->USARTCLKDIV  = div;
 342:../../lpc_chip_11cxx_lib/inc/clock_11xx.h **** }
 343:../../lpc_chip_11cxx_lib/inc/clock_11xx.h **** 
 344:../../lpc_chip_11cxx_lib/inc/clock_11xx.h **** /**
 345:../../lpc_chip_11cxx_lib/inc/clock_11xx.h ****  * @brief	Return UART divider
ARM GAS  /var/folders/f9/8bk2lnw15zn4cbgn6wrnb4lm0000gn/T//ccCGlkPS.s 			page 59


 346:../../lpc_chip_11cxx_lib/inc/clock_11xx.h ****  * @return	divider for UART clock
 347:../../lpc_chip_11cxx_lib/inc/clock_11xx.h ****  * @note	A value of 0 means the clock is disabled.
 348:../../lpc_chip_11cxx_lib/inc/clock_11xx.h ****  */
 349:../../lpc_chip_11cxx_lib/inc/clock_11xx.h **** STATIC INLINE uint32_t Chip_Clock_GetUARTClockDiv(void)
 350:../../lpc_chip_11cxx_lib/inc/clock_11xx.h **** {
 351:../../lpc_chip_11cxx_lib/inc/clock_11xx.h **** 	return LPC_SYSCTL->USARTCLKDIV;
 352:../../lpc_chip_11cxx_lib/inc/clock_11xx.h **** }
 353:../../lpc_chip_11cxx_lib/inc/clock_11xx.h **** 
 354:../../lpc_chip_11cxx_lib/inc/clock_11xx.h **** #if defined(CHIP_LPC11CXX) || defined(CHIP_LPC11EXX) || defined(CHIP_LPC11AXX) || defined(CHIP_LPC1
 355:../../lpc_chip_11cxx_lib/inc/clock_11xx.h **** /**
 356:../../lpc_chip_11cxx_lib/inc/clock_11xx.h ****  * @brief	Set SSP1 divider clock
 357:../../lpc_chip_11cxx_lib/inc/clock_11xx.h ****  * @param	div	: divider for SSP1 clock
 358:../../lpc_chip_11cxx_lib/inc/clock_11xx.h ****  * @return	Nothing
 359:../../lpc_chip_11cxx_lib/inc/clock_11xx.h ****  * @note	Use 0 to disable, or a divider value of 1 to 255. The SSP1 clock
 360:../../lpc_chip_11cxx_lib/inc/clock_11xx.h ****  * rate is the main system clock divided by this value.
 361:../../lpc_chip_11cxx_lib/inc/clock_11xx.h ****  */
 362:../../lpc_chip_11cxx_lib/inc/clock_11xx.h **** STATIC INLINE void Chip_Clock_SetSSP1ClockDiv(uint32_t div)
 363:../../lpc_chip_11cxx_lib/inc/clock_11xx.h **** {
 364:../../lpc_chip_11cxx_lib/inc/clock_11xx.h **** 	LPC_SYSCTL->SSP1CLKDIV  = div;
 365:../../lpc_chip_11cxx_lib/inc/clock_11xx.h **** }
 366:../../lpc_chip_11cxx_lib/inc/clock_11xx.h **** 
 367:../../lpc_chip_11cxx_lib/inc/clock_11xx.h **** /**
 368:../../lpc_chip_11cxx_lib/inc/clock_11xx.h ****  * @brief	Return SSP1 divider
 369:../../lpc_chip_11cxx_lib/inc/clock_11xx.h ****  * @return	divider for SSP1 clock
 370:../../lpc_chip_11cxx_lib/inc/clock_11xx.h ****  * @note	A value of 0 means the clock is disabled.
 371:../../lpc_chip_11cxx_lib/inc/clock_11xx.h ****  */
 372:../../lpc_chip_11cxx_lib/inc/clock_11xx.h **** STATIC INLINE uint32_t Chip_Clock_GetSSP1ClockDiv(void)
 373:../../lpc_chip_11cxx_lib/inc/clock_11xx.h **** {
 374:../../lpc_chip_11cxx_lib/inc/clock_11xx.h **** 	return LPC_SYSCTL->SSP1CLKDIV;
 1888              		.loc 3 374 0
 1889 0016 194A     		ldr	r2, .L231+4	@ tmp132,
 1890 0018 9C23     		mov	r3, #156	@ tmp133,
 1891 001a D158     		ldr	r1, [r2, r3]	@ D.6941,
 1892              	.LBE496:
 1893              	.LBE495:
 159:../../lpc_chip_11cxx_lib/src/ssp_11xx.c **** 		sspCLK /= Chip_Clock_GetSSP1ClockDiv();
 1894              		.loc 1 159 0
 1895 001c FFF7FEFF 		bl	__aeabi_uidiv	@
 1896              	.LVL163:
 1897 0020 8046     		mov	r8, r0	@ ssp_clk,
 1898              	.LVL164:
 1899              	.L223:
 1900              	.LBE494:
 1901              	.LBE493:
 460:../../lpc_chip_11cxx_lib/src/ssp_11xx.c **** 	uint32_t ssp_clk, cr0_div, cmp_clk, prescale;
 461:../../lpc_chip_11cxx_lib/src/ssp_11xx.c **** 
 462:../../lpc_chip_11cxx_lib/src/ssp_11xx.c **** 	ssp_clk = Chip_SSP_GetPCLKkRate(pSSP);
 463:../../lpc_chip_11cxx_lib/src/ssp_11xx.c **** 
 464:../../lpc_chip_11cxx_lib/src/ssp_11xx.c **** 	cr0_div = 0;
 465:../../lpc_chip_11cxx_lib/src/ssp_11xx.c **** 	cmp_clk = 0xFFFFFFFF;
 466:../../lpc_chip_11cxx_lib/src/ssp_11xx.c **** 	prescale = 2;
 467:../../lpc_chip_11cxx_lib/src/ssp_11xx.c **** 
 468:../../lpc_chip_11cxx_lib/src/ssp_11xx.c **** 	while (cmp_clk > bitRate) {
 1902              		.loc 1 468 0
 1903 0022 7B1C     		add	r3, r7, #1	@, bitRate,
 1904 0024 24D0     		beq	.L228	@,
 466:../../lpc_chip_11cxx_lib/src/ssp_11xx.c **** 	prescale = 2;
ARM GAS  /var/folders/f9/8bk2lnw15zn4cbgn6wrnb4lm0000gn/T//ccCGlkPS.s 			page 60


 1905              		.loc 1 466 0
 1906 0026 0226     		mov	r6, #2	@ prescale,
 464:../../lpc_chip_11cxx_lib/src/ssp_11xx.c **** 	cr0_div = 0;
 1907              		.loc 1 464 0
 1908 0028 0025     		mov	r5, #0	@ cr0_div,
 1909              	.LVL165:
 1910              	.L227:
 469:../../lpc_chip_11cxx_lib/src/ssp_11xx.c **** 		cmp_clk = ssp_clk / ((cr0_div + 1) * prescale);
 1911              		.loc 1 469 0
 1912 002a 6C1C     		add	r4, r5, #1	@ cr0_div, cr0_div,
 1913              	.LVL166:
 1914 002c 311C     		mov	r1, r6	@ D.6940, prescale
 1915 002e 6143     		mul	r1, r4	@ D.6940, cr0_div
 1916 0030 4046     		mov	r0, r8	@, ssp_clk
 1917 0032 FFF7FEFF 		bl	__aeabi_uidiv	@
 1918              	.LVL167:
 470:../../lpc_chip_11cxx_lib/src/ssp_11xx.c **** 		if (cmp_clk > bitRate) {
 1919              		.loc 1 470 0
 1920 0036 8742     		cmp	r7, r0	@ bitRate, cmp_clk
 1921 0038 0DD3     		bcc	.L225	@,
 1922 003a 2D06     		lsl	r5, r5, #24	@ tmp143, cr0_div,
 1923              	.LVL168:
 1924 003c 2D0C     		lsr	r5, r5, #16	@ D.6940, tmp143,
 1925              	.LVL169:
 1926              	.L224:
 1927              	.LBB500:
 1928              	.LBB501:
 174:../../lpc_chip_11cxx_lib/src/ssp_11xx.c **** 	temp = pSSP->CR0 & (~(SSP_CR0_SCR(0xFF)));
 1929              		.loc 1 174 0
 1930 003e 4B46     		mov	r3, r9	@, pSSP
 1931 0040 1A68     		ldr	r2, [r3]	@ D.6940, pSSP_5(D)->CR0
 1932              	.LVL170:
 1933 0042 0F4B     		ldr	r3, .L231+8	@ tmp145,
 1934              	.LBE501:
 1935              	.LBE500:
 471:../../lpc_chip_11cxx_lib/src/ssp_11xx.c **** 			cr0_div++;
 472:../../lpc_chip_11cxx_lib/src/ssp_11xx.c **** 			if (cr0_div > 0xFF) {
 473:../../lpc_chip_11cxx_lib/src/ssp_11xx.c **** 				cr0_div = 0;
 474:../../lpc_chip_11cxx_lib/src/ssp_11xx.c **** 				prescale += 2;
 475:../../lpc_chip_11cxx_lib/src/ssp_11xx.c **** 			}
 476:../../lpc_chip_11cxx_lib/src/ssp_11xx.c **** 		}
 477:../../lpc_chip_11cxx_lib/src/ssp_11xx.c **** 	}
 478:../../lpc_chip_11cxx_lib/src/ssp_11xx.c **** 
 479:../../lpc_chip_11cxx_lib/src/ssp_11xx.c **** 	Chip_SSP_SetClockRate(pSSP, cr0_div, prescale);
 480:../../lpc_chip_11cxx_lib/src/ssp_11xx.c **** }
 1936              		.loc 1 480 0
 1937              		@ sp needed	@
 1938              	.LBB503:
 1939              	.LBB502:
 174:../../lpc_chip_11cxx_lib/src/ssp_11xx.c **** 	temp = pSSP->CR0 & (~(SSP_CR0_SCR(0xFF)));
 1940              		.loc 1 174 0
 1941 0044 1340     		and	r3, r2	@ temp, D.6940
 1942              	.LVL171:
 175:../../lpc_chip_11cxx_lib/src/ssp_11xx.c **** 	pSSP->CR0 = temp | (SSP_CR0_SCR(clk_rate));
 1943              		.loc 1 175 0
 1944 0046 1D43     		orr	r5, r3	@ D.6940, temp
 1945 0048 4B46     		mov	r3, r9	@, pSSP
ARM GAS  /var/folders/f9/8bk2lnw15zn4cbgn6wrnb4lm0000gn/T//ccCGlkPS.s 			page 61


 1946              	.LVL172:
 1947 004a 1D60     		str	r5, [r3]	@ D.6940, pSSP_5(D)->CR0
 176:../../lpc_chip_11cxx_lib/src/ssp_11xx.c **** 	pSSP->CPSR = prescale;
 1948              		.loc 1 176 0
 1949 004c 1E61     		str	r6, [r3, #16]	@ prescale, pSSP_5(D)->CPSR
 1950              	.LVL173:
 1951              	.LVL174:
 1952              	.LVL175:
 1953              	.LVL176:
 1954              	.LBE502:
 1955              	.LBE503:
 1956              		.loc 1 480 0
 1957 004e 0CBC     		pop	{r2, r3}
 1958 0050 9046     		mov	r8, r2
 1959 0052 9946     		mov	r9, r3
 1960 0054 F8BD     		pop	{r3, r4, r5, r6, r7, pc}
 1961              	.LVL177:
 1962              	.L225:
 472:../../lpc_chip_11cxx_lib/src/ssp_11xx.c **** 			if (cr0_div > 0xFF) {
 1963              		.loc 1 472 0
 1964 0056 FF2C     		cmp	r4, #255	@ cr0_div,
 1965 0058 01D9     		bls	.L226	@,
 1966              	.LVL178:
 474:../../lpc_chip_11cxx_lib/src/ssp_11xx.c **** 				prescale += 2;
 1967              		.loc 1 474 0
 1968 005a 0236     		add	r6, r6, #2	@ prescale,
 1969              	.LVL179:
 473:../../lpc_chip_11cxx_lib/src/ssp_11xx.c **** 				cr0_div = 0;
 1970              		.loc 1 473 0
 1971 005c 0024     		mov	r4, #0	@ cr0_div,
 1972              	.LVL180:
 1973              	.L226:
 459:../../lpc_chip_11cxx_lib/src/ssp_11xx.c **** {
 1974              		.loc 1 459 0
 1975 005e 251C     		mov	r5, r4	@ cr0_div, cr0_div
 1976 0060 E3E7     		b	.L227	@
 1977              	.LVL181:
 1978              	.L230:
 1979              	.LBB504:
 1980              	.LBB499:
 1981              	.LBB497:
 1982              	.LBB498:
 329:../../lpc_chip_11cxx_lib/inc/clock_11xx.h **** 	return LPC_SYSCTL->SSP0CLKDIV;
 1983              		.loc 3 329 0
 1984 0062 064A     		ldr	r2, .L231+4	@ tmp127,
 1985 0064 9423     		mov	r3, #148	@ tmp128,
 1986 0066 D158     		ldr	r1, [r2, r3]	@ D.6941,
 1987              	.LBE498:
 1988              	.LBE497:
 155:../../lpc_chip_11cxx_lib/src/ssp_11xx.c **** 		sspCLK /= Chip_Clock_GetSSP0ClockDiv();
 1989              		.loc 1 155 0
 1990 0068 FFF7FEFF 		bl	__aeabi_uidiv	@
 1991              	.LVL182:
 1992 006c 8046     		mov	r8, r0	@ ssp_clk,
 1993              	.LVL183:
 1994 006e D8E7     		b	.L223	@
 1995              	.LVL184:
ARM GAS  /var/folders/f9/8bk2lnw15zn4cbgn6wrnb4lm0000gn/T//ccCGlkPS.s 			page 62


 1996              	.L228:
 1997              	.LBE499:
 1998              	.LBE504:
 468:../../lpc_chip_11cxx_lib/src/ssp_11xx.c **** 	while (cmp_clk > bitRate) {
 1999              		.loc 1 468 0
 2000 0070 0025     		mov	r5, #0	@ D.6940,
 466:../../lpc_chip_11cxx_lib/src/ssp_11xx.c **** 	prescale = 2;
 2001              		.loc 1 466 0
 2002 0072 0226     		mov	r6, #2	@ prescale,
 2003 0074 E3E7     		b	.L224	@
 2004              	.L232:
 2005 0076 C046     		.align	2
 2006              	.L231:
 2007 0078 00000440 		.word	1074003968
 2008 007c 00800440 		.word	1074036736
 2009 0080 FF00FFFF 		.word	-65281
 2010              		.cfi_endproc
 2011              	.LFE214:
 2012              		.size	Chip_SSP_SetBitRate, .-Chip_SSP_SetBitRate
 2013              		.section	.text.Chip_SSP_Init,"ax",%progbits
 2014              		.align	2
 2015              		.global	Chip_SSP_Init
 2016              		.code	16
 2017              		.thumb_func
 2018              		.type	Chip_SSP_Init, %function
 2019              	Chip_SSP_Init:
 2020              	.LFB215:
 481:../../lpc_chip_11cxx_lib/src/ssp_11xx.c **** 
 482:../../lpc_chip_11cxx_lib/src/ssp_11xx.c **** /* Initialize the SSP */
 483:../../lpc_chip_11cxx_lib/src/ssp_11xx.c **** void Chip_SSP_Init(LPC_SSP_T *pSSP)
 484:../../lpc_chip_11cxx_lib/src/ssp_11xx.c **** {
 2021              		.loc 1 484 0
 2022              		.cfi_startproc
 2023              	.LVL185:
 2024              	.LBB505:
 2025              	.LBB506:
 109:../../lpc_chip_11cxx_lib/src/ssp_11xx.c **** 	if (pSSP == LPC_SSP0) {
 2026              		.loc 1 109 0
 2027 0000 194B     		ldr	r3, .L240	@ tmp126,
 2028              	.LBE506:
 2029              	.LBE505:
 2030              		.loc 1 484 0
 2031 0002 10B5     		push	{r4, lr}	@
 2032              		.cfi_def_cfa_offset 8
 2033              		.cfi_offset 4, -8
 2034              		.cfi_offset 14, -4
 2035              	.LBB508:
 2036              	.LBB507:
 109:../../lpc_chip_11cxx_lib/src/ssp_11xx.c **** 	if (pSSP == LPC_SSP0) {
 2037              		.loc 1 109 0
 2038 0004 9842     		cmp	r0, r3	@ pSSP, tmp126
 2039 0006 21D0     		beq	.L239	@,
 2040              	.LVL186:
 2041              	.LBE507:
 2042              	.LBE508:
 2043              	.LBB509:
 2044              	.LBB510:
ARM GAS  /var/folders/f9/8bk2lnw15zn4cbgn6wrnb4lm0000gn/T//ccCGlkPS.s 			page 63


 297:../../lpc_chip_11cxx_lib/inc/clock_11xx.h **** 	LPC_SYSCTL->SYSAHBCLKCTRL |= (1 << clk);
 2045              		.loc 3 297 0
 2046 0008 184B     		ldr	r3, .L240+4	@ tmp144,
 2047 000a 8022     		mov	r2, #128	@ tmp145,
 2048 000c 9C58     		ldr	r4, [r3, r2]	@ D.6944, MEM[(struct LPC_SYSCTL_T *)1074036736B].SYSAHBCLKCTRL
 2049 000e 8021     		mov	r1, #128	@ tmp152,
 2050 0010 C902     		lsl	r1, r1, #11	@ tmp146, tmp152,
 2051 0012 2143     		orr	r1, r4	@ D.6944, D.6944
 2052 0014 9950     		str	r1, [r3, r2]	@ D.6944, MEM[(struct LPC_SYSCTL_T *)1074036736B].SYSAHBCLKCTRL
 2053              	.LVL187:
 2054              	.LBE510:
 2055              	.LBE509:
 2056              	.LBB512:
 2057              	.LBB513:
 2058              	.LBB514:
 364:../../lpc_chip_11cxx_lib/inc/clock_11xx.h **** 	LPC_SYSCTL->SSP1CLKDIV  = div;
 2059              		.loc 3 364 0
 2060 0016 0121     		mov	r1, #1	@ tmp151,
 2061 0018 9C22     		mov	r2, #156	@ tmp150,
 2062 001a 9950     		str	r1, [r3, r2]	@ tmp151, MEM[(struct LPC_SYSCTL_T *)1074036736B].SSP1CLKDIV
 2063              	.LVL188:
 2064 001c 0522     		mov	r2, #5	@ tmp153,
 2065 001e 0421     		mov	r1, #4	@ D.6944,
 2066 0020 5242     		neg	r2, r2	@ D.6944, tmp153
 2067              	.LVL189:
 2068              	.L236:
 2069              	.LBE514:
 2070              	.LBE513:
 2071              	.LBE512:
 2072              	.LBB517:
 2073              	.LBB518:
 2074              	.LBB519:
 2075              		.file 4 "../../lpc_chip_11cxx_lib/inc/sysctl_11xx.h"
   1:../../lpc_chip_11cxx_lib/inc/sysctl_11xx.h **** /*
   2:../../lpc_chip_11cxx_lib/inc/sysctl_11xx.h ****  * @brief LPC11XX System Control registers and control functions
   3:../../lpc_chip_11cxx_lib/inc/sysctl_11xx.h ****  *
   4:../../lpc_chip_11cxx_lib/inc/sysctl_11xx.h ****  * @note
   5:../../lpc_chip_11cxx_lib/inc/sysctl_11xx.h ****  * Copyright(C) NXP Semiconductors, 2012
   6:../../lpc_chip_11cxx_lib/inc/sysctl_11xx.h ****  * All rights reserved.
   7:../../lpc_chip_11cxx_lib/inc/sysctl_11xx.h ****  *
   8:../../lpc_chip_11cxx_lib/inc/sysctl_11xx.h ****  * @par
   9:../../lpc_chip_11cxx_lib/inc/sysctl_11xx.h ****  * Software that is described herein is for illustrative purposes only
  10:../../lpc_chip_11cxx_lib/inc/sysctl_11xx.h ****  * which provides customers with programming information regarding the
  11:../../lpc_chip_11cxx_lib/inc/sysctl_11xx.h ****  * LPC products.  This software is supplied "AS IS" without any warranties of
  12:../../lpc_chip_11cxx_lib/inc/sysctl_11xx.h ****  * any kind, and NXP Semiconductors and its licensor disclaim any and
  13:../../lpc_chip_11cxx_lib/inc/sysctl_11xx.h ****  * all warranties, express or implied, including all implied warranties of
  14:../../lpc_chip_11cxx_lib/inc/sysctl_11xx.h ****  * merchantability, fitness for a particular purpose and non-infringement of
  15:../../lpc_chip_11cxx_lib/inc/sysctl_11xx.h ****  * intellectual property rights.  NXP Semiconductors assumes no responsibility
  16:../../lpc_chip_11cxx_lib/inc/sysctl_11xx.h ****  * or liability for the use of the software, conveys no license or rights under any
  17:../../lpc_chip_11cxx_lib/inc/sysctl_11xx.h ****  * patent, copyright, mask work right, or any other intellectual property rights in
  18:../../lpc_chip_11cxx_lib/inc/sysctl_11xx.h ****  * or to any products. NXP Semiconductors reserves the right to make changes
  19:../../lpc_chip_11cxx_lib/inc/sysctl_11xx.h ****  * in the software without notification. NXP Semiconductors also makes no
  20:../../lpc_chip_11cxx_lib/inc/sysctl_11xx.h ****  * representation or warranty that such application will be suitable for the
  21:../../lpc_chip_11cxx_lib/inc/sysctl_11xx.h ****  * specified use without further testing or modification.
  22:../../lpc_chip_11cxx_lib/inc/sysctl_11xx.h ****  *
  23:../../lpc_chip_11cxx_lib/inc/sysctl_11xx.h ****  * @par
  24:../../lpc_chip_11cxx_lib/inc/sysctl_11xx.h ****  * Permission to use, copy, modify, and distribute this software and its
ARM GAS  /var/folders/f9/8bk2lnw15zn4cbgn6wrnb4lm0000gn/T//ccCGlkPS.s 			page 64


  25:../../lpc_chip_11cxx_lib/inc/sysctl_11xx.h ****  * documentation is hereby granted, under NXP Semiconductors' and its
  26:../../lpc_chip_11cxx_lib/inc/sysctl_11xx.h ****  * licensor's relevant copyrights in the software, without fee, provided that it
  27:../../lpc_chip_11cxx_lib/inc/sysctl_11xx.h ****  * is used in conjunction with NXP Semiconductors microcontrollers.  This
  28:../../lpc_chip_11cxx_lib/inc/sysctl_11xx.h ****  * copyright, permission, and disclaimer notice must appear in all copies of
  29:../../lpc_chip_11cxx_lib/inc/sysctl_11xx.h ****  * this code.
  30:../../lpc_chip_11cxx_lib/inc/sysctl_11xx.h ****  */
  31:../../lpc_chip_11cxx_lib/inc/sysctl_11xx.h **** 
  32:../../lpc_chip_11cxx_lib/inc/sysctl_11xx.h **** #ifndef __SYSCTL_11XX_H_
  33:../../lpc_chip_11cxx_lib/inc/sysctl_11xx.h **** #define __SYSCTL_11XX_H_
  34:../../lpc_chip_11cxx_lib/inc/sysctl_11xx.h **** 
  35:../../lpc_chip_11cxx_lib/inc/sysctl_11xx.h **** #ifdef __cplusplus
  36:../../lpc_chip_11cxx_lib/inc/sysctl_11xx.h **** extern "C" {
  37:../../lpc_chip_11cxx_lib/inc/sysctl_11xx.h **** #endif
  38:../../lpc_chip_11cxx_lib/inc/sysctl_11xx.h **** 
  39:../../lpc_chip_11cxx_lib/inc/sysctl_11xx.h **** /** @defgroup SYSCTL_11XX CHIP: LPC11xx System Control block driver
  40:../../lpc_chip_11cxx_lib/inc/sysctl_11xx.h ****  * @ingroup CHIP_11XX_Drivers
  41:../../lpc_chip_11cxx_lib/inc/sysctl_11xx.h ****  * @{
  42:../../lpc_chip_11cxx_lib/inc/sysctl_11xx.h ****  */
  43:../../lpc_chip_11cxx_lib/inc/sysctl_11xx.h **** 
  44:../../lpc_chip_11cxx_lib/inc/sysctl_11xx.h **** /**
  45:../../lpc_chip_11cxx_lib/inc/sysctl_11xx.h ****  * @brief LPC11XX System Control block structure
  46:../../lpc_chip_11cxx_lib/inc/sysctl_11xx.h ****  */
  47:../../lpc_chip_11cxx_lib/inc/sysctl_11xx.h **** typedef struct {			/*!< SYSCTL Structure */
  48:../../lpc_chip_11cxx_lib/inc/sysctl_11xx.h **** 	__IO uint32_t  SYSMEMREMAP;		/*!< System Memory remap register */
  49:../../lpc_chip_11cxx_lib/inc/sysctl_11xx.h **** 	__IO uint32_t  PRESETCTRL;		/*!< Peripheral reset Control register */
  50:../../lpc_chip_11cxx_lib/inc/sysctl_11xx.h **** 	__IO uint32_t  SYSPLLCTRL;		/*!< System PLL control register */
  51:../../lpc_chip_11cxx_lib/inc/sysctl_11xx.h **** 	__I  uint32_t  SYSPLLSTAT;		/*!< System PLL status register */
  52:../../lpc_chip_11cxx_lib/inc/sysctl_11xx.h **** 	__IO uint32_t  USBPLLCTRL;		/*!< USB PLL control register, LPC11UXX only*/
  53:../../lpc_chip_11cxx_lib/inc/sysctl_11xx.h **** 	__I  uint32_t  USBPLLSTAT;		/*!< USB PLL status register, LPC11UXX only */
  54:../../lpc_chip_11cxx_lib/inc/sysctl_11xx.h **** 	__I  uint32_t  RESERVED1[2];
  55:../../lpc_chip_11cxx_lib/inc/sysctl_11xx.h **** 	__IO uint32_t  SYSOSCCTRL;		/*!< System Oscillator control register */
  56:../../lpc_chip_11cxx_lib/inc/sysctl_11xx.h **** 	__IO uint32_t  WDTOSCCTRL;		/*!< Watchdog Oscillator control register */
  57:../../lpc_chip_11cxx_lib/inc/sysctl_11xx.h **** 	__IO uint32_t  IRCCTRL;			/*!< IRC control register, not on LPC11UXX and LPC11EXX */
  58:../../lpc_chip_11cxx_lib/inc/sysctl_11xx.h **** 	__IO uint32_t  LFOSCCTRL;		/*!< LF oscillator control, LPC11AXX only */
  59:../../lpc_chip_11cxx_lib/inc/sysctl_11xx.h **** 	__IO uint32_t  SYSRSTSTAT;		/*!< System Reset Status register           */
  60:../../lpc_chip_11cxx_lib/inc/sysctl_11xx.h **** 	__I  uint32_t  RESERVED2[3];
  61:../../lpc_chip_11cxx_lib/inc/sysctl_11xx.h **** 	__IO uint32_t  SYSPLLCLKSEL;	/*!< System PLL clock source select register */
  62:../../lpc_chip_11cxx_lib/inc/sysctl_11xx.h **** 	__IO uint32_t  SYSPLLCLKUEN;	/*!< System PLL clock source update enable register*/
  63:../../lpc_chip_11cxx_lib/inc/sysctl_11xx.h **** 	__IO uint32_t  USBPLLCLKSEL;	/*!< USB PLL clock source select register, LPC11UXX only */
  64:../../lpc_chip_11cxx_lib/inc/sysctl_11xx.h **** 	__IO uint32_t  USBPLLCLKUEN;	/*!< USB PLL clock source update enable register, LPC11UXX only */
  65:../../lpc_chip_11cxx_lib/inc/sysctl_11xx.h **** 	__I  uint32_t  RESERVED3[8];
  66:../../lpc_chip_11cxx_lib/inc/sysctl_11xx.h **** 	__IO uint32_t  MAINCLKSEL;	/*!< Main clock source select register		*/
  67:../../lpc_chip_11cxx_lib/inc/sysctl_11xx.h **** 	__IO uint32_t  MAINCLKUEN;	/*!< Main clock source update enable register	*/
  68:../../lpc_chip_11cxx_lib/inc/sysctl_11xx.h **** 	__IO uint32_t  SYSAHBCLKDIV;	/*!< System Clock divider register */
  69:../../lpc_chip_11cxx_lib/inc/sysctl_11xx.h **** 	__I  uint32_t  RESERVED4;
  70:../../lpc_chip_11cxx_lib/inc/sysctl_11xx.h **** 	__IO uint32_t  SYSAHBCLKCTRL;	/*!< System clock control register */
  71:../../lpc_chip_11cxx_lib/inc/sysctl_11xx.h **** 	__I  uint32_t  RESERVED5[4];
  72:../../lpc_chip_11cxx_lib/inc/sysctl_11xx.h **** 	__IO uint32_t  SSP0CLKDIV;	/*!< SSP0 clock divider register   */
  73:../../lpc_chip_11cxx_lib/inc/sysctl_11xx.h **** 	__IO uint32_t  USARTCLKDIV;	/*!< UART clock divider register   */
  74:../../lpc_chip_11cxx_lib/inc/sysctl_11xx.h **** 	__IO uint32_t  SSP1CLKDIV;	/*!< SSP1 clock divider register, not on CHIP_LPC110X, CHIP_LPC11XXLV *
  75:../../lpc_chip_11cxx_lib/inc/sysctl_11xx.h **** 	__I  uint32_t  RESERVED6[8];
  76:../../lpc_chip_11cxx_lib/inc/sysctl_11xx.h **** 	__IO uint32_t  USBCLKSEL;	/*!< USB clock source select register, LPC11UXX only */
  77:../../lpc_chip_11cxx_lib/inc/sysctl_11xx.h **** 	__IO uint32_t  USBCLKUEN;	/*!< USB clock source update enable register, LPC11UXX only */
  78:../../lpc_chip_11cxx_lib/inc/sysctl_11xx.h **** 	__IO uint32_t  USBCLKDIV;	/*!< USB clock source divider register, LPC11UXX only */
  79:../../lpc_chip_11cxx_lib/inc/sysctl_11xx.h **** 	__I  uint32_t  RESERVED7;
  80:../../lpc_chip_11cxx_lib/inc/sysctl_11xx.h **** 	__IO uint32_t  WDTCLKSEL;	/*!< WDT clock source select register, some parts only */
  81:../../lpc_chip_11cxx_lib/inc/sysctl_11xx.h **** 	__IO uint32_t  WDTCLKUEN;	/*!< WDT clock source update enable register, some parts only */
ARM GAS  /var/folders/f9/8bk2lnw15zn4cbgn6wrnb4lm0000gn/T//ccCGlkPS.s 			page 65


  82:../../lpc_chip_11cxx_lib/inc/sysctl_11xx.h **** 	__IO uint32_t  WDTCLKDIV;	/*!< WDT clock divider register, some parts only */
  83:../../lpc_chip_11cxx_lib/inc/sysctl_11xx.h **** 	__I  uint32_t  RESERVED8;
  84:../../lpc_chip_11cxx_lib/inc/sysctl_11xx.h **** 	__IO uint32_t  CLKOUTSEL;	/*!< Clock out source select register, not on LPC1102/04 */
  85:../../lpc_chip_11cxx_lib/inc/sysctl_11xx.h **** 	__IO uint32_t  CLKOUTUEN;	/*!< Clock out source update enable register, not on LPC1102/04 */
  86:../../lpc_chip_11cxx_lib/inc/sysctl_11xx.h **** 	__IO uint32_t  CLKOUTDIV;	/*!< Clock out divider register, not on LPC1102/04 */
  87:../../lpc_chip_11cxx_lib/inc/sysctl_11xx.h **** 	__I  uint32_t  RESERVED9[5];
  88:../../lpc_chip_11cxx_lib/inc/sysctl_11xx.h **** 	__I  uint32_t  PIOPORCAP[2];/*!< POR captured PIO status registers, index 1 on LPC1102/04 */
  89:../../lpc_chip_11cxx_lib/inc/sysctl_11xx.h **** 	__I  uint32_t  RESERVED10[18];
  90:../../lpc_chip_11cxx_lib/inc/sysctl_11xx.h **** 	__IO uint32_t  BODCTRL;		/*!< Brown Out Detect register */
  91:../../lpc_chip_11cxx_lib/inc/sysctl_11xx.h **** 	__IO uint32_t  SYSTCKCAL;	/*!< System tick counter calibration register */
  92:../../lpc_chip_11cxx_lib/inc/sysctl_11xx.h **** 	__I  uint32_t  RESERVED11[6];
  93:../../lpc_chip_11cxx_lib/inc/sysctl_11xx.h **** 	__IO uint32_t  IRQLATENCY;	/*!< IRQ delay register, on LPC11UXX and LPC11EXX only */
  94:../../lpc_chip_11cxx_lib/inc/sysctl_11xx.h **** 	__IO uint32_t  NMISRC;		/*!< NMI source control register,some parts only */
  95:../../lpc_chip_11cxx_lib/inc/sysctl_11xx.h **** 	__IO uint32_t  PINTSEL[8];	/*!< GPIO pin interrupt select register 0-7, not on CHIP_LPC110X, CHIP_
  96:../../lpc_chip_11cxx_lib/inc/sysctl_11xx.h **** 	__IO uint32_t  USBCLKCTRL;	/*!< USB clock control register, LPC11UXX only */
  97:../../lpc_chip_11cxx_lib/inc/sysctl_11xx.h **** 	__I  uint32_t  USBCLKST;	/*!< USB clock status register, LPC11UXX only */
  98:../../lpc_chip_11cxx_lib/inc/sysctl_11xx.h **** 	__I  uint32_t  RESERVED12[24];
  99:../../lpc_chip_11cxx_lib/inc/sysctl_11xx.h **** 	__IO uint32_t  STARTAPRP0;	/*!< Start loigc 0 interrupt wake up enable register 0, on CHIP_LPC110X
 100:../../lpc_chip_11cxx_lib/inc/sysctl_11xx.h **** 	__IO uint32_t  STARTERP0;	/*!< Start loigc signal enable register 0, not on LPC11AXX */
 101:../../lpc_chip_11cxx_lib/inc/sysctl_11xx.h **** 	__IO uint32_t  STARTRSRP0CLR;	/*!< Start loigc reset register 0, on CHIP_LPC110X, CHIP_LPC11XXLV, 
 102:../../lpc_chip_11cxx_lib/inc/sysctl_11xx.h **** 	__IO uint32_t  STARTSRP0;		/*!< Start loigc status register 0, on CHIP_LPC110X, CHIP_LPC11XXLV, CH
 103:../../lpc_chip_11cxx_lib/inc/sysctl_11xx.h **** 	__I  uint32_t  RESERVED13;
 104:../../lpc_chip_11cxx_lib/inc/sysctl_11xx.h **** 	__IO uint32_t  STARTERP1;	/*!< Start logic 1 interrupt wake up enable register 1, on LPC11UXX and 
 105:../../lpc_chip_11cxx_lib/inc/sysctl_11xx.h **** 	__I  uint32_t  RESERVED14[6];
 106:../../lpc_chip_11cxx_lib/inc/sysctl_11xx.h **** 	__IO uint32_t  PDSLEEPCFG;	/*!< Power down states in deep sleep mode register, not on LPC11AXX */
 107:../../lpc_chip_11cxx_lib/inc/sysctl_11xx.h **** 	__IO uint32_t  PDWAKECFG;	/*!< Power down states in wake up from deep sleep register, not on LPC11
 108:../../lpc_chip_11cxx_lib/inc/sysctl_11xx.h **** 	__IO uint32_t  PDRUNCFG;	/*!< Power configuration register*/
 109:../../lpc_chip_11cxx_lib/inc/sysctl_11xx.h **** 	__I  uint32_t  RESERVED15[110];
 110:../../lpc_chip_11cxx_lib/inc/sysctl_11xx.h **** 	__I  uint32_t  DEVICEID;	/*!< Device ID register */
 111:../../lpc_chip_11cxx_lib/inc/sysctl_11xx.h **** } LPC_SYSCTL_T;
 112:../../lpc_chip_11cxx_lib/inc/sysctl_11xx.h **** 
 113:../../lpc_chip_11cxx_lib/inc/sysctl_11xx.h **** /**
 114:../../lpc_chip_11cxx_lib/inc/sysctl_11xx.h ****  * System memory remap modes used to remap interrupt vectors
 115:../../lpc_chip_11cxx_lib/inc/sysctl_11xx.h ****  */
 116:../../lpc_chip_11cxx_lib/inc/sysctl_11xx.h **** typedef enum CHIP_SYSCTL_BOOT_MODE_REMAP {
 117:../../lpc_chip_11cxx_lib/inc/sysctl_11xx.h **** 	REMAP_BOOT_LOADER_MODE,	/*!< Interrupt vectors are re-mapped to Boot ROM */
 118:../../lpc_chip_11cxx_lib/inc/sysctl_11xx.h **** 	REMAP_USER_RAM_MODE,	/*!< Interrupt vectors are re-mapped to Static RAM */
 119:../../lpc_chip_11cxx_lib/inc/sysctl_11xx.h **** 	REMAP_USER_FLASH_MODE	/*!< Interrupt vectors are not re-mapped and reside in Flash */
 120:../../lpc_chip_11cxx_lib/inc/sysctl_11xx.h **** } CHIP_SYSCTL_BOOT_MODE_REMAP_T;
 121:../../lpc_chip_11cxx_lib/inc/sysctl_11xx.h **** 
 122:../../lpc_chip_11cxx_lib/inc/sysctl_11xx.h **** /**
 123:../../lpc_chip_11cxx_lib/inc/sysctl_11xx.h ****  * @brief	Re-map interrupt vectors
 124:../../lpc_chip_11cxx_lib/inc/sysctl_11xx.h ****  * @param	remap	: system memory map value
 125:../../lpc_chip_11cxx_lib/inc/sysctl_11xx.h ****  * @return	Nothing
 126:../../lpc_chip_11cxx_lib/inc/sysctl_11xx.h ****  */
 127:../../lpc_chip_11cxx_lib/inc/sysctl_11xx.h **** STATIC INLINE void Chip_SYSCTL_Map(CHIP_SYSCTL_BOOT_MODE_REMAP_T remap)
 128:../../lpc_chip_11cxx_lib/inc/sysctl_11xx.h **** {
 129:../../lpc_chip_11cxx_lib/inc/sysctl_11xx.h **** 	LPC_SYSCTL->SYSMEMREMAP = (uint32_t) remap;
 130:../../lpc_chip_11cxx_lib/inc/sysctl_11xx.h **** }
 131:../../lpc_chip_11cxx_lib/inc/sysctl_11xx.h **** 
 132:../../lpc_chip_11cxx_lib/inc/sysctl_11xx.h **** /**
 133:../../lpc_chip_11cxx_lib/inc/sysctl_11xx.h ****  * Peripheral reset identifiers, not available on all devices
 134:../../lpc_chip_11cxx_lib/inc/sysctl_11xx.h ****  */
 135:../../lpc_chip_11cxx_lib/inc/sysctl_11xx.h **** typedef enum {
 136:../../lpc_chip_11cxx_lib/inc/sysctl_11xx.h **** 	RESET_SSP0,			/*!< SSP0 reset control */
 137:../../lpc_chip_11cxx_lib/inc/sysctl_11xx.h **** 	RESET_I2C0,			/*!< I2C0 reset control */
 138:../../lpc_chip_11cxx_lib/inc/sysctl_11xx.h **** 	RESET_SSP1,			/*!< SSP1 reset control */
ARM GAS  /var/folders/f9/8bk2lnw15zn4cbgn6wrnb4lm0000gn/T//ccCGlkPS.s 			page 66


 139:../../lpc_chip_11cxx_lib/inc/sysctl_11xx.h **** #if !defined(CHIP_LPC1125)
 140:../../lpc_chip_11cxx_lib/inc/sysctl_11xx.h **** 	RESET_CAN0,			/*!< CAN0 reset control */
 141:../../lpc_chip_11cxx_lib/inc/sysctl_11xx.h **** 	RESET_UART0,		/*!< UART0 reset control */
 142:../../lpc_chip_11cxx_lib/inc/sysctl_11xx.h **** 	RESET_TIMER0_16,	/*!< 16-bit Timer 0 reset control */
 143:../../lpc_chip_11cxx_lib/inc/sysctl_11xx.h **** 	RESET_TIMER1_16,	/*!< 16-bit Timer 1 reset control */
 144:../../lpc_chip_11cxx_lib/inc/sysctl_11xx.h **** 	RESET_TIMER0_32,	/*!< 32-bit Timer 0 reset control */
 145:../../lpc_chip_11cxx_lib/inc/sysctl_11xx.h **** 	RESET_TIMER1_32,	/*!< 32-bit Timer 1 reset control */
 146:../../lpc_chip_11cxx_lib/inc/sysctl_11xx.h **** 	RESET_ACMP,			/*!< Analog comparator reset control */
 147:../../lpc_chip_11cxx_lib/inc/sysctl_11xx.h **** 	RESET_DAC0,			/*!< DAC reset control */
 148:../../lpc_chip_11cxx_lib/inc/sysctl_11xx.h **** 	RESET_ADC0			/*!< ADC reset control */
 149:../../lpc_chip_11cxx_lib/inc/sysctl_11xx.h **** #endif
 150:../../lpc_chip_11cxx_lib/inc/sysctl_11xx.h **** } CHIP_SYSCTL_PERIPH_RESET_T;
 151:../../lpc_chip_11cxx_lib/inc/sysctl_11xx.h **** 
 152:../../lpc_chip_11cxx_lib/inc/sysctl_11xx.h **** /**
 153:../../lpc_chip_11cxx_lib/inc/sysctl_11xx.h ****  * @brief	Assert reset for a peripheral
 154:../../lpc_chip_11cxx_lib/inc/sysctl_11xx.h ****  * @param	periph	: Peripheral to assert reset for
 155:../../lpc_chip_11cxx_lib/inc/sysctl_11xx.h ****  * @return	Nothing
 156:../../lpc_chip_11cxx_lib/inc/sysctl_11xx.h ****  * @note	The peripheral will stay in reset until reset is de-asserted. Call
 157:../../lpc_chip_11cxx_lib/inc/sysctl_11xx.h ****  * Chip_SYSCTL_DeassertPeriphReset() to de-assert the reset.
 158:../../lpc_chip_11cxx_lib/inc/sysctl_11xx.h ****  */
 159:../../lpc_chip_11cxx_lib/inc/sysctl_11xx.h **** STATIC INLINE void Chip_SYSCTL_AssertPeriphReset(CHIP_SYSCTL_PERIPH_RESET_T periph)
 160:../../lpc_chip_11cxx_lib/inc/sysctl_11xx.h **** {
 161:../../lpc_chip_11cxx_lib/inc/sysctl_11xx.h **** 	LPC_SYSCTL->PRESETCTRL &= ~(1 << (uint32_t) periph);
 2076              		.loc 4 161 0
 2077 0022 124B     		ldr	r3, .L240+4	@ tmp127,
 2078              	.LBE519:
 2079              	.LBE518:
 2080              	.LBE517:
 485:../../lpc_chip_11cxx_lib/src/ssp_11xx.c **** 	Chip_Clock_EnablePeriphClock(Chip_SSP_GetClockIndex(pSSP));
 486:../../lpc_chip_11cxx_lib/src/ssp_11xx.c **** 	Chip_SSP_SetSSPClkDivider(pSSP, 1);
 487:../../lpc_chip_11cxx_lib/src/ssp_11xx.c **** 	Chip_SYSCTL_PeriphReset(Chip_SSP_GetResetIndex(pSSP));
 488:../../lpc_chip_11cxx_lib/src/ssp_11xx.c **** 
 489:../../lpc_chip_11cxx_lib/src/ssp_11xx.c **** 	Chip_SSP_Set_Mode(pSSP, SSP_MODE_MASTER);
 490:../../lpc_chip_11cxx_lib/src/ssp_11xx.c **** 	Chip_SSP_SetFormat(pSSP, SSP_BITS_8, SSP_FRAMEFORMAT_SPI, SSP_CLOCK_CPHA0_CPOL0);
 491:../../lpc_chip_11cxx_lib/src/ssp_11xx.c **** 	Chip_SSP_SetBitRate(pSSP, 100000);
 492:../../lpc_chip_11cxx_lib/src/ssp_11xx.c **** }
 2081              		.loc 1 492 0
 2082              		@ sp needed	@
 2083              	.LBB524:
 2084              	.LBB521:
 2085              	.LBB520:
 2086              		.loc 4 161 0
 2087 0024 5C68     		ldr	r4, [r3, #4]	@ D.6944, MEM[(struct LPC_SYSCTL_T *)1074036736B].PRESETCTRL
 2088 0026 2240     		and	r2, r4	@ D.6944, D.6944
 2089 0028 5A60     		str	r2, [r3, #4]	@ D.6944, MEM[(struct LPC_SYSCTL_T *)1074036736B].PRESETCTRL
 2090              	.LBE520:
 2091              	.LBE521:
 2092              	.LBB522:
 2093              	.LBB523:
 162:../../lpc_chip_11cxx_lib/inc/sysctl_11xx.h **** }
 163:../../lpc_chip_11cxx_lib/inc/sysctl_11xx.h **** 
 164:../../lpc_chip_11cxx_lib/inc/sysctl_11xx.h **** /**
 165:../../lpc_chip_11cxx_lib/inc/sysctl_11xx.h ****  * @brief	De-assert reset for a peripheral
 166:../../lpc_chip_11cxx_lib/inc/sysctl_11xx.h ****  * @param	periph	: Peripheral to de-assert reset for
 167:../../lpc_chip_11cxx_lib/inc/sysctl_11xx.h ****  * @return	Nothing
 168:../../lpc_chip_11cxx_lib/inc/sysctl_11xx.h ****  */
 169:../../lpc_chip_11cxx_lib/inc/sysctl_11xx.h **** STATIC INLINE void Chip_SYSCTL_DeassertPeriphReset(CHIP_SYSCTL_PERIPH_RESET_T periph)
ARM GAS  /var/folders/f9/8bk2lnw15zn4cbgn6wrnb4lm0000gn/T//ccCGlkPS.s 			page 67


 170:../../lpc_chip_11cxx_lib/inc/sysctl_11xx.h **** {
 171:../../lpc_chip_11cxx_lib/inc/sysctl_11xx.h **** 	LPC_SYSCTL->PRESETCTRL |= (1 << (uint32_t) periph);
 2094              		.loc 4 171 0
 2095 002a 5A68     		ldr	r2, [r3, #4]	@ D.6944, MEM[(struct LPC_SYSCTL_T *)1074036736B].PRESETCTRL
 2096 002c 1143     		orr	r1, r2	@ D.6944, D.6944
 2097 002e 5960     		str	r1, [r3, #4]	@ D.6944, MEM[(struct LPC_SYSCTL_T *)1074036736B].PRESETCTRL
 2098              	.LVL190:
 2099              	.LBE523:
 2100              	.LBE522:
 2101              	.LBE524:
 2102              	.LBB525:
 2103              	.LBB526:
 2104              		.loc 2 421 0
 2105 0030 4368     		ldr	r3, [r0, #4]	@ D.6944, pSSP_1(D)->CR1
 2106 0032 0422     		mov	r2, #4	@ tmp131,
 2107 0034 9343     		bic	r3, r2	@ D.6944, tmp131
 2108 0036 4360     		str	r3, [r0, #4]	@ D.6944, pSSP_1(D)->CR1
 2109              	.LVL191:
 2110              	.LBE526:
 2111              	.LBE525:
 2112              	.LBB527:
 2113              	.LBB528:
 408:../../lpc_chip_11cxx_lib/inc/ssp_11xx.h **** 	pSSP->CR0 = (pSSP->CR0 & ~0xFF) | bits | frameFormat | clockMode;
 2114              		.loc 2 408 0
 2115 0038 0368     		ldr	r3, [r0]	@ D.6944, pSSP_1(D)->CR0
 2116 003a FF22     		mov	r2, #255	@ tmp133,
 2117 003c 9343     		bic	r3, r2	@ D.6944, tmp133
 2118 003e 0722     		mov	r2, #7	@ tmp134,
 2119 0040 1343     		orr	r3, r2	@ D.6944, tmp134
 2120 0042 0360     		str	r3, [r0]	@ D.6944, pSSP_1(D)->CR0
 2121              	.LBE528:
 2122              	.LBE527:
 491:../../lpc_chip_11cxx_lib/src/ssp_11xx.c **** 	Chip_SSP_SetBitRate(pSSP, 100000);
 2123              		.loc 1 491 0
 2124 0044 0A49     		ldr	r1, .L240+8	@,
 2125 0046 FFF7FEFF 		bl	Chip_SSP_SetBitRate	@
 2126              	.LVL192:
 2127              		.loc 1 492 0
 2128 004a 10BD     		pop	{r4, pc}
 2129              	.LVL193:
 2130              	.L239:
 2131              	.LBB529:
 2132              	.LBB511:
 297:../../lpc_chip_11cxx_lib/inc/clock_11xx.h **** 	LPC_SYSCTL->SYSAHBCLKCTRL |= (1 << clk);
 2133              		.loc 3 297 0
 2134 004c 074B     		ldr	r3, .L240+4	@ tmp136,
 2135 004e 8022     		mov	r2, #128	@ tmp137,
 2136 0050 9C58     		ldr	r4, [r3, r2]	@ D.6944, MEM[(struct LPC_SYSCTL_T *)1074036736B].SYSAHBCLKCTRL
 2137 0052 8021     		mov	r1, #128	@ tmp154,
 2138 0054 0901     		lsl	r1, r1, #4	@ tmp138, tmp154,
 2139 0056 2143     		orr	r1, r4	@ D.6944, D.6944
 2140 0058 9950     		str	r1, [r3, r2]	@ D.6944, MEM[(struct LPC_SYSCTL_T *)1074036736B].SYSAHBCLKCTRL
 2141              	.LVL194:
 2142              	.LBE511:
 2143              	.LBE529:
 2144              	.LBB530:
 2145              	.LBB515:
ARM GAS  /var/folders/f9/8bk2lnw15zn4cbgn6wrnb4lm0000gn/T//ccCGlkPS.s 			page 68


 2146              	.LBB516:
 319:../../lpc_chip_11cxx_lib/inc/clock_11xx.h **** 	LPC_SYSCTL->SSP0CLKDIV  = div;
 2147              		.loc 3 319 0
 2148 005a 9422     		mov	r2, #148	@ tmp142,
 2149 005c 0121     		mov	r1, #1	@ tmp143,
 2150 005e 9950     		str	r1, [r3, r2]	@ tmp143, MEM[(struct LPC_SYSCTL_T *)1074036736B].SSP0CLKDIV
 2151              	.LVL195:
 2152 0060 0222     		mov	r2, #2	@ tmp155,
 2153 0062 5242     		neg	r2, r2	@ D.6944, tmp155
 2154 0064 DDE7     		b	.L236	@
 2155              	.L241:
 2156 0066 C046     		.align	2
 2157              	.L240:
 2158 0068 00000440 		.word	1074003968
 2159 006c 00800440 		.word	1074036736
 2160 0070 A0860100 		.word	100000
 2161              	.LBE516:
 2162              	.LBE515:
 2163              	.LBE530:
 2164              		.cfi_endproc
 2165              	.LFE215:
 2166              		.size	Chip_SSP_Init, .-Chip_SSP_Init
 2167              		.section	.text.Chip_SSP_DeInit,"ax",%progbits
 2168              		.align	2
 2169              		.global	Chip_SSP_DeInit
 2170              		.code	16
 2171              		.thumb_func
 2172              		.type	Chip_SSP_DeInit, %function
 2173              	Chip_SSP_DeInit:
 2174              	.LFB216:
 493:../../lpc_chip_11cxx_lib/src/ssp_11xx.c **** 
 494:../../lpc_chip_11cxx_lib/src/ssp_11xx.c **** /* De-initializes the SSP peripheral */
 495:../../lpc_chip_11cxx_lib/src/ssp_11xx.c **** void Chip_SSP_DeInit(LPC_SSP_T *pSSP)
 496:../../lpc_chip_11cxx_lib/src/ssp_11xx.c **** {
 2175              		.loc 1 496 0
 2176              		.cfi_startproc
 2177              	.LVL196:
 2178              	.LBB531:
 2179              	.LBB532:
 244:../../lpc_chip_11cxx_lib/inc/ssp_11xx.h **** 	pSSP->CR1 &= (~SSP_CR1_SSP_EN) & SSP_CR1_BITMASK;
 2180              		.loc 2 244 0
 2181 0000 4368     		ldr	r3, [r0, #4]	@ D.6947, pSSP_2(D)->CR1
 2182 0002 0D22     		mov	r2, #13	@ tmp117,
 2183 0004 1340     		and	r3, r2	@ D.6947, tmp117
 2184 0006 4360     		str	r3, [r0, #4]	@ D.6947, pSSP_2(D)->CR1
 2185              	.LVL197:
 2186              	.LBE532:
 2187              	.LBE531:
 2188              	.LBB533:
 2189              	.LBB534:
 109:../../lpc_chip_11cxx_lib/src/ssp_11xx.c **** 	if (pSSP == LPC_SSP0) {
 2190              		.loc 1 109 0
 2191 0008 0B4B     		ldr	r3, .L248	@ tmp118,
 2192 000a 9842     		cmp	r0, r3	@ pSSP, tmp118
 2193 000c 09D0     		beq	.L247	@,
 2194              	.LVL198:
 2195              	.LBE534:
ARM GAS  /var/folders/f9/8bk2lnw15zn4cbgn6wrnb4lm0000gn/T//ccCGlkPS.s 			page 69


 2196              	.LBE533:
 2197              	.LBB535:
 2198              	.LBB536:
 307:../../lpc_chip_11cxx_lib/inc/clock_11xx.h **** 	LPC_SYSCTL->SYSAHBCLKCTRL &= ~(1 << clk);
 2199              		.loc 3 307 0
 2200 000e 0B4B     		ldr	r3, .L248+4	@ tmp127,
 2201 0010 8022     		mov	r2, #128	@ tmp128,
 2202 0012 9858     		ldr	r0, [r3, r2]	@ D.6947,
 2203              	.LVL199:
 2204 0014 0A49     		ldr	r1, .L248+8	@ tmp129,
 2205 0016 0140     		and	r1, r0	@ D.6947, D.6947
 2206 0018 9950     		str	r1, [r3, r2]	@ D.6947, MEM[(struct LPC_SYSCTL_T *)1074036736B].SYSAHBCLKCTRL
 2207              	.LVL200:
 2208              	.LBE536:
 2209              	.LBE535:
 2210              	.LBB538:
 2211              	.LBB539:
 2212              	.LBB540:
 364:../../lpc_chip_11cxx_lib/inc/clock_11xx.h **** 	LPC_SYSCTL->SSP1CLKDIV  = div;
 2213              		.loc 3 364 0
 2214 001a 0021     		mov	r1, #0	@ tmp134,
 2215 001c 9C22     		mov	r2, #156	@ tmp133,
 2216 001e 9950     		str	r1, [r3, r2]	@ tmp134,
 2217              	.LVL201:
 2218              	.L242:
 2219              	.LBE540:
 2220              	.LBE539:
 2221              	.LBE538:
 497:../../lpc_chip_11cxx_lib/src/ssp_11xx.c **** 	Chip_SSP_Disable(pSSP);
 498:../../lpc_chip_11cxx_lib/src/ssp_11xx.c **** 
 499:../../lpc_chip_11cxx_lib/src/ssp_11xx.c **** 	Chip_Clock_DisablePeriphClock(Chip_SSP_GetClockIndex(pSSP));
 500:../../lpc_chip_11cxx_lib/src/ssp_11xx.c **** 	Chip_SSP_SetSSPClkDivider(pSSP, 0);
 501:../../lpc_chip_11cxx_lib/src/ssp_11xx.c **** }
 2222              		.loc 1 501 0
 2223              		@ sp needed	@
 2224 0020 7047     		bx	lr
 2225              	.LVL202:
 2226              	.L247:
 2227              	.LBB543:
 2228              	.LBB537:
 307:../../lpc_chip_11cxx_lib/inc/clock_11xx.h **** 	LPC_SYSCTL->SYSAHBCLKCTRL &= ~(1 << clk);
 2229              		.loc 3 307 0
 2230 0022 064B     		ldr	r3, .L248+4	@ tmp119,
 2231 0024 8022     		mov	r2, #128	@ tmp120,
 2232 0026 9858     		ldr	r0, [r3, r2]	@ D.6947,
 2233              	.LVL203:
 2234 0028 0649     		ldr	r1, .L248+12	@ tmp121,
 2235 002a 0140     		and	r1, r0	@ D.6947, D.6947
 2236 002c 9950     		str	r1, [r3, r2]	@ D.6947, MEM[(struct LPC_SYSCTL_T *)1074036736B].SYSAHBCLKCTRL
 2237              	.LVL204:
 2238              	.LBE537:
 2239              	.LBE543:
 2240              	.LBB544:
 2241              	.LBB541:
 2242              	.LBB542:
 319:../../lpc_chip_11cxx_lib/inc/clock_11xx.h **** 	LPC_SYSCTL->SSP0CLKDIV  = div;
 2243              		.loc 3 319 0
ARM GAS  /var/folders/f9/8bk2lnw15zn4cbgn6wrnb4lm0000gn/T//ccCGlkPS.s 			page 70


 2244 002e 0021     		mov	r1, #0	@ tmp126,
 2245 0030 9422     		mov	r2, #148	@ tmp125,
 2246 0032 9950     		str	r1, [r3, r2]	@ tmp126,
 2247 0034 F4E7     		b	.L242	@
 2248              	.L249:
 2249 0036 C046     		.align	2
 2250              	.L248:
 2251 0038 00000440 		.word	1074003968
 2252 003c 00800440 		.word	1074036736
 2253 0040 FFFFFBFF 		.word	-262145
 2254 0044 FFF7FFFF 		.word	-2049
 2255              	.LBE542:
 2256              	.LBE541:
 2257              	.LBE544:
 2258              		.cfi_endproc
 2259              	.LFE216:
 2260              		.size	Chip_SSP_DeInit, .-Chip_SSP_DeInit
 2261              		.text
 2262              	.Letext0:
 2263              		.file 5 "/usr/local/Cellar/gcc-arm-none-eabi/20140805/arm-none-eabi/include/machine/_default_types
 2264              		.file 6 "/usr/local/Cellar/gcc-arm-none-eabi/20140805/arm-none-eabi/include/stdint.h"
 2265              		.file 7 "../../lpc_chip_11cxx_lib/inc/lpc_types.h"
 2266              		.file 8 "../../lpc_chip_11cxx_lib/inc/chip.h"
 2267              		.section	.debug_info,"",%progbits
 2268              	.Ldebug_info0:
 2269 0000 7E1C0000 		.4byte	0x1c7e
 2270 0004 0400     		.2byte	0x4
 2271 0006 00000000 		.4byte	.Ldebug_abbrev0
 2272 000a 04       		.byte	0x4
 2273 000b 01       		.uleb128 0x1
 2274 000c 810B0000 		.4byte	.LASF1231
 2275 0010 01       		.byte	0x1
 2276 0011 5B160000 		.4byte	.LASF1232
 2277 0015 0F190000 		.4byte	.LASF1233
 2278 0019 60050000 		.4byte	.Ldebug_ranges0+0x560
 2279 001d 00000000 		.4byte	0
 2280 0021 00000000 		.4byte	.Ldebug_line0
 2281 0025 00000000 		.4byte	.Ldebug_macro0
 2282 0029 02       		.uleb128 0x2
 2283 002a 04       		.byte	0x4
 2284 002b 07       		.byte	0x7
 2285 002c D1470000 		.4byte	.LASF988
 2286 0030 02       		.uleb128 0x2
 2287 0031 01       		.byte	0x1
 2288 0032 06       		.byte	0x6
 2289 0033 A51B0000 		.4byte	.LASF989
 2290 0037 03       		.uleb128 0x3
 2291 0038 F80F0000 		.4byte	.LASF992
 2292 003c 05       		.byte	0x5
 2293 003d 1C       		.byte	0x1c
 2294 003e 42000000 		.4byte	0x42
 2295 0042 02       		.uleb128 0x2
 2296 0043 01       		.byte	0x1
 2297 0044 08       		.byte	0x8
 2298 0045 8E1E0000 		.4byte	.LASF990
 2299 0049 02       		.uleb128 0x2
 2300 004a 02       		.byte	0x2
ARM GAS  /var/folders/f9/8bk2lnw15zn4cbgn6wrnb4lm0000gn/T//ccCGlkPS.s 			page 71


 2301 004b 05       		.byte	0x5
 2302 004c B8670000 		.4byte	.LASF991
 2303 0050 03       		.uleb128 0x3
 2304 0051 25260000 		.4byte	.LASF993
 2305 0055 05       		.byte	0x5
 2306 0056 26       		.byte	0x26
 2307 0057 5B000000 		.4byte	0x5b
 2308 005b 02       		.uleb128 0x2
 2309 005c 02       		.byte	0x2
 2310 005d 07       		.byte	0x7
 2311 005e D1740000 		.4byte	.LASF994
 2312 0062 02       		.uleb128 0x2
 2313 0063 04       		.byte	0x4
 2314 0064 05       		.byte	0x5
 2315 0065 E2130000 		.4byte	.LASF995
 2316 0069 03       		.uleb128 0x3
 2317 006a 2C400000 		.4byte	.LASF996
 2318 006e 05       		.byte	0x5
 2319 006f 38       		.byte	0x38
 2320 0070 74000000 		.4byte	0x74
 2321 0074 02       		.uleb128 0x2
 2322 0075 04       		.byte	0x4
 2323 0076 07       		.byte	0x7
 2324 0077 BA360000 		.4byte	.LASF997
 2325 007b 02       		.uleb128 0x2
 2326 007c 08       		.byte	0x8
 2327 007d 05       		.byte	0x5
 2328 007e 6D400000 		.4byte	.LASF998
 2329 0082 02       		.uleb128 0x2
 2330 0083 08       		.byte	0x8
 2331 0084 07       		.byte	0x7
 2332 0085 DA580000 		.4byte	.LASF999
 2333 0089 04       		.uleb128 0x4
 2334 008a 04       		.byte	0x4
 2335 008b 05       		.byte	0x5
 2336 008c 696E7400 		.ascii	"int\000"
 2337 0090 03       		.uleb128 0x3
 2338 0091 DE1B0000 		.4byte	.LASF1000
 2339 0095 06       		.byte	0x6
 2340 0096 2A       		.byte	0x2a
 2341 0097 37000000 		.4byte	0x37
 2342 009b 03       		.uleb128 0x3
 2343 009c C2590000 		.4byte	.LASF1001
 2344 00a0 06       		.byte	0x6
 2345 00a1 36       		.byte	0x36
 2346 00a2 50000000 		.4byte	0x50
 2347 00a6 03       		.uleb128 0x3
 2348 00a7 A9710000 		.4byte	.LASF1002
 2349 00ab 06       		.byte	0x6
 2350 00ac 42       		.byte	0x42
 2351 00ad 69000000 		.4byte	0x69
 2352 00b1 05       		.uleb128 0x5
 2353 00b2 01       		.byte	0x1
 2354 00b3 07       		.byte	0x7
 2355 00b4 3E       		.byte	0x3e
 2356 00b5 C6000000 		.4byte	0xc6
 2357 00b9 06       		.uleb128 0x6
ARM GAS  /var/folders/f9/8bk2lnw15zn4cbgn6wrnb4lm0000gn/T//ccCGlkPS.s 			page 72


 2358 00ba F35F0000 		.4byte	.LASF1003
 2359 00be 00       		.sleb128 0
 2360 00bf 07       		.uleb128 0x7
 2361 00c0 53455400 		.ascii	"SET\000"
 2362 00c4 01       		.sleb128 1
 2363 00c5 00       		.byte	0
 2364 00c6 03       		.uleb128 0x3
 2365 00c7 85620000 		.4byte	.LASF1004
 2366 00cb 07       		.byte	0x7
 2367 00cc 3E       		.byte	0x3e
 2368 00cd B1000000 		.4byte	0xb1
 2369 00d1 03       		.uleb128 0x3
 2370 00d2 8C6E0000 		.4byte	.LASF1005
 2371 00d6 07       		.byte	0x7
 2372 00d7 3E       		.byte	0x3e
 2373 00d8 B1000000 		.4byte	0xb1
 2374 00dc 05       		.uleb128 0x5
 2375 00dd 01       		.byte	0x1
 2376 00de 07       		.byte	0x7
 2377 00df 4A       		.byte	0x4a
 2378 00e0 F1000000 		.4byte	0xf1
 2379 00e4 06       		.uleb128 0x6
 2380 00e5 D33B0000 		.4byte	.LASF1006
 2381 00e9 00       		.sleb128 0
 2382 00ea 06       		.uleb128 0x6
 2383 00eb B85D0000 		.4byte	.LASF1007
 2384 00ef 01       		.sleb128 1
 2385 00f0 00       		.byte	0
 2386 00f1 03       		.uleb128 0x3
 2387 00f2 6C3F0000 		.4byte	.LASF1008
 2388 00f6 07       		.byte	0x7
 2389 00f7 4A       		.byte	0x4a
 2390 00f8 DC000000 		.4byte	0xdc
 2391 00fc 02       		.uleb128 0x2
 2392 00fd 01       		.byte	0x1
 2393 00fe 08       		.byte	0x8
 2394 00ff A9230000 		.4byte	.LASF1009
 2395 0103 02       		.uleb128 0x2
 2396 0104 01       		.byte	0x1
 2397 0105 02       		.byte	0x2
 2398 0106 15220000 		.4byte	.LASF1010
 2399 010a 02       		.uleb128 0x2
 2400 010b 04       		.byte	0x4
 2401 010c 07       		.byte	0x7
 2402 010d A1010000 		.4byte	.LASF1011
 2403 0111 08       		.uleb128 0x8
 2404 0112 A6000000 		.4byte	0xa6
 2405 0116 21010000 		.4byte	0x121
 2406 011a 09       		.uleb128 0x9
 2407 011b 0A010000 		.4byte	0x10a
 2408 011f 07       		.byte	0x7
 2409 0120 00       		.byte	0
 2410 0121 0A       		.uleb128 0xa
 2411 0122 26010000 		.4byte	0x126
 2412 0126 0B       		.uleb128 0xb
 2413 0127 A6000000 		.4byte	0xa6
 2414 012b 08       		.uleb128 0x8
ARM GAS  /var/folders/f9/8bk2lnw15zn4cbgn6wrnb4lm0000gn/T//ccCGlkPS.s 			page 73


 2415 012c A6000000 		.4byte	0xa6
 2416 0130 3B010000 		.4byte	0x13b
 2417 0134 09       		.uleb128 0x9
 2418 0135 0A010000 		.4byte	0x10a
 2419 0139 01       		.byte	0x1
 2420 013a 00       		.byte	0
 2421 013b 08       		.uleb128 0x8
 2422 013c A6000000 		.4byte	0xa6
 2423 0140 4B010000 		.4byte	0x14b
 2424 0144 09       		.uleb128 0x9
 2425 0145 0A010000 		.4byte	0x10a
 2426 0149 03       		.byte	0x3
 2427 014a 00       		.byte	0
 2428 014b 08       		.uleb128 0x8
 2429 014c A6000000 		.4byte	0xa6
 2430 0150 5B010000 		.4byte	0x15b
 2431 0154 09       		.uleb128 0x9
 2432 0155 0A010000 		.4byte	0x10a
 2433 0159 02       		.byte	0x2
 2434 015a 00       		.byte	0
 2435 015b 0C       		.uleb128 0xc
 2436 015c F803     		.2byte	0x3f8
 2437 015e 04       		.byte	0x4
 2438 015f 2F       		.byte	0x2f
 2439 0160 70040000 		.4byte	0x470
 2440 0164 0D       		.uleb128 0xd
 2441 0165 7A2E0000 		.4byte	.LASF1012
 2442 0169 04       		.byte	0x4
 2443 016a 30       		.byte	0x30
 2444 016b 26010000 		.4byte	0x126
 2445 016f 00       		.byte	0
 2446 0170 0D       		.uleb128 0xd
 2447 0171 115E0000 		.4byte	.LASF1013
 2448 0175 04       		.byte	0x4
 2449 0176 31       		.byte	0x31
 2450 0177 26010000 		.4byte	0x126
 2451 017b 04       		.byte	0x4
 2452 017c 0D       		.uleb128 0xd
 2453 017d DB2D0000 		.4byte	.LASF1014
 2454 0181 04       		.byte	0x4
 2455 0182 32       		.byte	0x32
 2456 0183 26010000 		.4byte	0x126
 2457 0187 08       		.byte	0x8
 2458 0188 0D       		.uleb128 0xd
 2459 0189 306E0000 		.4byte	.LASF1015
 2460 018d 04       		.byte	0x4
 2461 018e 33       		.byte	0x33
 2462 018f 21010000 		.4byte	0x121
 2463 0193 0C       		.byte	0xc
 2464 0194 0D       		.uleb128 0xd
 2465 0195 176E0000 		.4byte	.LASF1016
 2466 0199 04       		.byte	0x4
 2467 019a 34       		.byte	0x34
 2468 019b 26010000 		.4byte	0x126
 2469 019f 10       		.byte	0x10
 2470 01a0 0D       		.uleb128 0xd
 2471 01a1 83340000 		.4byte	.LASF1017
ARM GAS  /var/folders/f9/8bk2lnw15zn4cbgn6wrnb4lm0000gn/T//ccCGlkPS.s 			page 74


 2472 01a5 04       		.byte	0x4
 2473 01a6 35       		.byte	0x35
 2474 01a7 21010000 		.4byte	0x121
 2475 01ab 14       		.byte	0x14
 2476 01ac 0D       		.uleb128 0xd
 2477 01ad 841E0000 		.4byte	.LASF1018
 2478 01b1 04       		.byte	0x4
 2479 01b2 36       		.byte	0x36
 2480 01b3 70040000 		.4byte	0x470
 2481 01b7 18       		.byte	0x18
 2482 01b8 0D       		.uleb128 0xd
 2483 01b9 77530000 		.4byte	.LASF1019
 2484 01bd 04       		.byte	0x4
 2485 01be 37       		.byte	0x37
 2486 01bf 26010000 		.4byte	0x126
 2487 01c3 20       		.byte	0x20
 2488 01c4 0D       		.uleb128 0xd
 2489 01c5 96730000 		.4byte	.LASF1020
 2490 01c9 04       		.byte	0x4
 2491 01ca 38       		.byte	0x38
 2492 01cb 26010000 		.4byte	0x126
 2493 01cf 24       		.byte	0x24
 2494 01d0 0D       		.uleb128 0xd
 2495 01d1 2A5D0000 		.4byte	.LASF1021
 2496 01d5 04       		.byte	0x4
 2497 01d6 39       		.byte	0x39
 2498 01d7 26010000 		.4byte	0x126
 2499 01db 28       		.byte	0x28
 2500 01dc 0D       		.uleb128 0xd
 2501 01dd B7650000 		.4byte	.LASF1022
 2502 01e1 04       		.byte	0x4
 2503 01e2 3A       		.byte	0x3a
 2504 01e3 26010000 		.4byte	0x126
 2505 01e7 2C       		.byte	0x2c
 2506 01e8 0D       		.uleb128 0xd
 2507 01e9 75420000 		.4byte	.LASF1023
 2508 01ed 04       		.byte	0x4
 2509 01ee 3B       		.byte	0x3b
 2510 01ef 26010000 		.4byte	0x126
 2511 01f3 30       		.byte	0x30
 2512 01f4 0D       		.uleb128 0xd
 2513 01f5 E1220000 		.4byte	.LASF1024
 2514 01f9 04       		.byte	0x4
 2515 01fa 3C       		.byte	0x3c
 2516 01fb 7A040000 		.4byte	0x47a
 2517 01ff 34       		.byte	0x34
 2518 0200 0D       		.uleb128 0xd
 2519 0201 48150000 		.4byte	.LASF1025
 2520 0205 04       		.byte	0x4
 2521 0206 3D       		.byte	0x3d
 2522 0207 26010000 		.4byte	0x126
 2523 020b 40       		.byte	0x40
 2524 020c 0D       		.uleb128 0xd
 2525 020d 13480000 		.4byte	.LASF1026
 2526 0211 04       		.byte	0x4
 2527 0212 3E       		.byte	0x3e
 2528 0213 26010000 		.4byte	0x126
ARM GAS  /var/folders/f9/8bk2lnw15zn4cbgn6wrnb4lm0000gn/T//ccCGlkPS.s 			page 75


 2529 0217 44       		.byte	0x44
 2530 0218 0D       		.uleb128 0xd
 2531 0219 091C0000 		.4byte	.LASF1027
 2532 021d 04       		.byte	0x4
 2533 021e 3F       		.byte	0x3f
 2534 021f 26010000 		.4byte	0x126
 2535 0223 48       		.byte	0x48
 2536 0224 0D       		.uleb128 0xd
 2537 0225 5D4E0000 		.4byte	.LASF1028
 2538 0229 04       		.byte	0x4
 2539 022a 40       		.byte	0x40
 2540 022b 26010000 		.4byte	0x126
 2541 022f 4C       		.byte	0x4c
 2542 0230 0D       		.uleb128 0xd
 2543 0231 9C1E0000 		.4byte	.LASF1029
 2544 0235 04       		.byte	0x4
 2545 0236 41       		.byte	0x41
 2546 0237 84040000 		.4byte	0x484
 2547 023b 50       		.byte	0x50
 2548 023c 0D       		.uleb128 0xd
 2549 023d FA1E0000 		.4byte	.LASF1030
 2550 0241 04       		.byte	0x4
 2551 0242 42       		.byte	0x42
 2552 0243 26010000 		.4byte	0x126
 2553 0247 70       		.byte	0x70
 2554 0248 0D       		.uleb128 0xd
 2555 0249 ED510000 		.4byte	.LASF1031
 2556 024d 04       		.byte	0x4
 2557 024e 43       		.byte	0x43
 2558 024f 26010000 		.4byte	0x126
 2559 0253 74       		.byte	0x74
 2560 0254 0D       		.uleb128 0xd
 2561 0255 474B0000 		.4byte	.LASF1032
 2562 0259 04       		.byte	0x4
 2563 025a 44       		.byte	0x44
 2564 025b 26010000 		.4byte	0x126
 2565 025f 78       		.byte	0x78
 2566 0260 0D       		.uleb128 0xd
 2567 0261 A61E0000 		.4byte	.LASF1033
 2568 0265 04       		.byte	0x4
 2569 0266 45       		.byte	0x45
 2570 0267 21010000 		.4byte	0x121
 2571 026b 7C       		.byte	0x7c
 2572 026c 0D       		.uleb128 0xd
 2573 026d C35C0000 		.4byte	.LASF1034
 2574 0271 04       		.byte	0x4
 2575 0272 46       		.byte	0x46
 2576 0273 26010000 		.4byte	0x126
 2577 0277 80       		.byte	0x80
 2578 0278 0D       		.uleb128 0xd
 2579 0279 B01E0000 		.4byte	.LASF1035
 2580 027d 04       		.byte	0x4
 2581 027e 47       		.byte	0x47
 2582 027f 8E040000 		.4byte	0x48e
 2583 0283 84       		.byte	0x84
 2584 0284 0D       		.uleb128 0xd
 2585 0285 CC6E0000 		.4byte	.LASF1036
ARM GAS  /var/folders/f9/8bk2lnw15zn4cbgn6wrnb4lm0000gn/T//ccCGlkPS.s 			page 76


 2586 0289 04       		.byte	0x4
 2587 028a 48       		.byte	0x48
 2588 028b 26010000 		.4byte	0x126
 2589 028f 94       		.byte	0x94
 2590 0290 0D       		.uleb128 0xd
 2591 0291 0C240000 		.4byte	.LASF1037
 2592 0295 04       		.byte	0x4
 2593 0296 49       		.byte	0x49
 2594 0297 26010000 		.4byte	0x126
 2595 029b 98       		.byte	0x98
 2596 029c 0D       		.uleb128 0xd
 2597 029d 78740000 		.4byte	.LASF1038
 2598 02a1 04       		.byte	0x4
 2599 02a2 4A       		.byte	0x4a
 2600 02a3 26010000 		.4byte	0x126
 2601 02a7 9C       		.byte	0x9c
 2602 02a8 0D       		.uleb128 0xd
 2603 02a9 BA1E0000 		.4byte	.LASF1039
 2604 02ad 04       		.byte	0x4
 2605 02ae 4B       		.byte	0x4b
 2606 02af 98040000 		.4byte	0x498
 2607 02b3 A0       		.byte	0xa0
 2608 02b4 0D       		.uleb128 0xd
 2609 02b5 3F780000 		.4byte	.LASF1040
 2610 02b9 04       		.byte	0x4
 2611 02ba 4C       		.byte	0x4c
 2612 02bb 26010000 		.4byte	0x126
 2613 02bf C0       		.byte	0xc0
 2614 02c0 0D       		.uleb128 0xd
 2615 02c1 2E300000 		.4byte	.LASF1041
 2616 02c5 04       		.byte	0x4
 2617 02c6 4D       		.byte	0x4d
 2618 02c7 26010000 		.4byte	0x126
 2619 02cb C4       		.byte	0xc4
 2620 02cc 0D       		.uleb128 0xd
 2621 02cd 180A0000 		.4byte	.LASF1042
 2622 02d1 04       		.byte	0x4
 2623 02d2 4E       		.byte	0x4e
 2624 02d3 26010000 		.4byte	0x126
 2625 02d7 C8       		.byte	0xc8
 2626 02d8 0D       		.uleb128 0xd
 2627 02d9 C41E0000 		.4byte	.LASF1043
 2628 02dd 04       		.byte	0x4
 2629 02de 4F       		.byte	0x4f
 2630 02df 21010000 		.4byte	0x121
 2631 02e3 CC       		.byte	0xcc
 2632 02e4 0D       		.uleb128 0xd
 2633 02e5 8E600000 		.4byte	.LASF1044
 2634 02e9 04       		.byte	0x4
 2635 02ea 50       		.byte	0x50
 2636 02eb 26010000 		.4byte	0x126
 2637 02ef D0       		.byte	0xd0
 2638 02f0 0D       		.uleb128 0xd
 2639 02f1 65150000 		.4byte	.LASF1045
 2640 02f5 04       		.byte	0x4
 2641 02f6 51       		.byte	0x51
 2642 02f7 26010000 		.4byte	0x126
ARM GAS  /var/folders/f9/8bk2lnw15zn4cbgn6wrnb4lm0000gn/T//ccCGlkPS.s 			page 77


 2643 02fb D4       		.byte	0xd4
 2644 02fc 0D       		.uleb128 0xd
 2645 02fd 5F6D0000 		.4byte	.LASF1046
 2646 0301 04       		.byte	0x4
 2647 0302 52       		.byte	0x52
 2648 0303 26010000 		.4byte	0x126
 2649 0307 D8       		.byte	0xd8
 2650 0308 0D       		.uleb128 0xd
 2651 0309 CE1E0000 		.4byte	.LASF1047
 2652 030d 04       		.byte	0x4
 2653 030e 53       		.byte	0x53
 2654 030f 21010000 		.4byte	0x121
 2655 0313 DC       		.byte	0xdc
 2656 0314 0D       		.uleb128 0xd
 2657 0315 3D670000 		.4byte	.LASF1048
 2658 0319 04       		.byte	0x4
 2659 031a 54       		.byte	0x54
 2660 031b 26010000 		.4byte	0x126
 2661 031f E0       		.byte	0xe0
 2662 0320 0D       		.uleb128 0xd
 2663 0321 8E1C0000 		.4byte	.LASF1049
 2664 0325 04       		.byte	0x4
 2665 0326 55       		.byte	0x55
 2666 0327 26010000 		.4byte	0x126
 2667 032b E4       		.byte	0xe4
 2668 032c 0D       		.uleb128 0xd
 2669 032d D6730000 		.4byte	.LASF1050
 2670 0331 04       		.byte	0x4
 2671 0332 56       		.byte	0x56
 2672 0333 26010000 		.4byte	0x126
 2673 0337 E8       		.byte	0xe8
 2674 0338 0D       		.uleb128 0xd
 2675 0339 D81E0000 		.4byte	.LASF1051
 2676 033d 04       		.byte	0x4
 2677 033e 57       		.byte	0x57
 2678 033f B2040000 		.4byte	0x4b2
 2679 0343 EC       		.byte	0xec
 2680 0344 0E       		.uleb128 0xe
 2681 0345 B8140000 		.4byte	.LASF1052
 2682 0349 04       		.byte	0x4
 2683 034a 58       		.byte	0x58
 2684 034b BC040000 		.4byte	0x4bc
 2685 034f 0001     		.2byte	0x100
 2686 0351 0E       		.uleb128 0xe
 2687 0352 415B0000 		.4byte	.LASF1053
 2688 0356 04       		.byte	0x4
 2689 0357 59       		.byte	0x59
 2690 0358 D6040000 		.4byte	0x4d6
 2691 035c 0801     		.2byte	0x108
 2692 035e 0E       		.uleb128 0xe
 2693 035f 99060000 		.4byte	.LASF1054
 2694 0363 04       		.byte	0x4
 2695 0364 5A       		.byte	0x5a
 2696 0365 26010000 		.4byte	0x126
 2697 0369 5001     		.2byte	0x150
 2698 036b 0E       		.uleb128 0xe
 2699 036c AF770000 		.4byte	.LASF1055
ARM GAS  /var/folders/f9/8bk2lnw15zn4cbgn6wrnb4lm0000gn/T//ccCGlkPS.s 			page 78


 2700 0370 04       		.byte	0x4
 2701 0371 5B       		.byte	0x5b
 2702 0372 26010000 		.4byte	0x126
 2703 0376 5401     		.2byte	0x154
 2704 0378 0E       		.uleb128 0xe
 2705 0379 4C5B0000 		.4byte	.LASF1056
 2706 037d 04       		.byte	0x4
 2707 037e 5C       		.byte	0x5c
 2708 037f F0040000 		.4byte	0x4f0
 2709 0383 5801     		.2byte	0x158
 2710 0385 0E       		.uleb128 0xe
 2711 0386 E8330000 		.4byte	.LASF1057
 2712 038a 04       		.byte	0x4
 2713 038b 5D       		.byte	0x5d
 2714 038c 26010000 		.4byte	0x126
 2715 0390 7001     		.2byte	0x170
 2716 0392 0E       		.uleb128 0xe
 2717 0393 006C0000 		.4byte	.LASF1058
 2718 0397 04       		.byte	0x4
 2719 0398 5E       		.byte	0x5e
 2720 0399 26010000 		.4byte	0x126
 2721 039d 7401     		.2byte	0x174
 2722 039f 0E       		.uleb128 0xe
 2723 03a0 09120000 		.4byte	.LASF1059
 2724 03a4 04       		.byte	0x4
 2725 03a5 5F       		.byte	0x5f
 2726 03a6 FA040000 		.4byte	0x4fa
 2727 03aa 7801     		.2byte	0x178
 2728 03ac 0E       		.uleb128 0xe
 2729 03ad 4B310000 		.4byte	.LASF1060
 2730 03b1 04       		.byte	0x4
 2731 03b2 60       		.byte	0x60
 2732 03b3 26010000 		.4byte	0x126
 2733 03b7 9801     		.2byte	0x198
 2734 03b9 0E       		.uleb128 0xe
 2735 03ba 085E0000 		.4byte	.LASF1061
 2736 03be 04       		.byte	0x4
 2737 03bf 61       		.byte	0x61
 2738 03c0 21010000 		.4byte	0x121
 2739 03c4 9C01     		.2byte	0x19c
 2740 03c6 0E       		.uleb128 0xe
 2741 03c7 575B0000 		.4byte	.LASF1062
 2742 03cb 04       		.byte	0x4
 2743 03cc 62       		.byte	0x62
 2744 03cd 0F050000 		.4byte	0x50f
 2745 03d1 A001     		.2byte	0x1a0
 2746 03d3 0E       		.uleb128 0xe
 2747 03d4 5E4D0000 		.4byte	.LASF1063
 2748 03d8 04       		.byte	0x4
 2749 03d9 63       		.byte	0x63
 2750 03da 26010000 		.4byte	0x126
 2751 03de 0002     		.2byte	0x200
 2752 03e0 0E       		.uleb128 0xe
 2753 03e1 CC690000 		.4byte	.LASF1064
 2754 03e5 04       		.byte	0x4
 2755 03e6 64       		.byte	0x64
 2756 03e7 26010000 		.4byte	0x126
ARM GAS  /var/folders/f9/8bk2lnw15zn4cbgn6wrnb4lm0000gn/T//ccCGlkPS.s 			page 79


 2757 03eb 0402     		.2byte	0x204
 2758 03ed 0E       		.uleb128 0xe
 2759 03ee 226E0000 		.4byte	.LASF1065
 2760 03f2 04       		.byte	0x4
 2761 03f3 65       		.byte	0x65
 2762 03f4 26010000 		.4byte	0x126
 2763 03f8 0802     		.2byte	0x208
 2764 03fa 0E       		.uleb128 0xe
 2765 03fb FC710000 		.4byte	.LASF1066
 2766 03ff 04       		.byte	0x4
 2767 0400 66       		.byte	0x66
 2768 0401 26010000 		.4byte	0x126
 2769 0405 0C02     		.2byte	0x20c
 2770 0407 0E       		.uleb128 0xe
 2771 0408 625B0000 		.4byte	.LASF1067
 2772 040c 04       		.byte	0x4
 2773 040d 67       		.byte	0x67
 2774 040e 21010000 		.4byte	0x121
 2775 0412 1002     		.2byte	0x210
 2776 0414 0E       		.uleb128 0xe
 2777 0415 D6690000 		.4byte	.LASF1068
 2778 0419 04       		.byte	0x4
 2779 041a 68       		.byte	0x68
 2780 041b 26010000 		.4byte	0x126
 2781 041f 1402     		.2byte	0x214
 2782 0421 0E       		.uleb128 0xe
 2783 0422 6D5B0000 		.4byte	.LASF1069
 2784 0426 04       		.byte	0x4
 2785 0427 69       		.byte	0x69
 2786 0428 19050000 		.4byte	0x519
 2787 042c 1802     		.2byte	0x218
 2788 042e 0E       		.uleb128 0xe
 2789 042f 094C0000 		.4byte	.LASF1070
 2790 0433 04       		.byte	0x4
 2791 0434 6A       		.byte	0x6a
 2792 0435 26010000 		.4byte	0x126
 2793 0439 3002     		.2byte	0x230
 2794 043b 0E       		.uleb128 0xe
 2795 043c F05D0000 		.4byte	.LASF1071
 2796 0440 04       		.byte	0x4
 2797 0441 6B       		.byte	0x6b
 2798 0442 26010000 		.4byte	0x126
 2799 0446 3402     		.2byte	0x234
 2800 0448 0E       		.uleb128 0xe
 2801 0449 651A0000 		.4byte	.LASF1072
 2802 044d 04       		.byte	0x4
 2803 044e 6C       		.byte	0x6c
 2804 044f 26010000 		.4byte	0x126
 2805 0453 3802     		.2byte	0x238
 2806 0455 0E       		.uleb128 0xe
 2807 0456 785B0000 		.4byte	.LASF1073
 2808 045a 04       		.byte	0x4
 2809 045b 6D       		.byte	0x6d
 2810 045c 33050000 		.4byte	0x533
 2811 0460 3C02     		.2byte	0x23c
 2812 0462 0E       		.uleb128 0xe
 2813 0463 C2660000 		.4byte	.LASF1074
ARM GAS  /var/folders/f9/8bk2lnw15zn4cbgn6wrnb4lm0000gn/T//ccCGlkPS.s 			page 80


 2814 0467 04       		.byte	0x4
 2815 0468 6E       		.byte	0x6e
 2816 0469 21010000 		.4byte	0x121
 2817 046d F403     		.2byte	0x3f4
 2818 046f 00       		.byte	0
 2819 0470 0A       		.uleb128 0xa
 2820 0471 75040000 		.4byte	0x475
 2821 0475 0B       		.uleb128 0xb
 2822 0476 2B010000 		.4byte	0x12b
 2823 047a 0A       		.uleb128 0xa
 2824 047b 7F040000 		.4byte	0x47f
 2825 047f 0B       		.uleb128 0xb
 2826 0480 4B010000 		.4byte	0x14b
 2827 0484 0A       		.uleb128 0xa
 2828 0485 89040000 		.4byte	0x489
 2829 0489 0B       		.uleb128 0xb
 2830 048a 11010000 		.4byte	0x111
 2831 048e 0A       		.uleb128 0xa
 2832 048f 93040000 		.4byte	0x493
 2833 0493 0B       		.uleb128 0xb
 2834 0494 3B010000 		.4byte	0x13b
 2835 0498 0A       		.uleb128 0xa
 2836 0499 9D040000 		.4byte	0x49d
 2837 049d 0B       		.uleb128 0xb
 2838 049e 11010000 		.4byte	0x111
 2839 04a2 08       		.uleb128 0x8
 2840 04a3 A6000000 		.4byte	0xa6
 2841 04a7 B2040000 		.4byte	0x4b2
 2842 04ab 09       		.uleb128 0x9
 2843 04ac 0A010000 		.4byte	0x10a
 2844 04b0 04       		.byte	0x4
 2845 04b1 00       		.byte	0
 2846 04b2 0A       		.uleb128 0xa
 2847 04b3 B7040000 		.4byte	0x4b7
 2848 04b7 0B       		.uleb128 0xb
 2849 04b8 A2040000 		.4byte	0x4a2
 2850 04bc 0A       		.uleb128 0xa
 2851 04bd C1040000 		.4byte	0x4c1
 2852 04c1 0B       		.uleb128 0xb
 2853 04c2 2B010000 		.4byte	0x12b
 2854 04c6 08       		.uleb128 0x8
 2855 04c7 A6000000 		.4byte	0xa6
 2856 04cb D6040000 		.4byte	0x4d6
 2857 04cf 09       		.uleb128 0x9
 2858 04d0 0A010000 		.4byte	0x10a
 2859 04d4 11       		.byte	0x11
 2860 04d5 00       		.byte	0
 2861 04d6 0A       		.uleb128 0xa
 2862 04d7 DB040000 		.4byte	0x4db
 2863 04db 0B       		.uleb128 0xb
 2864 04dc C6040000 		.4byte	0x4c6
 2865 04e0 08       		.uleb128 0x8
 2866 04e1 A6000000 		.4byte	0xa6
 2867 04e5 F0040000 		.4byte	0x4f0
 2868 04e9 09       		.uleb128 0x9
 2869 04ea 0A010000 		.4byte	0x10a
 2870 04ee 05       		.byte	0x5
ARM GAS  /var/folders/f9/8bk2lnw15zn4cbgn6wrnb4lm0000gn/T//ccCGlkPS.s 			page 81


 2871 04ef 00       		.byte	0
 2872 04f0 0A       		.uleb128 0xa
 2873 04f1 F5040000 		.4byte	0x4f5
 2874 04f5 0B       		.uleb128 0xb
 2875 04f6 E0040000 		.4byte	0x4e0
 2876 04fa 0B       		.uleb128 0xb
 2877 04fb 11010000 		.4byte	0x111
 2878 04ff 08       		.uleb128 0x8
 2879 0500 A6000000 		.4byte	0xa6
 2880 0504 0F050000 		.4byte	0x50f
 2881 0508 09       		.uleb128 0x9
 2882 0509 0A010000 		.4byte	0x10a
 2883 050d 17       		.byte	0x17
 2884 050e 00       		.byte	0
 2885 050f 0A       		.uleb128 0xa
 2886 0510 14050000 		.4byte	0x514
 2887 0514 0B       		.uleb128 0xb
 2888 0515 FF040000 		.4byte	0x4ff
 2889 0519 0A       		.uleb128 0xa
 2890 051a 1E050000 		.4byte	0x51e
 2891 051e 0B       		.uleb128 0xb
 2892 051f E0040000 		.4byte	0x4e0
 2893 0523 08       		.uleb128 0x8
 2894 0524 A6000000 		.4byte	0xa6
 2895 0528 33050000 		.4byte	0x533
 2896 052c 09       		.uleb128 0x9
 2897 052d 0A010000 		.4byte	0x10a
 2898 0531 6D       		.byte	0x6d
 2899 0532 00       		.byte	0
 2900 0533 0A       		.uleb128 0xa
 2901 0534 38050000 		.4byte	0x538
 2902 0538 0B       		.uleb128 0xb
 2903 0539 23050000 		.4byte	0x523
 2904 053d 03       		.uleb128 0x3
 2905 053e 52100000 		.4byte	.LASF1075
 2906 0542 04       		.byte	0x4
 2907 0543 6F       		.byte	0x6f
 2908 0544 5B010000 		.4byte	0x15b
 2909 0548 05       		.uleb128 0x5
 2910 0549 01       		.byte	0x1
 2911 054a 04       		.byte	0x4
 2912 054b 87       		.byte	0x87
 2913 054c 99050000 		.4byte	0x599
 2914 0550 06       		.uleb128 0x6
 2915 0551 A37A0000 		.4byte	.LASF1076
 2916 0555 00       		.sleb128 0
 2917 0556 06       		.uleb128 0x6
 2918 0557 E86B0000 		.4byte	.LASF1077
 2919 055b 01       		.sleb128 1
 2920 055c 06       		.uleb128 0x6
 2921 055d AE7A0000 		.4byte	.LASF1078
 2922 0561 02       		.sleb128 2
 2923 0562 06       		.uleb128 0x6
 2924 0563 5F090000 		.4byte	.LASF1079
 2925 0567 03       		.sleb128 3
 2926 0568 06       		.uleb128 0x6
 2927 0569 B60E0000 		.4byte	.LASF1080
ARM GAS  /var/folders/f9/8bk2lnw15zn4cbgn6wrnb4lm0000gn/T//ccCGlkPS.s 			page 82


 2928 056d 04       		.sleb128 4
 2929 056e 06       		.uleb128 0x6
 2930 056f B2710000 		.4byte	.LASF1081
 2931 0573 05       		.sleb128 5
 2932 0574 06       		.uleb128 0x6
 2933 0575 9C350000 		.4byte	.LASF1082
 2934 0579 06       		.sleb128 6
 2935 057a 06       		.uleb128 0x6
 2936 057b 20790000 		.4byte	.LASF1083
 2937 057f 07       		.sleb128 7
 2938 0580 06       		.uleb128 0x6
 2939 0581 E63D0000 		.4byte	.LASF1084
 2940 0585 08       		.sleb128 8
 2941 0586 06       		.uleb128 0x6
 2942 0587 CD4A0000 		.4byte	.LASF1085
 2943 058b 09       		.sleb128 9
 2944 058c 06       		.uleb128 0x6
 2945 058d 862E0000 		.4byte	.LASF1086
 2946 0591 0A       		.sleb128 10
 2947 0592 06       		.uleb128 0x6
 2948 0593 FE390000 		.4byte	.LASF1087
 2949 0597 0B       		.sleb128 11
 2950 0598 00       		.byte	0
 2951 0599 03       		.uleb128 0x3
 2952 059a 72470000 		.4byte	.LASF1088
 2953 059e 04       		.byte	0x4
 2954 059f 96       		.byte	0x96
 2955 05a0 48050000 		.4byte	0x548
 2956 05a4 0F       		.uleb128 0xf
 2957 05a5 C13B0000 		.4byte	.LASF1112
 2958 05a9 01       		.byte	0x1
 2959 05aa 03       		.byte	0x3
 2960 05ab E4       		.byte	0xe4
 2961 05ac 23060000 		.4byte	0x623
 2962 05b0 06       		.uleb128 0x6
 2963 05b1 87000000 		.4byte	.LASF1089
 2964 05b5 00       		.sleb128 0
 2965 05b6 06       		.uleb128 0x6
 2966 05b7 D53D0000 		.4byte	.LASF1090
 2967 05bb 01       		.sleb128 1
 2968 05bc 06       		.uleb128 0x6
 2969 05bd 7E010000 		.4byte	.LASF1091
 2970 05c1 02       		.sleb128 2
 2971 05c2 06       		.uleb128 0x6
 2972 05c3 8E550000 		.4byte	.LASF1092
 2973 05c7 03       		.sleb128 3
 2974 05c8 06       		.uleb128 0x6
 2975 05c9 23330000 		.4byte	.LASF1093
 2976 05cd 04       		.sleb128 4
 2977 05ce 06       		.uleb128 0x6
 2978 05cf ED590000 		.4byte	.LASF1094
 2979 05d3 05       		.sleb128 5
 2980 05d4 06       		.uleb128 0x6
 2981 05d5 D6330000 		.4byte	.LASF1095
 2982 05d9 06       		.sleb128 6
 2983 05da 06       		.uleb128 0x6
 2984 05db 95710000 		.4byte	.LASF1096
ARM GAS  /var/folders/f9/8bk2lnw15zn4cbgn6wrnb4lm0000gn/T//ccCGlkPS.s 			page 83


 2985 05df 07       		.sleb128 7
 2986 05e0 06       		.uleb128 0x6
 2987 05e1 37070000 		.4byte	.LASF1097
 2988 05e5 08       		.sleb128 8
 2989 05e6 06       		.uleb128 0x6
 2990 05e7 600E0000 		.4byte	.LASF1098
 2991 05eb 09       		.sleb128 9
 2992 05ec 06       		.uleb128 0x6
 2993 05ed 740E0000 		.4byte	.LASF1099
 2994 05f1 0A       		.sleb128 10
 2995 05f2 06       		.uleb128 0x6
 2996 05f3 5B240000 		.4byte	.LASF1100
 2997 05f7 0B       		.sleb128 11
 2998 05f8 06       		.uleb128 0x6
 2999 05f9 DA590000 		.4byte	.LASF1101
 3000 05fd 0C       		.sleb128 12
 3001 05fe 06       		.uleb128 0x6
 3002 05ff A5570000 		.4byte	.LASF1102
 3003 0603 0D       		.sleb128 13
 3004 0604 06       		.uleb128 0x6
 3005 0605 48590000 		.4byte	.LASF1103
 3006 0609 0E       		.sleb128 14
 3007 060a 06       		.uleb128 0x6
 3008 060b A80F0000 		.4byte	.LASF1104
 3009 060f 0F       		.sleb128 15
 3010 0610 06       		.uleb128 0x6
 3011 0611 F13B0000 		.4byte	.LASF1105
 3012 0615 10       		.sleb128 16
 3013 0616 06       		.uleb128 0x6
 3014 0617 197B0000 		.4byte	.LASF1106
 3015 061b 11       		.sleb128 17
 3016 061c 06       		.uleb128 0x6
 3017 061d 6D240000 		.4byte	.LASF1107
 3018 0621 12       		.sleb128 18
 3019 0622 00       		.byte	0
 3020 0623 10       		.uleb128 0x10
 3021 0624 6F060000 		.4byte	.LASF1108
 3022 0628 03       		.byte	0x3
 3023 0629 2001     		.2byte	0x120
 3024 062b A4050000 		.4byte	0x5a4
 3025 062f 11       		.uleb128 0x11
 3026 0630 04       		.byte	0x4
 3027 0631 12       		.uleb128 0x12
 3028 0632 24       		.byte	0x24
 3029 0633 02       		.byte	0x2
 3030 0634 2F       		.byte	0x2f
 3031 0635 A4060000 		.4byte	0x6a4
 3032 0639 13       		.uleb128 0x13
 3033 063a 43523000 		.ascii	"CR0\000"
 3034 063e 02       		.byte	0x2
 3035 063f 30       		.byte	0x30
 3036 0640 26010000 		.4byte	0x126
 3037 0644 00       		.byte	0
 3038 0645 13       		.uleb128 0x13
 3039 0646 43523100 		.ascii	"CR1\000"
 3040 064a 02       		.byte	0x2
 3041 064b 31       		.byte	0x31
ARM GAS  /var/folders/f9/8bk2lnw15zn4cbgn6wrnb4lm0000gn/T//ccCGlkPS.s 			page 84


 3042 064c 26010000 		.4byte	0x126
 3043 0650 04       		.byte	0x4
 3044 0651 13       		.uleb128 0x13
 3045 0652 445200   		.ascii	"DR\000"
 3046 0655 02       		.byte	0x2
 3047 0656 32       		.byte	0x32
 3048 0657 26010000 		.4byte	0x126
 3049 065b 08       		.byte	0x8
 3050 065c 13       		.uleb128 0x13
 3051 065d 535200   		.ascii	"SR\000"
 3052 0660 02       		.byte	0x2
 3053 0661 33       		.byte	0x33
 3054 0662 21010000 		.4byte	0x121
 3055 0666 0C       		.byte	0xc
 3056 0667 0D       		.uleb128 0xd
 3057 0668 2B640000 		.4byte	.LASF1109
 3058 066c 02       		.byte	0x2
 3059 066d 34       		.byte	0x34
 3060 066e 26010000 		.4byte	0x126
 3061 0672 10       		.byte	0x10
 3062 0673 0D       		.uleb128 0xd
 3063 0674 251C0000 		.4byte	.LASF1110
 3064 0678 02       		.byte	0x2
 3065 0679 35       		.byte	0x35
 3066 067a 26010000 		.4byte	0x126
 3067 067e 14       		.byte	0x14
 3068 067f 13       		.uleb128 0x13
 3069 0680 52495300 		.ascii	"RIS\000"
 3070 0684 02       		.byte	0x2
 3071 0685 36       		.byte	0x36
 3072 0686 21010000 		.4byte	0x121
 3073 068a 18       		.byte	0x18
 3074 068b 13       		.uleb128 0x13
 3075 068c 4D495300 		.ascii	"MIS\000"
 3076 0690 02       		.byte	0x2
 3077 0691 37       		.byte	0x37
 3078 0692 21010000 		.4byte	0x121
 3079 0696 1C       		.byte	0x1c
 3080 0697 13       		.uleb128 0x13
 3081 0698 49435200 		.ascii	"ICR\000"
 3082 069c 02       		.byte	0x2
 3083 069d 38       		.byte	0x38
 3084 069e 26010000 		.4byte	0x126
 3085 06a2 20       		.byte	0x20
 3086 06a3 00       		.byte	0
 3087 06a4 03       		.uleb128 0x3
 3088 06a5 650B0000 		.4byte	.LASF1111
 3089 06a9 02       		.byte	0x2
 3090 06aa 39       		.byte	0x39
 3091 06ab 31060000 		.4byte	0x631
 3092 06af 0F       		.uleb128 0xf
 3093 06b0 68210000 		.4byte	.LASF1113
 3094 06b4 01       		.byte	0x1
 3095 06b5 02       		.byte	0x2
 3096 06b6 81       		.byte	0x81
 3097 06b7 DA060000 		.4byte	0x6da
 3098 06bb 06       		.uleb128 0x6
ARM GAS  /var/folders/f9/8bk2lnw15zn4cbgn6wrnb4lm0000gn/T//ccCGlkPS.s 			page 85


 3099 06bc F36B0000 		.4byte	.LASF1114
 3100 06c0 01       		.sleb128 1
 3101 06c1 06       		.uleb128 0x6
 3102 06c2 080F0000 		.4byte	.LASF1115
 3103 06c6 02       		.sleb128 2
 3104 06c7 06       		.uleb128 0x6
 3105 06c8 965B0000 		.4byte	.LASF1116
 3106 06cc 04       		.sleb128 4
 3107 06cd 06       		.uleb128 0x6
 3108 06ce 493B0000 		.4byte	.LASF1117
 3109 06d2 08       		.sleb128 8
 3110 06d3 06       		.uleb128 0x6
 3111 06d4 65550000 		.4byte	.LASF1118
 3112 06d8 10       		.sleb128 16
 3113 06d9 00       		.byte	0
 3114 06da 03       		.uleb128 0x3
 3115 06db 8B380000 		.4byte	.LASF1119
 3116 06df 02       		.byte	0x2
 3117 06e0 87       		.byte	0x87
 3118 06e1 AF060000 		.4byte	0x6af
 3119 06e5 0F       		.uleb128 0xf
 3120 06e6 227C0000 		.4byte	.LASF1120
 3121 06ea 01       		.byte	0x1
 3122 06eb 02       		.byte	0x2
 3123 06ec A2       		.byte	0xa2
 3124 06ed 10070000 		.4byte	0x710
 3125 06f1 06       		.uleb128 0x6
 3126 06f2 BB4E0000 		.4byte	.LASF1121
 3127 06f6 01       		.sleb128 1
 3128 06f7 06       		.uleb128 0x6
 3129 06f8 75200000 		.4byte	.LASF1122
 3130 06fc 02       		.sleb128 2
 3131 06fd 06       		.uleb128 0x6
 3132 06fe EB220000 		.4byte	.LASF1123
 3133 0702 04       		.sleb128 4
 3134 0703 06       		.uleb128 0x6
 3135 0704 50770000 		.4byte	.LASF1124
 3136 0708 08       		.sleb128 8
 3137 0709 06       		.uleb128 0x6
 3138 070a 52190000 		.4byte	.LASF1125
 3139 070e 0F       		.sleb128 15
 3140 070f 00       		.byte	0
 3141 0710 03       		.uleb128 0x3
 3142 0711 8A560000 		.4byte	.LASF1126
 3143 0715 02       		.byte	0x2
 3144 0716 A8       		.byte	0xa8
 3145 0717 E5060000 		.4byte	0x6e5
 3146 071b 0F       		.uleb128 0xf
 3147 071c DF210000 		.4byte	.LASF1127
 3148 0720 01       		.byte	0x1
 3149 0721 02       		.byte	0x2
 3150 0722 AA       		.byte	0xaa
 3151 0723 3A070000 		.4byte	0x73a
 3152 0727 06       		.uleb128 0x6
 3153 0728 C0430000 		.4byte	.LASF1128
 3154 072c 00       		.sleb128 0
 3155 072d 06       		.uleb128 0x6
ARM GAS  /var/folders/f9/8bk2lnw15zn4cbgn6wrnb4lm0000gn/T//ccCGlkPS.s 			page 86


 3156 072e 566D0000 		.4byte	.LASF1129
 3157 0732 01       		.sleb128 1
 3158 0733 06       		.uleb128 0x6
 3159 0734 51180000 		.4byte	.LASF1130
 3160 0738 03       		.sleb128 3
 3161 0739 00       		.byte	0
 3162 073a 03       		.uleb128 0x3
 3163 073b F0730000 		.4byte	.LASF1131
 3164 073f 02       		.byte	0x2
 3165 0740 AE       		.byte	0xae
 3166 0741 1B070000 		.4byte	0x71b
 3167 0745 0F       		.uleb128 0xf
 3168 0746 E42A0000 		.4byte	.LASF1132
 3169 074a 01       		.byte	0x1
 3170 074b 02       		.byte	0x2
 3171 074c B3       		.byte	0xb3
 3172 074d 88070000 		.4byte	0x788
 3173 0751 06       		.uleb128 0x6
 3174 0752 082D0000 		.4byte	.LASF1133
 3175 0756 00       		.sleb128 0
 3176 0757 06       		.uleb128 0x6
 3177 0758 1E2D0000 		.4byte	.LASF1134
 3178 075c C000     		.sleb128 64
 3179 075e 06       		.uleb128 0x6
 3180 075f F9490000 		.4byte	.LASF1135
 3181 0763 8001     		.sleb128 128
 3182 0765 06       		.uleb128 0x6
 3183 0766 0F4A0000 		.4byte	.LASF1136
 3184 076a C001     		.sleb128 192
 3185 076c 06       		.uleb128 0x6
 3186 076d BB2D0000 		.4byte	.LASF1137
 3187 0771 00       		.sleb128 0
 3188 0772 06       		.uleb128 0x6
 3189 0773 CB2D0000 		.4byte	.LASF1138
 3190 0777 8001     		.sleb128 128
 3191 0779 06       		.uleb128 0x6
 3192 077a DE050000 		.4byte	.LASF1139
 3193 077e C000     		.sleb128 64
 3194 0780 06       		.uleb128 0x6
 3195 0781 E62D0000 		.4byte	.LASF1140
 3196 0785 C001     		.sleb128 192
 3197 0787 00       		.byte	0
 3198 0788 0F       		.uleb128 0xf
 3199 0789 23090000 		.4byte	.LASF1141
 3200 078d 01       		.byte	0x1
 3201 078e 02       		.byte	0x2
 3202 078f C1       		.byte	0xc1
 3203 0790 A7070000 		.4byte	0x7a7
 3204 0794 06       		.uleb128 0x6
 3205 0795 AF5C0000 		.4byte	.LASF1142
 3206 0799 00       		.sleb128 0
 3207 079a 06       		.uleb128 0x6
 3208 079b 582D0000 		.4byte	.LASF1143
 3209 079f 10       		.sleb128 16
 3210 07a0 06       		.uleb128 0x6
 3211 07a1 5F630000 		.4byte	.LASF1144
 3212 07a5 20       		.sleb128 32
ARM GAS  /var/folders/f9/8bk2lnw15zn4cbgn6wrnb4lm0000gn/T//ccCGlkPS.s 			page 87


 3213 07a6 00       		.byte	0
 3214 07a7 0F       		.uleb128 0xf
 3215 07a8 26770000 		.4byte	.LASF1145
 3216 07ac 01       		.byte	0x1
 3217 07ad 02       		.byte	0x2
 3218 07ae CA       		.byte	0xca
 3219 07af 02080000 		.4byte	0x802
 3220 07b3 06       		.uleb128 0x6
 3221 07b4 177C0000 		.4byte	.LASF1146
 3222 07b8 03       		.sleb128 3
 3223 07b9 06       		.uleb128 0x6
 3224 07ba 051F0000 		.4byte	.LASF1147
 3225 07be 04       		.sleb128 4
 3226 07bf 06       		.uleb128 0x6
 3227 07c0 347C0000 		.4byte	.LASF1148
 3228 07c4 05       		.sleb128 5
 3229 07c5 06       		.uleb128 0x6
 3230 07c6 3F7C0000 		.4byte	.LASF1149
 3231 07ca 06       		.sleb128 6
 3232 07cb 06       		.uleb128 0x6
 3233 07cc 4A7C0000 		.4byte	.LASF1150
 3234 07d0 07       		.sleb128 7
 3235 07d1 06       		.uleb128 0x6
 3236 07d2 557C0000 		.4byte	.LASF1151
 3237 07d6 08       		.sleb128 8
 3238 07d7 06       		.uleb128 0x6
 3239 07d8 47630000 		.4byte	.LASF1152
 3240 07dc 09       		.sleb128 9
 3241 07dd 06       		.uleb128 0x6
 3242 07de 53630000 		.4byte	.LASF1153
 3243 07e2 0A       		.sleb128 10
 3244 07e3 06       		.uleb128 0x6
 3245 07e4 4B030000 		.4byte	.LASF1154
 3246 07e8 0B       		.sleb128 11
 3247 07e9 06       		.uleb128 0x6
 3248 07ea 79630000 		.4byte	.LASF1155
 3249 07ee 0C       		.sleb128 12
 3250 07ef 06       		.uleb128 0x6
 3251 07f0 85630000 		.4byte	.LASF1156
 3252 07f4 0D       		.sleb128 13
 3253 07f5 06       		.uleb128 0x6
 3254 07f6 91630000 		.4byte	.LASF1157
 3255 07fa 0E       		.sleb128 14
 3256 07fb 06       		.uleb128 0x6
 3257 07fc 9D630000 		.4byte	.LASF1158
 3258 0800 0F       		.sleb128 15
 3259 0801 00       		.byte	0
 3260 0802 14       		.uleb128 0x14
 3261 0803 67180000 		.4byte	.LASF1159
 3262 0807 01       		.byte	0x1
 3263 0808 02       		.byte	0x2
 3264 0809 AB01     		.2byte	0x1ab
 3265 080b 1C080000 		.4byte	0x81c
 3266 080f 06       		.uleb128 0x6
 3267 0810 5A140000 		.4byte	.LASF1160
 3268 0814 00       		.sleb128 0
 3269 0815 06       		.uleb128 0x6
ARM GAS  /var/folders/f9/8bk2lnw15zn4cbgn6wrnb4lm0000gn/T//ccCGlkPS.s 			page 88


 3270 0816 517B0000 		.4byte	.LASF1161
 3271 081a 04       		.sleb128 4
 3272 081b 00       		.byte	0
 3273 081c 15       		.uleb128 0x15
 3274 081d 14       		.byte	0x14
 3275 081e 02       		.byte	0x2
 3276 081f BB01     		.2byte	0x1bb
 3277 0821 67080000 		.4byte	0x867
 3278 0825 16       		.uleb128 0x16
 3279 0826 5D1A0000 		.4byte	.LASF1162
 3280 082a 02       		.byte	0x2
 3281 082b BC01     		.2byte	0x1bc
 3282 082d 2F060000 		.4byte	0x62f
 3283 0831 00       		.byte	0
 3284 0832 16       		.uleb128 0x16
 3285 0833 7D600000 		.4byte	.LASF1163
 3286 0837 02       		.byte	0x2
 3287 0838 BD01     		.2byte	0x1bd
 3288 083a A6000000 		.4byte	0xa6
 3289 083e 04       		.byte	0x4
 3290 083f 16       		.uleb128 0x16
 3291 0840 6C0D0000 		.4byte	.LASF1164
 3292 0844 02       		.byte	0x2
 3293 0845 BE01     		.2byte	0x1be
 3294 0847 2F060000 		.4byte	0x62f
 3295 084b 08       		.byte	0x8
 3296 084c 16       		.uleb128 0x16
 3297 084d DD420000 		.4byte	.LASF1165
 3298 0851 02       		.byte	0x2
 3299 0852 BF01     		.2byte	0x1bf
 3300 0854 A6000000 		.4byte	0xa6
 3301 0858 0C       		.byte	0xc
 3302 0859 16       		.uleb128 0x16
 3303 085a BB590000 		.4byte	.LASF1166
 3304 085e 02       		.byte	0x2
 3305 085f C001     		.2byte	0x1c0
 3306 0861 A6000000 		.4byte	0xa6
 3307 0865 10       		.byte	0x10
 3308 0866 00       		.byte	0
 3309 0867 10       		.uleb128 0x10
 3310 0868 BE530000 		.4byte	.LASF1167
 3311 086c 02       		.byte	0x2
 3312 086d C101     		.2byte	0x1c1
 3313 086f 1C080000 		.4byte	0x81c
 3314 0873 0A       		.uleb128 0xa
 3315 0874 A6000000 		.4byte	0xa6
 3316 0878 17       		.uleb128 0x17
 3317 0879 04       		.byte	0x4
 3318 087a 90000000 		.4byte	0x90
 3319 087e 18       		.uleb128 0x18
 3320 087f B11B0000 		.4byte	.LASF1168
 3321 0883 04       		.byte	0x4
 3322 0884 9F       		.byte	0x9f
 3323 0885 03       		.byte	0x3
 3324 0886 96080000 		.4byte	0x896
 3325 088a 19       		.uleb128 0x19
 3326 088b E9620000 		.4byte	.LASF1170
ARM GAS  /var/folders/f9/8bk2lnw15zn4cbgn6wrnb4lm0000gn/T//ccCGlkPS.s 			page 89


 3327 088f 04       		.byte	0x4
 3328 0890 9F       		.byte	0x9f
 3329 0891 99050000 		.4byte	0x599
 3330 0895 00       		.byte	0
 3331 0896 18       		.uleb128 0x18
 3332 0897 274B0000 		.4byte	.LASF1169
 3333 089b 04       		.byte	0x4
 3334 089c A9       		.byte	0xa9
 3335 089d 03       		.byte	0x3
 3336 089e AE080000 		.4byte	0x8ae
 3337 08a2 19       		.uleb128 0x19
 3338 08a3 E9620000 		.4byte	.LASF1170
 3339 08a7 04       		.byte	0x4
 3340 08a8 A9       		.byte	0xa9
 3341 08a9 99050000 		.4byte	0x599
 3342 08ad 00       		.byte	0
 3343 08ae 1A       		.uleb128 0x1a
 3344 08af 02500000 		.4byte	.LASF1171
 3345 08b3 02       		.byte	0x2
 3346 08b4 7701     		.2byte	0x177
 3347 08b6 03       		.byte	0x3
 3348 08b7 D4080000 		.4byte	0x8d4
 3349 08bb 1B       		.uleb128 0x1b
 3350 08bc 39100000 		.4byte	.LASF1172
 3351 08c0 02       		.byte	0x2
 3352 08c1 7701     		.2byte	0x177
 3353 08c3 D4080000 		.4byte	0x8d4
 3354 08c7 1B       		.uleb128 0x1b
 3355 08c8 5D1A0000 		.4byte	.LASF1162
 3356 08cc 02       		.byte	0x2
 3357 08cd 7701     		.2byte	0x177
 3358 08cf 9B000000 		.4byte	0x9b
 3359 08d3 00       		.byte	0
 3360 08d4 17       		.uleb128 0x17
 3361 08d5 04       		.byte	0x4
 3362 08d6 A4060000 		.4byte	0x6a4
 3363 08da 18       		.uleb128 0x18
 3364 08db 1E300000 		.4byte	.LASF1173
 3365 08df 01       		.byte	0x1
 3366 08e0 2E       		.byte	0x2e
 3367 08e1 01       		.byte	0x1
 3368 08e2 FD080000 		.4byte	0x8fd
 3369 08e6 19       		.uleb128 0x19
 3370 08e7 39100000 		.4byte	.LASF1172
 3371 08eb 01       		.byte	0x1
 3372 08ec 2E       		.byte	0x2e
 3373 08ed D4080000 		.4byte	0x8d4
 3374 08f1 19       		.uleb128 0x19
 3375 08f2 0A210000 		.4byte	.LASF1174
 3376 08f6 01       		.byte	0x1
 3377 08f7 2E       		.byte	0x2e
 3378 08f8 FD080000 		.4byte	0x8fd
 3379 08fc 00       		.byte	0
 3380 08fd 17       		.uleb128 0x17
 3381 08fe 04       		.byte	0x4
 3382 08ff 67080000 		.4byte	0x867
 3383 0903 18       		.uleb128 0x18
ARM GAS  /var/folders/f9/8bk2lnw15zn4cbgn6wrnb4lm0000gn/T//ccCGlkPS.s 			page 90


 3384 0904 37380000 		.4byte	.LASF1175
 3385 0908 01       		.byte	0x1
 3386 0909 3C       		.byte	0x3c
 3387 090a 01       		.byte	0x1
 3388 090b 26090000 		.4byte	0x926
 3389 090f 19       		.uleb128 0x19
 3390 0910 39100000 		.4byte	.LASF1172
 3391 0914 01       		.byte	0x1
 3392 0915 3C       		.byte	0x3c
 3393 0916 D4080000 		.4byte	0x8d4
 3394 091a 19       		.uleb128 0x19
 3395 091b 0A210000 		.4byte	.LASF1174
 3396 091f 01       		.byte	0x1
 3397 0920 3C       		.byte	0x3c
 3398 0921 FD080000 		.4byte	0x8fd
 3399 0925 00       		.byte	0
 3400 0926 1C       		.uleb128 0x1c
 3401 0927 E8450000 		.4byte	.LASF1176
 3402 092b 02       		.byte	0x2
 3403 092c 6C01     		.2byte	0x16c
 3404 092e 9B000000 		.4byte	0x9b
 3405 0932 03       		.byte	0x3
 3406 0933 44090000 		.4byte	0x944
 3407 0937 1B       		.uleb128 0x1b
 3408 0938 39100000 		.4byte	.LASF1172
 3409 093c 02       		.byte	0x2
 3410 093d 6C01     		.2byte	0x16c
 3411 093f D4080000 		.4byte	0x8d4
 3412 0943 00       		.byte	0
 3413 0944 1C       		.uleb128 0x1c
 3414 0945 956F0000 		.4byte	.LASF1177
 3415 0949 02       		.byte	0x2
 3416 094a 1A01     		.2byte	0x11a
 3417 094c C6000000 		.4byte	0xc6
 3418 0950 03       		.byte	0x3
 3419 0951 6E090000 		.4byte	0x96e
 3420 0955 1B       		.uleb128 0x1b
 3421 0956 39100000 		.4byte	.LASF1172
 3422 095a 02       		.byte	0x2
 3423 095b 1A01     		.2byte	0x11a
 3424 095d D4080000 		.4byte	0x8d4
 3425 0961 1B       		.uleb128 0x1b
 3426 0962 DD4D0000 		.4byte	.LASF1178
 3427 0966 02       		.byte	0x2
 3428 0967 1A01     		.2byte	0x11a
 3429 0969 DA060000 		.4byte	0x6da
 3430 096d 00       		.byte	0
 3431 096e 1A       		.uleb128 0x1a
 3432 096f F4270000 		.4byte	.LASF1179
 3433 0973 03       		.byte	0x3
 3434 0974 3D01     		.2byte	0x13d
 3435 0976 03       		.byte	0x3
 3436 0977 88090000 		.4byte	0x988
 3437 097b 1D       		.uleb128 0x1d
 3438 097c 64697600 		.ascii	"div\000"
 3439 0980 03       		.byte	0x3
 3440 0981 3D01     		.2byte	0x13d
ARM GAS  /var/folders/f9/8bk2lnw15zn4cbgn6wrnb4lm0000gn/T//ccCGlkPS.s 			page 91


 3441 0983 A6000000 		.4byte	0xa6
 3442 0987 00       		.byte	0
 3443 0988 1A       		.uleb128 0x1a
 3444 0989 01430000 		.4byte	.LASF1180
 3445 098d 03       		.byte	0x3
 3446 098e 6A01     		.2byte	0x16a
 3447 0990 03       		.byte	0x3
 3448 0991 A2090000 		.4byte	0x9a2
 3449 0995 1D       		.uleb128 0x1d
 3450 0996 64697600 		.ascii	"div\000"
 3451 099a 03       		.byte	0x3
 3452 099b 6A01     		.2byte	0x16a
 3453 099d A6000000 		.4byte	0xa6
 3454 09a1 00       		.byte	0
 3455 09a2 1E       		.uleb128 0x1e
 3456 09a3 1E360000 		.4byte	.LASF1181
 3457 09a7 03       		.byte	0x3
 3458 09a8 4701     		.2byte	0x147
 3459 09aa A6000000 		.4byte	0xa6
 3460 09ae 03       		.byte	0x3
 3461 09af 1E       		.uleb128 0x1e
 3462 09b0 8A510000 		.4byte	.LASF1182
 3463 09b4 03       		.byte	0x3
 3464 09b5 7401     		.2byte	0x174
 3465 09b7 A6000000 		.4byte	0xa6
 3466 09bb 03       		.byte	0x3
 3467 09bc 1A       		.uleb128 0x1a
 3468 09bd 8D150000 		.4byte	.LASF1183
 3469 09c1 02       		.byte	0x2
 3470 09c2 4E01     		.2byte	0x14e
 3471 09c4 03       		.byte	0x3
 3472 09c5 E2090000 		.4byte	0x9e2
 3473 09c9 1B       		.uleb128 0x1b
 3474 09ca 39100000 		.4byte	.LASF1172
 3475 09ce 02       		.byte	0x2
 3476 09cf 4E01     		.2byte	0x14e
 3477 09d1 D4080000 		.4byte	0x8d4
 3478 09d5 1B       		.uleb128 0x1b
 3479 09d6 77260000 		.4byte	.LASF1184
 3480 09da 02       		.byte	0x2
 3481 09db 4E01     		.2byte	0x14e
 3482 09dd 3A070000 		.4byte	0x73a
 3483 09e1 00       		.byte	0
 3484 09e2 1C       		.uleb128 0x1c
 3485 09e3 36350000 		.4byte	.LASF1185
 3486 09e7 02       		.byte	0x2
 3487 09e8 4001     		.2byte	0x140
 3488 09ea 90000000 		.4byte	0x90
 3489 09ee 03       		.byte	0x3
 3490 09ef 000A0000 		.4byte	0xa00
 3491 09f3 1B       		.uleb128 0x1b
 3492 09f4 39100000 		.4byte	.LASF1172
 3493 09f8 02       		.byte	0x2
 3494 09f9 4001     		.2byte	0x140
 3495 09fb D4080000 		.4byte	0x8d4
 3496 09ff 00       		.byte	0
 3497 0a00 1C       		.uleb128 0x1c
ARM GAS  /var/folders/f9/8bk2lnw15zn4cbgn6wrnb4lm0000gn/T//ccCGlkPS.s 			page 92


 3498 0a01 97500000 		.4byte	.LASF1186
 3499 0a05 02       		.byte	0x2
 3500 0a06 3501     		.2byte	0x135
 3501 0a08 D1000000 		.4byte	0xd1
 3502 0a0c 03       		.byte	0x3
 3503 0a0d 2A0A0000 		.4byte	0xa2a
 3504 0a11 1B       		.uleb128 0x1b
 3505 0a12 39100000 		.4byte	.LASF1172
 3506 0a16 02       		.byte	0x2
 3507 0a17 3501     		.2byte	0x135
 3508 0a19 D4080000 		.4byte	0x8d4
 3509 0a1d 1B       		.uleb128 0x1b
 3510 0a1e 88030000 		.4byte	.LASF1187
 3511 0a22 02       		.byte	0x2
 3512 0a23 3501     		.2byte	0x135
 3513 0a25 10070000 		.4byte	0x710
 3514 0a29 00       		.byte	0
 3515 0a2a 18       		.uleb128 0x18
 3516 0a2b 19460000 		.4byte	.LASF1188
 3517 0a2f 01       		.byte	0x1
 3518 0a30 49       		.byte	0x49
 3519 0a31 01       		.byte	0x1
 3520 0a32 580A0000 		.4byte	0xa58
 3521 0a36 19       		.uleb128 0x19
 3522 0a37 39100000 		.4byte	.LASF1172
 3523 0a3b 01       		.byte	0x1
 3524 0a3c 49       		.byte	0x49
 3525 0a3d D4080000 		.4byte	0x8d4
 3526 0a41 19       		.uleb128 0x19
 3527 0a42 0A210000 		.4byte	.LASF1174
 3528 0a46 01       		.byte	0x1
 3529 0a47 49       		.byte	0x49
 3530 0a48 FD080000 		.4byte	0x8fd
 3531 0a4c 1F       		.uleb128 0x1f
 3532 0a4d B2720000 		.4byte	.LASF1192
 3533 0a51 01       		.byte	0x1
 3534 0a52 4B       		.byte	0x4b
 3535 0a53 9B000000 		.4byte	0x9b
 3536 0a57 00       		.byte	0
 3537 0a58 1A       		.uleb128 0x1a
 3538 0a59 D76E0000 		.4byte	.LASF1189
 3539 0a5d 02       		.byte	0x2
 3540 0a5e A301     		.2byte	0x1a3
 3541 0a60 03       		.byte	0x3
 3542 0a61 7E0A0000 		.4byte	0xa7e
 3543 0a65 1B       		.uleb128 0x1b
 3544 0a66 39100000 		.4byte	.LASF1172
 3545 0a6a 02       		.byte	0x2
 3546 0a6b A301     		.2byte	0x1a3
 3547 0a6d D4080000 		.4byte	0x8d4
 3548 0a71 1B       		.uleb128 0x1b
 3549 0a72 A0680000 		.4byte	.LASF1190
 3550 0a76 02       		.byte	0x2
 3551 0a77 A301     		.2byte	0x1a3
 3552 0a79 A6000000 		.4byte	0xa6
 3553 0a7d 00       		.byte	0
 3554 0a7e 20       		.uleb128 0x20
ARM GAS  /var/folders/f9/8bk2lnw15zn4cbgn6wrnb4lm0000gn/T//ccCGlkPS.s 			page 93


 3555 0a7f CA240000 		.4byte	.LASF1191
 3556 0a83 01       		.byte	0x1
 3557 0a84 96       		.byte	0x96
 3558 0a85 A6000000 		.4byte	0xa6
 3559 0a89 01       		.byte	0x1
 3560 0a8a A50A0000 		.4byte	0xaa5
 3561 0a8e 19       		.uleb128 0x19
 3562 0a8f 39100000 		.4byte	.LASF1172
 3563 0a93 01       		.byte	0x1
 3564 0a94 96       		.byte	0x96
 3565 0a95 D4080000 		.4byte	0x8d4
 3566 0a99 1F       		.uleb128 0x1f
 3567 0a9a CA720000 		.4byte	.LASF1193
 3568 0a9e 01       		.byte	0x1
 3569 0a9f 98       		.byte	0x98
 3570 0aa0 A6000000 		.4byte	0xa6
 3571 0aa4 00       		.byte	0
 3572 0aa5 21       		.uleb128 0x21
 3573 0aa6 08350000 		.4byte	.LASF1234
 3574 0aaa 01       		.byte	0x1
 3575 0aab AB       		.byte	0xab
 3576 0aac 01       		.byte	0x1
 3577 0aad DE0A0000 		.4byte	0xade
 3578 0ab1 19       		.uleb128 0x19
 3579 0ab2 39100000 		.4byte	.LASF1172
 3580 0ab6 01       		.byte	0x1
 3581 0ab7 AB       		.byte	0xab
 3582 0ab8 D4080000 		.4byte	0x8d4
 3583 0abc 19       		.uleb128 0x19
 3584 0abd EB010000 		.4byte	.LASF1194
 3585 0ac1 01       		.byte	0x1
 3586 0ac2 AB       		.byte	0xab
 3587 0ac3 A6000000 		.4byte	0xa6
 3588 0ac7 19       		.uleb128 0x19
 3589 0ac8 74770000 		.4byte	.LASF1195
 3590 0acc 01       		.byte	0x1
 3591 0acd AB       		.byte	0xab
 3592 0ace A6000000 		.4byte	0xa6
 3593 0ad2 1F       		.uleb128 0x1f
 3594 0ad3 CA780000 		.4byte	.LASF1196
 3595 0ad7 01       		.byte	0x1
 3596 0ad8 AD       		.byte	0xad
 3597 0ad9 A6000000 		.4byte	0xa6
 3598 0add 00       		.byte	0
 3599 0ade 20       		.uleb128 0x20
 3600 0adf D32B0000 		.4byte	.LASF1197
 3601 0ae3 01       		.byte	0x1
 3602 0ae4 69       		.byte	0x69
 3603 0ae5 23060000 		.4byte	0x623
 3604 0ae9 01       		.byte	0x1
 3605 0aea 050B0000 		.4byte	0xb05
 3606 0aee 19       		.uleb128 0x19
 3607 0aef 39100000 		.4byte	.LASF1172
 3608 0af3 01       		.byte	0x1
 3609 0af4 69       		.byte	0x69
 3610 0af5 D4080000 		.4byte	0x8d4
 3611 0af9 1F       		.uleb128 0x1f
ARM GAS  /var/folders/f9/8bk2lnw15zn4cbgn6wrnb4lm0000gn/T//ccCGlkPS.s 			page 94


 3612 0afa E03E0000 		.4byte	.LASF1198
 3613 0afe 01       		.byte	0x1
 3614 0aff 6B       		.byte	0x6b
 3615 0b00 23060000 		.4byte	0x623
 3616 0b04 00       		.byte	0
 3617 0b05 1A       		.uleb128 0x1a
 3618 0b06 76590000 		.4byte	.LASF1199
 3619 0b0a 03       		.byte	0x3
 3620 0b0b 2701     		.2byte	0x127
 3621 0b0d 03       		.byte	0x3
 3622 0b0e 1F0B0000 		.4byte	0xb1f
 3623 0b12 1D       		.uleb128 0x1d
 3624 0b13 636C6B00 		.ascii	"clk\000"
 3625 0b17 03       		.byte	0x3
 3626 0b18 2701     		.2byte	0x127
 3627 0b1a 23060000 		.4byte	0x623
 3628 0b1e 00       		.byte	0
 3629 0b1f 18       		.uleb128 0x18
 3630 0b20 0A650000 		.4byte	.LASF1200
 3631 0b24 01       		.byte	0x1
 3632 0b25 89       		.byte	0x89
 3633 0b26 01       		.byte	0x1
 3634 0b27 420B0000 		.4byte	0xb42
 3635 0b2b 19       		.uleb128 0x19
 3636 0b2c 39100000 		.4byte	.LASF1172
 3637 0b30 01       		.byte	0x1
 3638 0b31 89       		.byte	0x89
 3639 0b32 D4080000 		.4byte	0x8d4
 3640 0b36 22       		.uleb128 0x22
 3641 0b37 64697600 		.ascii	"div\000"
 3642 0b3b 01       		.byte	0x1
 3643 0b3c 89       		.byte	0x89
 3644 0b3d A6000000 		.4byte	0xa6
 3645 0b41 00       		.byte	0
 3646 0b42 20       		.uleb128 0x20
 3647 0b43 D1720000 		.4byte	.LASF1201
 3648 0b47 01       		.byte	0x1
 3649 0b48 7A       		.byte	0x7a
 3650 0b49 99050000 		.4byte	0x599
 3651 0b4d 01       		.byte	0x1
 3652 0b4e 690B0000 		.4byte	0xb69
 3653 0b52 19       		.uleb128 0x19
 3654 0b53 39100000 		.4byte	.LASF1172
 3655 0b57 01       		.byte	0x1
 3656 0b58 7A       		.byte	0x7a
 3657 0b59 D4080000 		.4byte	0x8d4
 3658 0b5d 1F       		.uleb128 0x1f
 3659 0b5e B1700000 		.4byte	.LASF1202
 3660 0b62 01       		.byte	0x1
 3661 0b63 7C       		.byte	0x7c
 3662 0b64 99050000 		.4byte	0x599
 3663 0b68 00       		.byte	0
 3664 0b69 18       		.uleb128 0x18
 3665 0b6a D0160000 		.4byte	.LASF1203
 3666 0b6e 04       		.byte	0x4
 3667 0b6f B3       		.byte	0xb3
 3668 0b70 03       		.byte	0x3
ARM GAS  /var/folders/f9/8bk2lnw15zn4cbgn6wrnb4lm0000gn/T//ccCGlkPS.s 			page 95


 3669 0b71 810B0000 		.4byte	0xb81
 3670 0b75 19       		.uleb128 0x19
 3671 0b76 E9620000 		.4byte	.LASF1170
 3672 0b7a 04       		.byte	0x4
 3673 0b7b B3       		.byte	0xb3
 3674 0b7c 99050000 		.4byte	0x599
 3675 0b80 00       		.byte	0
 3676 0b81 1A       		.uleb128 0x1a
 3677 0b82 CF440000 		.4byte	.LASF1204
 3678 0b86 02       		.byte	0x2
 3679 0b87 9601     		.2byte	0x196
 3680 0b89 03       		.byte	0x3
 3681 0b8a BF0B0000 		.4byte	0xbbf
 3682 0b8e 1B       		.uleb128 0x1b
 3683 0b8f 39100000 		.4byte	.LASF1172
 3684 0b93 02       		.byte	0x2
 3685 0b94 9601     		.2byte	0x196
 3686 0b96 D4080000 		.4byte	0x8d4
 3687 0b9a 1B       		.uleb128 0x1b
 3688 0b9b F94B0000 		.4byte	.LASF1205
 3689 0b9f 02       		.byte	0x2
 3690 0ba0 9601     		.2byte	0x196
 3691 0ba2 A6000000 		.4byte	0xa6
 3692 0ba6 1B       		.uleb128 0x1b
 3693 0ba7 2C1E0000 		.4byte	.LASF1206
 3694 0bab 02       		.byte	0x2
 3695 0bac 9601     		.2byte	0x196
 3696 0bae A6000000 		.4byte	0xa6
 3697 0bb2 1B       		.uleb128 0x1b
 3698 0bb3 5A790000 		.4byte	.LASF1207
 3699 0bb7 02       		.byte	0x2
 3700 0bb8 9601     		.2byte	0x196
 3701 0bba A6000000 		.4byte	0xa6
 3702 0bbe 00       		.byte	0
 3703 0bbf 18       		.uleb128 0x18
 3704 0bc0 E5040000 		.4byte	.LASF1208
 3705 0bc4 02       		.byte	0x2
 3706 0bc5 F2       		.byte	0xf2
 3707 0bc6 03       		.byte	0x3
 3708 0bc7 D70B0000 		.4byte	0xbd7
 3709 0bcb 19       		.uleb128 0x19
 3710 0bcc 39100000 		.4byte	.LASF1172
 3711 0bd0 02       		.byte	0x2
 3712 0bd1 F2       		.byte	0xf2
 3713 0bd2 D4080000 		.4byte	0x8d4
 3714 0bd6 00       		.byte	0
 3715 0bd7 1A       		.uleb128 0x1a
 3716 0bd8 22340000 		.4byte	.LASF1209
 3717 0bdc 03       		.byte	0x3
 3718 0bdd 3101     		.2byte	0x131
 3719 0bdf 03       		.byte	0x3
 3720 0be0 F10B0000 		.4byte	0xbf1
 3721 0be4 1D       		.uleb128 0x1d
 3722 0be5 636C6B00 		.ascii	"clk\000"
 3723 0be9 03       		.byte	0x3
 3724 0bea 3101     		.2byte	0x131
 3725 0bec 23060000 		.4byte	0x623
ARM GAS  /var/folders/f9/8bk2lnw15zn4cbgn6wrnb4lm0000gn/T//ccCGlkPS.s 			page 96


 3726 0bf0 00       		.byte	0
 3727 0bf1 23       		.uleb128 0x23
 3728 0bf2 91670000 		.4byte	.LASF1235
 3729 0bf6 01       		.byte	0x1
 3730 0bf7 59       		.byte	0x59
 3731 0bf8 00000000 		.4byte	.LFB201
 3732 0bfc 34000000 		.4byte	.LFE201-.LFB201
 3733 0c00 01       		.uleb128 0x1
 3734 0c01 9C       		.byte	0x9c
 3735 0c02 660C0000 		.4byte	0xc66
 3736 0c06 24       		.uleb128 0x24
 3737 0c07 39100000 		.4byte	.LASF1172
 3738 0c0b 01       		.byte	0x1
 3739 0c0c 59       		.byte	0x59
 3740 0c0d D4080000 		.4byte	0x8d4
 3741 0c11 01       		.uleb128 0x1
 3742 0c12 50       		.byte	0x50
 3743 0c13 24       		.uleb128 0x24
 3744 0c14 0A210000 		.4byte	.LASF1174
 3745 0c18 01       		.byte	0x1
 3746 0c19 59       		.byte	0x59
 3747 0c1a FD080000 		.4byte	0x8fd
 3748 0c1e 01       		.uleb128 0x1
 3749 0c1f 51       		.byte	0x51
 3750 0c20 1F       		.uleb128 0x1f
 3751 0c21 B2720000 		.4byte	.LASF1192
 3752 0c25 01       		.byte	0x1
 3753 0c26 5B       		.byte	0x5b
 3754 0c27 9B000000 		.4byte	0x9b
 3755 0c2b 25       		.uleb128 0x25
 3756 0c2c 44090000 		.4byte	0x944
 3757 0c30 00000000 		.4byte	.LBB224
 3758 0c34 00000000 		.4byte	.Ldebug_ranges0+0
 3759 0c38 01       		.byte	0x1
 3760 0c39 5D       		.byte	0x5d
 3761 0c3a 4C0C0000 		.4byte	0xc4c
 3762 0c3e 26       		.uleb128 0x26
 3763 0c3f 61090000 		.4byte	0x961
 3764 0c43 04       		.byte	0x4
 3765 0c44 27       		.uleb128 0x27
 3766 0c45 55090000 		.4byte	0x955
 3767 0c49 01       		.uleb128 0x1
 3768 0c4a 50       		.byte	0x50
 3769 0c4b 00       		.byte	0
 3770 0c4c 28       		.uleb128 0x28
 3771 0c4d 26090000 		.4byte	0x926
 3772 0c51 1C000000 		.4byte	.LBB230
 3773 0c55 02000000 		.4byte	.LBE230-.LBB230
 3774 0c59 01       		.byte	0x1
 3775 0c5a 5F       		.byte	0x5f
 3776 0c5b 29       		.uleb128 0x29
 3777 0c5c 37090000 		.4byte	0x937
 3778 0c60 00000000 		.4byte	.LLST0
 3779 0c64 00       		.byte	0
 3780 0c65 00       		.byte	0
 3781 0c66 2A       		.uleb128 0x2a
 3782 0c67 A50A0000 		.4byte	0xaa5
ARM GAS  /var/folders/f9/8bk2lnw15zn4cbgn6wrnb4lm0000gn/T//ccCGlkPS.s 			page 97


 3783 0c6b 00000000 		.4byte	.LFB206
 3784 0c6f 18000000 		.4byte	.LFE206-.LFB206
 3785 0c73 01       		.uleb128 0x1
 3786 0c74 9C       		.byte	0x9c
 3787 0c75 9A0C0000 		.4byte	0xc9a
 3788 0c79 27       		.uleb128 0x27
 3789 0c7a B10A0000 		.4byte	0xab1
 3790 0c7e 01       		.uleb128 0x1
 3791 0c7f 50       		.byte	0x50
 3792 0c80 29       		.uleb128 0x29
 3793 0c81 BC0A0000 		.4byte	0xabc
 3794 0c85 13000000 		.4byte	.LLST1
 3795 0c89 27       		.uleb128 0x27
 3796 0c8a C70A0000 		.4byte	0xac7
 3797 0c8e 01       		.uleb128 0x1
 3798 0c8f 52       		.byte	0x52
 3799 0c90 2B       		.uleb128 0x2b
 3800 0c91 D20A0000 		.4byte	0xad2
 3801 0c95 34000000 		.4byte	.LLST2
 3802 0c99 00       		.byte	0
 3803 0c9a 2C       		.uleb128 0x2c
 3804 0c9b 7F720000 		.4byte	.LASF1210
 3805 0c9f 01       		.byte	0x1
 3806 0ca0 B4       		.byte	0xb4
 3807 0ca1 A6000000 		.4byte	0xa6
 3808 0ca5 00000000 		.4byte	.LFB207
 3809 0ca9 F0000000 		.4byte	.LFE207-.LFB207
 3810 0cad 01       		.uleb128 0x1
 3811 0cae 9C       		.byte	0x9c
 3812 0caf 550F0000 		.4byte	0xf55
 3813 0cb3 2D       		.uleb128 0x2d
 3814 0cb4 39100000 		.4byte	.LASF1172
 3815 0cb8 01       		.byte	0x1
 3816 0cb9 B4       		.byte	0xb4
 3817 0cba D4080000 		.4byte	0x8d4
 3818 0cbe 6B000000 		.4byte	.LLST3
 3819 0cc2 2D       		.uleb128 0x2d
 3820 0cc3 0A210000 		.4byte	.LASF1174
 3821 0cc7 01       		.byte	0x1
 3822 0cc8 B4       		.byte	0xb4
 3823 0cc9 FD080000 		.4byte	0x8fd
 3824 0ccd AD000000 		.4byte	.LLST4
 3825 0cd1 25       		.uleb128 0x25
 3826 0cd2 44090000 		.4byte	0x944
 3827 0cd6 02000000 		.4byte	.LBB234
 3828 0cda 28000000 		.4byte	.Ldebug_ranges0+0x28
 3829 0cde 01       		.byte	0x1
 3830 0cdf B7       		.byte	0xb7
 3831 0ce0 F40C0000 		.4byte	0xcf4
 3832 0ce4 26       		.uleb128 0x26
 3833 0ce5 61090000 		.4byte	0x961
 3834 0ce9 04       		.byte	0x4
 3835 0cea 29       		.uleb128 0x29
 3836 0ceb 55090000 		.4byte	0x955
 3837 0cef 6B000000 		.4byte	.LLST3
 3838 0cf3 00       		.byte	0
 3839 0cf4 2E       		.uleb128 0x2e
ARM GAS  /var/folders/f9/8bk2lnw15zn4cbgn6wrnb4lm0000gn/T//ccCGlkPS.s 			page 98


 3840 0cf5 26090000 		.4byte	0x926
 3841 0cf9 0E000000 		.4byte	.LBB239
 3842 0cfd 02000000 		.4byte	.LBE239-.LBB239
 3843 0d01 01       		.byte	0x1
 3844 0d02 B8       		.byte	0xb8
 3845 0d03 110D0000 		.4byte	0xd11
 3846 0d07 29       		.uleb128 0x29
 3847 0d08 37090000 		.4byte	0x937
 3848 0d0c EF000000 		.4byte	.LLST6
 3849 0d10 00       		.byte	0
 3850 0d11 2E       		.uleb128 0x2e
 3851 0d12 BC090000 		.4byte	0x9bc
 3852 0d16 18000000 		.4byte	.LBB242
 3853 0d1a 04000000 		.4byte	.LBE242-.LBB242
 3854 0d1e 01       		.byte	0x1
 3855 0d1f BC       		.byte	0xbc
 3856 0d20 340D0000 		.4byte	0xd34
 3857 0d24 26       		.uleb128 0x26
 3858 0d25 D5090000 		.4byte	0x9d5
 3859 0d29 03       		.byte	0x3
 3860 0d2a 29       		.uleb128 0x29
 3861 0d2b C9090000 		.4byte	0x9c9
 3862 0d2f 02010000 		.4byte	.LLST7
 3863 0d33 00       		.byte	0
 3864 0d34 2E       		.uleb128 0x2e
 3865 0d35 E2090000 		.4byte	0x9e2
 3866 0d39 1C000000 		.4byte	.LBB244
 3867 0d3d 02000000 		.4byte	.LBE244-.LBB244
 3868 0d41 01       		.byte	0x1
 3869 0d42 BE       		.byte	0xbe
 3870 0d43 510D0000 		.4byte	0xd51
 3871 0d47 29       		.uleb128 0x29
 3872 0d48 F3090000 		.4byte	0x9f3
 3873 0d4c 44010000 		.4byte	.LLST8
 3874 0d50 00       		.byte	0
 3875 0d51 25       		.uleb128 0x25
 3876 0d52 44090000 		.4byte	0x944
 3877 0d56 26000000 		.4byte	.LBB246
 3878 0d5a 48000000 		.4byte	.Ldebug_ranges0+0x48
 3879 0d5e 01       		.byte	0x1
 3880 0d5f D1       		.byte	0xd1
 3881 0d60 770D0000 		.4byte	0xd77
 3882 0d64 29       		.uleb128 0x29
 3883 0d65 61090000 		.4byte	0x961
 3884 0d69 86010000 		.4byte	.LLST9
 3885 0d6d 29       		.uleb128 0x29
 3886 0d6e 55090000 		.4byte	0x955
 3887 0d72 B2010000 		.4byte	.LLST10
 3888 0d76 00       		.byte	0
 3889 0d77 25       		.uleb128 0x25
 3890 0d78 03090000 		.4byte	0x903
 3891 0d7c 28000000 		.4byte	.LBB249
 3892 0d80 60000000 		.4byte	.Ldebug_ranges0+0x60
 3893 0d84 01       		.byte	0x1
 3894 0d85 D2       		.byte	0xd2
 3895 0d86 EE0D0000 		.4byte	0xdee
 3896 0d8a 29       		.uleb128 0x29
ARM GAS  /var/folders/f9/8bk2lnw15zn4cbgn6wrnb4lm0000gn/T//ccCGlkPS.s 			page 99


 3897 0d8b 1A090000 		.4byte	0x91a
 3898 0d8f DB010000 		.4byte	.LLST11
 3899 0d93 29       		.uleb128 0x29
 3900 0d94 1A090000 		.4byte	0x91a
 3901 0d98 DB010000 		.4byte	.LLST11
 3902 0d9c 29       		.uleb128 0x29
 3903 0d9d 0F090000 		.4byte	0x90f
 3904 0da1 F9010000 		.4byte	.LLST13
 3905 0da5 25       		.uleb128 0x25
 3906 0da6 AE080000 		.4byte	0x8ae
 3907 0daa 28000000 		.4byte	.LBB251
 3908 0dae 80000000 		.4byte	.Ldebug_ranges0+0x80
 3909 0db2 01       		.byte	0x1
 3910 0db3 42       		.byte	0x42
 3911 0db4 CB0D0000 		.4byte	0xdcb
 3912 0db8 29       		.uleb128 0x29
 3913 0db9 C7080000 		.4byte	0x8c7
 3914 0dbd 17020000 		.4byte	.LLST14
 3915 0dc1 29       		.uleb128 0x29
 3916 0dc2 BB080000 		.4byte	0x8bb
 3917 0dc6 2C020000 		.4byte	.LLST15
 3918 0dca 00       		.byte	0
 3919 0dcb 28       		.uleb128 0x28
 3920 0dcc AE080000 		.4byte	0x8ae
 3921 0dd0 5C000000 		.4byte	.LBB254
 3922 0dd4 04000000 		.4byte	.LBE254-.LBB254
 3923 0dd8 01       		.byte	0x1
 3924 0dd9 3F       		.byte	0x3f
 3925 0dda 29       		.uleb128 0x29
 3926 0ddb C7080000 		.4byte	0x8c7
 3927 0ddf 3F020000 		.4byte	.LLST16
 3928 0de3 29       		.uleb128 0x29
 3929 0de4 BB080000 		.4byte	0x8bb
 3930 0de8 72020000 		.4byte	.LLST17
 3931 0dec 00       		.byte	0
 3932 0ded 00       		.byte	0
 3933 0dee 25       		.uleb128 0x25
 3934 0def 000A0000 		.4byte	0xa00
 3935 0df3 2C000000 		.4byte	.LBB259
 3936 0df7 98000000 		.4byte	.Ldebug_ranges0+0x98
 3937 0dfb 01       		.byte	0x1
 3938 0dfc D6       		.byte	0xd6
 3939 0dfd 140E0000 		.4byte	0xe14
 3940 0e01 29       		.uleb128 0x29
 3941 0e02 1D0A0000 		.4byte	0xa1d
 3942 0e06 85020000 		.4byte	.LLST18
 3943 0e0a 29       		.uleb128 0x29
 3944 0e0b 110A0000 		.4byte	0xa11
 3945 0e0f A5020000 		.4byte	.LLST19
 3946 0e13 00       		.byte	0
 3947 0e14 25       		.uleb128 0x25
 3948 0e15 DA080000 		.4byte	0x8da
 3949 0e19 74000000 		.4byte	.LBB265
 3950 0e1d B0000000 		.4byte	.Ldebug_ranges0+0xb0
 3951 0e21 01       		.byte	0x1
 3952 0e22 C2       		.byte	0xc2
 3953 0e23 860E0000 		.4byte	0xe86
ARM GAS  /var/folders/f9/8bk2lnw15zn4cbgn6wrnb4lm0000gn/T//ccCGlkPS.s 			page 100


 3954 0e27 29       		.uleb128 0x29
 3955 0e28 F1080000 		.4byte	0x8f1
 3956 0e2c C3020000 		.4byte	.LLST20
 3957 0e30 29       		.uleb128 0x29
 3958 0e31 F1080000 		.4byte	0x8f1
 3959 0e35 C3020000 		.4byte	.LLST20
 3960 0e39 29       		.uleb128 0x29
 3961 0e3a E6080000 		.4byte	0x8e6
 3962 0e3e E1020000 		.4byte	.LLST22
 3963 0e42 25       		.uleb128 0x25
 3964 0e43 AE080000 		.4byte	0x8ae
 3965 0e47 74000000 		.4byte	.LBB267
 3966 0e4b D0000000 		.4byte	.Ldebug_ranges0+0xd0
 3967 0e4f 01       		.byte	0x1
 3968 0e50 35       		.byte	0x35
 3969 0e51 630E0000 		.4byte	0xe63
 3970 0e55 2F       		.uleb128 0x2f
 3971 0e56 C7080000 		.4byte	0x8c7
 3972 0e5a 7F       		.sleb128 -1
 3973 0e5b 27       		.uleb128 0x27
 3974 0e5c BB080000 		.4byte	0x8bb
 3975 0e60 01       		.uleb128 0x1
 3976 0e61 54       		.byte	0x54
 3977 0e62 00       		.byte	0
 3978 0e63 28       		.uleb128 0x28
 3979 0e64 AE080000 		.4byte	0x8ae
 3980 0e68 C8000000 		.4byte	.LBB270
 3981 0e6c 04000000 		.4byte	.LBE270-.LBB270
 3982 0e70 01       		.byte	0x1
 3983 0e71 31       		.byte	0x31
 3984 0e72 29       		.uleb128 0x29
 3985 0e73 C7080000 		.4byte	0x8c7
 3986 0e77 FF020000 		.4byte	.LLST23
 3987 0e7b 29       		.uleb128 0x29
 3988 0e7c BB080000 		.4byte	0x8bb
 3989 0e80 26030000 		.4byte	.LLST24
 3990 0e84 00       		.byte	0
 3991 0e85 00       		.byte	0
 3992 0e86 25       		.uleb128 0x25
 3993 0e87 44090000 		.4byte	0x944
 3994 0e8b 76000000 		.4byte	.LBB275
 3995 0e8f E8000000 		.4byte	.Ldebug_ranges0+0xe8
 3996 0e93 01       		.byte	0x1
 3997 0e94 C1       		.byte	0xc1
 3998 0e95 AC0E0000 		.4byte	0xeac
 3999 0e99 29       		.uleb128 0x29
 4000 0e9a 61090000 		.4byte	0x961
 4001 0e9e 39030000 		.4byte	.LLST25
 4002 0ea2 29       		.uleb128 0x29
 4003 0ea3 55090000 		.4byte	0x955
 4004 0ea7 59030000 		.4byte	.LLST26
 4005 0eab 00       		.byte	0
 4006 0eac 2E       		.uleb128 0x2e
 4007 0ead 000A0000 		.4byte	0xa00
 4008 0eb1 8A000000 		.4byte	.LBB279
 4009 0eb5 02000000 		.4byte	.LBE279-.LBB279
 4010 0eb9 01       		.byte	0x1
ARM GAS  /var/folders/f9/8bk2lnw15zn4cbgn6wrnb4lm0000gn/T//ccCGlkPS.s 			page 101


 4011 0eba C6       		.byte	0xc6
 4012 0ebb D20E0000 		.4byte	0xed2
 4013 0ebf 29       		.uleb128 0x29
 4014 0ec0 1D0A0000 		.4byte	0xa1d
 4015 0ec4 77030000 		.4byte	.LLST27
 4016 0ec8 29       		.uleb128 0x29
 4017 0ec9 110A0000 		.4byte	0xa11
 4018 0ecd 8B030000 		.4byte	.LLST28
 4019 0ed1 00       		.byte	0
 4020 0ed2 2E       		.uleb128 0x2e
 4021 0ed3 2A0A0000 		.4byte	0xa2a
 4022 0ed7 90000000 		.4byte	.LBB281
 4023 0edb 2C000000 		.4byte	.LBE281-.LBB281
 4024 0edf 01       		.byte	0x1
 4025 0ee0 CB       		.byte	0xcb
 4026 0ee1 3E0F0000 		.4byte	0xf3e
 4027 0ee5 30       		.uleb128 0x30
 4028 0ee6 410A0000 		.4byte	0xa41
 4029 0eea 30       		.uleb128 0x30
 4030 0eeb 360A0000 		.4byte	0xa36
 4031 0eef 31       		.uleb128 0x31
 4032 0ef0 90000000 		.4byte	.LBB282
 4033 0ef4 2C000000 		.4byte	.LBE282-.LBB282
 4034 0ef8 32       		.uleb128 0x32
 4035 0ef9 4C0A0000 		.4byte	0xa4c
 4036 0efd 25       		.uleb128 0x25
 4037 0efe 44090000 		.4byte	0x944
 4038 0f02 90000000 		.4byte	.LBB283
 4039 0f06 00010000 		.4byte	.Ldebug_ranges0+0x100
 4040 0f0a 01       		.byte	0x1
 4041 0f0b 4D       		.byte	0x4d
 4042 0f0c 230F0000 		.4byte	0xf23
 4043 0f10 29       		.uleb128 0x29
 4044 0f11 61090000 		.4byte	0x961
 4045 0f15 9E030000 		.4byte	.LLST29
 4046 0f19 29       		.uleb128 0x29
 4047 0f1a 55090000 		.4byte	0x955
 4048 0f1e B2030000 		.4byte	.LLST30
 4049 0f22 00       		.byte	0
 4050 0f23 28       		.uleb128 0x28
 4051 0f24 26090000 		.4byte	0x926
 4052 0f28 A4000000 		.4byte	.LBB287
 4053 0f2c 04000000 		.4byte	.LBE287-.LBB287
 4054 0f30 01       		.byte	0x1
 4055 0f31 4F       		.byte	0x4f
 4056 0f32 29       		.uleb128 0x29
 4057 0f33 37090000 		.4byte	0x937
 4058 0f37 C5030000 		.4byte	.LLST31
 4059 0f3b 00       		.byte	0
 4060 0f3c 00       		.byte	0
 4061 0f3d 00       		.byte	0
 4062 0f3e 33       		.uleb128 0x33
 4063 0f3f 3A000000 		.4byte	.LVL15
 4064 0f43 F10B0000 		.4byte	0xbf1
 4065 0f47 34       		.uleb128 0x34
 4066 0f48 01       		.uleb128 0x1
 4067 0f49 51       		.byte	0x51
ARM GAS  /var/folders/f9/8bk2lnw15zn4cbgn6wrnb4lm0000gn/T//ccCGlkPS.s 			page 102


 4068 0f4a 02       		.uleb128 0x2
 4069 0f4b 75       		.byte	0x75
 4070 0f4c 00       		.sleb128 0
 4071 0f4d 34       		.uleb128 0x34
 4072 0f4e 01       		.uleb128 0x1
 4073 0f4f 50       		.byte	0x50
 4074 0f50 02       		.uleb128 0x2
 4075 0f51 74       		.byte	0x74
 4076 0f52 00       		.sleb128 0
 4077 0f53 00       		.byte	0
 4078 0f54 00       		.byte	0
 4079 0f55 2C       		.uleb128 0x2c
 4080 0f56 A7760000 		.4byte	.LASF1211
 4081 0f5a 01       		.byte	0x1
 4082 0f5b E9       		.byte	0xe9
 4083 0f5c A6000000 		.4byte	0xa6
 4084 0f60 00000000 		.4byte	.LFB208
 4085 0f64 B2000000 		.4byte	.LFE208-.LFB208
 4086 0f68 01       		.uleb128 0x1
 4087 0f69 9C       		.byte	0x9c
 4088 0f6a D1110000 		.4byte	0x11d1
 4089 0f6e 2D       		.uleb128 0x2d
 4090 0f6f 39100000 		.4byte	.LASF1172
 4091 0f73 01       		.byte	0x1
 4092 0f74 E9       		.byte	0xe9
 4093 0f75 D4080000 		.4byte	0x8d4
 4094 0f79 D8030000 		.4byte	.LLST32
 4095 0f7d 2D       		.uleb128 0x2d
 4096 0f7e 892F0000 		.4byte	.LASF1212
 4097 0f82 01       		.byte	0x1
 4098 0f83 E9       		.byte	0xe9
 4099 0f84 78080000 		.4byte	0x878
 4100 0f88 12040000 		.4byte	.LLST33
 4101 0f8c 24       		.uleb128 0x24
 4102 0f8d 6C320000 		.4byte	.LASF1213
 4103 0f91 01       		.byte	0x1
 4104 0f92 E9       		.byte	0xe9
 4105 0f93 A6000000 		.4byte	0xa6
 4106 0f97 01       		.uleb128 0x1
 4107 0f98 52       		.byte	0x52
 4108 0f99 35       		.uleb128 0x35
 4109 0f9a 7D600000 		.4byte	.LASF1163
 4110 0f9e 01       		.byte	0x1
 4111 0f9f EB       		.byte	0xeb
 4112 0fa0 A6000000 		.4byte	0xa6
 4113 0fa4 4C040000 		.4byte	.LLST34
 4114 0fa8 35       		.uleb128 0x35
 4115 0fa9 DD420000 		.4byte	.LASF1165
 4116 0fad 01       		.byte	0x1
 4117 0fae EB       		.byte	0xeb
 4118 0faf A6000000 		.4byte	0xa6
 4119 0fb3 BD040000 		.4byte	.LLST35
 4120 0fb7 25       		.uleb128 0x25
 4121 0fb8 44090000 		.4byte	0x944
 4122 0fbc 00000000 		.4byte	.LBB294
 4123 0fc0 20010000 		.4byte	.Ldebug_ranges0+0x120
 4124 0fc4 01       		.byte	0x1
ARM GAS  /var/folders/f9/8bk2lnw15zn4cbgn6wrnb4lm0000gn/T//ccCGlkPS.s 			page 103


 4125 0fc5 EE       		.byte	0xee
 4126 0fc6 DA0F0000 		.4byte	0xfda
 4127 0fca 26       		.uleb128 0x26
 4128 0fcb 61090000 		.4byte	0x961
 4129 0fcf 04       		.byte	0x4
 4130 0fd0 29       		.uleb128 0x29
 4131 0fd1 55090000 		.4byte	0x955
 4132 0fd5 D8030000 		.4byte	.LLST32
 4133 0fd9 00       		.byte	0
 4134 0fda 2E       		.uleb128 0x2e
 4135 0fdb 26090000 		.4byte	0x926
 4136 0fdf 0A000000 		.4byte	.LBB299
 4137 0fe3 02000000 		.4byte	.LBE299-.LBB299
 4138 0fe7 01       		.byte	0x1
 4139 0fe8 EF       		.byte	0xef
 4140 0fe9 F70F0000 		.4byte	0xff7
 4141 0fed 29       		.uleb128 0x29
 4142 0fee 37090000 		.4byte	0x937
 4143 0ff2 F3040000 		.4byte	.LLST37
 4144 0ff6 00       		.byte	0
 4145 0ff7 2E       		.uleb128 0x2e
 4146 0ff8 BC090000 		.4byte	0x9bc
 4147 0ffc 14000000 		.4byte	.LBB302
 4148 1000 04000000 		.4byte	.LBE302-.LBB302
 4149 1004 01       		.byte	0x1
 4150 1005 F3       		.byte	0xf3
 4151 1006 1A100000 		.4byte	0x101a
 4152 100a 26       		.uleb128 0x26
 4153 100b D5090000 		.4byte	0x9d5
 4154 100f 03       		.byte	0x3
 4155 1010 29       		.uleb128 0x29
 4156 1011 C9090000 		.4byte	0x9c9
 4157 1015 06050000 		.4byte	.LLST38
 4158 1019 00       		.byte	0
 4159 101a 2E       		.uleb128 0x2e
 4160 101b E2090000 		.4byte	0x9e2
 4161 101f 18000000 		.4byte	.LBB304
 4162 1023 02000000 		.4byte	.LBE304-.LBB304
 4163 1027 01       		.byte	0x1
 4164 1028 F5       		.byte	0xf5
 4165 1029 37100000 		.4byte	0x1037
 4166 102d 29       		.uleb128 0x29
 4167 102e F3090000 		.4byte	0x9f3
 4168 1032 40050000 		.4byte	.LLST39
 4169 1036 00       		.byte	0
 4170 1037 36       		.uleb128 0x36
 4171 1038 40010000 		.4byte	.Ldebug_ranges0+0x140
 4172 103c 07110000 		.4byte	0x1107
 4173 1040 37       		.uleb128 0x37
 4174 1041 6F000000 		.4byte	.LASF1214
 4175 1045 01       		.byte	0x1
 4176 1046 0F01     		.2byte	0x10f
 4177 1048 78080000 		.4byte	0x878
 4178 104c 7A050000 		.4byte	.LLST40
 4179 1050 38       		.uleb128 0x38
 4180 1051 44090000 		.4byte	0x944
 4181 1055 26000000 		.4byte	.LBB307
ARM GAS  /var/folders/f9/8bk2lnw15zn4cbgn6wrnb4lm0000gn/T//ccCGlkPS.s 			page 104


 4182 1059 58010000 		.4byte	.Ldebug_ranges0+0x158
 4183 105d 01       		.byte	0x1
 4184 105e 1501     		.2byte	0x115
 4185 1060 77100000 		.4byte	0x1077
 4186 1064 29       		.uleb128 0x29
 4187 1065 61090000 		.4byte	0x961
 4188 1069 8D050000 		.4byte	.LLST41
 4189 106d 29       		.uleb128 0x29
 4190 106e 55090000 		.4byte	0x955
 4191 1072 AD050000 		.4byte	.LLST42
 4192 1076 00       		.byte	0
 4193 1077 38       		.uleb128 0x38
 4194 1078 000A0000 		.4byte	0xa00
 4195 107c 34000000 		.4byte	.LBB312
 4196 1080 78010000 		.4byte	.Ldebug_ranges0+0x178
 4197 1084 01       		.byte	0x1
 4198 1085 1C01     		.2byte	0x11c
 4199 1087 9E100000 		.4byte	0x109e
 4200 108b 29       		.uleb128 0x29
 4201 108c 1D0A0000 		.4byte	0xa1d
 4202 1090 CB050000 		.4byte	.LLST43
 4203 1094 29       		.uleb128 0x29
 4204 1095 110A0000 		.4byte	0xa11
 4205 1099 EB050000 		.4byte	.LLST44
 4206 109d 00       		.byte	0
 4207 109e 38       		.uleb128 0x38
 4208 109f 44090000 		.4byte	0x944
 4209 10a3 3A000000 		.4byte	.LBB315
 4210 10a7 90010000 		.4byte	.Ldebug_ranges0+0x190
 4211 10ab 01       		.byte	0x1
 4212 10ac 2101     		.2byte	0x121
 4213 10ae C5100000 		.4byte	0x10c5
 4214 10b2 29       		.uleb128 0x29
 4215 10b3 61090000 		.4byte	0x961
 4216 10b7 09060000 		.4byte	.LLST45
 4217 10bb 29       		.uleb128 0x29
 4218 10bc 55090000 		.4byte	0x955
 4219 10c0 1D060000 		.4byte	.LLST46
 4220 10c4 00       		.byte	0
 4221 10c5 39       		.uleb128 0x39
 4222 10c6 26090000 		.4byte	0x926
 4223 10ca 44000000 		.4byte	.LBB319
 4224 10ce 02000000 		.4byte	.LBE319-.LBB319
 4225 10d2 01       		.byte	0x1
 4226 10d3 2201     		.2byte	0x122
 4227 10d5 E3100000 		.4byte	0x10e3
 4228 10d9 29       		.uleb128 0x29
 4229 10da 37090000 		.4byte	0x937
 4230 10de 30060000 		.4byte	.LLST47
 4231 10e2 00       		.byte	0
 4232 10e3 3A       		.uleb128 0x3a
 4233 10e4 AE080000 		.4byte	0x8ae
 4234 10e8 60000000 		.4byte	.LBB324
 4235 10ec B0010000 		.4byte	.Ldebug_ranges0+0x1b0
 4236 10f0 01       		.byte	0x1
 4237 10f1 1601     		.2byte	0x116
 4238 10f3 29       		.uleb128 0x29
ARM GAS  /var/folders/f9/8bk2lnw15zn4cbgn6wrnb4lm0000gn/T//ccCGlkPS.s 			page 105


 4239 10f4 C7080000 		.4byte	0x8c7
 4240 10f8 43060000 		.4byte	.LLST48
 4241 10fc 29       		.uleb128 0x29
 4242 10fd BB080000 		.4byte	0x8bb
 4243 1101 7E060000 		.4byte	.LLST49
 4244 1105 00       		.byte	0
 4245 1106 00       		.byte	0
 4246 1107 3B       		.uleb128 0x3b
 4247 1108 C8010000 		.4byte	.Ldebug_ranges0+0x1c8
 4248 110c 35       		.uleb128 0x35
 4249 110d 68520000 		.4byte	.LASF1215
 4250 1111 01       		.byte	0x1
 4251 1112 F6       		.byte	0xf6
 4252 1113 D1110000 		.4byte	0x11d1
 4253 1117 91060000 		.4byte	.LLST50
 4254 111b 25       		.uleb128 0x25
 4255 111c 44090000 		.4byte	0x944
 4256 1120 76000000 		.4byte	.LBB330
 4257 1124 E0010000 		.4byte	.Ldebug_ranges0+0x1e0
 4258 1128 01       		.byte	0x1
 4259 1129 FC       		.byte	0xfc
 4260 112a 41110000 		.4byte	0x1141
 4261 112e 29       		.uleb128 0x29
 4262 112f 61090000 		.4byte	0x961
 4263 1133 A4060000 		.4byte	.LLST51
 4264 1137 29       		.uleb128 0x29
 4265 1138 55090000 		.4byte	0x955
 4266 113c C4060000 		.4byte	.LLST52
 4267 1140 00       		.byte	0
 4268 1141 39       		.uleb128 0x39
 4269 1142 000A0000 		.4byte	0xa00
 4270 1146 84000000 		.4byte	.LBB335
 4271 114a 02000000 		.4byte	.LBE335-.LBB335
 4272 114e 01       		.byte	0x1
 4273 114f 0301     		.2byte	0x103
 4274 1151 68110000 		.4byte	0x1168
 4275 1155 29       		.uleb128 0x29
 4276 1156 1D0A0000 		.4byte	0xa1d
 4277 115a E2060000 		.4byte	.LLST53
 4278 115e 29       		.uleb128 0x29
 4279 115f 110A0000 		.4byte	0xa11
 4280 1163 F6060000 		.4byte	.LLST54
 4281 1167 00       		.byte	0
 4282 1168 39       		.uleb128 0x39
 4283 1169 26090000 		.4byte	0x926
 4284 116d 8C000000 		.4byte	.LBB337
 4285 1171 02000000 		.4byte	.LBE337-.LBB337
 4286 1175 01       		.byte	0x1
 4287 1176 0901     		.2byte	0x109
 4288 1178 86110000 		.4byte	0x1186
 4289 117c 29       		.uleb128 0x29
 4290 117d 37090000 		.4byte	0x937
 4291 1181 09070000 		.4byte	.LLST55
 4292 1185 00       		.byte	0
 4293 1186 39       		.uleb128 0x39
 4294 1187 44090000 		.4byte	0x944
 4295 118b 90000000 		.4byte	.LBB339
ARM GAS  /var/folders/f9/8bk2lnw15zn4cbgn6wrnb4lm0000gn/T//ccCGlkPS.s 			page 106


 4296 118f 04000000 		.4byte	.LBE339-.LBB339
 4297 1193 01       		.byte	0x1
 4298 1194 0801     		.2byte	0x108
 4299 1196 AD110000 		.4byte	0x11ad
 4300 119a 29       		.uleb128 0x29
 4301 119b 61090000 		.4byte	0x961
 4302 119f 1C070000 		.4byte	.LLST56
 4303 11a3 29       		.uleb128 0x29
 4304 11a4 55090000 		.4byte	0x955
 4305 11a8 30070000 		.4byte	.LLST57
 4306 11ac 00       		.byte	0
 4307 11ad 3C       		.uleb128 0x3c
 4308 11ae AE080000 		.4byte	0x8ae
 4309 11b2 A4000000 		.4byte	.LBB342
 4310 11b6 00020000 		.4byte	.Ldebug_ranges0+0x200
 4311 11ba 01       		.byte	0x1
 4312 11bb FD       		.byte	0xfd
 4313 11bc 29       		.uleb128 0x29
 4314 11bd C7080000 		.4byte	0x8c7
 4315 11c1 43070000 		.4byte	.LLST58
 4316 11c5 29       		.uleb128 0x29
 4317 11c6 BB080000 		.4byte	0x8bb
 4318 11ca 62070000 		.4byte	.LLST59
 4319 11ce 00       		.byte	0
 4320 11cf 00       		.byte	0
 4321 11d0 00       		.byte	0
 4322 11d1 17       		.uleb128 0x17
 4323 11d2 04       		.byte	0x4
 4324 11d3 9B000000 		.4byte	0x9b
 4325 11d7 3D       		.uleb128 0x3d
 4326 11d8 54440000 		.4byte	.LASF1216
 4327 11dc 01       		.byte	0x1
 4328 11dd 2D01     		.2byte	0x12d
 4329 11df A6000000 		.4byte	0xa6
 4330 11e3 00000000 		.4byte	.LFB209
 4331 11e7 C4000000 		.4byte	.LFE209-.LFB209
 4332 11eb 01       		.uleb128 0x1
 4333 11ec 9C       		.byte	0x9c
 4334 11ed 60140000 		.4byte	0x1460
 4335 11f1 3E       		.uleb128 0x3e
 4336 11f2 39100000 		.4byte	.LASF1172
 4337 11f6 01       		.byte	0x1
 4338 11f7 2D01     		.2byte	0x12d
 4339 11f9 D4080000 		.4byte	0x8d4
 4340 11fd 75070000 		.4byte	.LLST60
 4341 1201 3E       		.uleb128 0x3e
 4342 1202 892F0000 		.4byte	.LASF1212
 4343 1206 01       		.byte	0x1
 4344 1207 2D01     		.2byte	0x12d
 4345 1209 78080000 		.4byte	0x878
 4346 120d AF070000 		.4byte	.LLST61
 4347 1211 3F       		.uleb128 0x3f
 4348 1212 6C320000 		.4byte	.LASF1213
 4349 1216 01       		.byte	0x1
 4350 1217 2D01     		.2byte	0x12d
 4351 1219 A6000000 		.4byte	0xa6
 4352 121d 01       		.uleb128 0x1
ARM GAS  /var/folders/f9/8bk2lnw15zn4cbgn6wrnb4lm0000gn/T//ccCGlkPS.s 			page 107


 4353 121e 52       		.byte	0x52
 4354 121f 37       		.uleb128 0x37
 4355 1220 DD420000 		.4byte	.LASF1165
 4356 1224 01       		.byte	0x1
 4357 1225 2F01     		.2byte	0x12f
 4358 1227 A6000000 		.4byte	0xa6
 4359 122b E9070000 		.4byte	.LLST62
 4360 122f 37       		.uleb128 0x37
 4361 1230 7D600000 		.4byte	.LASF1163
 4362 1234 01       		.byte	0x1
 4363 1235 2F01     		.2byte	0x12f
 4364 1237 A6000000 		.4byte	0xa6
 4365 123b 4F080000 		.4byte	.LLST63
 4366 123f 38       		.uleb128 0x38
 4367 1240 44090000 		.4byte	0x944
 4368 1244 00000000 		.4byte	.LBB348
 4369 1248 18020000 		.4byte	.Ldebug_ranges0+0x218
 4370 124c 01       		.byte	0x1
 4371 124d 3201     		.2byte	0x132
 4372 124f 63120000 		.4byte	0x1263
 4373 1253 26       		.uleb128 0x26
 4374 1254 61090000 		.4byte	0x961
 4375 1258 04       		.byte	0x4
 4376 1259 29       		.uleb128 0x29
 4377 125a 55090000 		.4byte	0x955
 4378 125e 75070000 		.4byte	.LLST60
 4379 1262 00       		.byte	0
 4380 1263 39       		.uleb128 0x39
 4381 1264 26090000 		.4byte	0x926
 4382 1268 0A000000 		.4byte	.LBB353
 4383 126c 02000000 		.4byte	.LBE353-.LBB353
 4384 1270 01       		.byte	0x1
 4385 1271 3301     		.2byte	0x133
 4386 1273 81120000 		.4byte	0x1281
 4387 1277 29       		.uleb128 0x29
 4388 1278 37090000 		.4byte	0x937
 4389 127c 85080000 		.4byte	.LLST65
 4390 1280 00       		.byte	0
 4391 1281 39       		.uleb128 0x39
 4392 1282 BC090000 		.4byte	0x9bc
 4393 1286 14000000 		.4byte	.LBB356
 4394 128a 04000000 		.4byte	.LBE356-.LBB356
 4395 128e 01       		.byte	0x1
 4396 128f 3701     		.2byte	0x137
 4397 1291 A5120000 		.4byte	0x12a5
 4398 1295 26       		.uleb128 0x26
 4399 1296 D5090000 		.4byte	0x9d5
 4400 129a 03       		.byte	0x3
 4401 129b 29       		.uleb128 0x29
 4402 129c C9090000 		.4byte	0x9c9
 4403 12a0 98080000 		.4byte	.LLST66
 4404 12a4 00       		.byte	0
 4405 12a5 39       		.uleb128 0x39
 4406 12a6 E2090000 		.4byte	0x9e2
 4407 12aa 18000000 		.4byte	.LBB358
 4408 12ae 02000000 		.4byte	.LBE358-.LBB358
 4409 12b2 01       		.byte	0x1
ARM GAS  /var/folders/f9/8bk2lnw15zn4cbgn6wrnb4lm0000gn/T//ccCGlkPS.s 			page 108


 4410 12b3 3901     		.2byte	0x139
 4411 12b5 C3120000 		.4byte	0x12c3
 4412 12b9 29       		.uleb128 0x29
 4413 12ba F3090000 		.4byte	0x9f3
 4414 12be D2080000 		.4byte	.LLST67
 4415 12c2 00       		.byte	0
 4416 12c3 36       		.uleb128 0x36
 4417 12c4 38020000 		.4byte	.Ldebug_ranges0+0x238
 4418 12c8 93130000 		.4byte	0x1393
 4419 12cc 37       		.uleb128 0x37
 4420 12cd 334D0000 		.4byte	.LASF1217
 4421 12d1 01       		.byte	0x1
 4422 12d2 5301     		.2byte	0x153
 4423 12d4 78080000 		.4byte	0x878
 4424 12d8 0C090000 		.4byte	.LLST68
 4425 12dc 38       		.uleb128 0x38
 4426 12dd 44090000 		.4byte	0x944
 4427 12e1 26000000 		.4byte	.LBB361
 4428 12e5 50020000 		.4byte	.Ldebug_ranges0+0x250
 4429 12e9 01       		.byte	0x1
 4430 12ea 5901     		.2byte	0x159
 4431 12ec 03130000 		.4byte	0x1303
 4432 12f0 29       		.uleb128 0x29
 4433 12f1 61090000 		.4byte	0x961
 4434 12f5 1F090000 		.4byte	.LLST69
 4435 12f9 29       		.uleb128 0x29
 4436 12fa 55090000 		.4byte	0x955
 4437 12fe 3F090000 		.4byte	.LLST70
 4438 1302 00       		.byte	0
 4439 1303 38       		.uleb128 0x38
 4440 1304 AE080000 		.4byte	0x8ae
 4441 1308 28000000 		.4byte	.LBB365
 4442 130c 70020000 		.4byte	.Ldebug_ranges0+0x270
 4443 1310 01       		.byte	0x1
 4444 1311 5A01     		.2byte	0x15a
 4445 1313 2A130000 		.4byte	0x132a
 4446 1317 29       		.uleb128 0x29
 4447 1318 C7080000 		.4byte	0x8c7
 4448 131c 5D090000 		.4byte	.LLST71
 4449 1320 29       		.uleb128 0x29
 4450 1321 BB080000 		.4byte	0x8bb
 4451 1325 72090000 		.4byte	.LLST72
 4452 1329 00       		.byte	0
 4453 132a 38       		.uleb128 0x38
 4454 132b 000A0000 		.4byte	0xa00
 4455 132f 36000000 		.4byte	.LBB369
 4456 1333 88020000 		.4byte	.Ldebug_ranges0+0x288
 4457 1337 01       		.byte	0x1
 4458 1338 5F01     		.2byte	0x15f
 4459 133a 51130000 		.4byte	0x1351
 4460 133e 29       		.uleb128 0x29
 4461 133f 1D0A0000 		.4byte	0xa1d
 4462 1343 85090000 		.4byte	.LLST73
 4463 1347 29       		.uleb128 0x29
 4464 1348 110A0000 		.4byte	0xa11
 4465 134c A5090000 		.4byte	.LLST74
 4466 1350 00       		.byte	0
ARM GAS  /var/folders/f9/8bk2lnw15zn4cbgn6wrnb4lm0000gn/T//ccCGlkPS.s 			page 109


 4467 1351 38       		.uleb128 0x38
 4468 1352 44090000 		.4byte	0x944
 4469 1356 3C000000 		.4byte	.LBB372
 4470 135a A0020000 		.4byte	.Ldebug_ranges0+0x2a0
 4471 135e 01       		.byte	0x1
 4472 135f 6401     		.2byte	0x164
 4473 1361 78130000 		.4byte	0x1378
 4474 1365 29       		.uleb128 0x29
 4475 1366 61090000 		.4byte	0x961
 4476 136a C3090000 		.4byte	.LLST75
 4477 136e 29       		.uleb128 0x29
 4478 136f 55090000 		.4byte	0x955
 4479 1373 D7090000 		.4byte	.LLST76
 4480 1377 00       		.byte	0
 4481 1378 40       		.uleb128 0x40
 4482 1379 26090000 		.4byte	0x926
 4483 137d 46000000 		.4byte	.LBB376
 4484 1381 02000000 		.4byte	.LBE376-.LBB376
 4485 1385 01       		.byte	0x1
 4486 1386 6501     		.2byte	0x165
 4487 1388 29       		.uleb128 0x29
 4488 1389 37090000 		.4byte	0x937
 4489 138d EA090000 		.4byte	.LLST77
 4490 1391 00       		.byte	0
 4491 1392 00       		.byte	0
 4492 1393 3B       		.uleb128 0x3b
 4493 1394 C0020000 		.4byte	.Ldebug_ranges0+0x2c0
 4494 1398 37       		.uleb128 0x37
 4495 1399 9C090000 		.4byte	.LASF1218
 4496 139d 01       		.byte	0x1
 4497 139e 3A01     		.2byte	0x13a
 4498 13a0 D1110000 		.4byte	0x11d1
 4499 13a4 FD090000 		.4byte	.LLST78
 4500 13a8 38       		.uleb128 0x38
 4501 13a9 AE080000 		.4byte	0x8ae
 4502 13ad 74000000 		.4byte	.LBB384
 4503 13b1 E0020000 		.4byte	.Ldebug_ranges0+0x2e0
 4504 13b5 01       		.byte	0x1
 4505 13b6 4101     		.2byte	0x141
 4506 13b8 CF130000 		.4byte	0x13cf
 4507 13bc 29       		.uleb128 0x29
 4508 13bd C7080000 		.4byte	0x8c7
 4509 13c1 100A0000 		.4byte	.LLST79
 4510 13c5 29       		.uleb128 0x29
 4511 13c6 BB080000 		.4byte	0x8bb
 4512 13ca 250A0000 		.4byte	.LLST80
 4513 13ce 00       		.byte	0
 4514 13cf 38       		.uleb128 0x38
 4515 13d0 44090000 		.4byte	0x944
 4516 13d4 78000000 		.4byte	.LBB387
 4517 13d8 F8020000 		.4byte	.Ldebug_ranges0+0x2f8
 4518 13dc 01       		.byte	0x1
 4519 13dd 4001     		.2byte	0x140
 4520 13df F6130000 		.4byte	0x13f6
 4521 13e3 29       		.uleb128 0x29
 4522 13e4 61090000 		.4byte	0x961
 4523 13e8 380A0000 		.4byte	.LLST81
ARM GAS  /var/folders/f9/8bk2lnw15zn4cbgn6wrnb4lm0000gn/T//ccCGlkPS.s 			page 110


 4524 13ec 29       		.uleb128 0x29
 4525 13ed 55090000 		.4byte	0x955
 4526 13f1 580A0000 		.4byte	.LLST82
 4527 13f5 00       		.byte	0
 4528 13f6 39       		.uleb128 0x39
 4529 13f7 000A0000 		.4byte	0xa00
 4530 13fb 86000000 		.4byte	.LBB392
 4531 13ff 02000000 		.4byte	.LBE392-.LBB392
 4532 1403 01       		.byte	0x1
 4533 1404 4601     		.2byte	0x146
 4534 1406 1D140000 		.4byte	0x141d
 4535 140a 29       		.uleb128 0x29
 4536 140b 1D0A0000 		.4byte	0xa1d
 4537 140f 760A0000 		.4byte	.LLST83
 4538 1413 29       		.uleb128 0x29
 4539 1414 110A0000 		.4byte	0xa11
 4540 1418 8A0A0000 		.4byte	.LLST84
 4541 141c 00       		.byte	0
 4542 141d 38       		.uleb128 0x38
 4543 141e 44090000 		.4byte	0x944
 4544 1422 8C000000 		.4byte	.LBB394
 4545 1426 18030000 		.4byte	.Ldebug_ranges0+0x318
 4546 142a 01       		.byte	0x1
 4547 142b 4B01     		.2byte	0x14b
 4548 142d 44140000 		.4byte	0x1444
 4549 1431 29       		.uleb128 0x29
 4550 1432 61090000 		.4byte	0x961
 4551 1436 9D0A0000 		.4byte	.LLST85
 4552 143a 29       		.uleb128 0x29
 4553 143b 55090000 		.4byte	0x955
 4554 143f B10A0000 		.4byte	.LLST86
 4555 1443 00       		.byte	0
 4556 1444 3A       		.uleb128 0x3a
 4557 1445 26090000 		.4byte	0x926
 4558 1449 96000000 		.4byte	.LBB398
 4559 144d 38030000 		.4byte	.Ldebug_ranges0+0x338
 4560 1451 01       		.byte	0x1
 4561 1452 4C01     		.2byte	0x14c
 4562 1454 29       		.uleb128 0x29
 4563 1455 37090000 		.4byte	0x937
 4564 1459 C40A0000 		.4byte	.LLST87
 4565 145d 00       		.byte	0
 4566 145e 00       		.byte	0
 4567 145f 00       		.byte	0
 4568 1460 41       		.uleb128 0x41
 4569 1461 CA300000 		.4byte	.LASF1221
 4570 1465 01       		.byte	0x1
 4571 1466 7101     		.2byte	0x171
 4572 1468 00000000 		.4byte	.LFB210
 4573 146c 28000000 		.4byte	.LFE210-.LFB210
 4574 1470 01       		.uleb128 0x1
 4575 1471 9C       		.byte	0x9c
 4576 1472 2C150000 		.4byte	0x152c
 4577 1476 3F       		.uleb128 0x3f
 4578 1477 39100000 		.4byte	.LASF1172
 4579 147b 01       		.byte	0x1
 4580 147c 7101     		.2byte	0x171
ARM GAS  /var/folders/f9/8bk2lnw15zn4cbgn6wrnb4lm0000gn/T//ccCGlkPS.s 			page 111


 4581 147e D4080000 		.4byte	0x8d4
 4582 1482 01       		.uleb128 0x1
 4583 1483 50       		.byte	0x50
 4584 1484 39       		.uleb128 0x39
 4585 1485 44090000 		.4byte	0x944
 4586 1489 00000000 		.4byte	.LBB409
 4587 148d 02000000 		.4byte	.LBE409-.LBB409
 4588 1491 01       		.byte	0x1
 4589 1492 7301     		.2byte	0x173
 4590 1494 A6140000 		.4byte	0x14a6
 4591 1498 26       		.uleb128 0x26
 4592 1499 61090000 		.4byte	0x961
 4593 149d 10       		.byte	0x10
 4594 149e 27       		.uleb128 0x27
 4595 149f 55090000 		.4byte	0x955
 4596 14a3 01       		.uleb128 0x1
 4597 14a4 50       		.byte	0x50
 4598 14a5 00       		.byte	0
 4599 14a6 39       		.uleb128 0x39
 4600 14a7 44090000 		.4byte	0x944
 4601 14ab 06000000 		.4byte	.LBB411
 4602 14af 06000000 		.4byte	.LBE411-.LBB411
 4603 14b3 01       		.byte	0x1
 4604 14b4 7401     		.2byte	0x174
 4605 14b6 CD140000 		.4byte	0x14cd
 4606 14ba 29       		.uleb128 0x29
 4607 14bb 61090000 		.4byte	0x961
 4608 14bf D70A0000 		.4byte	.LLST88
 4609 14c3 29       		.uleb128 0x29
 4610 14c4 55090000 		.4byte	0x955
 4611 14c8 EB0A0000 		.4byte	.LLST89
 4612 14cc 00       		.byte	0
 4613 14cd 38       		.uleb128 0x38
 4614 14ce 44090000 		.4byte	0x944
 4615 14d2 10000000 		.4byte	.LBB413
 4616 14d6 50030000 		.4byte	.Ldebug_ranges0+0x350
 4617 14da 01       		.byte	0x1
 4618 14db 7801     		.2byte	0x178
 4619 14dd EF140000 		.4byte	0x14ef
 4620 14e1 26       		.uleb128 0x26
 4621 14e2 61090000 		.4byte	0x961
 4622 14e6 04       		.byte	0x4
 4623 14e7 27       		.uleb128 0x27
 4624 14e8 55090000 		.4byte	0x955
 4625 14ec 01       		.uleb128 0x1
 4626 14ed 50       		.byte	0x50
 4627 14ee 00       		.byte	0
 4628 14ef 39       		.uleb128 0x39
 4629 14f0 26090000 		.4byte	0x926
 4630 14f4 18000000 		.4byte	.LBB416
 4631 14f8 02000000 		.4byte	.LBE416-.LBB416
 4632 14fc 01       		.byte	0x1
 4633 14fd 7901     		.2byte	0x179
 4634 14ff 0D150000 		.4byte	0x150d
 4635 1503 29       		.uleb128 0x29
 4636 1504 37090000 		.4byte	0x937
 4637 1508 FE0A0000 		.4byte	.LLST90
ARM GAS  /var/folders/f9/8bk2lnw15zn4cbgn6wrnb4lm0000gn/T//ccCGlkPS.s 			page 112


 4638 150c 00       		.byte	0
 4639 150d 40       		.uleb128 0x40
 4640 150e BC090000 		.4byte	0x9bc
 4641 1512 22000000 		.4byte	.LBB419
 4642 1516 04000000 		.4byte	.LBE419-.LBB419
 4643 151a 01       		.byte	0x1
 4644 151b 7D01     		.2byte	0x17d
 4645 151d 26       		.uleb128 0x26
 4646 151e D5090000 		.4byte	0x9d5
 4647 1522 03       		.byte	0x3
 4648 1523 27       		.uleb128 0x27
 4649 1524 C9090000 		.4byte	0x9c9
 4650 1528 01       		.uleb128 0x1
 4651 1529 50       		.byte	0x50
 4652 152a 00       		.byte	0
 4653 152b 00       		.byte	0
 4654 152c 3D       		.uleb128 0x3d
 4655 152d DE470000 		.4byte	.LASF1219
 4656 1531 01       		.byte	0x1
 4657 1532 8101     		.2byte	0x181
 4658 1534 F1000000 		.4byte	0xf1
 4659 1538 00000000 		.4byte	.LFB211
 4660 153c 7C000000 		.4byte	.LFE211-.LFB211
 4661 1540 01       		.uleb128 0x1
 4662 1541 9C       		.byte	0x9c
 4663 1542 81160000 		.4byte	0x1681
 4664 1546 3E       		.uleb128 0x3e
 4665 1547 39100000 		.4byte	.LASF1172
 4666 154b 01       		.byte	0x1
 4667 154c 8101     		.2byte	0x181
 4668 154e D4080000 		.4byte	0x8d4
 4669 1552 110B0000 		.4byte	.LLST91
 4670 1556 3E       		.uleb128 0x3e
 4671 1557 0A210000 		.4byte	.LASF1174
 4672 155b 01       		.byte	0x1
 4673 155c 8101     		.2byte	0x181
 4674 155e FD080000 		.4byte	0x8fd
 4675 1562 530B0000 		.4byte	.LLST92
 4676 1566 39       		.uleb128 0x39
 4677 1567 000A0000 		.4byte	0xa00
 4678 156b 02000000 		.4byte	.LBB421
 4679 156f 02000000 		.4byte	.LBE421-.LBB421
 4680 1573 01       		.byte	0x1
 4681 1574 8401     		.2byte	0x184
 4682 1576 8A150000 		.4byte	0x158a
 4683 157a 26       		.uleb128 0x26
 4684 157b 1D0A0000 		.4byte	0xa1d
 4685 157f 01       		.byte	0x1
 4686 1580 29       		.uleb128 0x29
 4687 1581 110A0000 		.4byte	0xa11
 4688 1585 110B0000 		.4byte	.LLST91
 4689 1589 00       		.byte	0
 4690 158a 38       		.uleb128 0x38
 4691 158b 44090000 		.4byte	0x944
 4692 158f 1C000000 		.4byte	.LBB423
 4693 1593 68030000 		.4byte	.Ldebug_ranges0+0x368
 4694 1597 01       		.byte	0x1
ARM GAS  /var/folders/f9/8bk2lnw15zn4cbgn6wrnb4lm0000gn/T//ccCGlkPS.s 			page 113


 4695 1598 8C01     		.2byte	0x18c
 4696 159a B1150000 		.4byte	0x15b1
 4697 159e 29       		.uleb128 0x29
 4698 159f 61090000 		.4byte	0x961
 4699 15a3 950B0000 		.4byte	.LLST94
 4700 15a7 29       		.uleb128 0x29
 4701 15a8 55090000 		.4byte	0x955
 4702 15ac B50B0000 		.4byte	.LLST95
 4703 15b0 00       		.byte	0
 4704 15b1 38       		.uleb128 0x38
 4705 15b2 03090000 		.4byte	0x903
 4706 15b6 2A000000 		.4byte	.LBB426
 4707 15ba 80030000 		.4byte	.Ldebug_ranges0+0x380
 4708 15be 01       		.byte	0x1
 4709 15bf 8E01     		.2byte	0x18e
 4710 15c1 29160000 		.4byte	0x1629
 4711 15c5 29       		.uleb128 0x29
 4712 15c6 1A090000 		.4byte	0x91a
 4713 15ca D30B0000 		.4byte	.LLST96
 4714 15ce 29       		.uleb128 0x29
 4715 15cf 1A090000 		.4byte	0x91a
 4716 15d3 D30B0000 		.4byte	.LLST96
 4717 15d7 29       		.uleb128 0x29
 4718 15d8 0F090000 		.4byte	0x90f
 4719 15dc F10B0000 		.4byte	.LLST98
 4720 15e0 25       		.uleb128 0x25
 4721 15e1 AE080000 		.4byte	0x8ae
 4722 15e5 2A000000 		.4byte	.LBB428
 4723 15e9 A0030000 		.4byte	.Ldebug_ranges0+0x3a0
 4724 15ed 01       		.byte	0x1
 4725 15ee 42       		.byte	0x42
 4726 15ef 06160000 		.4byte	0x1606
 4727 15f3 29       		.uleb128 0x29
 4728 15f4 C7080000 		.4byte	0x8c7
 4729 15f8 0F0C0000 		.4byte	.LLST99
 4730 15fc 29       		.uleb128 0x29
 4731 15fd BB080000 		.4byte	0x8bb
 4732 1601 240C0000 		.4byte	.LLST100
 4733 1605 00       		.byte	0
 4734 1606 28       		.uleb128 0x28
 4735 1607 AE080000 		.4byte	0x8ae
 4736 160b 30000000 		.4byte	.LBB431
 4737 160f 04000000 		.4byte	.LBE431-.LBB431
 4738 1613 01       		.byte	0x1
 4739 1614 3F       		.byte	0x3f
 4740 1615 29       		.uleb128 0x29
 4741 1616 C7080000 		.4byte	0x8c7
 4742 161a 370C0000 		.4byte	.LLST101
 4743 161e 29       		.uleb128 0x29
 4744 161f BB080000 		.4byte	0x8bb
 4745 1623 750C0000 		.4byte	.LLST102
 4746 1627 00       		.byte	0
 4747 1628 00       		.byte	0
 4748 1629 38       		.uleb128 0x38
 4749 162a 000A0000 		.4byte	0xa00
 4750 162e 2C000000 		.4byte	.LBB436
 4751 1632 B8030000 		.4byte	.Ldebug_ranges0+0x3b8
ARM GAS  /var/folders/f9/8bk2lnw15zn4cbgn6wrnb4lm0000gn/T//ccCGlkPS.s 			page 114


 4752 1636 01       		.byte	0x1
 4753 1637 9101     		.2byte	0x191
 4754 1639 50160000 		.4byte	0x1650
 4755 163d 29       		.uleb128 0x29
 4756 163e 1D0A0000 		.4byte	0xa1d
 4757 1642 880C0000 		.4byte	.LLST103
 4758 1646 29       		.uleb128 0x29
 4759 1647 110A0000 		.4byte	0xa11
 4760 164b A80C0000 		.4byte	.LLST104
 4761 164f 00       		.byte	0
 4762 1650 42       		.uleb128 0x42
 4763 1651 1C000000 		.4byte	.LVL117
 4764 1655 F10B0000 		.4byte	0xbf1
 4765 1659 6A160000 		.4byte	0x166a
 4766 165d 34       		.uleb128 0x34
 4767 165e 01       		.uleb128 0x1
 4768 165f 51       		.byte	0x51
 4769 1660 02       		.uleb128 0x2
 4770 1661 74       		.byte	0x74
 4771 1662 00       		.sleb128 0
 4772 1663 34       		.uleb128 0x34
 4773 1664 01       		.uleb128 0x1
 4774 1665 50       		.byte	0x50
 4775 1666 02       		.uleb128 0x2
 4776 1667 75       		.byte	0x75
 4777 1668 00       		.sleb128 0
 4778 1669 00       		.byte	0
 4779 166a 33       		.uleb128 0x33
 4780 166b 48000000 		.4byte	.LVL123
 4781 166f F10B0000 		.4byte	0xbf1
 4782 1673 34       		.uleb128 0x34
 4783 1674 01       		.uleb128 0x1
 4784 1675 51       		.byte	0x51
 4785 1676 02       		.uleb128 0x2
 4786 1677 74       		.byte	0x74
 4787 1678 00       		.sleb128 0
 4788 1679 34       		.uleb128 0x34
 4789 167a 01       		.uleb128 0x1
 4790 167b 50       		.byte	0x50
 4791 167c 02       		.uleb128 0x2
 4792 167d 75       		.byte	0x75
 4793 167e 00       		.sleb128 0
 4794 167f 00       		.byte	0
 4795 1680 00       		.byte	0
 4796 1681 3D       		.uleb128 0x3d
 4797 1682 06340000 		.4byte	.LASF1220
 4798 1686 01       		.byte	0x1
 4799 1687 A001     		.2byte	0x1a0
 4800 1689 F1000000 		.4byte	0xf1
 4801 168d 00000000 		.4byte	.LFB212
 4802 1691 BC000000 		.4byte	.LFE212-.LFB212
 4803 1695 01       		.uleb128 0x1
 4804 1696 9C       		.byte	0x9c
 4805 1697 7A180000 		.4byte	0x187a
 4806 169b 3E       		.uleb128 0x3e
 4807 169c 39100000 		.4byte	.LASF1172
 4808 16a0 01       		.byte	0x1
ARM GAS  /var/folders/f9/8bk2lnw15zn4cbgn6wrnb4lm0000gn/T//ccCGlkPS.s 			page 115


 4809 16a1 A001     		.2byte	0x1a0
 4810 16a3 D4080000 		.4byte	0x8d4
 4811 16a7 C60C0000 		.4byte	.LLST105
 4812 16ab 3F       		.uleb128 0x3f
 4813 16ac 0A210000 		.4byte	.LASF1174
 4814 16b0 01       		.byte	0x1
 4815 16b1 A001     		.2byte	0x1a0
 4816 16b3 FD080000 		.4byte	0x8fd
 4817 16b7 01       		.uleb128 0x1
 4818 16b8 51       		.byte	0x51
 4819 16b9 39       		.uleb128 0x39
 4820 16ba 000A0000 		.4byte	0xa00
 4821 16be 00000000 		.4byte	.LBB445
 4822 16c2 02000000 		.4byte	.LBE445-.LBB445
 4823 16c6 01       		.byte	0x1
 4824 16c7 A301     		.2byte	0x1a3
 4825 16c9 DD160000 		.4byte	0x16dd
 4826 16cd 26       		.uleb128 0x26
 4827 16ce 1D0A0000 		.4byte	0xa1d
 4828 16d2 01       		.byte	0x1
 4829 16d3 29       		.uleb128 0x29
 4830 16d4 110A0000 		.4byte	0xa11
 4831 16d8 C60C0000 		.4byte	.LLST105
 4832 16dc 00       		.byte	0
 4833 16dd 39       		.uleb128 0x39
 4834 16de 2A0A0000 		.4byte	0xa2a
 4835 16e2 10000000 		.4byte	.LBB447
 4836 16e6 2C000000 		.4byte	.LBE447-.LBB447
 4837 16ea 01       		.byte	0x1
 4838 16eb A901     		.2byte	0x1a9
 4839 16ed 4A170000 		.4byte	0x174a
 4840 16f1 30       		.uleb128 0x30
 4841 16f2 410A0000 		.4byte	0xa41
 4842 16f6 30       		.uleb128 0x30
 4843 16f7 360A0000 		.4byte	0xa36
 4844 16fb 31       		.uleb128 0x31
 4845 16fc 10000000 		.4byte	.LBB448
 4846 1700 2C000000 		.4byte	.LBE448-.LBB448
 4847 1704 32       		.uleb128 0x32
 4848 1705 4C0A0000 		.4byte	0xa4c
 4849 1709 25       		.uleb128 0x25
 4850 170a 44090000 		.4byte	0x944
 4851 170e 10000000 		.4byte	.LBB449
 4852 1712 D8030000 		.4byte	.Ldebug_ranges0+0x3d8
 4853 1716 01       		.byte	0x1
 4854 1717 4D       		.byte	0x4d
 4855 1718 2F170000 		.4byte	0x172f
 4856 171c 29       		.uleb128 0x29
 4857 171d 61090000 		.4byte	0x961
 4858 1721 190D0000 		.4byte	.LLST107
 4859 1725 29       		.uleb128 0x29
 4860 1726 55090000 		.4byte	0x955
 4861 172a 390D0000 		.4byte	.LLST108
 4862 172e 00       		.byte	0
 4863 172f 28       		.uleb128 0x28
 4864 1730 26090000 		.4byte	0x926
 4865 1734 26000000 		.4byte	.LBB455
ARM GAS  /var/folders/f9/8bk2lnw15zn4cbgn6wrnb4lm0000gn/T//ccCGlkPS.s 			page 116


 4866 1738 04000000 		.4byte	.LBE455-.LBB455
 4867 173c 01       		.byte	0x1
 4868 173d 4F       		.byte	0x4f
 4869 173e 29       		.uleb128 0x29
 4870 173f 37090000 		.4byte	0x937
 4871 1743 570D0000 		.4byte	.LLST109
 4872 1747 00       		.byte	0
 4873 1748 00       		.byte	0
 4874 1749 00       		.byte	0
 4875 174a 38       		.uleb128 0x38
 4876 174b DA080000 		.4byte	0x8da
 4877 174f 3C000000 		.4byte	.LBB459
 4878 1753 00040000 		.4byte	.Ldebug_ranges0+0x400
 4879 1757 01       		.byte	0x1
 4880 1758 AD01     		.2byte	0x1ad
 4881 175a C2170000 		.4byte	0x17c2
 4882 175e 29       		.uleb128 0x29
 4883 175f F1080000 		.4byte	0x8f1
 4884 1763 6A0D0000 		.4byte	.LLST110
 4885 1767 29       		.uleb128 0x29
 4886 1768 F1080000 		.4byte	0x8f1
 4887 176c 6A0D0000 		.4byte	.LLST110
 4888 1770 29       		.uleb128 0x29
 4889 1771 E6080000 		.4byte	0x8e6
 4890 1775 880D0000 		.4byte	.LLST112
 4891 1779 25       		.uleb128 0x25
 4892 177a AE080000 		.4byte	0x8ae
 4893 177e 3C000000 		.4byte	.LBB461
 4894 1782 20040000 		.4byte	.Ldebug_ranges0+0x420
 4895 1786 01       		.byte	0x1
 4896 1787 35       		.byte	0x35
 4897 1788 9F170000 		.4byte	0x179f
 4898 178c 29       		.uleb128 0x29
 4899 178d C7080000 		.4byte	0x8c7
 4900 1791 A60D0000 		.4byte	.LLST113
 4901 1795 29       		.uleb128 0x29
 4902 1796 BB080000 		.4byte	0x8bb
 4903 179a BB0D0000 		.4byte	.LLST114
 4904 179e 00       		.byte	0
 4905 179f 28       		.uleb128 0x28
 4906 17a0 AE080000 		.4byte	0x8ae
 4907 17a4 54000000 		.4byte	.LBB464
 4908 17a8 04000000 		.4byte	.LBE464-.LBB464
 4909 17ac 01       		.byte	0x1
 4910 17ad 31       		.byte	0x31
 4911 17ae 29       		.uleb128 0x29
 4912 17af C7080000 		.4byte	0x8c7
 4913 17b3 CE0D0000 		.4byte	.LLST115
 4914 17b7 29       		.uleb128 0x29
 4915 17b8 BB080000 		.4byte	0x8bb
 4916 17bc 0E0E0000 		.4byte	.LLST116
 4917 17c0 00       		.byte	0
 4918 17c1 00       		.byte	0
 4919 17c2 38       		.uleb128 0x38
 4920 17c3 44090000 		.4byte	0x944
 4921 17c7 3E000000 		.4byte	.LBB469
 4922 17cb 38040000 		.4byte	.Ldebug_ranges0+0x438
ARM GAS  /var/folders/f9/8bk2lnw15zn4cbgn6wrnb4lm0000gn/T//ccCGlkPS.s 			page 117


 4923 17cf 01       		.byte	0x1
 4924 17d0 AB01     		.2byte	0x1ab
 4925 17d2 E9170000 		.4byte	0x17e9
 4926 17d6 29       		.uleb128 0x29
 4927 17d7 61090000 		.4byte	0x961
 4928 17db 210E0000 		.4byte	.LLST117
 4929 17df 29       		.uleb128 0x29
 4930 17e0 55090000 		.4byte	0x955
 4931 17e4 410E0000 		.4byte	.LLST118
 4932 17e8 00       		.byte	0
 4933 17e9 38       		.uleb128 0x38
 4934 17ea 000A0000 		.4byte	0xa00
 4935 17ee 5E000000 		.4byte	.LBB473
 4936 17f2 50040000 		.4byte	.Ldebug_ranges0+0x450
 4937 17f6 01       		.byte	0x1
 4938 17f7 B001     		.2byte	0x1b0
 4939 17f9 10180000 		.4byte	0x1810
 4940 17fd 29       		.uleb128 0x29
 4941 17fe 1D0A0000 		.4byte	0xa1d
 4942 1802 5F0E0000 		.4byte	.LLST119
 4943 1806 29       		.uleb128 0x29
 4944 1807 110A0000 		.4byte	0xa11
 4945 180b 7F0E0000 		.4byte	.LLST120
 4946 180f 00       		.byte	0
 4947 1810 40       		.uleb128 0x40
 4948 1811 2A0A0000 		.4byte	0xa2a
 4949 1815 64000000 		.4byte	.LBB476
 4950 1819 2C000000 		.4byte	.LBE476-.LBB476
 4951 181d 01       		.byte	0x1
 4952 181e B501     		.2byte	0x1b5
 4953 1820 30       		.uleb128 0x30
 4954 1821 410A0000 		.4byte	0xa41
 4955 1825 30       		.uleb128 0x30
 4956 1826 360A0000 		.4byte	0xa36
 4957 182a 31       		.uleb128 0x31
 4958 182b 64000000 		.4byte	.LBB477
 4959 182f 2C000000 		.4byte	.LBE477-.LBB477
 4960 1833 32       		.uleb128 0x32
 4961 1834 4C0A0000 		.4byte	0xa4c
 4962 1838 25       		.uleb128 0x25
 4963 1839 44090000 		.4byte	0x944
 4964 183d 64000000 		.4byte	.LBB478
 4965 1841 68040000 		.4byte	.Ldebug_ranges0+0x468
 4966 1845 01       		.byte	0x1
 4967 1846 4D       		.byte	0x4d
 4968 1847 5E180000 		.4byte	0x185e
 4969 184b 29       		.uleb128 0x29
 4970 184c 61090000 		.4byte	0x961
 4971 1850 9D0E0000 		.4byte	.LLST121
 4972 1854 29       		.uleb128 0x29
 4973 1855 55090000 		.4byte	0x955
 4974 1859 B10E0000 		.4byte	.LLST122
 4975 185d 00       		.byte	0
 4976 185e 28       		.uleb128 0x28
 4977 185f 26090000 		.4byte	0x926
 4978 1863 7A000000 		.4byte	.LBB482
 4979 1867 04000000 		.4byte	.LBE482-.LBB482
ARM GAS  /var/folders/f9/8bk2lnw15zn4cbgn6wrnb4lm0000gn/T//ccCGlkPS.s 			page 118


 4980 186b 01       		.byte	0x1
 4981 186c 4F       		.byte	0x4f
 4982 186d 29       		.uleb128 0x29
 4983 186e 37090000 		.4byte	0x937
 4984 1872 C40E0000 		.4byte	.LLST123
 4985 1876 00       		.byte	0
 4986 1877 00       		.byte	0
 4987 1878 00       		.byte	0
 4988 1879 00       		.byte	0
 4989 187a 41       		.uleb128 0x41
 4990 187b 835B0000 		.4byte	.LASF1222
 4991 187f 01       		.byte	0x1
 4992 1880 BF01     		.2byte	0x1bf
 4993 1882 00000000 		.4byte	.LFB213
 4994 1886 18000000 		.4byte	.LFE213-.LFB213
 4995 188a 01       		.uleb128 0x1
 4996 188b 9C       		.byte	0x9c
 4997 188c F2180000 		.4byte	0x18f2
 4998 1890 3F       		.uleb128 0x3f
 4999 1891 39100000 		.4byte	.LASF1172
 5000 1895 01       		.byte	0x1
 5001 1896 BF01     		.2byte	0x1bf
 5002 1898 D4080000 		.4byte	0x8d4
 5003 189c 01       		.uleb128 0x1
 5004 189d 50       		.byte	0x50
 5005 189e 3F       		.uleb128 0x3f
 5006 189f 5B4C0000 		.4byte	.LASF1223
 5007 18a3 01       		.byte	0x1
 5008 18a4 BF01     		.2byte	0x1bf
 5009 18a6 03010000 		.4byte	0x103
 5010 18aa 01       		.uleb128 0x1
 5011 18ab 51       		.byte	0x51
 5012 18ac 39       		.uleb128 0x39
 5013 18ad 580A0000 		.4byte	0xa58
 5014 18b1 04000000 		.4byte	.LBB489
 5015 18b5 08000000 		.4byte	.LBE489-.LBB489
 5016 18b9 01       		.byte	0x1
 5017 18ba C501     		.2byte	0x1c5
 5018 18bc D3180000 		.4byte	0x18d3
 5019 18c0 29       		.uleb128 0x29
 5020 18c1 710A0000 		.4byte	0xa71
 5021 18c5 D70E0000 		.4byte	.LLST124
 5022 18c9 29       		.uleb128 0x29
 5023 18ca 650A0000 		.4byte	0xa65
 5024 18ce EB0E0000 		.4byte	.LLST125
 5025 18d2 00       		.byte	0
 5026 18d3 40       		.uleb128 0x40
 5027 18d4 580A0000 		.4byte	0xa58
 5028 18d8 0E000000 		.4byte	.LBB491
 5029 18dc 0A000000 		.4byte	.LBE491-.LBB491
 5030 18e0 01       		.byte	0x1
 5031 18e1 C201     		.2byte	0x1c2
 5032 18e3 26       		.uleb128 0x26
 5033 18e4 710A0000 		.4byte	0xa71
 5034 18e8 00       		.byte	0
 5035 18e9 27       		.uleb128 0x27
 5036 18ea 650A0000 		.4byte	0xa65
ARM GAS  /var/folders/f9/8bk2lnw15zn4cbgn6wrnb4lm0000gn/T//ccCGlkPS.s 			page 119


 5037 18ee 01       		.uleb128 0x1
 5038 18ef 50       		.byte	0x50
 5039 18f0 00       		.byte	0
 5040 18f1 00       		.byte	0
 5041 18f2 43       		.uleb128 0x43
 5042 18f3 82100000 		.4byte	.LASF1224
 5043 18f7 01       		.byte	0x1
 5044 18f8 CA01     		.2byte	0x1ca
 5045 18fa 00000000 		.4byte	.LFB214
 5046 18fe 84000000 		.4byte	.LFE214-.LFB214
 5047 1902 01       		.uleb128 0x1
 5048 1903 9C       		.byte	0x9c
 5049 1904 F2190000 		.4byte	0x19f2
 5050 1908 3E       		.uleb128 0x3e
 5051 1909 39100000 		.4byte	.LASF1172
 5052 190d 01       		.byte	0x1
 5053 190e CA01     		.2byte	0x1ca
 5054 1910 D4080000 		.4byte	0x8d4
 5055 1914 FE0E0000 		.4byte	.LLST126
 5056 1918 3E       		.uleb128 0x3e
 5057 1919 E1620000 		.4byte	.LASF1225
 5058 191d 01       		.byte	0x1
 5059 191e CA01     		.2byte	0x1ca
 5060 1920 A6000000 		.4byte	0xa6
 5061 1924 320F0000 		.4byte	.LLST127
 5062 1928 44       		.uleb128 0x44
 5063 1929 7D350000 		.4byte	.LASF1226
 5064 192d 01       		.byte	0x1
 5065 192e CC01     		.2byte	0x1cc
 5066 1930 A6000000 		.4byte	0xa6
 5067 1934 01       		.uleb128 0x1
 5068 1935 58       		.byte	0x58
 5069 1936 37       		.uleb128 0x37
 5070 1937 60590000 		.4byte	.LASF1227
 5071 193b 01       		.byte	0x1
 5072 193c CC01     		.2byte	0x1cc
 5073 193e A6000000 		.4byte	0xa6
 5074 1942 690F0000 		.4byte	.LLST128
 5075 1946 37       		.uleb128 0x37
 5076 1947 6B760000 		.4byte	.LASF1228
 5077 194b 01       		.byte	0x1
 5078 194c CC01     		.2byte	0x1cc
 5079 194e A6000000 		.4byte	0xa6
 5080 1952 C30F0000 		.4byte	.LLST129
 5081 1956 37       		.uleb128 0x37
 5082 1957 74770000 		.4byte	.LASF1195
 5083 195b 01       		.byte	0x1
 5084 195c CC01     		.2byte	0x1cc
 5085 195e A6000000 		.4byte	0xa6
 5086 1962 30100000 		.4byte	.LLST130
 5087 1966 38       		.uleb128 0x38
 5088 1967 7E0A0000 		.4byte	0xa7e
 5089 196b 0C000000 		.4byte	.LBB493
 5090 196f 88040000 		.4byte	.Ldebug_ranges0+0x488
 5091 1973 01       		.byte	0x1
 5092 1974 CE01     		.2byte	0x1ce
 5093 1976 BA190000 		.4byte	0x19ba
ARM GAS  /var/folders/f9/8bk2lnw15zn4cbgn6wrnb4lm0000gn/T//ccCGlkPS.s 			page 120


 5094 197a 29       		.uleb128 0x29
 5095 197b 8E0A0000 		.4byte	0xa8e
 5096 197f 66100000 		.4byte	.LLST131
 5097 1983 3B       		.uleb128 0x3b
 5098 1984 88040000 		.4byte	.Ldebug_ranges0+0x488
 5099 1988 2B       		.uleb128 0x2b
 5100 1989 990A0000 		.4byte	0xa99
 5101 198d 9A100000 		.4byte	.LLST132
 5102 1991 45       		.uleb128 0x45
 5103 1992 AF090000 		.4byte	0x9af
 5104 1996 16000000 		.4byte	.LBB495
 5105 199a 06000000 		.4byte	.LBE495-.LBB495
 5106 199e 01       		.byte	0x1
 5107 199f 9F       		.byte	0x9f
 5108 19a0 45       		.uleb128 0x45
 5109 19a1 A2090000 		.4byte	0x9a2
 5110 19a5 62000000 		.4byte	.LBB497
 5111 19a9 06000000 		.4byte	.LBE497-.LBB497
 5112 19ad 01       		.byte	0x1
 5113 19ae 9B       		.byte	0x9b
 5114 19af 46       		.uleb128 0x46
 5115 19b0 10000000 		.4byte	.LVL162
 5116 19b4 751C0000 		.4byte	0x1c75
 5117 19b8 00       		.byte	0
 5118 19b9 00       		.byte	0
 5119 19ba 3A       		.uleb128 0x3a
 5120 19bb A50A0000 		.4byte	0xaa5
 5121 19bf 3E000000 		.4byte	.LBB500
 5122 19c3 A0040000 		.4byte	.Ldebug_ranges0+0x4a0
 5123 19c7 01       		.byte	0x1
 5124 19c8 DF01     		.2byte	0x1df
 5125 19ca 29       		.uleb128 0x29
 5126 19cb C70A0000 		.4byte	0xac7
 5127 19cf E4100000 		.4byte	.LLST133
 5128 19d3 30       		.uleb128 0x30
 5129 19d4 BC0A0000 		.4byte	0xabc
 5130 19d8 29       		.uleb128 0x29
 5131 19d9 B10A0000 		.4byte	0xab1
 5132 19dd 0F110000 		.4byte	.LLST134
 5133 19e1 3B       		.uleb128 0x3b
 5134 19e2 A0040000 		.4byte	.Ldebug_ranges0+0x4a0
 5135 19e6 2B       		.uleb128 0x2b
 5136 19e7 D20A0000 		.4byte	0xad2
 5137 19eb 2D110000 		.4byte	.LLST135
 5138 19ef 00       		.byte	0
 5139 19f0 00       		.byte	0
 5140 19f1 00       		.byte	0
 5141 19f2 41       		.uleb128 0x41
 5142 19f3 10320000 		.4byte	.LASF1229
 5143 19f7 01       		.byte	0x1
 5144 19f8 E301     		.2byte	0x1e3
 5145 19fa 00000000 		.4byte	.LFB215
 5146 19fe 74000000 		.4byte	.LFE215-.LFB215
 5147 1a02 01       		.uleb128 0x1
 5148 1a03 9C       		.byte	0x9c
 5149 1a04 801B0000 		.4byte	0x1b80
 5150 1a08 3E       		.uleb128 0x3e
ARM GAS  /var/folders/f9/8bk2lnw15zn4cbgn6wrnb4lm0000gn/T//ccCGlkPS.s 			page 121


 5151 1a09 39100000 		.4byte	.LASF1172
 5152 1a0d 01       		.byte	0x1
 5153 1a0e E301     		.2byte	0x1e3
 5154 1a10 D4080000 		.4byte	0x8d4
 5155 1a14 64110000 		.4byte	.LLST136
 5156 1a18 38       		.uleb128 0x38
 5157 1a19 DE0A0000 		.4byte	0xade
 5158 1a1d 00000000 		.4byte	.LBB505
 5159 1a21 B8040000 		.4byte	.Ldebug_ranges0+0x4b8
 5160 1a25 01       		.byte	0x1
 5161 1a26 E501     		.2byte	0x1e5
 5162 1a28 451A0000 		.4byte	0x1a45
 5163 1a2c 29       		.uleb128 0x29
 5164 1a2d EE0A0000 		.4byte	0xaee
 5165 1a31 64110000 		.4byte	.LLST136
 5166 1a35 3B       		.uleb128 0x3b
 5167 1a36 B8040000 		.4byte	.Ldebug_ranges0+0x4b8
 5168 1a3a 2B       		.uleb128 0x2b
 5169 1a3b F90A0000 		.4byte	0xaf9
 5170 1a3f 90110000 		.4byte	.LLST138
 5171 1a43 00       		.byte	0
 5172 1a44 00       		.byte	0
 5173 1a45 38       		.uleb128 0x38
 5174 1a46 050B0000 		.4byte	0xb05
 5175 1a4a 08000000 		.4byte	.LBB509
 5176 1a4e D0040000 		.4byte	.Ldebug_ranges0+0x4d0
 5177 1a52 01       		.byte	0x1
 5178 1a53 E501     		.2byte	0x1e5
 5179 1a55 631A0000 		.4byte	0x1a63
 5180 1a59 29       		.uleb128 0x29
 5181 1a5a 120B0000 		.4byte	0xb12
 5182 1a5e 90110000 		.4byte	.LLST138
 5183 1a62 00       		.byte	0
 5184 1a63 38       		.uleb128 0x38
 5185 1a64 1F0B0000 		.4byte	0xb1f
 5186 1a68 16000000 		.4byte	.LBB512
 5187 1a6c E8040000 		.4byte	.Ldebug_ranges0+0x4e8
 5188 1a70 01       		.byte	0x1
 5189 1a71 E601     		.2byte	0x1e6
 5190 1a73 BD1A0000 		.4byte	0x1abd
 5191 1a77 29       		.uleb128 0x29
 5192 1a78 360B0000 		.4byte	0xb36
 5193 1a7c B0110000 		.4byte	.LLST140
 5194 1a80 29       		.uleb128 0x29
 5195 1a81 2B0B0000 		.4byte	0xb2b
 5196 1a85 D0110000 		.4byte	.LLST141
 5197 1a89 2E       		.uleb128 0x2e
 5198 1a8a 88090000 		.4byte	0x988
 5199 1a8e 16000000 		.4byte	.LBB513
 5200 1a92 0C000000 		.4byte	.LBE513-.LBB513
 5201 1a96 01       		.byte	0x1
 5202 1a97 90       		.byte	0x90
 5203 1a98 A61A0000 		.4byte	0x1aa6
 5204 1a9c 29       		.uleb128 0x29
 5205 1a9d 95090000 		.4byte	0x995
 5206 1aa1 F3110000 		.4byte	.LLST142
 5207 1aa5 00       		.byte	0
ARM GAS  /var/folders/f9/8bk2lnw15zn4cbgn6wrnb4lm0000gn/T//ccCGlkPS.s 			page 122


 5208 1aa6 28       		.uleb128 0x28
 5209 1aa7 6E090000 		.4byte	0x96e
 5210 1aab 5A000000 		.4byte	.LBB515
 5211 1aaf 1A000000 		.4byte	.LBE515-.LBB515
 5212 1ab3 01       		.byte	0x1
 5213 1ab4 8C       		.byte	0x8c
 5214 1ab5 26       		.uleb128 0x26
 5215 1ab6 7B090000 		.4byte	0x97b
 5216 1aba 01       		.byte	0x1
 5217 1abb 00       		.byte	0
 5218 1abc 00       		.byte	0
 5219 1abd 38       		.uleb128 0x38
 5220 1abe 690B0000 		.4byte	0xb69
 5221 1ac2 22000000 		.4byte	.LBB517
 5222 1ac6 00050000 		.4byte	.Ldebug_ranges0+0x500
 5223 1aca 01       		.byte	0x1
 5224 1acb E701     		.2byte	0x1e7
 5225 1acd 051B0000 		.4byte	0x1b05
 5226 1ad1 30       		.uleb128 0x30
 5227 1ad2 750B0000 		.4byte	0xb75
 5228 1ad6 25       		.uleb128 0x25
 5229 1ad7 7E080000 		.4byte	0x87e
 5230 1adb 22000000 		.4byte	.LBB518
 5231 1adf 18050000 		.4byte	.Ldebug_ranges0+0x518
 5232 1ae3 04       		.byte	0x4
 5233 1ae4 B5       		.byte	0xb5
 5234 1ae5 EF1A0000 		.4byte	0x1aef
 5235 1ae9 30       		.uleb128 0x30
 5236 1aea 8A080000 		.4byte	0x88a
 5237 1aee 00       		.byte	0
 5238 1aef 28       		.uleb128 0x28
 5239 1af0 96080000 		.4byte	0x896
 5240 1af4 2A000000 		.4byte	.LBB522
 5241 1af8 06000000 		.4byte	.LBE522-.LBB522
 5242 1afc 04       		.byte	0x4
 5243 1afd B6       		.byte	0xb6
 5244 1afe 30       		.uleb128 0x30
 5245 1aff A2080000 		.4byte	0x8a2
 5246 1b03 00       		.byte	0
 5247 1b04 00       		.byte	0
 5248 1b05 39       		.uleb128 0x39
 5249 1b06 580A0000 		.4byte	0xa58
 5250 1b0a 30000000 		.4byte	.LBB525
 5251 1b0e 08000000 		.4byte	.LBE525-.LBB525
 5252 1b12 01       		.byte	0x1
 5253 1b13 E901     		.2byte	0x1e9
 5254 1b15 2C1B0000 		.4byte	0x1b2c
 5255 1b19 29       		.uleb128 0x29
 5256 1b1a 710A0000 		.4byte	0xa71
 5257 1b1e 07120000 		.4byte	.LLST143
 5258 1b22 29       		.uleb128 0x29
 5259 1b23 650A0000 		.4byte	0xa65
 5260 1b27 1B120000 		.4byte	.LLST144
 5261 1b2b 00       		.byte	0
 5262 1b2c 39       		.uleb128 0x39
 5263 1b2d 810B0000 		.4byte	0xb81
 5264 1b31 38000000 		.4byte	.LBB527
ARM GAS  /var/folders/f9/8bk2lnw15zn4cbgn6wrnb4lm0000gn/T//ccCGlkPS.s 			page 123


 5265 1b35 0C000000 		.4byte	.LBE527-.LBB527
 5266 1b39 01       		.byte	0x1
 5267 1b3a EA01     		.2byte	0x1ea
 5268 1b3c 651B0000 		.4byte	0x1b65
 5269 1b40 29       		.uleb128 0x29
 5270 1b41 B20B0000 		.4byte	0xbb2
 5271 1b45 3C120000 		.4byte	.LLST145
 5272 1b49 29       		.uleb128 0x29
 5273 1b4a A60B0000 		.4byte	0xba6
 5274 1b4e 3C120000 		.4byte	.LLST145
 5275 1b52 29       		.uleb128 0x29
 5276 1b53 9A0B0000 		.4byte	0xb9a
 5277 1b57 50120000 		.4byte	.LLST147
 5278 1b5b 29       		.uleb128 0x29
 5279 1b5c 8E0B0000 		.4byte	0xb8e
 5280 1b60 64120000 		.4byte	.LLST148
 5281 1b64 00       		.byte	0
 5282 1b65 33       		.uleb128 0x33
 5283 1b66 4A000000 		.4byte	.LVL192
 5284 1b6a F2180000 		.4byte	0x18f2
 5285 1b6e 34       		.uleb128 0x34
 5286 1b6f 01       		.uleb128 0x1
 5287 1b70 51       		.byte	0x51
 5288 1b71 05       		.uleb128 0x5
 5289 1b72 0C       		.byte	0xc
 5290 1b73 A0860100 		.4byte	0x186a0
 5291 1b77 34       		.uleb128 0x34
 5292 1b78 01       		.uleb128 0x1
 5293 1b79 50       		.byte	0x50
 5294 1b7a 03       		.uleb128 0x3
 5295 1b7b F3       		.byte	0xf3
 5296 1b7c 01       		.uleb128 0x1
 5297 1b7d 50       		.byte	0x50
 5298 1b7e 00       		.byte	0
 5299 1b7f 00       		.byte	0
 5300 1b80 41       		.uleb128 0x41
 5301 1b81 AB270000 		.4byte	.LASF1230
 5302 1b85 01       		.byte	0x1
 5303 1b86 EF01     		.2byte	0x1ef
 5304 1b88 00000000 		.4byte	.LFB216
 5305 1b8c 48000000 		.4byte	.LFE216-.LFB216
 5306 1b90 01       		.uleb128 0x1
 5307 1b91 9C       		.byte	0x9c
 5308 1b92 6A1C0000 		.4byte	0x1c6a
 5309 1b96 3E       		.uleb128 0x3e
 5310 1b97 39100000 		.4byte	.LASF1172
 5311 1b9b 01       		.byte	0x1
 5312 1b9c EF01     		.2byte	0x1ef
 5313 1b9e D4080000 		.4byte	0x8d4
 5314 1ba2 85120000 		.4byte	.LLST149
 5315 1ba6 39       		.uleb128 0x39
 5316 1ba7 BF0B0000 		.4byte	0xbbf
 5317 1bab 00000000 		.4byte	.LBB531
 5318 1baf 08000000 		.4byte	.LBE531-.LBB531
 5319 1bb3 01       		.byte	0x1
 5320 1bb4 F101     		.2byte	0x1f1
 5321 1bb6 C41B0000 		.4byte	0x1bc4
ARM GAS  /var/folders/f9/8bk2lnw15zn4cbgn6wrnb4lm0000gn/T//ccCGlkPS.s 			page 124


 5322 1bba 29       		.uleb128 0x29
 5323 1bbb CB0B0000 		.4byte	0xbcb
 5324 1bbf 85120000 		.4byte	.LLST149
 5325 1bc3 00       		.byte	0
 5326 1bc4 39       		.uleb128 0x39
 5327 1bc5 DE0A0000 		.4byte	0xade
 5328 1bc9 08000000 		.4byte	.LBB533
 5329 1bcd 06000000 		.4byte	.LBE533-.LBB533
 5330 1bd1 01       		.byte	0x1
 5331 1bd2 F301     		.2byte	0x1f3
 5332 1bd4 F51B0000 		.4byte	0x1bf5
 5333 1bd8 29       		.uleb128 0x29
 5334 1bd9 EE0A0000 		.4byte	0xaee
 5335 1bdd BF120000 		.4byte	.LLST151
 5336 1be1 31       		.uleb128 0x31
 5337 1be2 08000000 		.4byte	.LBB534
 5338 1be6 06000000 		.4byte	.LBE534-.LBB534
 5339 1bea 2B       		.uleb128 0x2b
 5340 1beb F90A0000 		.4byte	0xaf9
 5341 1bef F9120000 		.4byte	.LLST152
 5342 1bf3 00       		.byte	0
 5343 1bf4 00       		.byte	0
 5344 1bf5 38       		.uleb128 0x38
 5345 1bf6 D70B0000 		.4byte	0xbd7
 5346 1bfa 0E000000 		.4byte	.LBB535
 5347 1bfe 30050000 		.4byte	.Ldebug_ranges0+0x530
 5348 1c02 01       		.byte	0x1
 5349 1c03 F301     		.2byte	0x1f3
 5350 1c05 131C0000 		.4byte	0x1c13
 5351 1c09 29       		.uleb128 0x29
 5352 1c0a E40B0000 		.4byte	0xbe4
 5353 1c0e F9120000 		.4byte	.LLST152
 5354 1c12 00       		.byte	0
 5355 1c13 3A       		.uleb128 0x3a
 5356 1c14 1F0B0000 		.4byte	0xb1f
 5357 1c18 1A000000 		.4byte	.LBB538
 5358 1c1c 48050000 		.4byte	.Ldebug_ranges0+0x548
 5359 1c20 01       		.byte	0x1
 5360 1c21 F401     		.2byte	0x1f4
 5361 1c23 29       		.uleb128 0x29
 5362 1c24 360B0000 		.4byte	0xb36
 5363 1c28 19130000 		.4byte	.LLST154
 5364 1c2c 29       		.uleb128 0x29
 5365 1c2d 2B0B0000 		.4byte	0xb2b
 5366 1c31 39130000 		.4byte	.LLST155
 5367 1c35 2E       		.uleb128 0x2e
 5368 1c36 88090000 		.4byte	0x988
 5369 1c3a 1A000000 		.4byte	.LBB539
 5370 1c3e 06000000 		.4byte	.LBE539-.LBB539
 5371 1c42 01       		.byte	0x1
 5372 1c43 90       		.byte	0x90
 5373 1c44 521C0000 		.4byte	0x1c52
 5374 1c48 29       		.uleb128 0x29
 5375 1c49 95090000 		.4byte	0x995
 5376 1c4d 5F130000 		.4byte	.LLST156
 5377 1c51 00       		.byte	0
 5378 1c52 28       		.uleb128 0x28
ARM GAS  /var/folders/f9/8bk2lnw15zn4cbgn6wrnb4lm0000gn/T//ccCGlkPS.s 			page 125


 5379 1c53 6E090000 		.4byte	0x96e
 5380 1c57 2E000000 		.4byte	.LBB541
 5381 1c5b 1A000000 		.4byte	.LBE541-.LBB541
 5382 1c5f 01       		.byte	0x1
 5383 1c60 8C       		.byte	0x8c
 5384 1c61 26       		.uleb128 0x26
 5385 1c62 7B090000 		.4byte	0x97b
 5386 1c66 00       		.byte	0
 5387 1c67 00       		.byte	0
 5388 1c68 00       		.byte	0
 5389 1c69 00       		.byte	0
 5390 1c6a 47       		.uleb128 0x47
 5391 1c6b 22560000 		.4byte	.LASF1236
 5392 1c6f 08       		.byte	0x8
 5393 1c70 D4       		.byte	0xd4
 5394 1c71 73080000 		.4byte	0x873
 5395 1c75 48       		.uleb128 0x48
 5396 1c76 03420000 		.4byte	.LASF1237
 5397 1c7a 03       		.byte	0x3
 5398 1c7b 1302     		.2byte	0x213
 5399 1c7d A6000000 		.4byte	0xa6
 5400 1c81 00       		.byte	0
 5401              		.section	.debug_abbrev,"",%progbits
 5402              	.Ldebug_abbrev0:
 5403 0000 01       		.uleb128 0x1
 5404 0001 11       		.uleb128 0x11
 5405 0002 01       		.byte	0x1
 5406 0003 25       		.uleb128 0x25
 5407 0004 0E       		.uleb128 0xe
 5408 0005 13       		.uleb128 0x13
 5409 0006 0B       		.uleb128 0xb
 5410 0007 03       		.uleb128 0x3
 5411 0008 0E       		.uleb128 0xe
 5412 0009 1B       		.uleb128 0x1b
 5413 000a 0E       		.uleb128 0xe
 5414 000b 55       		.uleb128 0x55
 5415 000c 17       		.uleb128 0x17
 5416 000d 11       		.uleb128 0x11
 5417 000e 01       		.uleb128 0x1
 5418 000f 10       		.uleb128 0x10
 5419 0010 17       		.uleb128 0x17
 5420 0011 9942     		.uleb128 0x2119
 5421 0013 17       		.uleb128 0x17
 5422 0014 00       		.byte	0
 5423 0015 00       		.byte	0
 5424 0016 02       		.uleb128 0x2
 5425 0017 24       		.uleb128 0x24
 5426 0018 00       		.byte	0
 5427 0019 0B       		.uleb128 0xb
 5428 001a 0B       		.uleb128 0xb
 5429 001b 3E       		.uleb128 0x3e
 5430 001c 0B       		.uleb128 0xb
 5431 001d 03       		.uleb128 0x3
 5432 001e 0E       		.uleb128 0xe
 5433 001f 00       		.byte	0
 5434 0020 00       		.byte	0
 5435 0021 03       		.uleb128 0x3
ARM GAS  /var/folders/f9/8bk2lnw15zn4cbgn6wrnb4lm0000gn/T//ccCGlkPS.s 			page 126


 5436 0022 16       		.uleb128 0x16
 5437 0023 00       		.byte	0
 5438 0024 03       		.uleb128 0x3
 5439 0025 0E       		.uleb128 0xe
 5440 0026 3A       		.uleb128 0x3a
 5441 0027 0B       		.uleb128 0xb
 5442 0028 3B       		.uleb128 0x3b
 5443 0029 0B       		.uleb128 0xb
 5444 002a 49       		.uleb128 0x49
 5445 002b 13       		.uleb128 0x13
 5446 002c 00       		.byte	0
 5447 002d 00       		.byte	0
 5448 002e 04       		.uleb128 0x4
 5449 002f 24       		.uleb128 0x24
 5450 0030 00       		.byte	0
 5451 0031 0B       		.uleb128 0xb
 5452 0032 0B       		.uleb128 0xb
 5453 0033 3E       		.uleb128 0x3e
 5454 0034 0B       		.uleb128 0xb
 5455 0035 03       		.uleb128 0x3
 5456 0036 08       		.uleb128 0x8
 5457 0037 00       		.byte	0
 5458 0038 00       		.byte	0
 5459 0039 05       		.uleb128 0x5
 5460 003a 04       		.uleb128 0x4
 5461 003b 01       		.byte	0x1
 5462 003c 0B       		.uleb128 0xb
 5463 003d 0B       		.uleb128 0xb
 5464 003e 3A       		.uleb128 0x3a
 5465 003f 0B       		.uleb128 0xb
 5466 0040 3B       		.uleb128 0x3b
 5467 0041 0B       		.uleb128 0xb
 5468 0042 01       		.uleb128 0x1
 5469 0043 13       		.uleb128 0x13
 5470 0044 00       		.byte	0
 5471 0045 00       		.byte	0
 5472 0046 06       		.uleb128 0x6
 5473 0047 28       		.uleb128 0x28
 5474 0048 00       		.byte	0
 5475 0049 03       		.uleb128 0x3
 5476 004a 0E       		.uleb128 0xe
 5477 004b 1C       		.uleb128 0x1c
 5478 004c 0D       		.uleb128 0xd
 5479 004d 00       		.byte	0
 5480 004e 00       		.byte	0
 5481 004f 07       		.uleb128 0x7
 5482 0050 28       		.uleb128 0x28
 5483 0051 00       		.byte	0
 5484 0052 03       		.uleb128 0x3
 5485 0053 08       		.uleb128 0x8
 5486 0054 1C       		.uleb128 0x1c
 5487 0055 0D       		.uleb128 0xd
 5488 0056 00       		.byte	0
 5489 0057 00       		.byte	0
 5490 0058 08       		.uleb128 0x8
 5491 0059 01       		.uleb128 0x1
 5492 005a 01       		.byte	0x1
ARM GAS  /var/folders/f9/8bk2lnw15zn4cbgn6wrnb4lm0000gn/T//ccCGlkPS.s 			page 127


 5493 005b 49       		.uleb128 0x49
 5494 005c 13       		.uleb128 0x13
 5495 005d 01       		.uleb128 0x1
 5496 005e 13       		.uleb128 0x13
 5497 005f 00       		.byte	0
 5498 0060 00       		.byte	0
 5499 0061 09       		.uleb128 0x9
 5500 0062 21       		.uleb128 0x21
 5501 0063 00       		.byte	0
 5502 0064 49       		.uleb128 0x49
 5503 0065 13       		.uleb128 0x13
 5504 0066 2F       		.uleb128 0x2f
 5505 0067 0B       		.uleb128 0xb
 5506 0068 00       		.byte	0
 5507 0069 00       		.byte	0
 5508 006a 0A       		.uleb128 0xa
 5509 006b 26       		.uleb128 0x26
 5510 006c 00       		.byte	0
 5511 006d 49       		.uleb128 0x49
 5512 006e 13       		.uleb128 0x13
 5513 006f 00       		.byte	0
 5514 0070 00       		.byte	0
 5515 0071 0B       		.uleb128 0xb
 5516 0072 35       		.uleb128 0x35
 5517 0073 00       		.byte	0
 5518 0074 49       		.uleb128 0x49
 5519 0075 13       		.uleb128 0x13
 5520 0076 00       		.byte	0
 5521 0077 00       		.byte	0
 5522 0078 0C       		.uleb128 0xc
 5523 0079 13       		.uleb128 0x13
 5524 007a 01       		.byte	0x1
 5525 007b 0B       		.uleb128 0xb
 5526 007c 05       		.uleb128 0x5
 5527 007d 3A       		.uleb128 0x3a
 5528 007e 0B       		.uleb128 0xb
 5529 007f 3B       		.uleb128 0x3b
 5530 0080 0B       		.uleb128 0xb
 5531 0081 01       		.uleb128 0x1
 5532 0082 13       		.uleb128 0x13
 5533 0083 00       		.byte	0
 5534 0084 00       		.byte	0
 5535 0085 0D       		.uleb128 0xd
 5536 0086 0D       		.uleb128 0xd
 5537 0087 00       		.byte	0
 5538 0088 03       		.uleb128 0x3
 5539 0089 0E       		.uleb128 0xe
 5540 008a 3A       		.uleb128 0x3a
 5541 008b 0B       		.uleb128 0xb
 5542 008c 3B       		.uleb128 0x3b
 5543 008d 0B       		.uleb128 0xb
 5544 008e 49       		.uleb128 0x49
 5545 008f 13       		.uleb128 0x13
 5546 0090 38       		.uleb128 0x38
 5547 0091 0B       		.uleb128 0xb
 5548 0092 00       		.byte	0
 5549 0093 00       		.byte	0
ARM GAS  /var/folders/f9/8bk2lnw15zn4cbgn6wrnb4lm0000gn/T//ccCGlkPS.s 			page 128


 5550 0094 0E       		.uleb128 0xe
 5551 0095 0D       		.uleb128 0xd
 5552 0096 00       		.byte	0
 5553 0097 03       		.uleb128 0x3
 5554 0098 0E       		.uleb128 0xe
 5555 0099 3A       		.uleb128 0x3a
 5556 009a 0B       		.uleb128 0xb
 5557 009b 3B       		.uleb128 0x3b
 5558 009c 0B       		.uleb128 0xb
 5559 009d 49       		.uleb128 0x49
 5560 009e 13       		.uleb128 0x13
 5561 009f 38       		.uleb128 0x38
 5562 00a0 05       		.uleb128 0x5
 5563 00a1 00       		.byte	0
 5564 00a2 00       		.byte	0
 5565 00a3 0F       		.uleb128 0xf
 5566 00a4 04       		.uleb128 0x4
 5567 00a5 01       		.byte	0x1
 5568 00a6 03       		.uleb128 0x3
 5569 00a7 0E       		.uleb128 0xe
 5570 00a8 0B       		.uleb128 0xb
 5571 00a9 0B       		.uleb128 0xb
 5572 00aa 3A       		.uleb128 0x3a
 5573 00ab 0B       		.uleb128 0xb
 5574 00ac 3B       		.uleb128 0x3b
 5575 00ad 0B       		.uleb128 0xb
 5576 00ae 01       		.uleb128 0x1
 5577 00af 13       		.uleb128 0x13
 5578 00b0 00       		.byte	0
 5579 00b1 00       		.byte	0
 5580 00b2 10       		.uleb128 0x10
 5581 00b3 16       		.uleb128 0x16
 5582 00b4 00       		.byte	0
 5583 00b5 03       		.uleb128 0x3
 5584 00b6 0E       		.uleb128 0xe
 5585 00b7 3A       		.uleb128 0x3a
 5586 00b8 0B       		.uleb128 0xb
 5587 00b9 3B       		.uleb128 0x3b
 5588 00ba 05       		.uleb128 0x5
 5589 00bb 49       		.uleb128 0x49
 5590 00bc 13       		.uleb128 0x13
 5591 00bd 00       		.byte	0
 5592 00be 00       		.byte	0
 5593 00bf 11       		.uleb128 0x11
 5594 00c0 0F       		.uleb128 0xf
 5595 00c1 00       		.byte	0
 5596 00c2 0B       		.uleb128 0xb
 5597 00c3 0B       		.uleb128 0xb
 5598 00c4 00       		.byte	0
 5599 00c5 00       		.byte	0
 5600 00c6 12       		.uleb128 0x12
 5601 00c7 13       		.uleb128 0x13
 5602 00c8 01       		.byte	0x1
 5603 00c9 0B       		.uleb128 0xb
 5604 00ca 0B       		.uleb128 0xb
 5605 00cb 3A       		.uleb128 0x3a
 5606 00cc 0B       		.uleb128 0xb
ARM GAS  /var/folders/f9/8bk2lnw15zn4cbgn6wrnb4lm0000gn/T//ccCGlkPS.s 			page 129


 5607 00cd 3B       		.uleb128 0x3b
 5608 00ce 0B       		.uleb128 0xb
 5609 00cf 01       		.uleb128 0x1
 5610 00d0 13       		.uleb128 0x13
 5611 00d1 00       		.byte	0
 5612 00d2 00       		.byte	0
 5613 00d3 13       		.uleb128 0x13
 5614 00d4 0D       		.uleb128 0xd
 5615 00d5 00       		.byte	0
 5616 00d6 03       		.uleb128 0x3
 5617 00d7 08       		.uleb128 0x8
 5618 00d8 3A       		.uleb128 0x3a
 5619 00d9 0B       		.uleb128 0xb
 5620 00da 3B       		.uleb128 0x3b
 5621 00db 0B       		.uleb128 0xb
 5622 00dc 49       		.uleb128 0x49
 5623 00dd 13       		.uleb128 0x13
 5624 00de 38       		.uleb128 0x38
 5625 00df 0B       		.uleb128 0xb
 5626 00e0 00       		.byte	0
 5627 00e1 00       		.byte	0
 5628 00e2 14       		.uleb128 0x14
 5629 00e3 04       		.uleb128 0x4
 5630 00e4 01       		.byte	0x1
 5631 00e5 03       		.uleb128 0x3
 5632 00e6 0E       		.uleb128 0xe
 5633 00e7 0B       		.uleb128 0xb
 5634 00e8 0B       		.uleb128 0xb
 5635 00e9 3A       		.uleb128 0x3a
 5636 00ea 0B       		.uleb128 0xb
 5637 00eb 3B       		.uleb128 0x3b
 5638 00ec 05       		.uleb128 0x5
 5639 00ed 01       		.uleb128 0x1
 5640 00ee 13       		.uleb128 0x13
 5641 00ef 00       		.byte	0
 5642 00f0 00       		.byte	0
 5643 00f1 15       		.uleb128 0x15
 5644 00f2 13       		.uleb128 0x13
 5645 00f3 01       		.byte	0x1
 5646 00f4 0B       		.uleb128 0xb
 5647 00f5 0B       		.uleb128 0xb
 5648 00f6 3A       		.uleb128 0x3a
 5649 00f7 0B       		.uleb128 0xb
 5650 00f8 3B       		.uleb128 0x3b
 5651 00f9 05       		.uleb128 0x5
 5652 00fa 01       		.uleb128 0x1
 5653 00fb 13       		.uleb128 0x13
 5654 00fc 00       		.byte	0
 5655 00fd 00       		.byte	0
 5656 00fe 16       		.uleb128 0x16
 5657 00ff 0D       		.uleb128 0xd
 5658 0100 00       		.byte	0
 5659 0101 03       		.uleb128 0x3
 5660 0102 0E       		.uleb128 0xe
 5661 0103 3A       		.uleb128 0x3a
 5662 0104 0B       		.uleb128 0xb
 5663 0105 3B       		.uleb128 0x3b
ARM GAS  /var/folders/f9/8bk2lnw15zn4cbgn6wrnb4lm0000gn/T//ccCGlkPS.s 			page 130


 5664 0106 05       		.uleb128 0x5
 5665 0107 49       		.uleb128 0x49
 5666 0108 13       		.uleb128 0x13
 5667 0109 38       		.uleb128 0x38
 5668 010a 0B       		.uleb128 0xb
 5669 010b 00       		.byte	0
 5670 010c 00       		.byte	0
 5671 010d 17       		.uleb128 0x17
 5672 010e 0F       		.uleb128 0xf
 5673 010f 00       		.byte	0
 5674 0110 0B       		.uleb128 0xb
 5675 0111 0B       		.uleb128 0xb
 5676 0112 49       		.uleb128 0x49
 5677 0113 13       		.uleb128 0x13
 5678 0114 00       		.byte	0
 5679 0115 00       		.byte	0
 5680 0116 18       		.uleb128 0x18
 5681 0117 2E       		.uleb128 0x2e
 5682 0118 01       		.byte	0x1
 5683 0119 03       		.uleb128 0x3
 5684 011a 0E       		.uleb128 0xe
 5685 011b 3A       		.uleb128 0x3a
 5686 011c 0B       		.uleb128 0xb
 5687 011d 3B       		.uleb128 0x3b
 5688 011e 0B       		.uleb128 0xb
 5689 011f 27       		.uleb128 0x27
 5690 0120 19       		.uleb128 0x19
 5691 0121 20       		.uleb128 0x20
 5692 0122 0B       		.uleb128 0xb
 5693 0123 01       		.uleb128 0x1
 5694 0124 13       		.uleb128 0x13
 5695 0125 00       		.byte	0
 5696 0126 00       		.byte	0
 5697 0127 19       		.uleb128 0x19
 5698 0128 05       		.uleb128 0x5
 5699 0129 00       		.byte	0
 5700 012a 03       		.uleb128 0x3
 5701 012b 0E       		.uleb128 0xe
 5702 012c 3A       		.uleb128 0x3a
 5703 012d 0B       		.uleb128 0xb
 5704 012e 3B       		.uleb128 0x3b
 5705 012f 0B       		.uleb128 0xb
 5706 0130 49       		.uleb128 0x49
 5707 0131 13       		.uleb128 0x13
 5708 0132 00       		.byte	0
 5709 0133 00       		.byte	0
 5710 0134 1A       		.uleb128 0x1a
 5711 0135 2E       		.uleb128 0x2e
 5712 0136 01       		.byte	0x1
 5713 0137 03       		.uleb128 0x3
 5714 0138 0E       		.uleb128 0xe
 5715 0139 3A       		.uleb128 0x3a
 5716 013a 0B       		.uleb128 0xb
 5717 013b 3B       		.uleb128 0x3b
 5718 013c 05       		.uleb128 0x5
 5719 013d 27       		.uleb128 0x27
 5720 013e 19       		.uleb128 0x19
ARM GAS  /var/folders/f9/8bk2lnw15zn4cbgn6wrnb4lm0000gn/T//ccCGlkPS.s 			page 131


 5721 013f 20       		.uleb128 0x20
 5722 0140 0B       		.uleb128 0xb
 5723 0141 01       		.uleb128 0x1
 5724 0142 13       		.uleb128 0x13
 5725 0143 00       		.byte	0
 5726 0144 00       		.byte	0
 5727 0145 1B       		.uleb128 0x1b
 5728 0146 05       		.uleb128 0x5
 5729 0147 00       		.byte	0
 5730 0148 03       		.uleb128 0x3
 5731 0149 0E       		.uleb128 0xe
 5732 014a 3A       		.uleb128 0x3a
 5733 014b 0B       		.uleb128 0xb
 5734 014c 3B       		.uleb128 0x3b
 5735 014d 05       		.uleb128 0x5
 5736 014e 49       		.uleb128 0x49
 5737 014f 13       		.uleb128 0x13
 5738 0150 00       		.byte	0
 5739 0151 00       		.byte	0
 5740 0152 1C       		.uleb128 0x1c
 5741 0153 2E       		.uleb128 0x2e
 5742 0154 01       		.byte	0x1
 5743 0155 03       		.uleb128 0x3
 5744 0156 0E       		.uleb128 0xe
 5745 0157 3A       		.uleb128 0x3a
 5746 0158 0B       		.uleb128 0xb
 5747 0159 3B       		.uleb128 0x3b
 5748 015a 05       		.uleb128 0x5
 5749 015b 27       		.uleb128 0x27
 5750 015c 19       		.uleb128 0x19
 5751 015d 49       		.uleb128 0x49
 5752 015e 13       		.uleb128 0x13
 5753 015f 20       		.uleb128 0x20
 5754 0160 0B       		.uleb128 0xb
 5755 0161 01       		.uleb128 0x1
 5756 0162 13       		.uleb128 0x13
 5757 0163 00       		.byte	0
 5758 0164 00       		.byte	0
 5759 0165 1D       		.uleb128 0x1d
 5760 0166 05       		.uleb128 0x5
 5761 0167 00       		.byte	0
 5762 0168 03       		.uleb128 0x3
 5763 0169 08       		.uleb128 0x8
 5764 016a 3A       		.uleb128 0x3a
 5765 016b 0B       		.uleb128 0xb
 5766 016c 3B       		.uleb128 0x3b
 5767 016d 05       		.uleb128 0x5
 5768 016e 49       		.uleb128 0x49
 5769 016f 13       		.uleb128 0x13
 5770 0170 00       		.byte	0
 5771 0171 00       		.byte	0
 5772 0172 1E       		.uleb128 0x1e
 5773 0173 2E       		.uleb128 0x2e
 5774 0174 00       		.byte	0
 5775 0175 03       		.uleb128 0x3
 5776 0176 0E       		.uleb128 0xe
 5777 0177 3A       		.uleb128 0x3a
ARM GAS  /var/folders/f9/8bk2lnw15zn4cbgn6wrnb4lm0000gn/T//ccCGlkPS.s 			page 132


 5778 0178 0B       		.uleb128 0xb
 5779 0179 3B       		.uleb128 0x3b
 5780 017a 05       		.uleb128 0x5
 5781 017b 27       		.uleb128 0x27
 5782 017c 19       		.uleb128 0x19
 5783 017d 49       		.uleb128 0x49
 5784 017e 13       		.uleb128 0x13
 5785 017f 20       		.uleb128 0x20
 5786 0180 0B       		.uleb128 0xb
 5787 0181 00       		.byte	0
 5788 0182 00       		.byte	0
 5789 0183 1F       		.uleb128 0x1f
 5790 0184 34       		.uleb128 0x34
 5791 0185 00       		.byte	0
 5792 0186 03       		.uleb128 0x3
 5793 0187 0E       		.uleb128 0xe
 5794 0188 3A       		.uleb128 0x3a
 5795 0189 0B       		.uleb128 0xb
 5796 018a 3B       		.uleb128 0x3b
 5797 018b 0B       		.uleb128 0xb
 5798 018c 49       		.uleb128 0x49
 5799 018d 13       		.uleb128 0x13
 5800 018e 00       		.byte	0
 5801 018f 00       		.byte	0
 5802 0190 20       		.uleb128 0x20
 5803 0191 2E       		.uleb128 0x2e
 5804 0192 01       		.byte	0x1
 5805 0193 03       		.uleb128 0x3
 5806 0194 0E       		.uleb128 0xe
 5807 0195 3A       		.uleb128 0x3a
 5808 0196 0B       		.uleb128 0xb
 5809 0197 3B       		.uleb128 0x3b
 5810 0198 0B       		.uleb128 0xb
 5811 0199 27       		.uleb128 0x27
 5812 019a 19       		.uleb128 0x19
 5813 019b 49       		.uleb128 0x49
 5814 019c 13       		.uleb128 0x13
 5815 019d 20       		.uleb128 0x20
 5816 019e 0B       		.uleb128 0xb
 5817 019f 01       		.uleb128 0x1
 5818 01a0 13       		.uleb128 0x13
 5819 01a1 00       		.byte	0
 5820 01a2 00       		.byte	0
 5821 01a3 21       		.uleb128 0x21
 5822 01a4 2E       		.uleb128 0x2e
 5823 01a5 01       		.byte	0x1
 5824 01a6 3F       		.uleb128 0x3f
 5825 01a7 19       		.uleb128 0x19
 5826 01a8 03       		.uleb128 0x3
 5827 01a9 0E       		.uleb128 0xe
 5828 01aa 3A       		.uleb128 0x3a
 5829 01ab 0B       		.uleb128 0xb
 5830 01ac 3B       		.uleb128 0x3b
 5831 01ad 0B       		.uleb128 0xb
 5832 01ae 27       		.uleb128 0x27
 5833 01af 19       		.uleb128 0x19
 5834 01b0 20       		.uleb128 0x20
ARM GAS  /var/folders/f9/8bk2lnw15zn4cbgn6wrnb4lm0000gn/T//ccCGlkPS.s 			page 133


 5835 01b1 0B       		.uleb128 0xb
 5836 01b2 01       		.uleb128 0x1
 5837 01b3 13       		.uleb128 0x13
 5838 01b4 00       		.byte	0
 5839 01b5 00       		.byte	0
 5840 01b6 22       		.uleb128 0x22
 5841 01b7 05       		.uleb128 0x5
 5842 01b8 00       		.byte	0
 5843 01b9 03       		.uleb128 0x3
 5844 01ba 08       		.uleb128 0x8
 5845 01bb 3A       		.uleb128 0x3a
 5846 01bc 0B       		.uleb128 0xb
 5847 01bd 3B       		.uleb128 0x3b
 5848 01be 0B       		.uleb128 0xb
 5849 01bf 49       		.uleb128 0x49
 5850 01c0 13       		.uleb128 0x13
 5851 01c1 00       		.byte	0
 5852 01c2 00       		.byte	0
 5853 01c3 23       		.uleb128 0x23
 5854 01c4 2E       		.uleb128 0x2e
 5855 01c5 01       		.byte	0x1
 5856 01c6 03       		.uleb128 0x3
 5857 01c7 0E       		.uleb128 0xe
 5858 01c8 3A       		.uleb128 0x3a
 5859 01c9 0B       		.uleb128 0xb
 5860 01ca 3B       		.uleb128 0x3b
 5861 01cb 0B       		.uleb128 0xb
 5862 01cc 27       		.uleb128 0x27
 5863 01cd 19       		.uleb128 0x19
 5864 01ce 11       		.uleb128 0x11
 5865 01cf 01       		.uleb128 0x1
 5866 01d0 12       		.uleb128 0x12
 5867 01d1 06       		.uleb128 0x6
 5868 01d2 40       		.uleb128 0x40
 5869 01d3 18       		.uleb128 0x18
 5870 01d4 9742     		.uleb128 0x2117
 5871 01d6 19       		.uleb128 0x19
 5872 01d7 01       		.uleb128 0x1
 5873 01d8 13       		.uleb128 0x13
 5874 01d9 00       		.byte	0
 5875 01da 00       		.byte	0
 5876 01db 24       		.uleb128 0x24
 5877 01dc 05       		.uleb128 0x5
 5878 01dd 00       		.byte	0
 5879 01de 03       		.uleb128 0x3
 5880 01df 0E       		.uleb128 0xe
 5881 01e0 3A       		.uleb128 0x3a
 5882 01e1 0B       		.uleb128 0xb
 5883 01e2 3B       		.uleb128 0x3b
 5884 01e3 0B       		.uleb128 0xb
 5885 01e4 49       		.uleb128 0x49
 5886 01e5 13       		.uleb128 0x13
 5887 01e6 02       		.uleb128 0x2
 5888 01e7 18       		.uleb128 0x18
 5889 01e8 00       		.byte	0
 5890 01e9 00       		.byte	0
 5891 01ea 25       		.uleb128 0x25
ARM GAS  /var/folders/f9/8bk2lnw15zn4cbgn6wrnb4lm0000gn/T//ccCGlkPS.s 			page 134


 5892 01eb 1D       		.uleb128 0x1d
 5893 01ec 01       		.byte	0x1
 5894 01ed 31       		.uleb128 0x31
 5895 01ee 13       		.uleb128 0x13
 5896 01ef 52       		.uleb128 0x52
 5897 01f0 01       		.uleb128 0x1
 5898 01f1 55       		.uleb128 0x55
 5899 01f2 17       		.uleb128 0x17
 5900 01f3 58       		.uleb128 0x58
 5901 01f4 0B       		.uleb128 0xb
 5902 01f5 59       		.uleb128 0x59
 5903 01f6 0B       		.uleb128 0xb
 5904 01f7 01       		.uleb128 0x1
 5905 01f8 13       		.uleb128 0x13
 5906 01f9 00       		.byte	0
 5907 01fa 00       		.byte	0
 5908 01fb 26       		.uleb128 0x26
 5909 01fc 05       		.uleb128 0x5
 5910 01fd 00       		.byte	0
 5911 01fe 31       		.uleb128 0x31
 5912 01ff 13       		.uleb128 0x13
 5913 0200 1C       		.uleb128 0x1c
 5914 0201 0B       		.uleb128 0xb
 5915 0202 00       		.byte	0
 5916 0203 00       		.byte	0
 5917 0204 27       		.uleb128 0x27
 5918 0205 05       		.uleb128 0x5
 5919 0206 00       		.byte	0
 5920 0207 31       		.uleb128 0x31
 5921 0208 13       		.uleb128 0x13
 5922 0209 02       		.uleb128 0x2
 5923 020a 18       		.uleb128 0x18
 5924 020b 00       		.byte	0
 5925 020c 00       		.byte	0
 5926 020d 28       		.uleb128 0x28
 5927 020e 1D       		.uleb128 0x1d
 5928 020f 01       		.byte	0x1
 5929 0210 31       		.uleb128 0x31
 5930 0211 13       		.uleb128 0x13
 5931 0212 11       		.uleb128 0x11
 5932 0213 01       		.uleb128 0x1
 5933 0214 12       		.uleb128 0x12
 5934 0215 06       		.uleb128 0x6
 5935 0216 58       		.uleb128 0x58
 5936 0217 0B       		.uleb128 0xb
 5937 0218 59       		.uleb128 0x59
 5938 0219 0B       		.uleb128 0xb
 5939 021a 00       		.byte	0
 5940 021b 00       		.byte	0
 5941 021c 29       		.uleb128 0x29
 5942 021d 05       		.uleb128 0x5
 5943 021e 00       		.byte	0
 5944 021f 31       		.uleb128 0x31
 5945 0220 13       		.uleb128 0x13
 5946 0221 02       		.uleb128 0x2
 5947 0222 17       		.uleb128 0x17
 5948 0223 00       		.byte	0
ARM GAS  /var/folders/f9/8bk2lnw15zn4cbgn6wrnb4lm0000gn/T//ccCGlkPS.s 			page 135


 5949 0224 00       		.byte	0
 5950 0225 2A       		.uleb128 0x2a
 5951 0226 2E       		.uleb128 0x2e
 5952 0227 01       		.byte	0x1
 5953 0228 31       		.uleb128 0x31
 5954 0229 13       		.uleb128 0x13
 5955 022a 11       		.uleb128 0x11
 5956 022b 01       		.uleb128 0x1
 5957 022c 12       		.uleb128 0x12
 5958 022d 06       		.uleb128 0x6
 5959 022e 40       		.uleb128 0x40
 5960 022f 18       		.uleb128 0x18
 5961 0230 9742     		.uleb128 0x2117
 5962 0232 19       		.uleb128 0x19
 5963 0233 01       		.uleb128 0x1
 5964 0234 13       		.uleb128 0x13
 5965 0235 00       		.byte	0
 5966 0236 00       		.byte	0
 5967 0237 2B       		.uleb128 0x2b
 5968 0238 34       		.uleb128 0x34
 5969 0239 00       		.byte	0
 5970 023a 31       		.uleb128 0x31
 5971 023b 13       		.uleb128 0x13
 5972 023c 02       		.uleb128 0x2
 5973 023d 17       		.uleb128 0x17
 5974 023e 00       		.byte	0
 5975 023f 00       		.byte	0
 5976 0240 2C       		.uleb128 0x2c
 5977 0241 2E       		.uleb128 0x2e
 5978 0242 01       		.byte	0x1
 5979 0243 3F       		.uleb128 0x3f
 5980 0244 19       		.uleb128 0x19
 5981 0245 03       		.uleb128 0x3
 5982 0246 0E       		.uleb128 0xe
 5983 0247 3A       		.uleb128 0x3a
 5984 0248 0B       		.uleb128 0xb
 5985 0249 3B       		.uleb128 0x3b
 5986 024a 0B       		.uleb128 0xb
 5987 024b 27       		.uleb128 0x27
 5988 024c 19       		.uleb128 0x19
 5989 024d 49       		.uleb128 0x49
 5990 024e 13       		.uleb128 0x13
 5991 024f 11       		.uleb128 0x11
 5992 0250 01       		.uleb128 0x1
 5993 0251 12       		.uleb128 0x12
 5994 0252 06       		.uleb128 0x6
 5995 0253 40       		.uleb128 0x40
 5996 0254 18       		.uleb128 0x18
 5997 0255 9742     		.uleb128 0x2117
 5998 0257 19       		.uleb128 0x19
 5999 0258 01       		.uleb128 0x1
 6000 0259 13       		.uleb128 0x13
 6001 025a 00       		.byte	0
 6002 025b 00       		.byte	0
 6003 025c 2D       		.uleb128 0x2d
 6004 025d 05       		.uleb128 0x5
 6005 025e 00       		.byte	0
ARM GAS  /var/folders/f9/8bk2lnw15zn4cbgn6wrnb4lm0000gn/T//ccCGlkPS.s 			page 136


 6006 025f 03       		.uleb128 0x3
 6007 0260 0E       		.uleb128 0xe
 6008 0261 3A       		.uleb128 0x3a
 6009 0262 0B       		.uleb128 0xb
 6010 0263 3B       		.uleb128 0x3b
 6011 0264 0B       		.uleb128 0xb
 6012 0265 49       		.uleb128 0x49
 6013 0266 13       		.uleb128 0x13
 6014 0267 02       		.uleb128 0x2
 6015 0268 17       		.uleb128 0x17
 6016 0269 00       		.byte	0
 6017 026a 00       		.byte	0
 6018 026b 2E       		.uleb128 0x2e
 6019 026c 1D       		.uleb128 0x1d
 6020 026d 01       		.byte	0x1
 6021 026e 31       		.uleb128 0x31
 6022 026f 13       		.uleb128 0x13
 6023 0270 11       		.uleb128 0x11
 6024 0271 01       		.uleb128 0x1
 6025 0272 12       		.uleb128 0x12
 6026 0273 06       		.uleb128 0x6
 6027 0274 58       		.uleb128 0x58
 6028 0275 0B       		.uleb128 0xb
 6029 0276 59       		.uleb128 0x59
 6030 0277 0B       		.uleb128 0xb
 6031 0278 01       		.uleb128 0x1
 6032 0279 13       		.uleb128 0x13
 6033 027a 00       		.byte	0
 6034 027b 00       		.byte	0
 6035 027c 2F       		.uleb128 0x2f
 6036 027d 05       		.uleb128 0x5
 6037 027e 00       		.byte	0
 6038 027f 31       		.uleb128 0x31
 6039 0280 13       		.uleb128 0x13
 6040 0281 1C       		.uleb128 0x1c
 6041 0282 0D       		.uleb128 0xd
 6042 0283 00       		.byte	0
 6043 0284 00       		.byte	0
 6044 0285 30       		.uleb128 0x30
 6045 0286 05       		.uleb128 0x5
 6046 0287 00       		.byte	0
 6047 0288 31       		.uleb128 0x31
 6048 0289 13       		.uleb128 0x13
 6049 028a 00       		.byte	0
 6050 028b 00       		.byte	0
 6051 028c 31       		.uleb128 0x31
 6052 028d 0B       		.uleb128 0xb
 6053 028e 01       		.byte	0x1
 6054 028f 11       		.uleb128 0x11
 6055 0290 01       		.uleb128 0x1
 6056 0291 12       		.uleb128 0x12
 6057 0292 06       		.uleb128 0x6
 6058 0293 00       		.byte	0
 6059 0294 00       		.byte	0
 6060 0295 32       		.uleb128 0x32
 6061 0296 34       		.uleb128 0x34
 6062 0297 00       		.byte	0
ARM GAS  /var/folders/f9/8bk2lnw15zn4cbgn6wrnb4lm0000gn/T//ccCGlkPS.s 			page 137


 6063 0298 31       		.uleb128 0x31
 6064 0299 13       		.uleb128 0x13
 6065 029a 00       		.byte	0
 6066 029b 00       		.byte	0
 6067 029c 33       		.uleb128 0x33
 6068 029d 898201   		.uleb128 0x4109
 6069 02a0 01       		.byte	0x1
 6070 02a1 11       		.uleb128 0x11
 6071 02a2 01       		.uleb128 0x1
 6072 02a3 31       		.uleb128 0x31
 6073 02a4 13       		.uleb128 0x13
 6074 02a5 00       		.byte	0
 6075 02a6 00       		.byte	0
 6076 02a7 34       		.uleb128 0x34
 6077 02a8 8A8201   		.uleb128 0x410a
 6078 02ab 00       		.byte	0
 6079 02ac 02       		.uleb128 0x2
 6080 02ad 18       		.uleb128 0x18
 6081 02ae 9142     		.uleb128 0x2111
 6082 02b0 18       		.uleb128 0x18
 6083 02b1 00       		.byte	0
 6084 02b2 00       		.byte	0
 6085 02b3 35       		.uleb128 0x35
 6086 02b4 34       		.uleb128 0x34
 6087 02b5 00       		.byte	0
 6088 02b6 03       		.uleb128 0x3
 6089 02b7 0E       		.uleb128 0xe
 6090 02b8 3A       		.uleb128 0x3a
 6091 02b9 0B       		.uleb128 0xb
 6092 02ba 3B       		.uleb128 0x3b
 6093 02bb 0B       		.uleb128 0xb
 6094 02bc 49       		.uleb128 0x49
 6095 02bd 13       		.uleb128 0x13
 6096 02be 02       		.uleb128 0x2
 6097 02bf 17       		.uleb128 0x17
 6098 02c0 00       		.byte	0
 6099 02c1 00       		.byte	0
 6100 02c2 36       		.uleb128 0x36
 6101 02c3 0B       		.uleb128 0xb
 6102 02c4 01       		.byte	0x1
 6103 02c5 55       		.uleb128 0x55
 6104 02c6 17       		.uleb128 0x17
 6105 02c7 01       		.uleb128 0x1
 6106 02c8 13       		.uleb128 0x13
 6107 02c9 00       		.byte	0
 6108 02ca 00       		.byte	0
 6109 02cb 37       		.uleb128 0x37
 6110 02cc 34       		.uleb128 0x34
 6111 02cd 00       		.byte	0
 6112 02ce 03       		.uleb128 0x3
 6113 02cf 0E       		.uleb128 0xe
 6114 02d0 3A       		.uleb128 0x3a
 6115 02d1 0B       		.uleb128 0xb
 6116 02d2 3B       		.uleb128 0x3b
 6117 02d3 05       		.uleb128 0x5
 6118 02d4 49       		.uleb128 0x49
 6119 02d5 13       		.uleb128 0x13
ARM GAS  /var/folders/f9/8bk2lnw15zn4cbgn6wrnb4lm0000gn/T//ccCGlkPS.s 			page 138


 6120 02d6 02       		.uleb128 0x2
 6121 02d7 17       		.uleb128 0x17
 6122 02d8 00       		.byte	0
 6123 02d9 00       		.byte	0
 6124 02da 38       		.uleb128 0x38
 6125 02db 1D       		.uleb128 0x1d
 6126 02dc 01       		.byte	0x1
 6127 02dd 31       		.uleb128 0x31
 6128 02de 13       		.uleb128 0x13
 6129 02df 52       		.uleb128 0x52
 6130 02e0 01       		.uleb128 0x1
 6131 02e1 55       		.uleb128 0x55
 6132 02e2 17       		.uleb128 0x17
 6133 02e3 58       		.uleb128 0x58
 6134 02e4 0B       		.uleb128 0xb
 6135 02e5 59       		.uleb128 0x59
 6136 02e6 05       		.uleb128 0x5
 6137 02e7 01       		.uleb128 0x1
 6138 02e8 13       		.uleb128 0x13
 6139 02e9 00       		.byte	0
 6140 02ea 00       		.byte	0
 6141 02eb 39       		.uleb128 0x39
 6142 02ec 1D       		.uleb128 0x1d
 6143 02ed 01       		.byte	0x1
 6144 02ee 31       		.uleb128 0x31
 6145 02ef 13       		.uleb128 0x13
 6146 02f0 11       		.uleb128 0x11
 6147 02f1 01       		.uleb128 0x1
 6148 02f2 12       		.uleb128 0x12
 6149 02f3 06       		.uleb128 0x6
 6150 02f4 58       		.uleb128 0x58
 6151 02f5 0B       		.uleb128 0xb
 6152 02f6 59       		.uleb128 0x59
 6153 02f7 05       		.uleb128 0x5
 6154 02f8 01       		.uleb128 0x1
 6155 02f9 13       		.uleb128 0x13
 6156 02fa 00       		.byte	0
 6157 02fb 00       		.byte	0
 6158 02fc 3A       		.uleb128 0x3a
 6159 02fd 1D       		.uleb128 0x1d
 6160 02fe 01       		.byte	0x1
 6161 02ff 31       		.uleb128 0x31
 6162 0300 13       		.uleb128 0x13
 6163 0301 52       		.uleb128 0x52
 6164 0302 01       		.uleb128 0x1
 6165 0303 55       		.uleb128 0x55
 6166 0304 17       		.uleb128 0x17
 6167 0305 58       		.uleb128 0x58
 6168 0306 0B       		.uleb128 0xb
 6169 0307 59       		.uleb128 0x59
 6170 0308 05       		.uleb128 0x5
 6171 0309 00       		.byte	0
 6172 030a 00       		.byte	0
 6173 030b 3B       		.uleb128 0x3b
 6174 030c 0B       		.uleb128 0xb
 6175 030d 01       		.byte	0x1
 6176 030e 55       		.uleb128 0x55
ARM GAS  /var/folders/f9/8bk2lnw15zn4cbgn6wrnb4lm0000gn/T//ccCGlkPS.s 			page 139


 6177 030f 17       		.uleb128 0x17
 6178 0310 00       		.byte	0
 6179 0311 00       		.byte	0
 6180 0312 3C       		.uleb128 0x3c
 6181 0313 1D       		.uleb128 0x1d
 6182 0314 01       		.byte	0x1
 6183 0315 31       		.uleb128 0x31
 6184 0316 13       		.uleb128 0x13
 6185 0317 52       		.uleb128 0x52
 6186 0318 01       		.uleb128 0x1
 6187 0319 55       		.uleb128 0x55
 6188 031a 17       		.uleb128 0x17
 6189 031b 58       		.uleb128 0x58
 6190 031c 0B       		.uleb128 0xb
 6191 031d 59       		.uleb128 0x59
 6192 031e 0B       		.uleb128 0xb
 6193 031f 00       		.byte	0
 6194 0320 00       		.byte	0
 6195 0321 3D       		.uleb128 0x3d
 6196 0322 2E       		.uleb128 0x2e
 6197 0323 01       		.byte	0x1
 6198 0324 3F       		.uleb128 0x3f
 6199 0325 19       		.uleb128 0x19
 6200 0326 03       		.uleb128 0x3
 6201 0327 0E       		.uleb128 0xe
 6202 0328 3A       		.uleb128 0x3a
 6203 0329 0B       		.uleb128 0xb
 6204 032a 3B       		.uleb128 0x3b
 6205 032b 05       		.uleb128 0x5
 6206 032c 27       		.uleb128 0x27
 6207 032d 19       		.uleb128 0x19
 6208 032e 49       		.uleb128 0x49
 6209 032f 13       		.uleb128 0x13
 6210 0330 11       		.uleb128 0x11
 6211 0331 01       		.uleb128 0x1
 6212 0332 12       		.uleb128 0x12
 6213 0333 06       		.uleb128 0x6
 6214 0334 40       		.uleb128 0x40
 6215 0335 18       		.uleb128 0x18
 6216 0336 9742     		.uleb128 0x2117
 6217 0338 19       		.uleb128 0x19
 6218 0339 01       		.uleb128 0x1
 6219 033a 13       		.uleb128 0x13
 6220 033b 00       		.byte	0
 6221 033c 00       		.byte	0
 6222 033d 3E       		.uleb128 0x3e
 6223 033e 05       		.uleb128 0x5
 6224 033f 00       		.byte	0
 6225 0340 03       		.uleb128 0x3
 6226 0341 0E       		.uleb128 0xe
 6227 0342 3A       		.uleb128 0x3a
 6228 0343 0B       		.uleb128 0xb
 6229 0344 3B       		.uleb128 0x3b
 6230 0345 05       		.uleb128 0x5
 6231 0346 49       		.uleb128 0x49
 6232 0347 13       		.uleb128 0x13
 6233 0348 02       		.uleb128 0x2
ARM GAS  /var/folders/f9/8bk2lnw15zn4cbgn6wrnb4lm0000gn/T//ccCGlkPS.s 			page 140


 6234 0349 17       		.uleb128 0x17
 6235 034a 00       		.byte	0
 6236 034b 00       		.byte	0
 6237 034c 3F       		.uleb128 0x3f
 6238 034d 05       		.uleb128 0x5
 6239 034e 00       		.byte	0
 6240 034f 03       		.uleb128 0x3
 6241 0350 0E       		.uleb128 0xe
 6242 0351 3A       		.uleb128 0x3a
 6243 0352 0B       		.uleb128 0xb
 6244 0353 3B       		.uleb128 0x3b
 6245 0354 05       		.uleb128 0x5
 6246 0355 49       		.uleb128 0x49
 6247 0356 13       		.uleb128 0x13
 6248 0357 02       		.uleb128 0x2
 6249 0358 18       		.uleb128 0x18
 6250 0359 00       		.byte	0
 6251 035a 00       		.byte	0
 6252 035b 40       		.uleb128 0x40
 6253 035c 1D       		.uleb128 0x1d
 6254 035d 01       		.byte	0x1
 6255 035e 31       		.uleb128 0x31
 6256 035f 13       		.uleb128 0x13
 6257 0360 11       		.uleb128 0x11
 6258 0361 01       		.uleb128 0x1
 6259 0362 12       		.uleb128 0x12
 6260 0363 06       		.uleb128 0x6
 6261 0364 58       		.uleb128 0x58
 6262 0365 0B       		.uleb128 0xb
 6263 0366 59       		.uleb128 0x59
 6264 0367 05       		.uleb128 0x5
 6265 0368 00       		.byte	0
 6266 0369 00       		.byte	0
 6267 036a 41       		.uleb128 0x41
 6268 036b 2E       		.uleb128 0x2e
 6269 036c 01       		.byte	0x1
 6270 036d 3F       		.uleb128 0x3f
 6271 036e 19       		.uleb128 0x19
 6272 036f 03       		.uleb128 0x3
 6273 0370 0E       		.uleb128 0xe
 6274 0371 3A       		.uleb128 0x3a
 6275 0372 0B       		.uleb128 0xb
 6276 0373 3B       		.uleb128 0x3b
 6277 0374 05       		.uleb128 0x5
 6278 0375 27       		.uleb128 0x27
 6279 0376 19       		.uleb128 0x19
 6280 0377 11       		.uleb128 0x11
 6281 0378 01       		.uleb128 0x1
 6282 0379 12       		.uleb128 0x12
 6283 037a 06       		.uleb128 0x6
 6284 037b 40       		.uleb128 0x40
 6285 037c 18       		.uleb128 0x18
 6286 037d 9742     		.uleb128 0x2117
 6287 037f 19       		.uleb128 0x19
 6288 0380 01       		.uleb128 0x1
 6289 0381 13       		.uleb128 0x13
 6290 0382 00       		.byte	0
ARM GAS  /var/folders/f9/8bk2lnw15zn4cbgn6wrnb4lm0000gn/T//ccCGlkPS.s 			page 141


 6291 0383 00       		.byte	0
 6292 0384 42       		.uleb128 0x42
 6293 0385 898201   		.uleb128 0x4109
 6294 0388 01       		.byte	0x1
 6295 0389 11       		.uleb128 0x11
 6296 038a 01       		.uleb128 0x1
 6297 038b 31       		.uleb128 0x31
 6298 038c 13       		.uleb128 0x13
 6299 038d 01       		.uleb128 0x1
 6300 038e 13       		.uleb128 0x13
 6301 038f 00       		.byte	0
 6302 0390 00       		.byte	0
 6303 0391 43       		.uleb128 0x43
 6304 0392 2E       		.uleb128 0x2e
 6305 0393 01       		.byte	0x1
 6306 0394 3F       		.uleb128 0x3f
 6307 0395 19       		.uleb128 0x19
 6308 0396 03       		.uleb128 0x3
 6309 0397 0E       		.uleb128 0xe
 6310 0398 3A       		.uleb128 0x3a
 6311 0399 0B       		.uleb128 0xb
 6312 039a 3B       		.uleb128 0x3b
 6313 039b 05       		.uleb128 0x5
 6314 039c 27       		.uleb128 0x27
 6315 039d 19       		.uleb128 0x19
 6316 039e 11       		.uleb128 0x11
 6317 039f 01       		.uleb128 0x1
 6318 03a0 12       		.uleb128 0x12
 6319 03a1 06       		.uleb128 0x6
 6320 03a2 40       		.uleb128 0x40
 6321 03a3 18       		.uleb128 0x18
 6322 03a4 9642     		.uleb128 0x2116
 6323 03a6 19       		.uleb128 0x19
 6324 03a7 01       		.uleb128 0x1
 6325 03a8 13       		.uleb128 0x13
 6326 03a9 00       		.byte	0
 6327 03aa 00       		.byte	0
 6328 03ab 44       		.uleb128 0x44
 6329 03ac 34       		.uleb128 0x34
 6330 03ad 00       		.byte	0
 6331 03ae 03       		.uleb128 0x3
 6332 03af 0E       		.uleb128 0xe
 6333 03b0 3A       		.uleb128 0x3a
 6334 03b1 0B       		.uleb128 0xb
 6335 03b2 3B       		.uleb128 0x3b
 6336 03b3 05       		.uleb128 0x5
 6337 03b4 49       		.uleb128 0x49
 6338 03b5 13       		.uleb128 0x13
 6339 03b6 02       		.uleb128 0x2
 6340 03b7 18       		.uleb128 0x18
 6341 03b8 00       		.byte	0
 6342 03b9 00       		.byte	0
 6343 03ba 45       		.uleb128 0x45
 6344 03bb 1D       		.uleb128 0x1d
 6345 03bc 00       		.byte	0
 6346 03bd 31       		.uleb128 0x31
 6347 03be 13       		.uleb128 0x13
ARM GAS  /var/folders/f9/8bk2lnw15zn4cbgn6wrnb4lm0000gn/T//ccCGlkPS.s 			page 142


 6348 03bf 11       		.uleb128 0x11
 6349 03c0 01       		.uleb128 0x1
 6350 03c1 12       		.uleb128 0x12
 6351 03c2 06       		.uleb128 0x6
 6352 03c3 58       		.uleb128 0x58
 6353 03c4 0B       		.uleb128 0xb
 6354 03c5 59       		.uleb128 0x59
 6355 03c6 0B       		.uleb128 0xb
 6356 03c7 00       		.byte	0
 6357 03c8 00       		.byte	0
 6358 03c9 46       		.uleb128 0x46
 6359 03ca 898201   		.uleb128 0x4109
 6360 03cd 00       		.byte	0
 6361 03ce 11       		.uleb128 0x11
 6362 03cf 01       		.uleb128 0x1
 6363 03d0 31       		.uleb128 0x31
 6364 03d1 13       		.uleb128 0x13
 6365 03d2 00       		.byte	0
 6366 03d3 00       		.byte	0
 6367 03d4 47       		.uleb128 0x47
 6368 03d5 34       		.uleb128 0x34
 6369 03d6 00       		.byte	0
 6370 03d7 03       		.uleb128 0x3
 6371 03d8 0E       		.uleb128 0xe
 6372 03d9 3A       		.uleb128 0x3a
 6373 03da 0B       		.uleb128 0xb
 6374 03db 3B       		.uleb128 0x3b
 6375 03dc 0B       		.uleb128 0xb
 6376 03dd 49       		.uleb128 0x49
 6377 03de 13       		.uleb128 0x13
 6378 03df 3F       		.uleb128 0x3f
 6379 03e0 19       		.uleb128 0x19
 6380 03e1 3C       		.uleb128 0x3c
 6381 03e2 19       		.uleb128 0x19
 6382 03e3 00       		.byte	0
 6383 03e4 00       		.byte	0
 6384 03e5 48       		.uleb128 0x48
 6385 03e6 2E       		.uleb128 0x2e
 6386 03e7 00       		.byte	0
 6387 03e8 3F       		.uleb128 0x3f
 6388 03e9 19       		.uleb128 0x19
 6389 03ea 03       		.uleb128 0x3
 6390 03eb 0E       		.uleb128 0xe
 6391 03ec 3A       		.uleb128 0x3a
 6392 03ed 0B       		.uleb128 0xb
 6393 03ee 3B       		.uleb128 0x3b
 6394 03ef 05       		.uleb128 0x5
 6395 03f0 27       		.uleb128 0x27
 6396 03f1 19       		.uleb128 0x19
 6397 03f2 49       		.uleb128 0x49
 6398 03f3 13       		.uleb128 0x13
 6399 03f4 3C       		.uleb128 0x3c
 6400 03f5 19       		.uleb128 0x19
 6401 03f6 00       		.byte	0
 6402 03f7 00       		.byte	0
 6403 03f8 00       		.byte	0
 6404              		.section	.debug_loc,"",%progbits
ARM GAS  /var/folders/f9/8bk2lnw15zn4cbgn6wrnb4lm0000gn/T//ccCGlkPS.s 			page 143


 6405              	.Ldebug_loc0:
 6406              	.LLST0:
 6407 0000 14000000 		.4byte	.LVL1
 6408 0004 32000000 		.4byte	.LVL3
 6409 0008 0100     		.2byte	0x1
 6410 000a 50       		.byte	0x50
 6411 000b 00000000 		.4byte	0
 6412 000f 00000000 		.4byte	0
 6413              	.LLST1:
 6414 0013 00000000 		.4byte	.LVL4
 6415 0017 04000000 		.4byte	.LVL5
 6416 001b 0100     		.2byte	0x1
 6417 001d 51       		.byte	0x51
 6418 001e 04000000 		.4byte	.LVL5
 6419 0022 18000000 		.4byte	.LFE206
 6420 0026 0400     		.2byte	0x4
 6421 0028 F3       		.byte	0xf3
 6422 0029 01       		.uleb128 0x1
 6423 002a 51       		.byte	0x51
 6424 002b 9F       		.byte	0x9f
 6425 002c 00000000 		.4byte	0
 6426 0030 00000000 		.4byte	0
 6427              	.LLST2:
 6428 0034 06000000 		.4byte	.LVL6
 6429 0038 0C000000 		.4byte	.LVL7
 6430 003c 0800     		.2byte	0x8
 6431 003e 74       		.byte	0x74
 6432 003f 00       		.sleb128 0
 6433 0040 11       		.byte	0x11
 6434 0041 FF817C   		.sleb128 -65281
 6435 0044 1A       		.byte	0x1a
 6436 0045 9F       		.byte	0x9f
 6437 0046 0C000000 		.4byte	.LVL7
 6438 004a 0E000000 		.4byte	.LVL8
 6439 004e 0100     		.2byte	0x1
 6440 0050 51       		.byte	0x51
 6441 0051 0E000000 		.4byte	.LVL8
 6442 0055 12000000 		.4byte	.LVL9
 6443 0059 0800     		.2byte	0x8
 6444 005b 74       		.byte	0x74
 6445 005c 00       		.sleb128 0
 6446 005d 11       		.byte	0x11
 6447 005e FF817C   		.sleb128 -65281
 6448 0061 1A       		.byte	0x1a
 6449 0062 9F       		.byte	0x9f
 6450 0063 00000000 		.4byte	0
 6451 0067 00000000 		.4byte	0
 6452              	.LLST3:
 6453 006b 00000000 		.4byte	.LVL10
 6454 006f 2C000000 		.4byte	.LVL14
 6455 0073 0100     		.2byte	0x1
 6456 0075 50       		.byte	0x50
 6457 0076 2C000000 		.4byte	.LVL14
 6458 007a 6E000000 		.4byte	.LVL23
 6459 007e 0100     		.2byte	0x1
 6460 0080 54       		.byte	0x54
 6461 0081 6E000000 		.4byte	.LVL23
ARM GAS  /var/folders/f9/8bk2lnw15zn4cbgn6wrnb4lm0000gn/T//ccCGlkPS.s 			page 144


 6462 0085 70000000 		.4byte	.LVL25
 6463 0089 0400     		.2byte	0x4
 6464 008b F3       		.byte	0xf3
 6465 008c 01       		.uleb128 0x1
 6466 008d 50       		.byte	0x50
 6467 008e 9F       		.byte	0x9f
 6468 008f 70000000 		.4byte	.LVL25
 6469 0093 78000000 		.4byte	.LVL26
 6470 0097 0100     		.2byte	0x1
 6471 0099 50       		.byte	0x50
 6472 009a 78000000 		.4byte	.LVL26
 6473 009e F0000000 		.4byte	.LFE207
 6474 00a2 0100     		.2byte	0x1
 6475 00a4 54       		.byte	0x54
 6476 00a5 00000000 		.4byte	0
 6477 00a9 00000000 		.4byte	0
 6478              	.LLST4:
 6479 00ad 00000000 		.4byte	.LVL10
 6480 00b1 2C000000 		.4byte	.LVL14
 6481 00b5 0100     		.2byte	0x1
 6482 00b7 51       		.byte	0x51
 6483 00b8 2C000000 		.4byte	.LVL14
 6484 00bc 6E000000 		.4byte	.LVL24
 6485 00c0 0100     		.2byte	0x1
 6486 00c2 55       		.byte	0x55
 6487 00c3 6E000000 		.4byte	.LVL24
 6488 00c7 70000000 		.4byte	.LVL25
 6489 00cb 0400     		.2byte	0x4
 6490 00cd F3       		.byte	0xf3
 6491 00ce 01       		.uleb128 0x1
 6492 00cf 51       		.byte	0x51
 6493 00d0 9F       		.byte	0x9f
 6494 00d1 70000000 		.4byte	.LVL25
 6495 00d5 78000000 		.4byte	.LVL26
 6496 00d9 0100     		.2byte	0x1
 6497 00db 51       		.byte	0x51
 6498 00dc 78000000 		.4byte	.LVL26
 6499 00e0 F0000000 		.4byte	.LFE207
 6500 00e4 0100     		.2byte	0x1
 6501 00e6 55       		.byte	0x55
 6502 00e7 00000000 		.4byte	0
 6503 00eb 00000000 		.4byte	0
 6504              	.LLST6:
 6505 00ef 0E000000 		.4byte	.LVL11
 6506 00f3 18000000 		.4byte	.LVL12
 6507 00f7 0100     		.2byte	0x1
 6508 00f9 50       		.byte	0x50
 6509 00fa 00000000 		.4byte	0
 6510 00fe 00000000 		.4byte	0
 6511              	.LLST7:
 6512 0102 18000000 		.4byte	.LVL12
 6513 0106 2C000000 		.4byte	.LVL14
 6514 010a 0100     		.2byte	0x1
 6515 010c 50       		.byte	0x50
 6516 010d 2C000000 		.4byte	.LVL14
 6517 0111 6E000000 		.4byte	.LVL23
 6518 0115 0100     		.2byte	0x1
ARM GAS  /var/folders/f9/8bk2lnw15zn4cbgn6wrnb4lm0000gn/T//ccCGlkPS.s 			page 145


 6519 0117 54       		.byte	0x54
 6520 0118 6E000000 		.4byte	.LVL23
 6521 011c 70000000 		.4byte	.LVL25
 6522 0120 0400     		.2byte	0x4
 6523 0122 F3       		.byte	0xf3
 6524 0123 01       		.uleb128 0x1
 6525 0124 50       		.byte	0x50
 6526 0125 9F       		.byte	0x9f
 6527 0126 70000000 		.4byte	.LVL25
 6528 012a 78000000 		.4byte	.LVL26
 6529 012e 0100     		.2byte	0x1
 6530 0130 50       		.byte	0x50
 6531 0131 78000000 		.4byte	.LVL26
 6532 0135 F0000000 		.4byte	.LFE207
 6533 0139 0100     		.2byte	0x1
 6534 013b 54       		.byte	0x54
 6535 013c 00000000 		.4byte	0
 6536 0140 00000000 		.4byte	0
 6537              	.LLST8:
 6538 0144 1C000000 		.4byte	.LVL13
 6539 0148 2C000000 		.4byte	.LVL14
 6540 014c 0100     		.2byte	0x1
 6541 014e 50       		.byte	0x50
 6542 014f 2C000000 		.4byte	.LVL14
 6543 0153 6E000000 		.4byte	.LVL23
 6544 0157 0100     		.2byte	0x1
 6545 0159 54       		.byte	0x54
 6546 015a 6E000000 		.4byte	.LVL23
 6547 015e 70000000 		.4byte	.LVL25
 6548 0162 0400     		.2byte	0x4
 6549 0164 F3       		.byte	0xf3
 6550 0165 01       		.uleb128 0x1
 6551 0166 50       		.byte	0x50
 6552 0167 9F       		.byte	0x9f
 6553 0168 70000000 		.4byte	.LVL25
 6554 016c 78000000 		.4byte	.LVL26
 6555 0170 0100     		.2byte	0x1
 6556 0172 50       		.byte	0x50
 6557 0173 78000000 		.4byte	.LVL26
 6558 0177 F0000000 		.4byte	.LFE207
 6559 017b 0100     		.2byte	0x1
 6560 017d 54       		.byte	0x54
 6561 017e 00000000 		.4byte	0
 6562 0182 00000000 		.4byte	0
 6563              	.LLST9:
 6564 0186 2C000000 		.4byte	.LVL14
 6565 018a 3A000000 		.4byte	.LVL15
 6566 018e 0200     		.2byte	0x2
 6567 0190 32       		.byte	0x32
 6568 0191 9F       		.byte	0x9f
 6569 0192 48000000 		.4byte	.LVL16
 6570 0196 6C000000 		.4byte	.LVL22
 6571 019a 0200     		.2byte	0x2
 6572 019c 32       		.byte	0x32
 6573 019d 9F       		.byte	0x9f
 6574 019e E4000000 		.4byte	.LVL38
 6575 01a2 E8000000 		.4byte	.LVL39
ARM GAS  /var/folders/f9/8bk2lnw15zn4cbgn6wrnb4lm0000gn/T//ccCGlkPS.s 			page 146


 6576 01a6 0200     		.2byte	0x2
 6577 01a8 32       		.byte	0x32
 6578 01a9 9F       		.byte	0x9f
 6579 01aa 00000000 		.4byte	0
 6580 01ae 00000000 		.4byte	0
 6581              	.LLST10:
 6582 01b2 2C000000 		.4byte	.LVL14
 6583 01b6 3A000000 		.4byte	.LVL15
 6584 01ba 0100     		.2byte	0x1
 6585 01bc 54       		.byte	0x54
 6586 01bd 48000000 		.4byte	.LVL16
 6587 01c1 6C000000 		.4byte	.LVL22
 6588 01c5 0100     		.2byte	0x1
 6589 01c7 54       		.byte	0x54
 6590 01c8 E4000000 		.4byte	.LVL38
 6591 01cc E8000000 		.4byte	.LVL39
 6592 01d0 0100     		.2byte	0x1
 6593 01d2 54       		.byte	0x54
 6594 01d3 00000000 		.4byte	0
 6595 01d7 00000000 		.4byte	0
 6596              	.LLST11:
 6597 01db 58000000 		.4byte	.LVL17
 6598 01df 6C000000 		.4byte	.LVL22
 6599 01e3 0100     		.2byte	0x1
 6600 01e5 55       		.byte	0x55
 6601 01e6 E4000000 		.4byte	.LVL38
 6602 01ea E8000000 		.4byte	.LVL39
 6603 01ee 0100     		.2byte	0x1
 6604 01f0 55       		.byte	0x55
 6605 01f1 00000000 		.4byte	0
 6606 01f5 00000000 		.4byte	0
 6607              	.LLST13:
 6608 01f9 58000000 		.4byte	.LVL17
 6609 01fd 6C000000 		.4byte	.LVL22
 6610 0201 0100     		.2byte	0x1
 6611 0203 54       		.byte	0x54
 6612 0204 E4000000 		.4byte	.LVL38
 6613 0208 E8000000 		.4byte	.LVL39
 6614 020c 0100     		.2byte	0x1
 6615 020e 54       		.byte	0x54
 6616 020f 00000000 		.4byte	0
 6617 0213 00000000 		.4byte	0
 6618              	.LLST14:
 6619 0217 E4000000 		.4byte	.LVL38
 6620 021b E8000000 		.4byte	.LVL39
 6621 021f 0300     		.2byte	0x3
 6622 0221 08       		.byte	0x8
 6623 0222 FF       		.byte	0xff
 6624 0223 9F       		.byte	0x9f
 6625 0224 00000000 		.4byte	0
 6626 0228 00000000 		.4byte	0
 6627              	.LLST15:
 6628 022c E4000000 		.4byte	.LVL38
 6629 0230 E8000000 		.4byte	.LVL39
 6630 0234 0100     		.2byte	0x1
 6631 0236 54       		.byte	0x54
 6632 0237 00000000 		.4byte	0
ARM GAS  /var/folders/f9/8bk2lnw15zn4cbgn6wrnb4lm0000gn/T//ccCGlkPS.s 			page 147


 6633 023b 00000000 		.4byte	0
 6634              	.LLST16:
 6635 023f 5C000000 		.4byte	.LVL18
 6636 0243 5E000000 		.4byte	.LVL19
 6637 0247 0B00     		.2byte	0xb
 6638 0249 73       		.byte	0x73
 6639 024a 00       		.sleb128 0
 6640 024b 72       		.byte	0x72
 6641 024c 00       		.sleb128 0
 6642 024d 22       		.byte	0x22
 6643 024e 94       		.byte	0x94
 6644 024f 01       		.byte	0x1
 6645 0250 08       		.byte	0x8
 6646 0251 FF       		.byte	0xff
 6647 0252 1A       		.byte	0x1a
 6648 0253 9F       		.byte	0x9f
 6649 0254 5E000000 		.4byte	.LVL19
 6650 0258 60000000 		.4byte	.LVL20
 6651 025c 0C00     		.2byte	0xc
 6652 025e 75       		.byte	0x75
 6653 025f 00       		.sleb128 0
 6654 0260 06       		.byte	0x6
 6655 0261 72       		.byte	0x72
 6656 0262 00       		.sleb128 0
 6657 0263 22       		.byte	0x22
 6658 0264 94       		.byte	0x94
 6659 0265 01       		.byte	0x1
 6660 0266 08       		.byte	0x8
 6661 0267 FF       		.byte	0xff
 6662 0268 1A       		.byte	0x1a
 6663 0269 9F       		.byte	0x9f
 6664 026a 00000000 		.4byte	0
 6665 026e 00000000 		.4byte	0
 6666              	.LLST17:
 6667 0272 5C000000 		.4byte	.LVL18
 6668 0276 60000000 		.4byte	.LVL20
 6669 027a 0100     		.2byte	0x1
 6670 027c 54       		.byte	0x54
 6671 027d 00000000 		.4byte	0
 6672 0281 00000000 		.4byte	0
 6673              	.LLST18:
 6674 0285 2C000000 		.4byte	.LVL14
 6675 0289 3A000000 		.4byte	.LVL15
 6676 028d 0200     		.2byte	0x2
 6677 028f 31       		.byte	0x31
 6678 0290 9F       		.byte	0x9f
 6679 0291 66000000 		.4byte	.LVL21
 6680 0295 6C000000 		.4byte	.LVL22
 6681 0299 0200     		.2byte	0x2
 6682 029b 31       		.byte	0x31
 6683 029c 9F       		.byte	0x9f
 6684 029d 00000000 		.4byte	0
 6685 02a1 00000000 		.4byte	0
 6686              	.LLST19:
 6687 02a5 2C000000 		.4byte	.LVL14
 6688 02a9 3A000000 		.4byte	.LVL15
 6689 02ad 0100     		.2byte	0x1
ARM GAS  /var/folders/f9/8bk2lnw15zn4cbgn6wrnb4lm0000gn/T//ccCGlkPS.s 			page 148


 6690 02af 54       		.byte	0x54
 6691 02b0 66000000 		.4byte	.LVL21
 6692 02b4 6C000000 		.4byte	.LVL22
 6693 02b8 0100     		.2byte	0x1
 6694 02ba 54       		.byte	0x54
 6695 02bb 00000000 		.4byte	0
 6696 02bf 00000000 		.4byte	0
 6697              	.LLST20:
 6698 02c3 C4000000 		.4byte	.LVL33
 6699 02c7 D4000000 		.4byte	.LVL37
 6700 02cb 0100     		.2byte	0x1
 6701 02cd 55       		.byte	0x55
 6702 02ce E8000000 		.4byte	.LVL39
 6703 02d2 F0000000 		.4byte	.LFE207
 6704 02d6 0100     		.2byte	0x1
 6705 02d8 55       		.byte	0x55
 6706 02d9 00000000 		.4byte	0
 6707 02dd 00000000 		.4byte	0
 6708              	.LLST22:
 6709 02e1 C4000000 		.4byte	.LVL33
 6710 02e5 D4000000 		.4byte	.LVL37
 6711 02e9 0100     		.2byte	0x1
 6712 02eb 54       		.byte	0x54
 6713 02ec E8000000 		.4byte	.LVL39
 6714 02f0 F0000000 		.4byte	.LFE207
 6715 02f4 0100     		.2byte	0x1
 6716 02f6 54       		.byte	0x54
 6717 02f7 00000000 		.4byte	0
 6718 02fb 00000000 		.4byte	0
 6719              	.LLST23:
 6720 02ff C8000000 		.4byte	.LVL34
 6721 0303 CA000000 		.4byte	.LVL35
 6722 0307 0500     		.2byte	0x5
 6723 0309 70       		.byte	0x70
 6724 030a 00       		.sleb128 0
 6725 030b 72       		.byte	0x72
 6726 030c 00       		.sleb128 0
 6727 030d 22       		.byte	0x22
 6728 030e CA000000 		.4byte	.LVL35
 6729 0312 CC000000 		.4byte	.LVL36
 6730 0316 0600     		.2byte	0x6
 6731 0318 70       		.byte	0x70
 6732 0319 00       		.sleb128 0
 6733 031a 75       		.byte	0x75
 6734 031b 04       		.sleb128 4
 6735 031c 06       		.byte	0x6
 6736 031d 22       		.byte	0x22
 6737 031e 00000000 		.4byte	0
 6738 0322 00000000 		.4byte	0
 6739              	.LLST24:
 6740 0326 C8000000 		.4byte	.LVL34
 6741 032a CC000000 		.4byte	.LVL36
 6742 032e 0100     		.2byte	0x1
 6743 0330 54       		.byte	0x54
 6744 0331 00000000 		.4byte	0
 6745 0335 00000000 		.4byte	0
 6746              	.LLST25:
ARM GAS  /var/folders/f9/8bk2lnw15zn4cbgn6wrnb4lm0000gn/T//ccCGlkPS.s 			page 149


 6747 0339 82000000 		.4byte	.LVL27
 6748 033d D4000000 		.4byte	.LVL37
 6749 0341 0200     		.2byte	0x2
 6750 0343 32       		.byte	0x32
 6751 0344 9F       		.byte	0x9f
 6752 0345 E8000000 		.4byte	.LVL39
 6753 0349 F0000000 		.4byte	.LFE207
 6754 034d 0200     		.2byte	0x2
 6755 034f 32       		.byte	0x32
 6756 0350 9F       		.byte	0x9f
 6757 0351 00000000 		.4byte	0
 6758 0355 00000000 		.4byte	0
 6759              	.LLST26:
 6760 0359 82000000 		.4byte	.LVL27
 6761 035d D4000000 		.4byte	.LVL37
 6762 0361 0100     		.2byte	0x1
 6763 0363 54       		.byte	0x54
 6764 0364 E8000000 		.4byte	.LVL39
 6765 0368 F0000000 		.4byte	.LFE207
 6766 036c 0100     		.2byte	0x1
 6767 036e 54       		.byte	0x54
 6768 036f 00000000 		.4byte	0
 6769 0373 00000000 		.4byte	0
 6770              	.LLST27:
 6771 0377 8A000000 		.4byte	.LVL28
 6772 037b BC000000 		.4byte	.LVL32
 6773 037f 0200     		.2byte	0x2
 6774 0381 31       		.byte	0x31
 6775 0382 9F       		.byte	0x9f
 6776 0383 00000000 		.4byte	0
 6777 0387 00000000 		.4byte	0
 6778              	.LLST28:
 6779 038b 8A000000 		.4byte	.LVL28
 6780 038f BC000000 		.4byte	.LVL32
 6781 0393 0100     		.2byte	0x1
 6782 0395 54       		.byte	0x54
 6783 0396 00000000 		.4byte	0
 6784 039a 00000000 		.4byte	0
 6785              	.LLST29:
 6786 039e 90000000 		.4byte	.LVL29
 6787 03a2 BC000000 		.4byte	.LVL32
 6788 03a6 0200     		.2byte	0x2
 6789 03a8 34       		.byte	0x34
 6790 03a9 9F       		.byte	0x9f
 6791 03aa 00000000 		.4byte	0
 6792 03ae 00000000 		.4byte	0
 6793              	.LLST30:
 6794 03b2 90000000 		.4byte	.LVL29
 6795 03b6 BC000000 		.4byte	.LVL32
 6796 03ba 0100     		.2byte	0x1
 6797 03bc 54       		.byte	0x54
 6798 03bd 00000000 		.4byte	0
 6799 03c1 00000000 		.4byte	0
 6800              	.LLST31:
 6801 03c5 A0000000 		.4byte	.LVL30
 6802 03c9 BC000000 		.4byte	.LVL32
 6803 03cd 0100     		.2byte	0x1
ARM GAS  /var/folders/f9/8bk2lnw15zn4cbgn6wrnb4lm0000gn/T//ccCGlkPS.s 			page 150


 6804 03cf 54       		.byte	0x54
 6805 03d0 00000000 		.4byte	0
 6806 03d4 00000000 		.4byte	0
 6807              	.LLST32:
 6808 03d8 00000000 		.4byte	.LVL40
 6809 03dc 70000000 		.4byte	.LVL59
 6810 03e0 0100     		.2byte	0x1
 6811 03e2 50       		.byte	0x50
 6812 03e3 70000000 		.4byte	.LVL59
 6813 03e7 72000000 		.4byte	.LVL61
 6814 03eb 0400     		.2byte	0x4
 6815 03ed F3       		.byte	0xf3
 6816 03ee 01       		.uleb128 0x1
 6817 03ef 50       		.byte	0x50
 6818 03f0 9F       		.byte	0x9f
 6819 03f1 72000000 		.4byte	.LVL61
 6820 03f5 B0000000 		.4byte	.LVL74
 6821 03f9 0100     		.2byte	0x1
 6822 03fb 50       		.byte	0x50
 6823 03fc B0000000 		.4byte	.LVL74
 6824 0400 B2000000 		.4byte	.LFE208
 6825 0404 0400     		.2byte	0x4
 6826 0406 F3       		.byte	0xf3
 6827 0407 01       		.uleb128 0x1
 6828 0408 50       		.byte	0x50
 6829 0409 9F       		.byte	0x9f
 6830 040a 00000000 		.4byte	0
 6831 040e 00000000 		.4byte	0
 6832              	.LLST33:
 6833 0412 00000000 		.4byte	.LVL40
 6834 0416 28000000 		.4byte	.LVL44
 6835 041a 0100     		.2byte	0x1
 6836 041c 51       		.byte	0x51
 6837 041d 28000000 		.4byte	.LVL44
 6838 0421 72000000 		.4byte	.LVL61
 6839 0425 0400     		.2byte	0x4
 6840 0427 F3       		.byte	0xf3
 6841 0428 01       		.uleb128 0x1
 6842 0429 51       		.byte	0x51
 6843 042a 9F       		.byte	0x9f
 6844 042b 72000000 		.4byte	.LVL61
 6845 042f 7C000000 		.4byte	.LVL63
 6846 0433 0100     		.2byte	0x1
 6847 0435 51       		.byte	0x51
 6848 0436 7C000000 		.4byte	.LVL63
 6849 043a B2000000 		.4byte	.LFE208
 6850 043e 0400     		.2byte	0x4
 6851 0440 F3       		.byte	0xf3
 6852 0441 01       		.uleb128 0x1
 6853 0442 51       		.byte	0x51
 6854 0443 9F       		.byte	0x9f
 6855 0444 00000000 		.4byte	0
 6856 0448 00000000 		.4byte	0
 6857              	.LLST34:
 6858 044c 00000000 		.4byte	.LVL40
 6859 0450 28000000 		.4byte	.LVL44
 6860 0454 0200     		.2byte	0x2
ARM GAS  /var/folders/f9/8bk2lnw15zn4cbgn6wrnb4lm0000gn/T//ccCGlkPS.s 			page 151


 6861 0456 30       		.byte	0x30
 6862 0457 9F       		.byte	0x9f
 6863 0458 28000000 		.4byte	.LVL44
 6864 045c 64000000 		.4byte	.LVL54
 6865 0460 0100     		.2byte	0x1
 6866 0462 56       		.byte	0x56
 6867 0463 64000000 		.4byte	.LVL54
 6868 0467 6A000000 		.4byte	.LVL57
 6869 046b 0300     		.2byte	0x3
 6870 046d 76       		.byte	0x76
 6871 046e 7F       		.sleb128 -1
 6872 046f 9F       		.byte	0x9f
 6873 0470 6A000000 		.4byte	.LVL57
 6874 0474 70000000 		.4byte	.LVL60
 6875 0478 0100     		.2byte	0x1
 6876 047a 56       		.byte	0x56
 6877 047b 72000000 		.4byte	.LVL61
 6878 047f 78000000 		.4byte	.LVL62
 6879 0483 0200     		.2byte	0x2
 6880 0485 30       		.byte	0x30
 6881 0486 9F       		.byte	0x9f
 6882 0487 78000000 		.4byte	.LVL62
 6883 048b 7C000000 		.4byte	.LVL63
 6884 048f 0100     		.2byte	0x1
 6885 0491 53       		.byte	0x53
 6886 0492 7C000000 		.4byte	.LVL63
 6887 0496 A8000000 		.4byte	.LVL70
 6888 049a 0100     		.2byte	0x1
 6889 049c 56       		.byte	0x56
 6890 049d A8000000 		.4byte	.LVL70
 6891 04a1 AC000000 		.4byte	.LVL72
 6892 04a5 0300     		.2byte	0x3
 6893 04a7 76       		.byte	0x76
 6894 04a8 7E       		.sleb128 -2
 6895 04a9 9F       		.byte	0x9f
 6896 04aa AC000000 		.4byte	.LVL72
 6897 04ae B2000000 		.4byte	.LFE208
 6898 04b2 0100     		.2byte	0x1
 6899 04b4 56       		.byte	0x56
 6900 04b5 00000000 		.4byte	0
 6901 04b9 00000000 		.4byte	0
 6902              	.LLST35:
 6903 04bd 00000000 		.4byte	.LVL40
 6904 04c1 28000000 		.4byte	.LVL44
 6905 04c5 0200     		.2byte	0x2
 6906 04c7 30       		.byte	0x30
 6907 04c8 9F       		.byte	0x9f
 6908 04c9 28000000 		.4byte	.LVL44
 6909 04cd 72000000 		.4byte	.LVL61
 6910 04d1 0100     		.2byte	0x1
 6911 04d3 53       		.byte	0x53
 6912 04d4 72000000 		.4byte	.LVL61
 6913 04d8 78000000 		.4byte	.LVL62
 6914 04dc 0200     		.2byte	0x2
 6915 04de 30       		.byte	0x30
 6916 04df 9F       		.byte	0x9f
 6917 04e0 78000000 		.4byte	.LVL62
ARM GAS  /var/folders/f9/8bk2lnw15zn4cbgn6wrnb4lm0000gn/T//ccCGlkPS.s 			page 152


 6918 04e4 B2000000 		.4byte	.LFE208
 6919 04e8 0100     		.2byte	0x1
 6920 04ea 53       		.byte	0x53
 6921 04eb 00000000 		.4byte	0
 6922 04ef 00000000 		.4byte	0
 6923              	.LLST37:
 6924 04f3 0A000000 		.4byte	.LVL41
 6925 04f7 14000000 		.4byte	.LVL42
 6926 04fb 0100     		.2byte	0x1
 6927 04fd 50       		.byte	0x50
 6928 04fe 00000000 		.4byte	0
 6929 0502 00000000 		.4byte	0
 6930              	.LLST38:
 6931 0506 14000000 		.4byte	.LVL42
 6932 050a 70000000 		.4byte	.LVL59
 6933 050e 0100     		.2byte	0x1
 6934 0510 50       		.byte	0x50
 6935 0511 70000000 		.4byte	.LVL59
 6936 0515 72000000 		.4byte	.LVL61
 6937 0519 0400     		.2byte	0x4
 6938 051b F3       		.byte	0xf3
 6939 051c 01       		.uleb128 0x1
 6940 051d 50       		.byte	0x50
 6941 051e 9F       		.byte	0x9f
 6942 051f 72000000 		.4byte	.LVL61
 6943 0523 B0000000 		.4byte	.LVL74
 6944 0527 0100     		.2byte	0x1
 6945 0529 50       		.byte	0x50
 6946 052a B0000000 		.4byte	.LVL74
 6947 052e B2000000 		.4byte	.LFE208
 6948 0532 0400     		.2byte	0x4
 6949 0534 F3       		.byte	0xf3
 6950 0535 01       		.uleb128 0x1
 6951 0536 50       		.byte	0x50
 6952 0537 9F       		.byte	0x9f
 6953 0538 00000000 		.4byte	0
 6954 053c 00000000 		.4byte	0
 6955              	.LLST39:
 6956 0540 18000000 		.4byte	.LVL43
 6957 0544 70000000 		.4byte	.LVL59
 6958 0548 0100     		.2byte	0x1
 6959 054a 50       		.byte	0x50
 6960 054b 70000000 		.4byte	.LVL59
 6961 054f 72000000 		.4byte	.LVL61
 6962 0553 0400     		.2byte	0x4
 6963 0555 F3       		.byte	0xf3
 6964 0556 01       		.uleb128 0x1
 6965 0557 50       		.byte	0x50
 6966 0558 9F       		.byte	0x9f
 6967 0559 72000000 		.4byte	.LVL61
 6968 055d B0000000 		.4byte	.LVL74
 6969 0561 0100     		.2byte	0x1
 6970 0563 50       		.byte	0x50
 6971 0564 B0000000 		.4byte	.LVL74
 6972 0568 B2000000 		.4byte	.LFE208
 6973 056c 0400     		.2byte	0x4
 6974 056e F3       		.byte	0xf3
ARM GAS  /var/folders/f9/8bk2lnw15zn4cbgn6wrnb4lm0000gn/T//ccCGlkPS.s 			page 153


 6975 056f 01       		.uleb128 0x1
 6976 0570 50       		.byte	0x50
 6977 0571 9F       		.byte	0x9f
 6978 0572 00000000 		.4byte	0
 6979 0576 00000000 		.4byte	0
 6980              	.LLST40:
 6981 057a 28000000 		.4byte	.LVL44
 6982 057e 6E000000 		.4byte	.LVL58
 6983 0582 0100     		.2byte	0x1
 6984 0584 51       		.byte	0x51
 6985 0585 00000000 		.4byte	0
 6986 0589 00000000 		.4byte	0
 6987              	.LLST41:
 6988 058d 2C000000 		.4byte	.LVL45
 6989 0591 58000000 		.4byte	.LVL51
 6990 0595 0200     		.2byte	0x2
 6991 0597 32       		.byte	0x32
 6992 0598 9F       		.byte	0x9f
 6993 0599 5C000000 		.4byte	.LVL52
 6994 059d 6E000000 		.4byte	.LVL58
 6995 05a1 0200     		.2byte	0x2
 6996 05a3 32       		.byte	0x32
 6997 05a4 9F       		.byte	0x9f
 6998 05a5 00000000 		.4byte	0
 6999 05a9 00000000 		.4byte	0
 7000              	.LLST42:
 7001 05ad 2C000000 		.4byte	.LVL45
 7002 05b1 58000000 		.4byte	.LVL51
 7003 05b5 0100     		.2byte	0x1
 7004 05b7 50       		.byte	0x50
 7005 05b8 5C000000 		.4byte	.LVL52
 7006 05bc 6E000000 		.4byte	.LVL58
 7007 05c0 0100     		.2byte	0x1
 7008 05c2 50       		.byte	0x50
 7009 05c3 00000000 		.4byte	0
 7010 05c7 00000000 		.4byte	0
 7011              	.LLST43:
 7012 05cb 34000000 		.4byte	.LVL46
 7013 05cf 58000000 		.4byte	.LVL51
 7014 05d3 0200     		.2byte	0x2
 7015 05d5 31       		.byte	0x31
 7016 05d6 9F       		.byte	0x9f
 7017 05d7 6A000000 		.4byte	.LVL57
 7018 05db 6E000000 		.4byte	.LVL58
 7019 05df 0200     		.2byte	0x2
 7020 05e1 31       		.byte	0x31
 7021 05e2 9F       		.byte	0x9f
 7022 05e3 00000000 		.4byte	0
 7023 05e7 00000000 		.4byte	0
 7024              	.LLST44:
 7025 05eb 34000000 		.4byte	.LVL46
 7026 05ef 58000000 		.4byte	.LVL51
 7027 05f3 0100     		.2byte	0x1
 7028 05f5 50       		.byte	0x50
 7029 05f6 6A000000 		.4byte	.LVL57
 7030 05fa 6E000000 		.4byte	.LVL58
 7031 05fe 0100     		.2byte	0x1
ARM GAS  /var/folders/f9/8bk2lnw15zn4cbgn6wrnb4lm0000gn/T//ccCGlkPS.s 			page 154


 7032 0600 50       		.byte	0x50
 7033 0601 00000000 		.4byte	0
 7034 0605 00000000 		.4byte	0
 7035              	.LLST45:
 7036 0609 3A000000 		.4byte	.LVL47
 7037 060d 58000000 		.4byte	.LVL51
 7038 0611 0200     		.2byte	0x2
 7039 0613 34       		.byte	0x34
 7040 0614 9F       		.byte	0x9f
 7041 0615 00000000 		.4byte	0
 7042 0619 00000000 		.4byte	0
 7043              	.LLST46:
 7044 061d 3A000000 		.4byte	.LVL47
 7045 0621 58000000 		.4byte	.LVL51
 7046 0625 0100     		.2byte	0x1
 7047 0627 50       		.byte	0x50
 7048 0628 00000000 		.4byte	0
 7049 062c 00000000 		.4byte	0
 7050              	.LLST47:
 7051 0630 44000000 		.4byte	.LVL48
 7052 0634 50000000 		.4byte	.LVL50
 7053 0638 0100     		.2byte	0x1
 7054 063a 50       		.byte	0x50
 7055 063b 00000000 		.4byte	0
 7056 063f 00000000 		.4byte	0
 7057              	.LLST48:
 7058 0643 60000000 		.4byte	.LVL53
 7059 0647 66000000 		.4byte	.LVL55
 7060 064b 0800     		.2byte	0x8
 7061 064d 71       		.byte	0x71
 7062 064e 00       		.sleb128 0
 7063 064f 94       		.byte	0x94
 7064 0650 01       		.byte	0x1
 7065 0651 08       		.byte	0x8
 7066 0652 FF       		.byte	0xff
 7067 0653 1A       		.byte	0x1a
 7068 0654 9F       		.byte	0x9f
 7069 0655 66000000 		.4byte	.LVL55
 7070 0659 68000000 		.4byte	.LVL56
 7071 065d 0600     		.2byte	0x6
 7072 065f 74       		.byte	0x74
 7073 0660 00       		.sleb128 0
 7074 0661 08       		.byte	0x8
 7075 0662 FF       		.byte	0xff
 7076 0663 1A       		.byte	0x1a
 7077 0664 9F       		.byte	0x9f
 7078 0665 68000000 		.4byte	.LVL56
 7079 0669 6E000000 		.4byte	.LVL58
 7080 066d 0700     		.2byte	0x7
 7081 066f 70       		.byte	0x70
 7082 0670 08       		.sleb128 8
 7083 0671 06       		.byte	0x6
 7084 0672 08       		.byte	0x8
 7085 0673 FF       		.byte	0xff
 7086 0674 1A       		.byte	0x1a
 7087 0675 9F       		.byte	0x9f
 7088 0676 00000000 		.4byte	0
ARM GAS  /var/folders/f9/8bk2lnw15zn4cbgn6wrnb4lm0000gn/T//ccCGlkPS.s 			page 155


 7089 067a 00000000 		.4byte	0
 7090              	.LLST49:
 7091 067e 60000000 		.4byte	.LVL53
 7092 0682 6E000000 		.4byte	.LVL58
 7093 0686 0100     		.2byte	0x1
 7094 0688 50       		.byte	0x50
 7095 0689 00000000 		.4byte	0
 7096 068d 00000000 		.4byte	0
 7097              	.LLST50:
 7098 0691 78000000 		.4byte	.LVL62
 7099 0695 AE000000 		.4byte	.LVL73
 7100 0699 0100     		.2byte	0x1
 7101 069b 51       		.byte	0x51
 7102 069c 00000000 		.4byte	0
 7103 06a0 00000000 		.4byte	0
 7104              	.LLST51:
 7105 06a4 7C000000 		.4byte	.LVL63
 7106 06a8 9C000000 		.4byte	.LVL67
 7107 06ac 0200     		.2byte	0x2
 7108 06ae 32       		.byte	0x32
 7109 06af 9F       		.byte	0x9f
 7110 06b0 A0000000 		.4byte	.LVL68
 7111 06b4 AE000000 		.4byte	.LVL73
 7112 06b8 0200     		.2byte	0x2
 7113 06ba 32       		.byte	0x32
 7114 06bb 9F       		.byte	0x9f
 7115 06bc 00000000 		.4byte	0
 7116 06c0 00000000 		.4byte	0
 7117              	.LLST52:
 7118 06c4 7C000000 		.4byte	.LVL63
 7119 06c8 9C000000 		.4byte	.LVL67
 7120 06cc 0100     		.2byte	0x1
 7121 06ce 50       		.byte	0x50
 7122 06cf A0000000 		.4byte	.LVL68
 7123 06d3 AE000000 		.4byte	.LVL73
 7124 06d7 0100     		.2byte	0x1
 7125 06d9 50       		.byte	0x50
 7126 06da 00000000 		.4byte	0
 7127 06de 00000000 		.4byte	0
 7128              	.LLST53:
 7129 06e2 84000000 		.4byte	.LVL64
 7130 06e6 9C000000 		.4byte	.LVL67
 7131 06ea 0200     		.2byte	0x2
 7132 06ec 31       		.byte	0x31
 7133 06ed 9F       		.byte	0x9f
 7134 06ee 00000000 		.4byte	0
 7135 06f2 00000000 		.4byte	0
 7136              	.LLST54:
 7137 06f6 84000000 		.4byte	.LVL64
 7138 06fa 9C000000 		.4byte	.LVL67
 7139 06fe 0100     		.2byte	0x1
 7140 0700 50       		.byte	0x50
 7141 0701 00000000 		.4byte	0
 7142 0705 00000000 		.4byte	0
 7143              	.LLST55:
 7144 0709 8C000000 		.4byte	.LVL65
 7145 070d 90000000 		.4byte	.LVL66
ARM GAS  /var/folders/f9/8bk2lnw15zn4cbgn6wrnb4lm0000gn/T//ccCGlkPS.s 			page 156


 7146 0711 0100     		.2byte	0x1
 7147 0713 50       		.byte	0x50
 7148 0714 00000000 		.4byte	0
 7149 0718 00000000 		.4byte	0
 7150              	.LLST56:
 7151 071c 8C000000 		.4byte	.LVL65
 7152 0720 9C000000 		.4byte	.LVL67
 7153 0724 0200     		.2byte	0x2
 7154 0726 34       		.byte	0x34
 7155 0727 9F       		.byte	0x9f
 7156 0728 00000000 		.4byte	0
 7157 072c 00000000 		.4byte	0
 7158              	.LLST57:
 7159 0730 8C000000 		.4byte	.LVL65
 7160 0734 9C000000 		.4byte	.LVL67
 7161 0738 0100     		.2byte	0x1
 7162 073a 50       		.byte	0x50
 7163 073b 00000000 		.4byte	0
 7164 073f 00000000 		.4byte	0
 7165              	.LLST58:
 7166 0743 A4000000 		.4byte	.LVL69
 7167 0747 AA000000 		.4byte	.LVL71
 7168 074b 0200     		.2byte	0x2
 7169 074d 71       		.byte	0x71
 7170 074e 00       		.sleb128 0
 7171 074f AA000000 		.4byte	.LVL71
 7172 0753 AE000000 		.4byte	.LVL73
 7173 0757 0100     		.2byte	0x1
 7174 0759 54       		.byte	0x54
 7175 075a 00000000 		.4byte	0
 7176 075e 00000000 		.4byte	0
 7177              	.LLST59:
 7178 0762 A4000000 		.4byte	.LVL69
 7179 0766 AE000000 		.4byte	.LVL73
 7180 076a 0100     		.2byte	0x1
 7181 076c 50       		.byte	0x50
 7182 076d 00000000 		.4byte	0
 7183 0771 00000000 		.4byte	0
 7184              	.LLST60:
 7185 0775 00000000 		.4byte	.LVL75
 7186 0779 72000000 		.4byte	.LVL92
 7187 077d 0100     		.2byte	0x1
 7188 077f 50       		.byte	0x50
 7189 0780 72000000 		.4byte	.LVL92
 7190 0784 74000000 		.4byte	.LVL94
 7191 0788 0400     		.2byte	0x4
 7192 078a F3       		.byte	0xf3
 7193 078b 01       		.uleb128 0x1
 7194 078c 50       		.byte	0x50
 7195 078d 9F       		.byte	0x9f
 7196 078e 74000000 		.4byte	.LVL94
 7197 0792 BE000000 		.4byte	.LVL108
 7198 0796 0100     		.2byte	0x1
 7199 0798 50       		.byte	0x50
 7200 0799 BE000000 		.4byte	.LVL108
 7201 079d C4000000 		.4byte	.LFE209
 7202 07a1 0400     		.2byte	0x4
ARM GAS  /var/folders/f9/8bk2lnw15zn4cbgn6wrnb4lm0000gn/T//ccCGlkPS.s 			page 157


 7203 07a3 F3       		.byte	0xf3
 7204 07a4 01       		.uleb128 0x1
 7205 07a5 50       		.byte	0x50
 7206 07a6 9F       		.byte	0x9f
 7207 07a7 00000000 		.4byte	0
 7208 07ab 00000000 		.4byte	0
 7209              	.LLST61:
 7210 07af 00000000 		.4byte	.LVL75
 7211 07b3 2A000000 		.4byte	.LVL79
 7212 07b7 0100     		.2byte	0x1
 7213 07b9 51       		.byte	0x51
 7214 07ba 2A000000 		.4byte	.LVL79
 7215 07be 74000000 		.4byte	.LVL94
 7216 07c2 0400     		.2byte	0x4
 7217 07c4 F3       		.byte	0xf3
 7218 07c5 01       		.uleb128 0x1
 7219 07c6 51       		.byte	0x51
 7220 07c7 9F       		.byte	0x9f
 7221 07c8 74000000 		.4byte	.LVL94
 7222 07cc 7A000000 		.4byte	.LVL95
 7223 07d0 0100     		.2byte	0x1
 7224 07d2 51       		.byte	0x51
 7225 07d3 7A000000 		.4byte	.LVL95
 7226 07d7 C4000000 		.4byte	.LFE209
 7227 07db 0400     		.2byte	0x4
 7228 07dd F3       		.byte	0xf3
 7229 07de 01       		.uleb128 0x1
 7230 07df 51       		.byte	0x51
 7231 07e0 9F       		.byte	0x9f
 7232 07e1 00000000 		.4byte	0
 7233 07e5 00000000 		.4byte	0
 7234              	.LLST62:
 7235 07e9 00000000 		.4byte	.LVL75
 7236 07ed 2A000000 		.4byte	.LVL79
 7237 07f1 0200     		.2byte	0x2
 7238 07f3 30       		.byte	0x30
 7239 07f4 9F       		.byte	0x9f
 7240 07f5 2A000000 		.4byte	.LVL79
 7241 07f9 4A000000 		.4byte	.LVL84
 7242 07fd 0100     		.2byte	0x1
 7243 07ff 53       		.byte	0x53
 7244 0800 4A000000 		.4byte	.LVL84
 7245 0804 50000000 		.4byte	.LVL85
 7246 0808 0300     		.2byte	0x3
 7247 080a 73       		.byte	0x73
 7248 080b 7F       		.sleb128 -1
 7249 080c 9F       		.byte	0x9f
 7250 080d 50000000 		.4byte	.LVL85
 7251 0811 74000000 		.4byte	.LVL94
 7252 0815 0100     		.2byte	0x1
 7253 0817 53       		.byte	0x53
 7254 0818 74000000 		.4byte	.LVL94
 7255 081c 7A000000 		.4byte	.LVL95
 7256 0820 0200     		.2byte	0x2
 7257 0822 30       		.byte	0x30
 7258 0823 9F       		.byte	0x9f
 7259 0824 7A000000 		.4byte	.LVL95
ARM GAS  /var/folders/f9/8bk2lnw15zn4cbgn6wrnb4lm0000gn/T//ccCGlkPS.s 			page 158


 7260 0828 9A000000 		.4byte	.LVL100
 7261 082c 0100     		.2byte	0x1
 7262 082e 53       		.byte	0x53
 7263 082f 9A000000 		.4byte	.LVL100
 7264 0833 A0000000 		.4byte	.LVL101
 7265 0837 0300     		.2byte	0x3
 7266 0839 73       		.byte	0x73
 7267 083a 7E       		.sleb128 -2
 7268 083b 9F       		.byte	0x9f
 7269 083c A0000000 		.4byte	.LVL101
 7270 0840 C4000000 		.4byte	.LFE209
 7271 0844 0100     		.2byte	0x1
 7272 0846 53       		.byte	0x53
 7273 0847 00000000 		.4byte	0
 7274 084b 00000000 		.4byte	0
 7275              	.LLST63:
 7276 084f 00000000 		.4byte	.LVL75
 7277 0853 2A000000 		.4byte	.LVL79
 7278 0857 0200     		.2byte	0x2
 7279 0859 30       		.byte	0x30
 7280 085a 9F       		.byte	0x9f
 7281 085b 2A000000 		.4byte	.LVL79
 7282 085f 72000000 		.4byte	.LVL93
 7283 0863 0100     		.2byte	0x1
 7284 0865 56       		.byte	0x56
 7285 0866 74000000 		.4byte	.LVL94
 7286 086a 7A000000 		.4byte	.LVL95
 7287 086e 0200     		.2byte	0x2
 7288 0870 30       		.byte	0x30
 7289 0871 9F       		.byte	0x9f
 7290 0872 7A000000 		.4byte	.LVL95
 7291 0876 C4000000 		.4byte	.LFE209
 7292 087a 0100     		.2byte	0x1
 7293 087c 56       		.byte	0x56
 7294 087d 00000000 		.4byte	0
 7295 0881 00000000 		.4byte	0
 7296              	.LLST65:
 7297 0885 0A000000 		.4byte	.LVL76
 7298 0889 14000000 		.4byte	.LVL77
 7299 088d 0100     		.2byte	0x1
 7300 088f 50       		.byte	0x50
 7301 0890 00000000 		.4byte	0
 7302 0894 00000000 		.4byte	0
 7303              	.LLST66:
 7304 0898 14000000 		.4byte	.LVL77
 7305 089c 72000000 		.4byte	.LVL92
 7306 08a0 0100     		.2byte	0x1
 7307 08a2 50       		.byte	0x50
 7308 08a3 72000000 		.4byte	.LVL92
 7309 08a7 74000000 		.4byte	.LVL94
 7310 08ab 0400     		.2byte	0x4
 7311 08ad F3       		.byte	0xf3
 7312 08ae 01       		.uleb128 0x1
 7313 08af 50       		.byte	0x50
 7314 08b0 9F       		.byte	0x9f
 7315 08b1 74000000 		.4byte	.LVL94
 7316 08b5 BE000000 		.4byte	.LVL108
ARM GAS  /var/folders/f9/8bk2lnw15zn4cbgn6wrnb4lm0000gn/T//ccCGlkPS.s 			page 159


 7317 08b9 0100     		.2byte	0x1
 7318 08bb 50       		.byte	0x50
 7319 08bc BE000000 		.4byte	.LVL108
 7320 08c0 C4000000 		.4byte	.LFE209
 7321 08c4 0400     		.2byte	0x4
 7322 08c6 F3       		.byte	0xf3
 7323 08c7 01       		.uleb128 0x1
 7324 08c8 50       		.byte	0x50
 7325 08c9 9F       		.byte	0x9f
 7326 08ca 00000000 		.4byte	0
 7327 08ce 00000000 		.4byte	0
 7328              	.LLST67:
 7329 08d2 18000000 		.4byte	.LVL78
 7330 08d6 72000000 		.4byte	.LVL92
 7331 08da 0100     		.2byte	0x1
 7332 08dc 50       		.byte	0x50
 7333 08dd 72000000 		.4byte	.LVL92
 7334 08e1 74000000 		.4byte	.LVL94
 7335 08e5 0400     		.2byte	0x4
 7336 08e7 F3       		.byte	0xf3
 7337 08e8 01       		.uleb128 0x1
 7338 08e9 50       		.byte	0x50
 7339 08ea 9F       		.byte	0x9f
 7340 08eb 74000000 		.4byte	.LVL94
 7341 08ef BE000000 		.4byte	.LVL108
 7342 08f3 0100     		.2byte	0x1
 7343 08f5 50       		.byte	0x50
 7344 08f6 BE000000 		.4byte	.LVL108
 7345 08fa C4000000 		.4byte	.LFE209
 7346 08fe 0400     		.2byte	0x4
 7347 0900 F3       		.byte	0xf3
 7348 0901 01       		.uleb128 0x1
 7349 0902 50       		.byte	0x50
 7350 0903 9F       		.byte	0x9f
 7351 0904 00000000 		.4byte	0
 7352 0908 00000000 		.4byte	0
 7353              	.LLST68:
 7354 090c 2A000000 		.4byte	.LVL79
 7355 0910 70000000 		.4byte	.LVL91
 7356 0914 0100     		.2byte	0x1
 7357 0916 51       		.byte	0x51
 7358 0917 00000000 		.4byte	0
 7359 091b 00000000 		.4byte	0
 7360              	.LLST69:
 7361 091f 2E000000 		.4byte	.LVL80
 7362 0923 5E000000 		.4byte	.LVL87
 7363 0927 0200     		.2byte	0x2
 7364 0929 32       		.byte	0x32
 7365 092a 9F       		.byte	0x9f
 7366 092b 62000000 		.4byte	.LVL88
 7367 092f 70000000 		.4byte	.LVL91
 7368 0933 0200     		.2byte	0x2
 7369 0935 32       		.byte	0x32
 7370 0936 9F       		.byte	0x9f
 7371 0937 00000000 		.4byte	0
 7372 093b 00000000 		.4byte	0
 7373              	.LLST70:
ARM GAS  /var/folders/f9/8bk2lnw15zn4cbgn6wrnb4lm0000gn/T//ccCGlkPS.s 			page 160


 7374 093f 2E000000 		.4byte	.LVL80
 7375 0943 5E000000 		.4byte	.LVL87
 7376 0947 0100     		.2byte	0x1
 7377 0949 50       		.byte	0x50
 7378 094a 62000000 		.4byte	.LVL88
 7379 094e 70000000 		.4byte	.LVL91
 7380 0952 0100     		.2byte	0x1
 7381 0954 50       		.byte	0x50
 7382 0955 00000000 		.4byte	0
 7383 0959 00000000 		.4byte	0
 7384              	.LLST71:
 7385 095d 66000000 		.4byte	.LVL89
 7386 0961 70000000 		.4byte	.LVL91
 7387 0965 0300     		.2byte	0x3
 7388 0967 08       		.byte	0x8
 7389 0968 FF       		.byte	0xff
 7390 0969 9F       		.byte	0x9f
 7391 096a 00000000 		.4byte	0
 7392 096e 00000000 		.4byte	0
 7393              	.LLST72:
 7394 0972 66000000 		.4byte	.LVL89
 7395 0976 70000000 		.4byte	.LVL91
 7396 097a 0100     		.2byte	0x1
 7397 097c 50       		.byte	0x50
 7398 097d 00000000 		.4byte	0
 7399 0981 00000000 		.4byte	0
 7400              	.LLST73:
 7401 0985 36000000 		.4byte	.LVL81
 7402 0989 5E000000 		.4byte	.LVL87
 7403 098d 0200     		.2byte	0x2
 7404 098f 31       		.byte	0x31
 7405 0990 9F       		.byte	0x9f
 7406 0991 6C000000 		.4byte	.LVL90
 7407 0995 70000000 		.4byte	.LVL91
 7408 0999 0200     		.2byte	0x2
 7409 099b 31       		.byte	0x31
 7410 099c 9F       		.byte	0x9f
 7411 099d 00000000 		.4byte	0
 7412 09a1 00000000 		.4byte	0
 7413              	.LLST74:
 7414 09a5 36000000 		.4byte	.LVL81
 7415 09a9 5E000000 		.4byte	.LVL87
 7416 09ad 0100     		.2byte	0x1
 7417 09af 50       		.byte	0x50
 7418 09b0 6C000000 		.4byte	.LVL90
 7419 09b4 70000000 		.4byte	.LVL91
 7420 09b8 0100     		.2byte	0x1
 7421 09ba 50       		.byte	0x50
 7422 09bb 00000000 		.4byte	0
 7423 09bf 00000000 		.4byte	0
 7424              	.LLST75:
 7425 09c3 3C000000 		.4byte	.LVL82
 7426 09c7 5E000000 		.4byte	.LVL87
 7427 09cb 0200     		.2byte	0x2
 7428 09cd 34       		.byte	0x34
 7429 09ce 9F       		.byte	0x9f
 7430 09cf 00000000 		.4byte	0
ARM GAS  /var/folders/f9/8bk2lnw15zn4cbgn6wrnb4lm0000gn/T//ccCGlkPS.s 			page 161


 7431 09d3 00000000 		.4byte	0
 7432              	.LLST76:
 7433 09d7 3C000000 		.4byte	.LVL82
 7434 09db 5E000000 		.4byte	.LVL87
 7435 09df 0100     		.2byte	0x1
 7436 09e1 50       		.byte	0x50
 7437 09e2 00000000 		.4byte	0
 7438 09e6 00000000 		.4byte	0
 7439              	.LLST77:
 7440 09ea 46000000 		.4byte	.LVL83
 7441 09ee 56000000 		.4byte	.LVL86
 7442 09f2 0100     		.2byte	0x1
 7443 09f4 50       		.byte	0x50
 7444 09f5 00000000 		.4byte	0
 7445 09f9 00000000 		.4byte	0
 7446              	.LLST78:
 7447 09fd 7A000000 		.4byte	.LVL95
 7448 0a01 BC000000 		.4byte	.LVL107
 7449 0a05 0100     		.2byte	0x1
 7450 0a07 51       		.byte	0x51
 7451 0a08 00000000 		.4byte	0
 7452 0a0c 00000000 		.4byte	0
 7453              	.LLST79:
 7454 0a10 B6000000 		.4byte	.LVL105
 7455 0a14 BC000000 		.4byte	.LVL107
 7456 0a18 0300     		.2byte	0x3
 7457 0a1a 09       		.byte	0x9
 7458 0a1b FF       		.byte	0xff
 7459 0a1c 9F       		.byte	0x9f
 7460 0a1d 00000000 		.4byte	0
 7461 0a21 00000000 		.4byte	0
 7462              	.LLST80:
 7463 0a25 B6000000 		.4byte	.LVL105
 7464 0a29 BC000000 		.4byte	.LVL107
 7465 0a2d 0100     		.2byte	0x1
 7466 0a2f 50       		.byte	0x50
 7467 0a30 00000000 		.4byte	0
 7468 0a34 00000000 		.4byte	0
 7469              	.LLST81:
 7470 0a38 7E000000 		.4byte	.LVL96
 7471 0a3c AE000000 		.4byte	.LVL103
 7472 0a40 0200     		.2byte	0x2
 7473 0a42 32       		.byte	0x32
 7474 0a43 9F       		.byte	0x9f
 7475 0a44 B2000000 		.4byte	.LVL104
 7476 0a48 BC000000 		.4byte	.LVL107
 7477 0a4c 0200     		.2byte	0x2
 7478 0a4e 32       		.byte	0x32
 7479 0a4f 9F       		.byte	0x9f
 7480 0a50 00000000 		.4byte	0
 7481 0a54 00000000 		.4byte	0
 7482              	.LLST82:
 7483 0a58 7E000000 		.4byte	.LVL96
 7484 0a5c AE000000 		.4byte	.LVL103
 7485 0a60 0100     		.2byte	0x1
 7486 0a62 50       		.byte	0x50
 7487 0a63 B2000000 		.4byte	.LVL104
ARM GAS  /var/folders/f9/8bk2lnw15zn4cbgn6wrnb4lm0000gn/T//ccCGlkPS.s 			page 162


 7488 0a67 BC000000 		.4byte	.LVL107
 7489 0a6b 0100     		.2byte	0x1
 7490 0a6d 50       		.byte	0x50
 7491 0a6e 00000000 		.4byte	0
 7492 0a72 00000000 		.4byte	0
 7493              	.LLST83:
 7494 0a76 86000000 		.4byte	.LVL97
 7495 0a7a AE000000 		.4byte	.LVL103
 7496 0a7e 0200     		.2byte	0x2
 7497 0a80 31       		.byte	0x31
 7498 0a81 9F       		.byte	0x9f
 7499 0a82 00000000 		.4byte	0
 7500 0a86 00000000 		.4byte	0
 7501              	.LLST84:
 7502 0a8a 86000000 		.4byte	.LVL97
 7503 0a8e AE000000 		.4byte	.LVL103
 7504 0a92 0100     		.2byte	0x1
 7505 0a94 50       		.byte	0x50
 7506 0a95 00000000 		.4byte	0
 7507 0a99 00000000 		.4byte	0
 7508              	.LLST85:
 7509 0a9d 8C000000 		.4byte	.LVL98
 7510 0aa1 AE000000 		.4byte	.LVL103
 7511 0aa5 0200     		.2byte	0x2
 7512 0aa7 34       		.byte	0x34
 7513 0aa8 9F       		.byte	0x9f
 7514 0aa9 00000000 		.4byte	0
 7515 0aad 00000000 		.4byte	0
 7516              	.LLST86:
 7517 0ab1 8C000000 		.4byte	.LVL98
 7518 0ab5 AE000000 		.4byte	.LVL103
 7519 0ab9 0100     		.2byte	0x1
 7520 0abb 50       		.byte	0x50
 7521 0abc 00000000 		.4byte	0
 7522 0ac0 00000000 		.4byte	0
 7523              	.LLST87:
 7524 0ac4 96000000 		.4byte	.LVL99
 7525 0ac8 A6000000 		.4byte	.LVL102
 7526 0acc 0100     		.2byte	0x1
 7527 0ace 50       		.byte	0x50
 7528 0acf 00000000 		.4byte	0
 7529 0ad3 00000000 		.4byte	0
 7530              	.LLST88:
 7531 0ad7 08000000 		.4byte	.LVL110
 7532 0adb 10000000 		.4byte	.LVL111
 7533 0adf 0200     		.2byte	0x2
 7534 0ae1 40       		.byte	0x40
 7535 0ae2 9F       		.byte	0x9f
 7536 0ae3 00000000 		.4byte	0
 7537 0ae7 00000000 		.4byte	0
 7538              	.LLST89:
 7539 0aeb 08000000 		.4byte	.LVL110
 7540 0aef 10000000 		.4byte	.LVL111
 7541 0af3 0100     		.2byte	0x1
 7542 0af5 50       		.byte	0x50
 7543 0af6 00000000 		.4byte	0
 7544 0afa 00000000 		.4byte	0
ARM GAS  /var/folders/f9/8bk2lnw15zn4cbgn6wrnb4lm0000gn/T//ccCGlkPS.s 			page 163


 7545              	.LLST90:
 7546 0afe 18000000 		.4byte	.LVL112
 7547 0b02 22000000 		.4byte	.LVL113
 7548 0b06 0100     		.2byte	0x1
 7549 0b08 50       		.byte	0x50
 7550 0b09 00000000 		.4byte	0
 7551 0b0d 00000000 		.4byte	0
 7552              	.LLST91:
 7553 0b11 00000000 		.4byte	.LVL114
 7554 0b15 16000000 		.4byte	.LVL115
 7555 0b19 0100     		.2byte	0x1
 7556 0b1b 50       		.byte	0x50
 7557 0b1c 16000000 		.4byte	.LVL115
 7558 0b20 6E000000 		.4byte	.LVL130
 7559 0b24 0100     		.2byte	0x1
 7560 0b26 55       		.byte	0x55
 7561 0b27 6E000000 		.4byte	.LVL130
 7562 0b2b 70000000 		.4byte	.LVL131
 7563 0b2f 0400     		.2byte	0x4
 7564 0b31 F3       		.byte	0xf3
 7565 0b32 01       		.uleb128 0x1
 7566 0b33 50       		.byte	0x50
 7567 0b34 9F       		.byte	0x9f
 7568 0b35 70000000 		.4byte	.LVL131
 7569 0b39 78000000 		.4byte	.LVL132
 7570 0b3d 0100     		.2byte	0x1
 7571 0b3f 50       		.byte	0x50
 7572 0b40 78000000 		.4byte	.LVL132
 7573 0b44 7C000000 		.4byte	.LFE211
 7574 0b48 0100     		.2byte	0x1
 7575 0b4a 55       		.byte	0x55
 7576 0b4b 00000000 		.4byte	0
 7577 0b4f 00000000 		.4byte	0
 7578              	.LLST92:
 7579 0b53 00000000 		.4byte	.LVL114
 7580 0b57 18000000 		.4byte	.LVL116
 7581 0b5b 0100     		.2byte	0x1
 7582 0b5d 51       		.byte	0x51
 7583 0b5e 18000000 		.4byte	.LVL116
 7584 0b62 6E000000 		.4byte	.LVL129
 7585 0b66 0100     		.2byte	0x1
 7586 0b68 54       		.byte	0x54
 7587 0b69 6E000000 		.4byte	.LVL129
 7588 0b6d 70000000 		.4byte	.LVL131
 7589 0b71 0400     		.2byte	0x4
 7590 0b73 F3       		.byte	0xf3
 7591 0b74 01       		.uleb128 0x1
 7592 0b75 51       		.byte	0x51
 7593 0b76 9F       		.byte	0x9f
 7594 0b77 70000000 		.4byte	.LVL131
 7595 0b7b 78000000 		.4byte	.LVL132
 7596 0b7f 0100     		.2byte	0x1
 7597 0b81 51       		.byte	0x51
 7598 0b82 78000000 		.4byte	.LVL132
 7599 0b86 7C000000 		.4byte	.LFE211
 7600 0b8a 0100     		.2byte	0x1
 7601 0b8c 54       		.byte	0x54
ARM GAS  /var/folders/f9/8bk2lnw15zn4cbgn6wrnb4lm0000gn/T//ccCGlkPS.s 			page 164


 7602 0b8d 00000000 		.4byte	0
 7603 0b91 00000000 		.4byte	0
 7604              	.LLST94:
 7605 0b95 1C000000 		.4byte	.LVL117
 7606 0b99 6C000000 		.4byte	.LVL128
 7607 0b9d 0200     		.2byte	0x2
 7608 0b9f 32       		.byte	0x32
 7609 0ba0 9F       		.byte	0x9f
 7610 0ba1 78000000 		.4byte	.LVL132
 7611 0ba5 7C000000 		.4byte	.LFE211
 7612 0ba9 0200     		.2byte	0x2
 7613 0bab 32       		.byte	0x32
 7614 0bac 9F       		.byte	0x9f
 7615 0bad 00000000 		.4byte	0
 7616 0bb1 00000000 		.4byte	0
 7617              	.LLST95:
 7618 0bb5 1C000000 		.4byte	.LVL117
 7619 0bb9 6C000000 		.4byte	.LVL128
 7620 0bbd 0100     		.2byte	0x1
 7621 0bbf 55       		.byte	0x55
 7622 0bc0 78000000 		.4byte	.LVL132
 7623 0bc4 7C000000 		.4byte	.LFE211
 7624 0bc8 0100     		.2byte	0x1
 7625 0bca 55       		.byte	0x55
 7626 0bcb 00000000 		.4byte	0
 7627 0bcf 00000000 		.4byte	0
 7628              	.LLST96:
 7629 0bd3 30000000 		.4byte	.LVL118
 7630 0bd7 58000000 		.4byte	.LVL124
 7631 0bdb 0100     		.2byte	0x1
 7632 0bdd 54       		.byte	0x54
 7633 0bde 5A000000 		.4byte	.LVL125
 7634 0be2 6C000000 		.4byte	.LVL128
 7635 0be6 0100     		.2byte	0x1
 7636 0be8 54       		.byte	0x54
 7637 0be9 00000000 		.4byte	0
 7638 0bed 00000000 		.4byte	0
 7639              	.LLST98:
 7640 0bf1 30000000 		.4byte	.LVL118
 7641 0bf5 58000000 		.4byte	.LVL124
 7642 0bf9 0100     		.2byte	0x1
 7643 0bfb 55       		.byte	0x55
 7644 0bfc 5A000000 		.4byte	.LVL125
 7645 0c00 6C000000 		.4byte	.LVL128
 7646 0c04 0100     		.2byte	0x1
 7647 0c06 55       		.byte	0x55
 7648 0c07 00000000 		.4byte	0
 7649 0c0b 00000000 		.4byte	0
 7650              	.LLST99:
 7651 0c0f 5E000000 		.4byte	.LVL126
 7652 0c13 6C000000 		.4byte	.LVL128
 7653 0c17 0300     		.2byte	0x3
 7654 0c19 08       		.byte	0x8
 7655 0c1a FF       		.byte	0xff
 7656 0c1b 9F       		.byte	0x9f
 7657 0c1c 00000000 		.4byte	0
 7658 0c20 00000000 		.4byte	0
ARM GAS  /var/folders/f9/8bk2lnw15zn4cbgn6wrnb4lm0000gn/T//ccCGlkPS.s 			page 165


 7659              	.LLST100:
 7660 0c24 5E000000 		.4byte	.LVL126
 7661 0c28 6C000000 		.4byte	.LVL128
 7662 0c2c 0100     		.2byte	0x1
 7663 0c2e 55       		.byte	0x55
 7664 0c2f 00000000 		.4byte	0
 7665 0c33 00000000 		.4byte	0
 7666              	.LLST101:
 7667 0c37 30000000 		.4byte	.LVL118
 7668 0c3b 32000000 		.4byte	.LVL119
 7669 0c3f 0B00     		.2byte	0xb
 7670 0c41 72       		.byte	0x72
 7671 0c42 00       		.sleb128 0
 7672 0c43 73       		.byte	0x73
 7673 0c44 00       		.sleb128 0
 7674 0c45 22       		.byte	0x22
 7675 0c46 94       		.byte	0x94
 7676 0c47 01       		.byte	0x1
 7677 0c48 08       		.byte	0x8
 7678 0c49 FF       		.byte	0xff
 7679 0c4a 1A       		.byte	0x1a
 7680 0c4b 9F       		.byte	0x9f
 7681 0c4c 32000000 		.4byte	.LVL119
 7682 0c50 36000000 		.4byte	.LVL120
 7683 0c54 0600     		.2byte	0x6
 7684 0c56 73       		.byte	0x73
 7685 0c57 00       		.sleb128 0
 7686 0c58 08       		.byte	0x8
 7687 0c59 FF       		.byte	0xff
 7688 0c5a 1A       		.byte	0x1a
 7689 0c5b 9F       		.byte	0x9f
 7690 0c5c 36000000 		.4byte	.LVL120
 7691 0c60 3A000000 		.4byte	.LVL121
 7692 0c64 0700     		.2byte	0x7
 7693 0c66 75       		.byte	0x75
 7694 0c67 08       		.sleb128 8
 7695 0c68 06       		.byte	0x6
 7696 0c69 08       		.byte	0x8
 7697 0c6a FF       		.byte	0xff
 7698 0c6b 1A       		.byte	0x1a
 7699 0c6c 9F       		.byte	0x9f
 7700 0c6d 00000000 		.4byte	0
 7701 0c71 00000000 		.4byte	0
 7702              	.LLST102:
 7703 0c75 30000000 		.4byte	.LVL118
 7704 0c79 40000000 		.4byte	.LVL122
 7705 0c7d 0100     		.2byte	0x1
 7706 0c7f 55       		.byte	0x55
 7707 0c80 00000000 		.4byte	0
 7708 0c84 00000000 		.4byte	0
 7709              	.LLST103:
 7710 0c88 3A000000 		.4byte	.LVL121
 7711 0c8c 58000000 		.4byte	.LVL124
 7712 0c90 0200     		.2byte	0x2
 7713 0c92 31       		.byte	0x31
 7714 0c93 9F       		.byte	0x9f
 7715 0c94 66000000 		.4byte	.LVL127
ARM GAS  /var/folders/f9/8bk2lnw15zn4cbgn6wrnb4lm0000gn/T//ccCGlkPS.s 			page 166


 7716 0c98 6C000000 		.4byte	.LVL128
 7717 0c9c 0200     		.2byte	0x2
 7718 0c9e 31       		.byte	0x31
 7719 0c9f 9F       		.byte	0x9f
 7720 0ca0 00000000 		.4byte	0
 7721 0ca4 00000000 		.4byte	0
 7722              	.LLST104:
 7723 0ca8 3A000000 		.4byte	.LVL121
 7724 0cac 58000000 		.4byte	.LVL124
 7725 0cb0 0100     		.2byte	0x1
 7726 0cb2 55       		.byte	0x55
 7727 0cb3 66000000 		.4byte	.LVL127
 7728 0cb7 6C000000 		.4byte	.LVL128
 7729 0cbb 0100     		.2byte	0x1
 7730 0cbd 55       		.byte	0x55
 7731 0cbe 00000000 		.4byte	0
 7732 0cc2 00000000 		.4byte	0
 7733              	.LLST105:
 7734 0cc6 00000000 		.4byte	.LVL133
 7735 0cca 9A000000 		.4byte	.LVL149
 7736 0cce 0100     		.2byte	0x1
 7737 0cd0 50       		.byte	0x50
 7738 0cd1 9A000000 		.4byte	.LVL149
 7739 0cd5 9C000000 		.4byte	.LVL150
 7740 0cd9 0400     		.2byte	0x4
 7741 0cdb F3       		.byte	0xf3
 7742 0cdc 01       		.uleb128 0x1
 7743 0cdd 50       		.byte	0x50
 7744 0cde 9F       		.byte	0x9f
 7745 0cdf 9C000000 		.4byte	.LVL150
 7746 0ce3 AC000000 		.4byte	.LVL153
 7747 0ce7 0100     		.2byte	0x1
 7748 0ce9 50       		.byte	0x50
 7749 0cea AC000000 		.4byte	.LVL153
 7750 0cee AE000000 		.4byte	.LVL154
 7751 0cf2 0400     		.2byte	0x4
 7752 0cf4 F3       		.byte	0xf3
 7753 0cf5 01       		.uleb128 0x1
 7754 0cf6 50       		.byte	0x50
 7755 0cf7 9F       		.byte	0x9f
 7756 0cf8 AE000000 		.4byte	.LVL154
 7757 0cfc B6000000 		.4byte	.LVL155
 7758 0d00 0100     		.2byte	0x1
 7759 0d02 50       		.byte	0x50
 7760 0d03 B6000000 		.4byte	.LVL155
 7761 0d07 BC000000 		.4byte	.LFE212
 7762 0d0b 0400     		.2byte	0x4
 7763 0d0d F3       		.byte	0xf3
 7764 0d0e 01       		.uleb128 0x1
 7765 0d0f 50       		.byte	0x50
 7766 0d10 9F       		.byte	0x9f
 7767 0d11 00000000 		.4byte	0
 7768 0d15 00000000 		.4byte	0
 7769              	.LLST107:
 7770 0d19 10000000 		.4byte	.LVL134
 7771 0d1d 9A000000 		.4byte	.LVL149
 7772 0d21 0200     		.2byte	0x2
ARM GAS  /var/folders/f9/8bk2lnw15zn4cbgn6wrnb4lm0000gn/T//ccCGlkPS.s 			page 167


 7773 0d23 34       		.byte	0x34
 7774 0d24 9F       		.byte	0x9f
 7775 0d25 9C000000 		.4byte	.LVL150
 7776 0d29 AA000000 		.4byte	.LVL152
 7777 0d2d 0200     		.2byte	0x2
 7778 0d2f 34       		.byte	0x34
 7779 0d30 9F       		.byte	0x9f
 7780 0d31 00000000 		.4byte	0
 7781 0d35 00000000 		.4byte	0
 7782              	.LLST108:
 7783 0d39 10000000 		.4byte	.LVL134
 7784 0d3d 9A000000 		.4byte	.LVL149
 7785 0d41 0100     		.2byte	0x1
 7786 0d43 50       		.byte	0x50
 7787 0d44 9C000000 		.4byte	.LVL150
 7788 0d48 AA000000 		.4byte	.LVL152
 7789 0d4c 0100     		.2byte	0x1
 7790 0d4e 50       		.byte	0x50
 7791 0d4f 00000000 		.4byte	0
 7792 0d53 00000000 		.4byte	0
 7793              	.LLST109:
 7794 0d57 22000000 		.4byte	.LVL135
 7795 0d5b 3C000000 		.4byte	.LVL137
 7796 0d5f 0100     		.2byte	0x1
 7797 0d61 50       		.byte	0x50
 7798 0d62 00000000 		.4byte	0
 7799 0d66 00000000 		.4byte	0
 7800              	.LLST110:
 7801 0d6a 50000000 		.4byte	.LVL139
 7802 0d6e 98000000 		.4byte	.LVL148
 7803 0d72 0100     		.2byte	0x1
 7804 0d74 51       		.byte	0x51
 7805 0d75 9C000000 		.4byte	.LVL150
 7806 0d79 AA000000 		.4byte	.LVL152
 7807 0d7d 0100     		.2byte	0x1
 7808 0d7f 51       		.byte	0x51
 7809 0d80 00000000 		.4byte	0
 7810 0d84 00000000 		.4byte	0
 7811              	.LLST112:
 7812 0d88 50000000 		.4byte	.LVL139
 7813 0d8c 98000000 		.4byte	.LVL148
 7814 0d90 0100     		.2byte	0x1
 7815 0d92 50       		.byte	0x50
 7816 0d93 9C000000 		.4byte	.LVL150
 7817 0d97 AA000000 		.4byte	.LVL152
 7818 0d9b 0100     		.2byte	0x1
 7819 0d9d 50       		.byte	0x50
 7820 0d9e 00000000 		.4byte	0
 7821 0da2 00000000 		.4byte	0
 7822              	.LLST113:
 7823 0da6 9C000000 		.4byte	.LVL150
 7824 0daa AA000000 		.4byte	.LVL152
 7825 0dae 0300     		.2byte	0x3
 7826 0db0 09       		.byte	0x9
 7827 0db1 FF       		.byte	0xff
 7828 0db2 9F       		.byte	0x9f
 7829 0db3 00000000 		.4byte	0
ARM GAS  /var/folders/f9/8bk2lnw15zn4cbgn6wrnb4lm0000gn/T//ccCGlkPS.s 			page 168


 7830 0db7 00000000 		.4byte	0
 7831              	.LLST114:
 7832 0dbb 9C000000 		.4byte	.LVL150
 7833 0dbf AA000000 		.4byte	.LVL152
 7834 0dc3 0100     		.2byte	0x1
 7835 0dc5 50       		.byte	0x50
 7836 0dc6 00000000 		.4byte	0
 7837 0dca 00000000 		.4byte	0
 7838              	.LLST115:
 7839 0dce 54000000 		.4byte	.LVL140
 7840 0dd2 56000000 		.4byte	.LVL141
 7841 0dd6 0500     		.2byte	0x5
 7842 0dd8 72       		.byte	0x72
 7843 0dd9 00       		.sleb128 0
 7844 0dda 73       		.byte	0x73
 7845 0ddb 00       		.sleb128 0
 7846 0ddc 22       		.byte	0x22
 7847 0ddd 56000000 		.4byte	.LVL141
 7848 0de1 58000000 		.4byte	.LVL142
 7849 0de5 0600     		.2byte	0x6
 7850 0de7 72       		.byte	0x72
 7851 0de8 00       		.sleb128 0
 7852 0de9 71       		.byte	0x71
 7853 0dea 04       		.sleb128 4
 7854 0deb 06       		.byte	0x6
 7855 0dec 22       		.byte	0x22
 7856 0ded 58000000 		.4byte	.LVL142
 7857 0df1 5A000000 		.4byte	.LVL143
 7858 0df5 0100     		.2byte	0x1
 7859 0df7 53       		.byte	0x53
 7860 0df8 5A000000 		.4byte	.LVL143
 7861 0dfc 5E000000 		.4byte	.LVL144
 7862 0e00 0400     		.2byte	0x4
 7863 0e02 70       		.byte	0x70
 7864 0e03 08       		.sleb128 8
 7865 0e04 06       		.byte	0x6
 7866 0e05 9F       		.byte	0x9f
 7867 0e06 00000000 		.4byte	0
 7868 0e0a 00000000 		.4byte	0
 7869              	.LLST116:
 7870 0e0e 54000000 		.4byte	.LVL140
 7871 0e12 64000000 		.4byte	.LVL145
 7872 0e16 0100     		.2byte	0x1
 7873 0e18 50       		.byte	0x50
 7874 0e19 00000000 		.4byte	0
 7875 0e1d 00000000 		.4byte	0
 7876              	.LLST117:
 7877 0e21 40000000 		.4byte	.LVL138
 7878 0e25 9A000000 		.4byte	.LVL149
 7879 0e29 0200     		.2byte	0x2
 7880 0e2b 32       		.byte	0x32
 7881 0e2c 9F       		.byte	0x9f
 7882 0e2d 9C000000 		.4byte	.LVL150
 7883 0e31 AA000000 		.4byte	.LVL152
 7884 0e35 0200     		.2byte	0x2
 7885 0e37 32       		.byte	0x32
 7886 0e38 9F       		.byte	0x9f
ARM GAS  /var/folders/f9/8bk2lnw15zn4cbgn6wrnb4lm0000gn/T//ccCGlkPS.s 			page 169


 7887 0e39 00000000 		.4byte	0
 7888 0e3d 00000000 		.4byte	0
 7889              	.LLST118:
 7890 0e41 40000000 		.4byte	.LVL138
 7891 0e45 9A000000 		.4byte	.LVL149
 7892 0e49 0100     		.2byte	0x1
 7893 0e4b 50       		.byte	0x50
 7894 0e4c 9C000000 		.4byte	.LVL150
 7895 0e50 AA000000 		.4byte	.LVL152
 7896 0e54 0100     		.2byte	0x1
 7897 0e56 50       		.byte	0x50
 7898 0e57 00000000 		.4byte	0
 7899 0e5b 00000000 		.4byte	0
 7900              	.LLST119:
 7901 0e5f 5E000000 		.4byte	.LVL144
 7902 0e63 98000000 		.4byte	.LVL148
 7903 0e67 0200     		.2byte	0x2
 7904 0e69 31       		.byte	0x31
 7905 0e6a 9F       		.byte	0x9f
 7906 0e6b A4000000 		.4byte	.LVL151
 7907 0e6f AA000000 		.4byte	.LVL152
 7908 0e73 0200     		.2byte	0x2
 7909 0e75 31       		.byte	0x31
 7910 0e76 9F       		.byte	0x9f
 7911 0e77 00000000 		.4byte	0
 7912 0e7b 00000000 		.4byte	0
 7913              	.LLST120:
 7914 0e7f 5E000000 		.4byte	.LVL144
 7915 0e83 98000000 		.4byte	.LVL148
 7916 0e87 0100     		.2byte	0x1
 7917 0e89 50       		.byte	0x50
 7918 0e8a A4000000 		.4byte	.LVL151
 7919 0e8e AA000000 		.4byte	.LVL152
 7920 0e92 0100     		.2byte	0x1
 7921 0e94 50       		.byte	0x50
 7922 0e95 00000000 		.4byte	0
 7923 0e99 00000000 		.4byte	0
 7924              	.LLST121:
 7925 0e9d 64000000 		.4byte	.LVL145
 7926 0ea1 98000000 		.4byte	.LVL148
 7927 0ea5 0200     		.2byte	0x2
 7928 0ea7 34       		.byte	0x34
 7929 0ea8 9F       		.byte	0x9f
 7930 0ea9 00000000 		.4byte	0
 7931 0ead 00000000 		.4byte	0
 7932              	.LLST122:
 7933 0eb1 64000000 		.4byte	.LVL145
 7934 0eb5 98000000 		.4byte	.LVL148
 7935 0eb9 0100     		.2byte	0x1
 7936 0ebb 50       		.byte	0x50
 7937 0ebc 00000000 		.4byte	0
 7938 0ec0 00000000 		.4byte	0
 7939              	.LLST123:
 7940 0ec4 76000000 		.4byte	.LVL146
 7941 0ec8 98000000 		.4byte	.LVL148
 7942 0ecc 0100     		.2byte	0x1
 7943 0ece 50       		.byte	0x50
ARM GAS  /var/folders/f9/8bk2lnw15zn4cbgn6wrnb4lm0000gn/T//ccCGlkPS.s 			page 170


 7944 0ecf 00000000 		.4byte	0
 7945 0ed3 00000000 		.4byte	0
 7946              	.LLST124:
 7947 0ed7 04000000 		.4byte	.LVL157
 7948 0edb 0C000000 		.4byte	.LVL158
 7949 0edf 0200     		.2byte	0x2
 7950 0ee1 34       		.byte	0x34
 7951 0ee2 9F       		.byte	0x9f
 7952 0ee3 00000000 		.4byte	0
 7953 0ee7 00000000 		.4byte	0
 7954              	.LLST125:
 7955 0eeb 04000000 		.4byte	.LVL157
 7956 0eef 0C000000 		.4byte	.LVL158
 7957 0ef3 0100     		.2byte	0x1
 7958 0ef5 50       		.byte	0x50
 7959 0ef6 00000000 		.4byte	0
 7960 0efa 00000000 		.4byte	0
 7961              	.LLST126:
 7962 0efe 00000000 		.4byte	.LVL160
 7963 0f02 0F000000 		.4byte	.LVL162-1
 7964 0f06 0100     		.2byte	0x1
 7965 0f08 50       		.byte	0x50
 7966 0f09 0F000000 		.4byte	.LVL162-1
 7967 0f0d 4E000000 		.4byte	.LVL176
 7968 0f11 0100     		.2byte	0x1
 7969 0f13 59       		.byte	0x59
 7970 0f14 4E000000 		.4byte	.LVL176
 7971 0f18 56000000 		.4byte	.LVL177
 7972 0f1c 0100     		.2byte	0x1
 7973 0f1e 53       		.byte	0x53
 7974 0f1f 56000000 		.4byte	.LVL177
 7975 0f23 84000000 		.4byte	.LFE214
 7976 0f27 0100     		.2byte	0x1
 7977 0f29 59       		.byte	0x59
 7978 0f2a 00000000 		.4byte	0
 7979 0f2e 00000000 		.4byte	0
 7980              	.LLST127:
 7981 0f32 00000000 		.4byte	.LVL160
 7982 0f36 0F000000 		.4byte	.LVL162-1
 7983 0f3a 0100     		.2byte	0x1
 7984 0f3c 51       		.byte	0x51
 7985 0f3d 0F000000 		.4byte	.LVL162-1
 7986 0f41 4E000000 		.4byte	.LVL174
 7987 0f45 0100     		.2byte	0x1
 7988 0f47 57       		.byte	0x57
 7989 0f48 4E000000 		.4byte	.LVL174
 7990 0f4c 56000000 		.4byte	.LVL177
 7991 0f50 0400     		.2byte	0x4
 7992 0f52 F3       		.byte	0xf3
 7993 0f53 01       		.uleb128 0x1
 7994 0f54 51       		.byte	0x51
 7995 0f55 9F       		.byte	0x9f
 7996 0f56 56000000 		.4byte	.LVL177
 7997 0f5a 84000000 		.4byte	.LFE214
 7998 0f5e 0100     		.2byte	0x1
 7999 0f60 57       		.byte	0x57
 8000 0f61 00000000 		.4byte	0
ARM GAS  /var/folders/f9/8bk2lnw15zn4cbgn6wrnb4lm0000gn/T//ccCGlkPS.s 			page 171


 8001 0f65 00000000 		.4byte	0
 8002              	.LLST128:
 8003 0f69 22000000 		.4byte	.LVL164
 8004 0f6d 2A000000 		.4byte	.LVL165
 8005 0f71 0200     		.2byte	0x2
 8006 0f73 30       		.byte	0x30
 8007 0f74 9F       		.byte	0x9f
 8008 0f75 2A000000 		.4byte	.LVL165
 8009 0f79 3C000000 		.4byte	.LVL168
 8010 0f7d 0100     		.2byte	0x1
 8011 0f7f 55       		.byte	0x55
 8012 0f80 3C000000 		.4byte	.LVL168
 8013 0f84 3E000000 		.4byte	.LVL169
 8014 0f88 0300     		.2byte	0x3
 8015 0f8a 74       		.byte	0x74
 8016 0f8b 7F       		.sleb128 -1
 8017 0f8c 9F       		.byte	0x9f
 8018 0f8d 56000000 		.4byte	.LVL177
 8019 0f91 5A000000 		.4byte	.LVL178
 8020 0f95 0100     		.2byte	0x1
 8021 0f97 54       		.byte	0x54
 8022 0f98 5A000000 		.4byte	.LVL178
 8023 0f9c 5E000000 		.4byte	.LVL180
 8024 0fa0 0200     		.2byte	0x2
 8025 0fa2 30       		.byte	0x30
 8026 0fa3 9F       		.byte	0x9f
 8027 0fa4 5E000000 		.4byte	.LVL180
 8028 0fa8 62000000 		.4byte	.LVL181
 8029 0fac 0100     		.2byte	0x1
 8030 0fae 54       		.byte	0x54
 8031 0faf 70000000 		.4byte	.LVL184
 8032 0fb3 84000000 		.4byte	.LFE214
 8033 0fb7 0200     		.2byte	0x2
 8034 0fb9 30       		.byte	0x30
 8035 0fba 9F       		.byte	0x9f
 8036 0fbb 00000000 		.4byte	0
 8037 0fbf 00000000 		.4byte	0
 8038              	.LLST129:
 8039 0fc3 22000000 		.4byte	.LVL164
 8040 0fc7 2C000000 		.4byte	.LVL166
 8041 0fcb 0300     		.2byte	0x3
 8042 0fcd 09       		.byte	0x9
 8043 0fce FF       		.byte	0xff
 8044 0fcf 9F       		.byte	0x9f
 8045 0fd0 2C000000 		.4byte	.LVL166
 8046 0fd4 3E000000 		.4byte	.LVL169
 8047 0fd8 0F00     		.2byte	0xf
 8048 0fda 78       		.byte	0x78
 8049 0fdb 00       		.sleb128 0
 8050 0fdc F7       		.byte	0xf7
 8051 0fdd 29       		.uleb128 0x29
 8052 0fde 74       		.byte	0x74
 8053 0fdf 00       		.sleb128 0
 8054 0fe0 76       		.byte	0x76
 8055 0fe1 00       		.sleb128 0
 8056 0fe2 1E       		.byte	0x1e
 8057 0fe3 F7       		.byte	0xf7
ARM GAS  /var/folders/f9/8bk2lnw15zn4cbgn6wrnb4lm0000gn/T//ccCGlkPS.s 			page 172


 8058 0fe4 29       		.uleb128 0x29
 8059 0fe5 1B       		.byte	0x1b
 8060 0fe6 F7       		.byte	0xf7
 8061 0fe7 00       		.uleb128 0
 8062 0fe8 9F       		.byte	0x9f
 8063 0fe9 56000000 		.4byte	.LVL177
 8064 0fed 5C000000 		.4byte	.LVL179
 8065 0ff1 0F00     		.2byte	0xf
 8066 0ff3 78       		.byte	0x78
 8067 0ff4 00       		.sleb128 0
 8068 0ff5 F7       		.byte	0xf7
 8069 0ff6 29       		.uleb128 0x29
 8070 0ff7 74       		.byte	0x74
 8071 0ff8 00       		.sleb128 0
 8072 0ff9 76       		.byte	0x76
 8073 0ffa 00       		.sleb128 0
 8074 0ffb 1E       		.byte	0x1e
 8075 0ffc F7       		.byte	0xf7
 8076 0ffd 29       		.uleb128 0x29
 8077 0ffe 1B       		.byte	0x1b
 8078 0fff F7       		.byte	0xf7
 8079 1000 00       		.uleb128 0
 8080 1001 9F       		.byte	0x9f
 8081 1002 5C000000 		.4byte	.LVL179
 8082 1006 5E000000 		.4byte	.LVL180
 8083 100a 0F00     		.2byte	0xf
 8084 100c 78       		.byte	0x78
 8085 100d 00       		.sleb128 0
 8086 100e F7       		.byte	0xf7
 8087 100f 29       		.uleb128 0x29
 8088 1010 76       		.byte	0x76
 8089 1011 7E       		.sleb128 -2
 8090 1012 74       		.byte	0x74
 8091 1013 00       		.sleb128 0
 8092 1014 1E       		.byte	0x1e
 8093 1015 F7       		.byte	0xf7
 8094 1016 29       		.uleb128 0x29
 8095 1017 1B       		.byte	0x1b
 8096 1018 F7       		.byte	0xf7
 8097 1019 00       		.uleb128 0
 8098 101a 9F       		.byte	0x9f
 8099 101b 70000000 		.4byte	.LVL184
 8100 101f 84000000 		.4byte	.LFE214
 8101 1023 0300     		.2byte	0x3
 8102 1025 09       		.byte	0x9
 8103 1026 FF       		.byte	0xff
 8104 1027 9F       		.byte	0x9f
 8105 1028 00000000 		.4byte	0
 8106 102c 00000000 		.4byte	0
 8107              	.LLST130:
 8108 1030 22000000 		.4byte	.LVL164
 8109 1034 2A000000 		.4byte	.LVL165
 8110 1038 0200     		.2byte	0x2
 8111 103a 32       		.byte	0x32
 8112 103b 9F       		.byte	0x9f
 8113 103c 2A000000 		.4byte	.LVL165
 8114 1040 3E000000 		.4byte	.LVL169
ARM GAS  /var/folders/f9/8bk2lnw15zn4cbgn6wrnb4lm0000gn/T//ccCGlkPS.s 			page 173


 8115 1044 0100     		.2byte	0x1
 8116 1046 56       		.byte	0x56
 8117 1047 56000000 		.4byte	.LVL177
 8118 104b 62000000 		.4byte	.LVL181
 8119 104f 0100     		.2byte	0x1
 8120 1051 56       		.byte	0x56
 8121 1052 70000000 		.4byte	.LVL184
 8122 1056 84000000 		.4byte	.LFE214
 8123 105a 0200     		.2byte	0x2
 8124 105c 32       		.byte	0x32
 8125 105d 9F       		.byte	0x9f
 8126 105e 00000000 		.4byte	0
 8127 1062 00000000 		.4byte	0
 8128              	.LLST131:
 8129 1066 0A000000 		.4byte	.LVL161
 8130 106a 0F000000 		.4byte	.LVL162-1
 8131 106e 0100     		.2byte	0x1
 8132 1070 50       		.byte	0x50
 8133 1071 0F000000 		.4byte	.LVL162-1
 8134 1075 4E000000 		.4byte	.LVL176
 8135 1079 0100     		.2byte	0x1
 8136 107b 59       		.byte	0x59
 8137 107c 4E000000 		.4byte	.LVL176
 8138 1080 56000000 		.4byte	.LVL177
 8139 1084 0100     		.2byte	0x1
 8140 1086 53       		.byte	0x53
 8141 1087 56000000 		.4byte	.LVL177
 8142 108b 84000000 		.4byte	.LFE214
 8143 108f 0100     		.2byte	0x1
 8144 1091 59       		.byte	0x59
 8145 1092 00000000 		.4byte	0
 8146 1096 00000000 		.4byte	0
 8147              	.LLST132:
 8148 109a 10000000 		.4byte	.LVL162
 8149 109e 1F000000 		.4byte	.LVL163-1
 8150 10a2 0100     		.2byte	0x1
 8151 10a4 50       		.byte	0x50
 8152 10a5 22000000 		.4byte	.LVL164
 8153 10a9 2A000000 		.4byte	.LVL165
 8154 10ad 0100     		.2byte	0x1
 8155 10af 50       		.byte	0x50
 8156 10b0 2A000000 		.4byte	.LVL165
 8157 10b4 4E000000 		.4byte	.LVL175
 8158 10b8 0100     		.2byte	0x1
 8159 10ba 58       		.byte	0x58
 8160 10bb 56000000 		.4byte	.LVL177
 8161 10bf 62000000 		.4byte	.LVL181
 8162 10c3 0100     		.2byte	0x1
 8163 10c5 58       		.byte	0x58
 8164 10c6 62000000 		.4byte	.LVL181
 8165 10ca 6B000000 		.4byte	.LVL182-1
 8166 10ce 0100     		.2byte	0x1
 8167 10d0 50       		.byte	0x50
 8168 10d1 6E000000 		.4byte	.LVL183
 8169 10d5 84000000 		.4byte	.LFE214
 8170 10d9 0100     		.2byte	0x1
 8171 10db 50       		.byte	0x50
ARM GAS  /var/folders/f9/8bk2lnw15zn4cbgn6wrnb4lm0000gn/T//ccCGlkPS.s 			page 174


 8172 10dc 00000000 		.4byte	0
 8173 10e0 00000000 		.4byte	0
 8174              	.LLST133:
 8175 10e4 3E000000 		.4byte	.LVL169
 8176 10e8 4E000000 		.4byte	.LVL173
 8177 10ec 0100     		.2byte	0x1
 8178 10ee 56       		.byte	0x56
 8179 10ef 4E000000 		.4byte	.LVL173
 8180 10f3 4E000000 		.4byte	.LVL176
 8181 10f7 0200     		.2byte	0x2
 8182 10f9 79       		.byte	0x79
 8183 10fa 10       		.sleb128 16
 8184 10fb 4E000000 		.4byte	.LVL176
 8185 10ff 56000000 		.4byte	.LVL177
 8186 1103 0200     		.2byte	0x2
 8187 1105 73       		.byte	0x73
 8188 1106 10       		.sleb128 16
 8189 1107 00000000 		.4byte	0
 8190 110b 00000000 		.4byte	0
 8191              	.LLST134:
 8192 110f 3E000000 		.4byte	.LVL169
 8193 1113 4E000000 		.4byte	.LVL176
 8194 1117 0100     		.2byte	0x1
 8195 1119 59       		.byte	0x59
 8196 111a 4E000000 		.4byte	.LVL176
 8197 111e 56000000 		.4byte	.LVL177
 8198 1122 0100     		.2byte	0x1
 8199 1124 53       		.byte	0x53
 8200 1125 00000000 		.4byte	0
 8201 1129 00000000 		.4byte	0
 8202              	.LLST135:
 8203 112d 42000000 		.4byte	.LVL170
 8204 1131 46000000 		.4byte	.LVL171
 8205 1135 0800     		.2byte	0x8
 8206 1137 72       		.byte	0x72
 8207 1138 00       		.sleb128 0
 8208 1139 11       		.byte	0x11
 8209 113a FF817C   		.sleb128 -65281
 8210 113d 1A       		.byte	0x1a
 8211 113e 9F       		.byte	0x9f
 8212 113f 46000000 		.4byte	.LVL171
 8213 1143 4A000000 		.4byte	.LVL172
 8214 1147 0100     		.2byte	0x1
 8215 1149 53       		.byte	0x53
 8216 114a 4A000000 		.4byte	.LVL172
 8217 114e 56000000 		.4byte	.LVL177
 8218 1152 0800     		.2byte	0x8
 8219 1154 72       		.byte	0x72
 8220 1155 00       		.sleb128 0
 8221 1156 11       		.byte	0x11
 8222 1157 FF817C   		.sleb128 -65281
 8223 115a 1A       		.byte	0x1a
 8224 115b 9F       		.byte	0x9f
 8225 115c 00000000 		.4byte	0
 8226 1160 00000000 		.4byte	0
 8227              	.LLST136:
 8228 1164 00000000 		.4byte	.LVL185
ARM GAS  /var/folders/f9/8bk2lnw15zn4cbgn6wrnb4lm0000gn/T//ccCGlkPS.s 			page 175


 8229 1168 49000000 		.4byte	.LVL192-1
 8230 116c 0100     		.2byte	0x1
 8231 116e 50       		.byte	0x50
 8232 116f 49000000 		.4byte	.LVL192-1
 8233 1173 4C000000 		.4byte	.LVL193
 8234 1177 0400     		.2byte	0x4
 8235 1179 F3       		.byte	0xf3
 8236 117a 01       		.uleb128 0x1
 8237 117b 50       		.byte	0x50
 8238 117c 9F       		.byte	0x9f
 8239 117d 4C000000 		.4byte	.LVL193
 8240 1181 74000000 		.4byte	.LFE215
 8241 1185 0100     		.2byte	0x1
 8242 1187 50       		.byte	0x50
 8243 1188 00000000 		.4byte	0
 8244 118c 00000000 		.4byte	0
 8245              	.LLST138:
 8246 1190 08000000 		.4byte	.LVL186
 8247 1194 22000000 		.4byte	.LVL189
 8248 1198 0200     		.2byte	0x2
 8249 119a 42       		.byte	0x42
 8250 119b 9F       		.byte	0x9f
 8251 119c 4C000000 		.4byte	.LVL193
 8252 11a0 74000000 		.4byte	.LFE215
 8253 11a4 0200     		.2byte	0x2
 8254 11a6 3B       		.byte	0x3b
 8255 11a7 9F       		.byte	0x9f
 8256 11a8 00000000 		.4byte	0
 8257 11ac 00000000 		.4byte	0
 8258              	.LLST140:
 8259 11b0 16000000 		.4byte	.LVL187
 8260 11b4 4C000000 		.4byte	.LVL193
 8261 11b8 0200     		.2byte	0x2
 8262 11ba 31       		.byte	0x31
 8263 11bb 9F       		.byte	0x9f
 8264 11bc 5A000000 		.4byte	.LVL194
 8265 11c0 74000000 		.4byte	.LFE215
 8266 11c4 0200     		.2byte	0x2
 8267 11c6 31       		.byte	0x31
 8268 11c7 9F       		.byte	0x9f
 8269 11c8 00000000 		.4byte	0
 8270 11cc 00000000 		.4byte	0
 8271              	.LLST141:
 8272 11d0 16000000 		.4byte	.LVL187
 8273 11d4 22000000 		.4byte	.LVL189
 8274 11d8 0100     		.2byte	0x1
 8275 11da 50       		.byte	0x50
 8276 11db 5A000000 		.4byte	.LVL194
 8277 11df 74000000 		.4byte	.LFE215
 8278 11e3 0600     		.2byte	0x6
 8279 11e5 0C       		.byte	0xc
 8280 11e6 00000440 		.4byte	0x40040000
 8281 11ea 9F       		.byte	0x9f
 8282 11eb 00000000 		.4byte	0
 8283 11ef 00000000 		.4byte	0
 8284              	.LLST142:
 8285 11f3 16000000 		.4byte	.LVL187
ARM GAS  /var/folders/f9/8bk2lnw15zn4cbgn6wrnb4lm0000gn/T//ccCGlkPS.s 			page 176


 8286 11f7 22000000 		.4byte	.LVL189
 8287 11fb 0200     		.2byte	0x2
 8288 11fd 31       		.byte	0x31
 8289 11fe 9F       		.byte	0x9f
 8290 11ff 00000000 		.4byte	0
 8291 1203 00000000 		.4byte	0
 8292              	.LLST143:
 8293 1207 30000000 		.4byte	.LVL190
 8294 120b 4C000000 		.4byte	.LVL193
 8295 120f 0200     		.2byte	0x2
 8296 1211 30       		.byte	0x30
 8297 1212 9F       		.byte	0x9f
 8298 1213 00000000 		.4byte	0
 8299 1217 00000000 		.4byte	0
 8300              	.LLST144:
 8301 121b 30000000 		.4byte	.LVL190
 8302 121f 49000000 		.4byte	.LVL192-1
 8303 1223 0100     		.2byte	0x1
 8304 1225 50       		.byte	0x50
 8305 1226 49000000 		.4byte	.LVL192-1
 8306 122a 4C000000 		.4byte	.LVL193
 8307 122e 0400     		.2byte	0x4
 8308 1230 F3       		.byte	0xf3
 8309 1231 01       		.uleb128 0x1
 8310 1232 50       		.byte	0x50
 8311 1233 9F       		.byte	0x9f
 8312 1234 00000000 		.4byte	0
 8313 1238 00000000 		.4byte	0
 8314              	.LLST145:
 8315 123c 38000000 		.4byte	.LVL191
 8316 1240 4C000000 		.4byte	.LVL193
 8317 1244 0200     		.2byte	0x2
 8318 1246 30       		.byte	0x30
 8319 1247 9F       		.byte	0x9f
 8320 1248 00000000 		.4byte	0
 8321 124c 00000000 		.4byte	0
 8322              	.LLST147:
 8323 1250 38000000 		.4byte	.LVL191
 8324 1254 4C000000 		.4byte	.LVL193
 8325 1258 0200     		.2byte	0x2
 8326 125a 37       		.byte	0x37
 8327 125b 9F       		.byte	0x9f
 8328 125c 00000000 		.4byte	0
 8329 1260 00000000 		.4byte	0
 8330              	.LLST148:
 8331 1264 38000000 		.4byte	.LVL191
 8332 1268 49000000 		.4byte	.LVL192-1
 8333 126c 0100     		.2byte	0x1
 8334 126e 50       		.byte	0x50
 8335 126f 49000000 		.4byte	.LVL192-1
 8336 1273 4C000000 		.4byte	.LVL193
 8337 1277 0400     		.2byte	0x4
 8338 1279 F3       		.byte	0xf3
 8339 127a 01       		.uleb128 0x1
 8340 127b 50       		.byte	0x50
 8341 127c 9F       		.byte	0x9f
 8342 127d 00000000 		.4byte	0
ARM GAS  /var/folders/f9/8bk2lnw15zn4cbgn6wrnb4lm0000gn/T//ccCGlkPS.s 			page 177


 8343 1281 00000000 		.4byte	0
 8344              	.LLST149:
 8345 1285 00000000 		.4byte	.LVL196
 8346 1289 14000000 		.4byte	.LVL199
 8347 128d 0100     		.2byte	0x1
 8348 128f 50       		.byte	0x50
 8349 1290 14000000 		.4byte	.LVL199
 8350 1294 22000000 		.4byte	.LVL202
 8351 1298 0400     		.2byte	0x4
 8352 129a F3       		.byte	0xf3
 8353 129b 01       		.uleb128 0x1
 8354 129c 50       		.byte	0x50
 8355 129d 9F       		.byte	0x9f
 8356 129e 22000000 		.4byte	.LVL202
 8357 12a2 28000000 		.4byte	.LVL203
 8358 12a6 0100     		.2byte	0x1
 8359 12a8 50       		.byte	0x50
 8360 12a9 28000000 		.4byte	.LVL203
 8361 12ad 48000000 		.4byte	.LFE216
 8362 12b1 0400     		.2byte	0x4
 8363 12b3 F3       		.byte	0xf3
 8364 12b4 01       		.uleb128 0x1
 8365 12b5 50       		.byte	0x50
 8366 12b6 9F       		.byte	0x9f
 8367 12b7 00000000 		.4byte	0
 8368 12bb 00000000 		.4byte	0
 8369              	.LLST151:
 8370 12bf 08000000 		.4byte	.LVL197
 8371 12c3 14000000 		.4byte	.LVL199
 8372 12c7 0100     		.2byte	0x1
 8373 12c9 50       		.byte	0x50
 8374 12ca 14000000 		.4byte	.LVL199
 8375 12ce 22000000 		.4byte	.LVL202
 8376 12d2 0400     		.2byte	0x4
 8377 12d4 F3       		.byte	0xf3
 8378 12d5 01       		.uleb128 0x1
 8379 12d6 50       		.byte	0x50
 8380 12d7 9F       		.byte	0x9f
 8381 12d8 22000000 		.4byte	.LVL202
 8382 12dc 28000000 		.4byte	.LVL203
 8383 12e0 0100     		.2byte	0x1
 8384 12e2 50       		.byte	0x50
 8385 12e3 28000000 		.4byte	.LVL203
 8386 12e7 48000000 		.4byte	.LFE216
 8387 12eb 0400     		.2byte	0x4
 8388 12ed F3       		.byte	0xf3
 8389 12ee 01       		.uleb128 0x1
 8390 12ef 50       		.byte	0x50
 8391 12f0 9F       		.byte	0x9f
 8392 12f1 00000000 		.4byte	0
 8393 12f5 00000000 		.4byte	0
 8394              	.LLST152:
 8395 12f9 0E000000 		.4byte	.LVL198
 8396 12fd 20000000 		.4byte	.LVL201
 8397 1301 0200     		.2byte	0x2
 8398 1303 42       		.byte	0x42
 8399 1304 9F       		.byte	0x9f
ARM GAS  /var/folders/f9/8bk2lnw15zn4cbgn6wrnb4lm0000gn/T//ccCGlkPS.s 			page 178


 8400 1305 22000000 		.4byte	.LVL202
 8401 1309 48000000 		.4byte	.LFE216
 8402 130d 0200     		.2byte	0x2
 8403 130f 3B       		.byte	0x3b
 8404 1310 9F       		.byte	0x9f
 8405 1311 00000000 		.4byte	0
 8406 1315 00000000 		.4byte	0
 8407              	.LLST154:
 8408 1319 1A000000 		.4byte	.LVL200
 8409 131d 22000000 		.4byte	.LVL202
 8410 1321 0200     		.2byte	0x2
 8411 1323 30       		.byte	0x30
 8412 1324 9F       		.byte	0x9f
 8413 1325 2E000000 		.4byte	.LVL204
 8414 1329 48000000 		.4byte	.LFE216
 8415 132d 0200     		.2byte	0x2
 8416 132f 30       		.byte	0x30
 8417 1330 9F       		.byte	0x9f
 8418 1331 00000000 		.4byte	0
 8419 1335 00000000 		.4byte	0
 8420              	.LLST155:
 8421 1339 1A000000 		.4byte	.LVL200
 8422 133d 20000000 		.4byte	.LVL201
 8423 1341 0400     		.2byte	0x4
 8424 1343 F3       		.byte	0xf3
 8425 1344 01       		.uleb128 0x1
 8426 1345 50       		.byte	0x50
 8427 1346 9F       		.byte	0x9f
 8428 1347 2E000000 		.4byte	.LVL204
 8429 134b 48000000 		.4byte	.LFE216
 8430 134f 0600     		.2byte	0x6
 8431 1351 0C       		.byte	0xc
 8432 1352 00000440 		.4byte	0x40040000
 8433 1356 9F       		.byte	0x9f
 8434 1357 00000000 		.4byte	0
 8435 135b 00000000 		.4byte	0
 8436              	.LLST156:
 8437 135f 1A000000 		.4byte	.LVL200
 8438 1363 20000000 		.4byte	.LVL201
 8439 1367 0200     		.2byte	0x2
 8440 1369 30       		.byte	0x30
 8441 136a 9F       		.byte	0x9f
 8442 136b 00000000 		.4byte	0
 8443 136f 00000000 		.4byte	0
 8444              		.section	.debug_aranges,"",%progbits
 8445 0000 74000000 		.4byte	0x74
 8446 0004 0200     		.2byte	0x2
 8447 0006 00000000 		.4byte	.Ldebug_info0
 8448 000a 04       		.byte	0x4
 8449 000b 00       		.byte	0
 8450 000c 0000     		.2byte	0
 8451 000e 0000     		.2byte	0
 8452 0010 00000000 		.4byte	.LFB201
 8453 0014 34000000 		.4byte	.LFE201-.LFB201
 8454 0018 00000000 		.4byte	.LFB206
 8455 001c 18000000 		.4byte	.LFE206-.LFB206
 8456 0020 00000000 		.4byte	.LFB207
ARM GAS  /var/folders/f9/8bk2lnw15zn4cbgn6wrnb4lm0000gn/T//ccCGlkPS.s 			page 179


 8457 0024 F0000000 		.4byte	.LFE207-.LFB207
 8458 0028 00000000 		.4byte	.LFB208
 8459 002c B2000000 		.4byte	.LFE208-.LFB208
 8460 0030 00000000 		.4byte	.LFB209
 8461 0034 C4000000 		.4byte	.LFE209-.LFB209
 8462 0038 00000000 		.4byte	.LFB210
 8463 003c 28000000 		.4byte	.LFE210-.LFB210
 8464 0040 00000000 		.4byte	.LFB211
 8465 0044 7C000000 		.4byte	.LFE211-.LFB211
 8466 0048 00000000 		.4byte	.LFB212
 8467 004c BC000000 		.4byte	.LFE212-.LFB212
 8468 0050 00000000 		.4byte	.LFB213
 8469 0054 18000000 		.4byte	.LFE213-.LFB213
 8470 0058 00000000 		.4byte	.LFB214
 8471 005c 84000000 		.4byte	.LFE214-.LFB214
 8472 0060 00000000 		.4byte	.LFB215
 8473 0064 74000000 		.4byte	.LFE215-.LFB215
 8474 0068 00000000 		.4byte	.LFB216
 8475 006c 48000000 		.4byte	.LFE216-.LFB216
 8476 0070 00000000 		.4byte	0
 8477 0074 00000000 		.4byte	0
 8478              		.section	.debug_ranges,"",%progbits
 8479              	.Ldebug_ranges0:
 8480 0000 00000000 		.4byte	.LBB224
 8481 0004 02000000 		.4byte	.LBE224
 8482 0008 10000000 		.4byte	.LBB229
 8483 000c 14000000 		.4byte	.LBE229
 8484 0010 26000000 		.4byte	.LBB232
 8485 0014 28000000 		.4byte	.LBE232
 8486 0018 2A000000 		.4byte	.LBB233
 8487 001c 2C000000 		.4byte	.LBE233
 8488 0020 00000000 		.4byte	0
 8489 0024 00000000 		.4byte	0
 8490 0028 02000000 		.4byte	.LBB234
 8491 002c 04000000 		.4byte	.LBE234
 8492 0030 0C000000 		.4byte	.LBB238
 8493 0034 0E000000 		.4byte	.LBE238
 8494 0038 10000000 		.4byte	.LBB241
 8495 003c 14000000 		.4byte	.LBE241
 8496 0040 00000000 		.4byte	0
 8497 0044 00000000 		.4byte	0
 8498 0048 26000000 		.4byte	.LBB246
 8499 004c 28000000 		.4byte	.LBE246
 8500 0050 48000000 		.4byte	.LBB262
 8501 0054 4C000000 		.4byte	.LBE262
 8502 0058 00000000 		.4byte	0
 8503 005c 00000000 		.4byte	0
 8504 0060 28000000 		.4byte	.LBB249
 8505 0064 2C000000 		.4byte	.LBE249
 8506 0068 58000000 		.4byte	.LBB263
 8507 006c 66000000 		.4byte	.LBE263
 8508 0070 E4000000 		.4byte	.LBB292
 8509 0074 E8000000 		.4byte	.LBE292
 8510 0078 00000000 		.4byte	0
 8511 007c 00000000 		.4byte	0
 8512 0080 28000000 		.4byte	.LBB251
 8513 0084 2C000000 		.4byte	.LBE251
ARM GAS  /var/folders/f9/8bk2lnw15zn4cbgn6wrnb4lm0000gn/T//ccCGlkPS.s 			page 180


 8514 0088 E4000000 		.4byte	.LBB256
 8515 008c E8000000 		.4byte	.LBE256
 8516 0090 00000000 		.4byte	0
 8517 0094 00000000 		.4byte	0
 8518 0098 2C000000 		.4byte	.LBB259
 8519 009c 2E000000 		.4byte	.LBE259
 8520 00a0 66000000 		.4byte	.LBB264
 8521 00a4 68000000 		.4byte	.LBE264
 8522 00a8 00000000 		.4byte	0
 8523 00ac 00000000 		.4byte	0
 8524 00b0 74000000 		.4byte	.LBB265
 8525 00b4 76000000 		.4byte	.LBE265
 8526 00b8 C4000000 		.4byte	.LBB291
 8527 00bc D4000000 		.4byte	.LBE291
 8528 00c0 E8000000 		.4byte	.LBB293
 8529 00c4 F0000000 		.4byte	.LBE293
 8530 00c8 00000000 		.4byte	0
 8531 00cc 00000000 		.4byte	0
 8532 00d0 74000000 		.4byte	.LBB267
 8533 00d4 76000000 		.4byte	.LBE267
 8534 00d8 E8000000 		.4byte	.LBB272
 8535 00dc F0000000 		.4byte	.LBE272
 8536 00e0 00000000 		.4byte	0
 8537 00e4 00000000 		.4byte	0
 8538 00e8 76000000 		.4byte	.LBB275
 8539 00ec 78000000 		.4byte	.LBE275
 8540 00f0 82000000 		.4byte	.LBB278
 8541 00f4 86000000 		.4byte	.LBE278
 8542 00f8 00000000 		.4byte	0
 8543 00fc 00000000 		.4byte	0
 8544 0100 90000000 		.4byte	.LBB283
 8545 0104 94000000 		.4byte	.LBE283
 8546 0108 AE000000 		.4byte	.LBB289
 8547 010c B0000000 		.4byte	.LBE289
 8548 0110 B2000000 		.4byte	.LBB290
 8549 0114 B4000000 		.4byte	.LBE290
 8550 0118 00000000 		.4byte	0
 8551 011c 00000000 		.4byte	0
 8552 0120 00000000 		.4byte	.LBB294
 8553 0124 02000000 		.4byte	.LBE294
 8554 0128 08000000 		.4byte	.LBB298
 8555 012c 0A000000 		.4byte	.LBE298
 8556 0130 0C000000 		.4byte	.LBB301
 8557 0134 10000000 		.4byte	.LBE301
 8558 0138 00000000 		.4byte	0
 8559 013c 00000000 		.4byte	0
 8560 0140 26000000 		.4byte	.LBB306
 8561 0144 6E000000 		.4byte	.LBE306
 8562 0148 AE000000 		.4byte	.LBB347
 8563 014c B2000000 		.4byte	.LBE347
 8564 0150 00000000 		.4byte	0
 8565 0154 00000000 		.4byte	0
 8566 0158 26000000 		.4byte	.LBB307
 8567 015c 28000000 		.4byte	.LBE307
 8568 0160 2C000000 		.4byte	.LBB311
 8569 0164 30000000 		.4byte	.LBE311
 8570 0168 5C000000 		.4byte	.LBB323
ARM GAS  /var/folders/f9/8bk2lnw15zn4cbgn6wrnb4lm0000gn/T//ccCGlkPS.s 			page 181


 8571 016c 60000000 		.4byte	.LBE323
 8572 0170 00000000 		.4byte	0
 8573 0174 00000000 		.4byte	0
 8574 0178 34000000 		.4byte	.LBB312
 8575 017c 36000000 		.4byte	.LBE312
 8576 0180 66000000 		.4byte	.LBB328
 8577 0184 68000000 		.4byte	.LBE328
 8578 0188 00000000 		.4byte	0
 8579 018c 00000000 		.4byte	0
 8580 0190 3A000000 		.4byte	.LBB315
 8581 0194 3E000000 		.4byte	.LBE315
 8582 0198 46000000 		.4byte	.LBB321
 8583 019c 48000000 		.4byte	.LBE321
 8584 01a0 4A000000 		.4byte	.LBB322
 8585 01a4 4C000000 		.4byte	.LBE322
 8586 01a8 00000000 		.4byte	0
 8587 01ac 00000000 		.4byte	0
 8588 01b0 60000000 		.4byte	.LBB324
 8589 01b4 62000000 		.4byte	.LBE324
 8590 01b8 64000000 		.4byte	.LBB327
 8591 01bc 66000000 		.4byte	.LBE327
 8592 01c0 00000000 		.4byte	0
 8593 01c4 00000000 		.4byte	0
 8594 01c8 6E000000 		.4byte	.LBB329
 8595 01cc 70000000 		.4byte	.LBE329
 8596 01d0 76000000 		.4byte	.LBB346
 8597 01d4 AE000000 		.4byte	.LBE346
 8598 01d8 00000000 		.4byte	0
 8599 01dc 00000000 		.4byte	0
 8600 01e0 76000000 		.4byte	.LBB330
 8601 01e4 78000000 		.4byte	.LBE330
 8602 01e8 7C000000 		.4byte	.LBB334
 8603 01ec 80000000 		.4byte	.LBE334
 8604 01f0 A0000000 		.4byte	.LBB341
 8605 01f4 A4000000 		.4byte	.LBE341
 8606 01f8 00000000 		.4byte	0
 8607 01fc 00000000 		.4byte	0
 8608 0200 A4000000 		.4byte	.LBB342
 8609 0204 A6000000 		.4byte	.LBE342
 8610 0208 A8000000 		.4byte	.LBB345
 8611 020c AA000000 		.4byte	.LBE345
 8612 0210 00000000 		.4byte	0
 8613 0214 00000000 		.4byte	0
 8614 0218 00000000 		.4byte	.LBB348
 8615 021c 02000000 		.4byte	.LBE348
 8616 0220 08000000 		.4byte	.LBB352
 8617 0224 0A000000 		.4byte	.LBE352
 8618 0228 0C000000 		.4byte	.LBB355
 8619 022c 10000000 		.4byte	.LBE355
 8620 0230 00000000 		.4byte	0
 8621 0234 00000000 		.4byte	0
 8622 0238 26000000 		.4byte	.LBB360
 8623 023c 70000000 		.4byte	.LBE360
 8624 0240 BC000000 		.4byte	.LBB408
 8625 0244 C4000000 		.4byte	.LBE408
 8626 0248 00000000 		.4byte	0
 8627 024c 00000000 		.4byte	0
ARM GAS  /var/folders/f9/8bk2lnw15zn4cbgn6wrnb4lm0000gn/T//ccCGlkPS.s 			page 182


 8628 0250 26000000 		.4byte	.LBB361
 8629 0254 28000000 		.4byte	.LBE361
 8630 0258 2E000000 		.4byte	.LBB368
 8631 025c 32000000 		.4byte	.LBE368
 8632 0260 62000000 		.4byte	.LBB380
 8633 0264 66000000 		.4byte	.LBE380
 8634 0268 00000000 		.4byte	0
 8635 026c 00000000 		.4byte	0
 8636 0270 28000000 		.4byte	.LBB365
 8637 0274 2A000000 		.4byte	.LBE365
 8638 0278 66000000 		.4byte	.LBB381
 8639 027c 68000000 		.4byte	.LBE381
 8640 0280 00000000 		.4byte	0
 8641 0284 00000000 		.4byte	0
 8642 0288 36000000 		.4byte	.LBB369
 8643 028c 38000000 		.4byte	.LBE369
 8644 0290 68000000 		.4byte	.LBB382
 8645 0294 6A000000 		.4byte	.LBE382
 8646 0298 00000000 		.4byte	0
 8647 029c 00000000 		.4byte	0
 8648 02a0 3C000000 		.4byte	.LBB372
 8649 02a4 40000000 		.4byte	.LBE372
 8650 02a8 4C000000 		.4byte	.LBB378
 8651 02ac 4E000000 		.4byte	.LBE378
 8652 02b0 50000000 		.4byte	.LBB379
 8653 02b4 52000000 		.4byte	.LBE379
 8654 02b8 00000000 		.4byte	0
 8655 02bc 00000000 		.4byte	0
 8656 02c0 70000000 		.4byte	.LBB383
 8657 02c4 72000000 		.4byte	.LBE383
 8658 02c8 74000000 		.4byte	.LBB406
 8659 02cc 76000000 		.4byte	.LBE406
 8660 02d0 78000000 		.4byte	.LBB407
 8661 02d4 BC000000 		.4byte	.LBE407
 8662 02d8 00000000 		.4byte	0
 8663 02dc 00000000 		.4byte	0
 8664 02e0 74000000 		.4byte	.LBB384
 8665 02e4 76000000 		.4byte	.LBE384
 8666 02e8 B6000000 		.4byte	.LBB405
 8667 02ec B8000000 		.4byte	.LBE405
 8668 02f0 00000000 		.4byte	0
 8669 02f4 00000000 		.4byte	0
 8670 02f8 78000000 		.4byte	.LBB387
 8671 02fc 7A000000 		.4byte	.LBE387
 8672 0300 7E000000 		.4byte	.LBB391
 8673 0304 82000000 		.4byte	.LBE391
 8674 0308 B2000000 		.4byte	.LBB404
 8675 030c B6000000 		.4byte	.LBE404
 8676 0310 00000000 		.4byte	0
 8677 0314 00000000 		.4byte	0
 8678 0318 8C000000 		.4byte	.LBB394
 8679 031c 90000000 		.4byte	.LBE394
 8680 0320 9C000000 		.4byte	.LBB402
 8681 0324 9E000000 		.4byte	.LBE402
 8682 0328 A0000000 		.4byte	.LBB403
 8683 032c A2000000 		.4byte	.LBE403
 8684 0330 00000000 		.4byte	0
ARM GAS  /var/folders/f9/8bk2lnw15zn4cbgn6wrnb4lm0000gn/T//ccCGlkPS.s 			page 183


 8685 0334 00000000 		.4byte	0
 8686 0338 96000000 		.4byte	.LBB398
 8687 033c 98000000 		.4byte	.LBE398
 8688 0340 9A000000 		.4byte	.LBB401
 8689 0344 9C000000 		.4byte	.LBE401
 8690 0348 00000000 		.4byte	0
 8691 034c 00000000 		.4byte	0
 8692 0350 10000000 		.4byte	.LBB413
 8693 0354 14000000 		.4byte	.LBE413
 8694 0358 1A000000 		.4byte	.LBB418
 8695 035c 1E000000 		.4byte	.LBE418
 8696 0360 00000000 		.4byte	0
 8697 0364 00000000 		.4byte	0
 8698 0368 1C000000 		.4byte	.LBB423
 8699 036c 1E000000 		.4byte	.LBE423
 8700 0370 48000000 		.4byte	.LBB442
 8701 0374 4C000000 		.4byte	.LBE442
 8702 0378 00000000 		.4byte	0
 8703 037c 00000000 		.4byte	0
 8704 0380 2A000000 		.4byte	.LBB426
 8705 0384 2C000000 		.4byte	.LBE426
 8706 0388 30000000 		.4byte	.LBB440
 8707 038c 3A000000 		.4byte	.LBE440
 8708 0390 5A000000 		.4byte	.LBB443
 8709 0394 66000000 		.4byte	.LBE443
 8710 0398 00000000 		.4byte	0
 8711 039c 00000000 		.4byte	0
 8712 03a0 2A000000 		.4byte	.LBB428
 8713 03a4 2C000000 		.4byte	.LBE428
 8714 03a8 5E000000 		.4byte	.LBB433
 8715 03ac 60000000 		.4byte	.LBE433
 8716 03b0 00000000 		.4byte	0
 8717 03b4 00000000 		.4byte	0
 8718 03b8 2C000000 		.4byte	.LBB436
 8719 03bc 30000000 		.4byte	.LBE436
 8720 03c0 3A000000 		.4byte	.LBB441
 8721 03c4 3C000000 		.4byte	.LBE441
 8722 03c8 66000000 		.4byte	.LBB444
 8723 03cc 68000000 		.4byte	.LBE444
 8724 03d0 00000000 		.4byte	0
 8725 03d4 00000000 		.4byte	0
 8726 03d8 10000000 		.4byte	.LBB449
 8727 03dc 12000000 		.4byte	.LBE449
 8728 03e0 1E000000 		.4byte	.LBB454
 8729 03e4 22000000 		.4byte	.LBE454
 8730 03e8 30000000 		.4byte	.LBB457
 8731 03ec 32000000 		.4byte	.LBE457
 8732 03f0 34000000 		.4byte	.LBB458
 8733 03f4 36000000 		.4byte	.LBE458
 8734 03f8 00000000 		.4byte	0
 8735 03fc 00000000 		.4byte	0
 8736 0400 3C000000 		.4byte	.LBB459
 8737 0404 3E000000 		.4byte	.LBE459
 8738 0408 50000000 		.4byte	.LBB472
 8739 040c 5E000000 		.4byte	.LBE472
 8740 0410 9C000000 		.4byte	.LBB487
 8741 0414 A4000000 		.4byte	.LBE487
ARM GAS  /var/folders/f9/8bk2lnw15zn4cbgn6wrnb4lm0000gn/T//ccCGlkPS.s 			page 184


 8742 0418 00000000 		.4byte	0
 8743 041c 00000000 		.4byte	0
 8744 0420 3C000000 		.4byte	.LBB461
 8745 0424 3E000000 		.4byte	.LBE461
 8746 0428 9C000000 		.4byte	.LBB466
 8747 042c 9E000000 		.4byte	.LBE466
 8748 0430 00000000 		.4byte	0
 8749 0434 00000000 		.4byte	0
 8750 0438 3E000000 		.4byte	.LBB469
 8751 043c 44000000 		.4byte	.LBE469
 8752 0440 90000000 		.4byte	.LBB486
 8753 0444 94000000 		.4byte	.LBE486
 8754 0448 00000000 		.4byte	0
 8755 044c 00000000 		.4byte	0
 8756 0450 5E000000 		.4byte	.LBB473
 8757 0454 60000000 		.4byte	.LBE473
 8758 0458 A4000000 		.4byte	.LBB488
 8759 045c A6000000 		.4byte	.LBE488
 8760 0460 00000000 		.4byte	0
 8761 0464 00000000 		.4byte	0
 8762 0468 64000000 		.4byte	.LBB478
 8763 046c 68000000 		.4byte	.LBE478
 8764 0470 84000000 		.4byte	.LBB484
 8765 0474 86000000 		.4byte	.LBE484
 8766 0478 88000000 		.4byte	.LBB485
 8767 047c 8A000000 		.4byte	.LBE485
 8768 0480 00000000 		.4byte	0
 8769 0484 00000000 		.4byte	0
 8770 0488 0C000000 		.4byte	.LBB493
 8771 048c 22000000 		.4byte	.LBE493
 8772 0490 62000000 		.4byte	.LBB504
 8773 0494 70000000 		.4byte	.LBE504
 8774 0498 00000000 		.4byte	0
 8775 049c 00000000 		.4byte	0
 8776 04a0 3E000000 		.4byte	.LBB500
 8777 04a4 44000000 		.4byte	.LBE500
 8778 04a8 44000000 		.4byte	.LBB503
 8779 04ac 4E000000 		.4byte	.LBE503
 8780 04b0 00000000 		.4byte	0
 8781 04b4 00000000 		.4byte	0
 8782 04b8 00000000 		.4byte	.LBB505
 8783 04bc 02000000 		.4byte	.LBE505
 8784 04c0 04000000 		.4byte	.LBB508
 8785 04c4 08000000 		.4byte	.LBE508
 8786 04c8 00000000 		.4byte	0
 8787 04cc 00000000 		.4byte	0
 8788 04d0 08000000 		.4byte	.LBB509
 8789 04d4 16000000 		.4byte	.LBE509
 8790 04d8 4C000000 		.4byte	.LBB529
 8791 04dc 5A000000 		.4byte	.LBE529
 8792 04e0 00000000 		.4byte	0
 8793 04e4 00000000 		.4byte	0
 8794 04e8 16000000 		.4byte	.LBB512
 8795 04ec 22000000 		.4byte	.LBE512
 8796 04f0 5A000000 		.4byte	.LBB530
 8797 04f4 74000000 		.4byte	.LBE530
 8798 04f8 00000000 		.4byte	0
ARM GAS  /var/folders/f9/8bk2lnw15zn4cbgn6wrnb4lm0000gn/T//ccCGlkPS.s 			page 185


 8799 04fc 00000000 		.4byte	0
 8800 0500 22000000 		.4byte	.LBB517
 8801 0504 24000000 		.4byte	.LBE517
 8802 0508 24000000 		.4byte	.LBB524
 8803 050c 30000000 		.4byte	.LBE524
 8804 0510 00000000 		.4byte	0
 8805 0514 00000000 		.4byte	0
 8806 0518 22000000 		.4byte	.LBB518
 8807 051c 24000000 		.4byte	.LBE518
 8808 0520 24000000 		.4byte	.LBB521
 8809 0524 2A000000 		.4byte	.LBE521
 8810 0528 00000000 		.4byte	0
 8811 052c 00000000 		.4byte	0
 8812 0530 0E000000 		.4byte	.LBB535
 8813 0534 1A000000 		.4byte	.LBE535
 8814 0538 22000000 		.4byte	.LBB543
 8815 053c 2E000000 		.4byte	.LBE543
 8816 0540 00000000 		.4byte	0
 8817 0544 00000000 		.4byte	0
 8818 0548 1A000000 		.4byte	.LBB538
 8819 054c 20000000 		.4byte	.LBE538
 8820 0550 2E000000 		.4byte	.LBB544
 8821 0554 48000000 		.4byte	.LBE544
 8822 0558 00000000 		.4byte	0
 8823 055c 00000000 		.4byte	0
 8824 0560 00000000 		.4byte	.LFB201
 8825 0564 34000000 		.4byte	.LFE201
 8826 0568 00000000 		.4byte	.LFB206
 8827 056c 18000000 		.4byte	.LFE206
 8828 0570 00000000 		.4byte	.LFB207
 8829 0574 F0000000 		.4byte	.LFE207
 8830 0578 00000000 		.4byte	.LFB208
 8831 057c B2000000 		.4byte	.LFE208
 8832 0580 00000000 		.4byte	.LFB209
 8833 0584 C4000000 		.4byte	.LFE209
 8834 0588 00000000 		.4byte	.LFB210
 8835 058c 28000000 		.4byte	.LFE210
 8836 0590 00000000 		.4byte	.LFB211
 8837 0594 7C000000 		.4byte	.LFE211
 8838 0598 00000000 		.4byte	.LFB212
 8839 059c BC000000 		.4byte	.LFE212
 8840 05a0 00000000 		.4byte	.LFB213
 8841 05a4 18000000 		.4byte	.LFE213
 8842 05a8 00000000 		.4byte	.LFB214
 8843 05ac 84000000 		.4byte	.LFE214
 8844 05b0 00000000 		.4byte	.LFB215
 8845 05b4 74000000 		.4byte	.LFE215
 8846 05b8 00000000 		.4byte	.LFB216
 8847 05bc 48000000 		.4byte	.LFE216
 8848 05c0 00000000 		.4byte	0
 8849 05c4 00000000 		.4byte	0
 8850              		.section	.debug_macro,"",%progbits
 8851              	.Ldebug_macro0:
 8852 0000 0400     		.2byte	0x4
 8853 0002 02       		.byte	0x2
 8854 0003 00000000 		.4byte	.Ldebug_line0
 8855 0007 07       		.byte	0x7
ARM GAS  /var/folders/f9/8bk2lnw15zn4cbgn6wrnb4lm0000gn/T//ccCGlkPS.s 			page 186


 8856 0008 00000000 		.4byte	.Ldebug_macro1
 8857 000c 03       		.byte	0x3
 8858 000d 00       		.uleb128 0
 8859 000e 01       		.uleb128 0x1
 8860 000f 03       		.byte	0x3
 8861 0010 20       		.uleb128 0x20
 8862 0011 08       		.uleb128 0x8
 8863 0012 05       		.byte	0x5
 8864 0013 1E       		.uleb128 0x1e
 8865 0014 FA790000 		.4byte	.LASF341
 8866 0018 03       		.byte	0x3
 8867 0019 20       		.uleb128 0x20
 8868 001a 07       		.uleb128 0x7
 8869 001b 05       		.byte	0x5
 8870 001c 21       		.uleb128 0x21
 8871 001d 80220000 		.4byte	.LASF342
 8872              		.file 9 "/usr/local/Cellar/gcc-arm-none-eabi/20140805/lib/gcc/arm-none-eabi/4.8.4/include/stdint.h
 8873 0021 03       		.byte	0x3
 8874 0022 23       		.uleb128 0x23
 8875 0023 09       		.uleb128 0x9
 8876 0024 03       		.byte	0x3
 8877 0025 09       		.uleb128 0x9
 8878 0026 06       		.uleb128 0x6
 8879 0027 05       		.byte	0x5
 8880 0028 0A       		.uleb128 0xa
 8881 0029 AC1D0000 		.4byte	.LASF343
 8882 002d 03       		.byte	0x3
 8883 002e 0C       		.uleb128 0xc
 8884 002f 05       		.uleb128 0x5
 8885 0030 05       		.byte	0x5
 8886 0031 06       		.uleb128 0x6
 8887 0032 EE500000 		.4byte	.LASF344
 8888              		.file 10 "/usr/local/Cellar/gcc-arm-none-eabi/20140805/arm-none-eabi/include/sys/features.h"
 8889 0036 03       		.byte	0x3
 8890 0037 08       		.uleb128 0x8
 8891 0038 0A       		.uleb128 0xa
 8892 0039 07       		.byte	0x7
 8893 003a 00000000 		.4byte	.Ldebug_macro2
 8894 003e 04       		.byte	0x4
 8895 003f 07       		.byte	0x7
 8896 0040 00000000 		.4byte	.Ldebug_macro3
 8897 0044 04       		.byte	0x4
 8898 0045 07       		.byte	0x7
 8899 0046 00000000 		.4byte	.Ldebug_macro4
 8900 004a 04       		.byte	0x4
 8901 004b 05       		.byte	0x5
 8902 004c 0D       		.uleb128 0xd
 8903 004d 11670000 		.4byte	.LASF434
 8904 0051 04       		.byte	0x4
 8905              		.file 11 "/usr/local/Cellar/gcc-arm-none-eabi/20140805/lib/gcc/arm-none-eabi/4.8.4/include/stdbool
 8906 0052 03       		.byte	0x3
 8907 0053 24       		.uleb128 0x24
 8908 0054 0B       		.uleb128 0xb
 8909 0055 07       		.byte	0x7
 8910 0056 00000000 		.4byte	.Ldebug_macro5
 8911 005a 04       		.byte	0x4
 8912 005b 07       		.byte	0x7
ARM GAS  /var/folders/f9/8bk2lnw15zn4cbgn6wrnb4lm0000gn/T//ccCGlkPS.s 			page 187


 8913 005c 00000000 		.4byte	.Ldebug_macro6
 8914 0060 04       		.byte	0x4
 8915              		.file 12 "../../lpc_chip_11cxx_lib/inc/sys_config.h"
 8916 0061 03       		.byte	0x3
 8917 0062 21       		.uleb128 0x21
 8918 0063 0C       		.uleb128 0xc
 8919 0064 07       		.byte	0x7
 8920 0065 00000000 		.4byte	.Ldebug_macro7
 8921 0069 04       		.byte	0x4
 8922              		.file 13 "../../lpc_chip_11cxx_lib/inc/cmsis.h"
 8923 006a 03       		.byte	0x3
 8924 006b 22       		.uleb128 0x22
 8925 006c 0D       		.uleb128 0xd
 8926 006d 05       		.byte	0x5
 8927 006e 1E       		.uleb128 0x1e
 8928 006f F64F0000 		.4byte	.LASF458
 8929              		.file 14 "../../lpc_chip_11cxx_lib/inc/cmsis_11cxx.h"
 8930 0073 03       		.byte	0x3
 8931 0074 2E       		.uleb128 0x2e
 8932 0075 0E       		.uleb128 0xe
 8933 0076 07       		.byte	0x7
 8934 0077 00000000 		.4byte	.Ldebug_macro8
 8935 007b 04       		.byte	0x4
 8936              		.file 15 "../../lpc_chip_11cxx_lib/inc/core_cm0.h"
 8937 007c 03       		.byte	0x3
 8938 007d 3E       		.uleb128 0x3e
 8939 007e 0F       		.uleb128 0xf
 8940 007f 07       		.byte	0x7
 8941 0080 00000000 		.4byte	.Ldebug_macro9
 8942              		.file 16 "../../lpc_chip_11cxx_lib/inc/core_cmInstr.h"
 8943 0084 03       		.byte	0x3
 8944 0085 70       		.uleb128 0x70
 8945 0086 10       		.uleb128 0x10
 8946 0087 05       		.byte	0x5
 8947 0088 19       		.uleb128 0x19
 8948 0089 1A1E0000 		.4byte	.LASF472
 8949 008d 04       		.byte	0x4
 8950              		.file 17 "../../lpc_chip_11cxx_lib/inc/core_cmFunc.h"
 8951 008e 03       		.byte	0x3
 8952 008f 71       		.uleb128 0x71
 8953 0090 11       		.uleb128 0x11
 8954 0091 05       		.byte	0x5
 8955 0092 19       		.uleb128 0x19
 8956 0093 3D0C0000 		.4byte	.LASF473
 8957 0097 04       		.byte	0x4
 8958 0098 07       		.byte	0x7
 8959 0099 00000000 		.4byte	.Ldebug_macro10
 8960 009d 04       		.byte	0x4
 8961 009e 04       		.byte	0x4
 8962 009f 07       		.byte	0x7
 8963 00a0 00000000 		.4byte	.Ldebug_macro11
 8964              		.file 18 "../../lpc_chip_11cxx_lib/inc/pmu_11xx.h"
 8965 00a4 03       		.byte	0x3
 8966 00a5 E901     		.uleb128 0xe9
 8967 00a7 12       		.uleb128 0x12
 8968 00a8 07       		.byte	0x7
 8969 00a9 00000000 		.4byte	.Ldebug_macro12
ARM GAS  /var/folders/f9/8bk2lnw15zn4cbgn6wrnb4lm0000gn/T//ccCGlkPS.s 			page 188


 8970 00ad 04       		.byte	0x4
 8971              		.file 19 "../../lpc_chip_11cxx_lib/inc/fmc_11xx.h"
 8972 00ae 03       		.byte	0x3
 8973 00af EA01     		.uleb128 0xea
 8974 00b1 13       		.uleb128 0x13
 8975 00b2 05       		.byte	0x5
 8976 00b3 21       		.uleb128 0x21
 8977 00b4 0D690000 		.4byte	.LASF603
 8978 00b8 04       		.byte	0x4
 8979 00b9 03       		.byte	0x3
 8980 00ba EB01     		.uleb128 0xeb
 8981 00bc 04       		.uleb128 0x4
 8982 00bd 07       		.byte	0x7
 8983 00be 00000000 		.4byte	.Ldebug_macro13
 8984 00c2 04       		.byte	0x4
 8985 00c3 03       		.byte	0x3
 8986 00c4 EC01     		.uleb128 0xec
 8987 00c6 03       		.uleb128 0x3
 8988 00c7 07       		.byte	0x7
 8989 00c8 00000000 		.4byte	.Ldebug_macro14
 8990 00cc 04       		.byte	0x4
 8991              		.file 20 "../../lpc_chip_11cxx_lib/inc/iocon_11xx.h"
 8992 00cd 03       		.byte	0x3
 8993 00ce ED01     		.uleb128 0xed
 8994 00d0 14       		.uleb128 0x14
 8995 00d1 07       		.byte	0x7
 8996 00d2 00000000 		.4byte	.Ldebug_macro15
 8997 00d6 04       		.byte	0x4
 8998              		.file 21 "../../lpc_chip_11cxx_lib/inc/timer_11xx.h"
 8999 00d7 03       		.byte	0x3
 9000 00d8 EE01     		.uleb128 0xee
 9001 00da 15       		.uleb128 0x15
 9002 00db 07       		.byte	0x7
 9003 00dc 00000000 		.4byte	.Ldebug_macro16
 9004 00e0 04       		.byte	0x4
 9005              		.file 22 "../../lpc_chip_11cxx_lib/inc/uart_11xx.h"
 9006 00e1 03       		.byte	0x3
 9007 00e2 EF01     		.uleb128 0xef
 9008 00e4 16       		.uleb128 0x16
 9009 00e5 05       		.byte	0x5
 9010 00e6 21       		.uleb128 0x21
 9011 00e7 7D250000 		.4byte	.LASF687
 9012              		.file 23 "../../lpc_chip_11cxx_lib/inc/ring_buffer.h"
 9013 00eb 03       		.byte	0x3
 9014 00ec 23       		.uleb128 0x23
 9015 00ed 17       		.uleb128 0x17
 9016 00ee 07       		.byte	0x7
 9017 00ef 00000000 		.4byte	.Ldebug_macro17
 9018 00f3 04       		.byte	0x4
 9019 00f4 07       		.byte	0x7
 9020 00f5 00000000 		.4byte	.Ldebug_macro18
 9021 00f9 04       		.byte	0x4
 9022              		.file 24 "../../lpc_chip_11cxx_lib/inc/wwdt_11xx.h"
 9023 00fa 03       		.byte	0x3
 9024 00fb F001     		.uleb128 0xf0
 9025 00fd 18       		.uleb128 0x18
 9026 00fe 07       		.byte	0x7
ARM GAS  /var/folders/f9/8bk2lnw15zn4cbgn6wrnb4lm0000gn/T//ccCGlkPS.s 			page 189


 9027 00ff 00000000 		.4byte	.Ldebug_macro19
 9028 0103 04       		.byte	0x4
 9029 0104 03       		.byte	0x3
 9030 0105 F101     		.uleb128 0xf1
 9031 0107 02       		.uleb128 0x2
 9032 0108 07       		.byte	0x7
 9033 0109 00000000 		.4byte	.Ldebug_macro20
 9034 010d 04       		.byte	0x4
 9035              		.file 25 "../../lpc_chip_11cxx_lib/inc/romapi_11xx.h"
 9036 010e 03       		.byte	0x3
 9037 010f F201     		.uleb128 0xf2
 9038 0111 19       		.uleb128 0x19
 9039 0112 05       		.byte	0x5
 9040 0113 21       		.uleb128 0x21
 9041 0114 B6400000 		.4byte	.LASF840
 9042              		.file 26 "../../lpc_chip_11cxx_lib/inc/error.h"
 9043 0118 03       		.byte	0x3
 9044 0119 23       		.uleb128 0x23
 9045 011a 1A       		.uleb128 0x1a
 9046 011b 07       		.byte	0x7
 9047 011c 00000000 		.4byte	.Ldebug_macro21
 9048 0120 04       		.byte	0x4
 9049 0121 04       		.byte	0x4
 9050              		.file 27 "../../lpc_chip_11cxx_lib/inc/adc_11xx.h"
 9051 0122 03       		.byte	0x3
 9052 0123 F601     		.uleb128 0xf6
 9053 0125 1B       		.uleb128 0x1b
 9054 0126 07       		.byte	0x7
 9055 0127 00000000 		.4byte	.Ldebug_macro22
 9056 012b 04       		.byte	0x4
 9057              		.file 28 "../../lpc_chip_11cxx_lib/inc/gpio_11xx_2.h"
 9058 012c 03       		.byte	0x3
 9059 012d FF01     		.uleb128 0xff
 9060 012f 1C       		.uleb128 0x1c
 9061 0130 05       		.byte	0x5
 9062 0131 22       		.uleb128 0x22
 9063 0132 7F670000 		.4byte	.LASF863
 9064 0136 04       		.byte	0x4
 9065              		.file 29 "../../lpc_chip_11cxx_lib/inc/i2c_11xx.h"
 9066 0137 03       		.byte	0x3
 9067 0138 8C02     		.uleb128 0x10c
 9068 013a 1D       		.uleb128 0x1d
 9069 013b 07       		.byte	0x7
 9070 013c 00000000 		.4byte	.Ldebug_macro23
 9071 0140 04       		.byte	0x4
 9072              		.file 30 "../../lpc_chip_11cxx_lib/inc/ccand_11xx.h"
 9073 0141 03       		.byte	0x3
 9074 0142 8F02     		.uleb128 0x10f
 9075 0144 1E       		.uleb128 0x1e
 9076 0145 07       		.byte	0x7
 9077 0146 00000000 		.4byte	.Ldebug_macro24
 9078 014a 04       		.byte	0x4
 9079 014b 04       		.byte	0x4
 9080 014c 04       		.byte	0x4
 9081 014d 00       		.byte	0
 9082              		.section	.debug_macro,"G",%progbits,wm4.0.121fbee677f1a8a7d8c40a6e8762ca43,comdat
 9083              	.Ldebug_macro1:
ARM GAS  /var/folders/f9/8bk2lnw15zn4cbgn6wrnb4lm0000gn/T//ccCGlkPS.s 			page 190


 9084 0000 0400     		.2byte	0x4
 9085 0002 00       		.byte	0
 9086 0003 05       		.byte	0x5
 9087 0004 00       		.uleb128 0
 9088 0005 FE4B0000 		.4byte	.LASF0
 9089 0009 05       		.byte	0x5
 9090 000a 00       		.uleb128 0
 9091 000b D7090000 		.4byte	.LASF1
 9092 000f 05       		.byte	0x5
 9093 0010 00       		.uleb128 0
 9094 0011 17370000 		.4byte	.LASF2
 9095 0015 05       		.byte	0x5
 9096 0016 00       		.uleb128 0
 9097 0017 74620000 		.4byte	.LASF3
 9098 001b 05       		.byte	0x5
 9099 001c 00       		.uleb128 0
 9100 001d 221D0000 		.4byte	.LASF4
 9101 0021 05       		.byte	0x5
 9102 0022 00       		.uleb128 0
 9103 0023 21490000 		.4byte	.LASF5
 9104 0027 05       		.byte	0x5
 9105 0028 00       		.uleb128 0
 9106 0029 E2680000 		.4byte	.LASF6
 9107 002d 05       		.byte	0x5
 9108 002e 00       		.uleb128 0
 9109 002f A01F0000 		.4byte	.LASF7
 9110 0033 05       		.byte	0x5
 9111 0034 00       		.uleb128 0
 9112 0035 F3330000 		.4byte	.LASF8
 9113 0039 05       		.byte	0x5
 9114 003a 00       		.uleb128 0
 9115 003b 783B0000 		.4byte	.LASF9
 9116 003f 05       		.byte	0x5
 9117 0040 00       		.uleb128 0
 9118 0041 CF790000 		.4byte	.LASF10
 9119 0045 05       		.byte	0x5
 9120 0046 00       		.uleb128 0
 9121 0047 8F030000 		.4byte	.LASF11
 9122 004b 05       		.byte	0x5
 9123 004c 00       		.uleb128 0
 9124 004d 5D3C0000 		.4byte	.LASF12
 9125 0051 05       		.byte	0x5
 9126 0052 00       		.uleb128 0
 9127 0053 4E5C0000 		.4byte	.LASF13
 9128 0057 05       		.byte	0x5
 9129 0058 00       		.uleb128 0
 9130 0059 31710000 		.4byte	.LASF14
 9131 005d 05       		.byte	0x5
 9132 005e 00       		.uleb128 0
 9133 005f 24180000 		.4byte	.LASF15
 9134 0063 05       		.byte	0x5
 9135 0064 00       		.uleb128 0
 9136 0065 F6040000 		.4byte	.LASF16
 9137 0069 05       		.byte	0x5
 9138 006a 00       		.uleb128 0
 9139 006b ED210000 		.4byte	.LASF17
 9140 006f 05       		.byte	0x5
ARM GAS  /var/folders/f9/8bk2lnw15zn4cbgn6wrnb4lm0000gn/T//ccCGlkPS.s 			page 191


 9141 0070 00       		.uleb128 0
 9142 0071 296A0000 		.4byte	.LASF18
 9143 0075 05       		.byte	0x5
 9144 0076 00       		.uleb128 0
 9145 0077 BF180000 		.4byte	.LASF19
 9146 007b 05       		.byte	0x5
 9147 007c 00       		.uleb128 0
 9148 007d F5220000 		.4byte	.LASF20
 9149 0081 05       		.byte	0x5
 9150 0082 00       		.uleb128 0
 9151 0083 0C660000 		.4byte	.LASF21
 9152 0087 05       		.byte	0x5
 9153 0088 00       		.uleb128 0
 9154 0089 1C430000 		.4byte	.LASF22
 9155 008d 05       		.byte	0x5
 9156 008e 00       		.uleb128 0
 9157 008f 09510000 		.4byte	.LASF23
 9158 0093 05       		.byte	0x5
 9159 0094 00       		.uleb128 0
 9160 0095 9D580000 		.4byte	.LASF24
 9161 0099 05       		.byte	0x5
 9162 009a 00       		.uleb128 0
 9163 009b 460E0000 		.4byte	.LASF25
 9164 009f 05       		.byte	0x5
 9165 00a0 00       		.uleb128 0
 9166 00a1 55060000 		.4byte	.LASF26
 9167 00a5 05       		.byte	0x5
 9168 00a6 00       		.uleb128 0
 9169 00a7 28450000 		.4byte	.LASF27
 9170 00ab 05       		.byte	0x5
 9171 00ac 00       		.uleb128 0
 9172 00ad 2E4C0000 		.4byte	.LASF28
 9173 00b1 05       		.byte	0x5
 9174 00b2 00       		.uleb128 0
 9175 00b3 A6150000 		.4byte	.LASF29
 9176 00b7 05       		.byte	0x5
 9177 00b8 00       		.uleb128 0
 9178 00b9 DE770000 		.4byte	.LASF30
 9179 00bd 05       		.byte	0x5
 9180 00be 00       		.uleb128 0
 9181 00bf FA2A0000 		.4byte	.LASF31
 9182 00c3 05       		.byte	0x5
 9183 00c4 00       		.uleb128 0
 9184 00c5 5A230000 		.4byte	.LASF32
 9185 00c9 05       		.byte	0x5
 9186 00ca 00       		.uleb128 0
 9187 00cb 94460000 		.4byte	.LASF33
 9188 00cf 05       		.byte	0x5
 9189 00d0 00       		.uleb128 0
 9190 00d1 F9770000 		.4byte	.LASF34
 9191 00d5 05       		.byte	0x5
 9192 00d6 00       		.uleb128 0
 9193 00d7 B0490000 		.4byte	.LASF35
 9194 00db 05       		.byte	0x5
 9195 00dc 00       		.uleb128 0
 9196 00dd E7640000 		.4byte	.LASF36
 9197 00e1 05       		.byte	0x5
ARM GAS  /var/folders/f9/8bk2lnw15zn4cbgn6wrnb4lm0000gn/T//ccCGlkPS.s 			page 192


 9198 00e2 00       		.uleb128 0
 9199 00e3 77170000 		.4byte	.LASF37
 9200 00e7 05       		.byte	0x5
 9201 00e8 00       		.uleb128 0
 9202 00e9 E6390000 		.4byte	.LASF38
 9203 00ed 05       		.byte	0x5
 9204 00ee 00       		.uleb128 0
 9205 00ef EF060000 		.4byte	.LASF39
 9206 00f3 05       		.byte	0x5
 9207 00f4 00       		.uleb128 0
 9208 00f5 0A080000 		.4byte	.LASF40
 9209 00f9 05       		.byte	0x5
 9210 00fa 00       		.uleb128 0
 9211 00fb E2790000 		.4byte	.LASF41
 9212 00ff 05       		.byte	0x5
 9213 0100 00       		.uleb128 0
 9214 0101 E4420000 		.4byte	.LASF42
 9215 0105 05       		.byte	0x5
 9216 0106 00       		.uleb128 0
 9217 0107 7F4C0000 		.4byte	.LASF43
 9218 010b 05       		.byte	0x5
 9219 010c 00       		.uleb128 0
 9220 010d 83370000 		.4byte	.LASF44
 9221 0111 05       		.byte	0x5
 9222 0112 00       		.uleb128 0
 9223 0113 A86F0000 		.4byte	.LASF45
 9224 0117 05       		.byte	0x5
 9225 0118 00       		.uleb128 0
 9226 0119 5A660000 		.4byte	.LASF46
 9227 011d 05       		.byte	0x5
 9228 011e 00       		.uleb128 0
 9229 011f BB150000 		.4byte	.LASF47
 9230 0123 05       		.byte	0x5
 9231 0124 00       		.uleb128 0
 9232 0125 59740000 		.4byte	.LASF48
 9233 0129 05       		.byte	0x5
 9234 012a 00       		.uleb128 0
 9235 012b 043C0000 		.4byte	.LASF49
 9236 012f 05       		.byte	0x5
 9237 0130 00       		.uleb128 0
 9238 0131 D97B0000 		.4byte	.LASF50
 9239 0135 05       		.byte	0x5
 9240 0136 00       		.uleb128 0
 9241 0137 F0120000 		.4byte	.LASF51
 9242 013b 05       		.byte	0x5
 9243 013c 00       		.uleb128 0
 9244 013d D05A0000 		.4byte	.LASF52
 9245 0141 05       		.byte	0x5
 9246 0142 00       		.uleb128 0
 9247 0143 3D620000 		.4byte	.LASF53
 9248 0147 05       		.byte	0x5
 9249 0148 00       		.uleb128 0
 9250 0149 A93A0000 		.4byte	.LASF54
 9251 014d 05       		.byte	0x5
 9252 014e 00       		.uleb128 0
 9253 014f 31150000 		.4byte	.LASF55
 9254 0153 05       		.byte	0x5
ARM GAS  /var/folders/f9/8bk2lnw15zn4cbgn6wrnb4lm0000gn/T//ccCGlkPS.s 			page 193


 9255 0154 00       		.uleb128 0
 9256 0155 205A0000 		.4byte	.LASF56
 9257 0159 05       		.byte	0x5
 9258 015a 00       		.uleb128 0
 9259 015b D93B0000 		.4byte	.LASF57
 9260 015f 05       		.byte	0x5
 9261 0160 00       		.uleb128 0
 9262 0161 220A0000 		.4byte	.LASF58
 9263 0165 05       		.byte	0x5
 9264 0166 00       		.uleb128 0
 9265 0167 AE380000 		.4byte	.LASF59
 9266 016b 05       		.byte	0x5
 9267 016c 00       		.uleb128 0
 9268 016d DB360000 		.4byte	.LASF60
 9269 0171 05       		.byte	0x5
 9270 0172 00       		.uleb128 0
 9271 0173 FE590000 		.4byte	.LASF61
 9272 0177 05       		.byte	0x5
 9273 0178 00       		.uleb128 0
 9274 0179 2F240000 		.4byte	.LASF62
 9275 017d 05       		.byte	0x5
 9276 017e 00       		.uleb128 0
 9277 017f D3640000 		.4byte	.LASF63
 9278 0183 05       		.byte	0x5
 9279 0184 00       		.uleb128 0
 9280 0185 A6370000 		.4byte	.LASF64
 9281 0189 05       		.byte	0x5
 9282 018a 00       		.uleb128 0
 9283 018b 18240000 		.4byte	.LASF65
 9284 018f 05       		.byte	0x5
 9285 0190 00       		.uleb128 0
 9286 0191 610F0000 		.4byte	.LASF66
 9287 0195 05       		.byte	0x5
 9288 0196 00       		.uleb128 0
 9289 0197 546A0000 		.4byte	.LASF67
 9290 019b 05       		.byte	0x5
 9291 019c 00       		.uleb128 0
 9292 019d 923A0000 		.4byte	.LASF68
 9293 01a1 05       		.byte	0x5
 9294 01a2 00       		.uleb128 0
 9295 01a3 076C0000 		.4byte	.LASF69
 9296 01a7 05       		.byte	0x5
 9297 01a8 00       		.uleb128 0
 9298 01a9 AA010000 		.4byte	.LASF70
 9299 01ad 05       		.byte	0x5
 9300 01ae 00       		.uleb128 0
 9301 01af DD140000 		.4byte	.LASF71
 9302 01b3 05       		.byte	0x5
 9303 01b4 00       		.uleb128 0
 9304 01b5 BB3F0000 		.4byte	.LASF72
 9305 01b9 05       		.byte	0x5
 9306 01ba 00       		.uleb128 0
 9307 01bb 9D400000 		.4byte	.LASF73
 9308 01bf 05       		.byte	0x5
 9309 01c0 00       		.uleb128 0
 9310 01c1 E0730000 		.4byte	.LASF74
 9311 01c5 05       		.byte	0x5
ARM GAS  /var/folders/f9/8bk2lnw15zn4cbgn6wrnb4lm0000gn/T//ccCGlkPS.s 			page 194


 9312 01c6 00       		.uleb128 0
 9313 01c7 4B640000 		.4byte	.LASF75
 9314 01cb 05       		.byte	0x5
 9315 01cc 00       		.uleb128 0
 9316 01cd DA5F0000 		.4byte	.LASF76
 9317 01d1 05       		.byte	0x5
 9318 01d2 00       		.uleb128 0
 9319 01d3 FA100000 		.4byte	.LASF77
 9320 01d7 05       		.byte	0x5
 9321 01d8 00       		.uleb128 0
 9322 01d9 A9020000 		.4byte	.LASF78
 9323 01dd 05       		.byte	0x5
 9324 01de 00       		.uleb128 0
 9325 01df E0610000 		.4byte	.LASF79
 9326 01e3 05       		.byte	0x5
 9327 01e4 00       		.uleb128 0
 9328 01e5 010B0000 		.4byte	.LASF80
 9329 01e9 05       		.byte	0x5
 9330 01ea 00       		.uleb128 0
 9331 01eb 804D0000 		.4byte	.LASF81
 9332 01ef 05       		.byte	0x5
 9333 01f0 00       		.uleb128 0
 9334 01f1 2D2F0000 		.4byte	.LASF82
 9335 01f5 05       		.byte	0x5
 9336 01f6 00       		.uleb128 0
 9337 01f7 FF600000 		.4byte	.LASF83
 9338 01fb 05       		.byte	0x5
 9339 01fc 00       		.uleb128 0
 9340 01fd 3E100000 		.4byte	.LASF84
 9341 0201 05       		.byte	0x5
 9342 0202 00       		.uleb128 0
 9343 0203 203B0000 		.4byte	.LASF85
 9344 0207 05       		.byte	0x5
 9345 0208 00       		.uleb128 0
 9346 0209 5C2A0000 		.4byte	.LASF86
 9347 020d 05       		.byte	0x5
 9348 020e 00       		.uleb128 0
 9349 020f B97A0000 		.4byte	.LASF87
 9350 0213 05       		.byte	0x5
 9351 0214 00       		.uleb128 0
 9352 0215 26580000 		.4byte	.LASF88
 9353 0219 05       		.byte	0x5
 9354 021a 00       		.uleb128 0
 9355 021b CC3F0000 		.4byte	.LASF89
 9356 021f 05       		.byte	0x5
 9357 0220 00       		.uleb128 0
 9358 0221 607C0000 		.4byte	.LASF90
 9359 0225 05       		.byte	0x5
 9360 0226 00       		.uleb128 0
 9361 0227 C64E0000 		.4byte	.LASF91
 9362 022b 05       		.byte	0x5
 9363 022c 00       		.uleb128 0
 9364 022d 31540000 		.4byte	.LASF92
 9365 0231 05       		.byte	0x5
 9366 0232 00       		.uleb128 0
 9367 0233 1A290000 		.4byte	.LASF93
 9368 0237 05       		.byte	0x5
ARM GAS  /var/folders/f9/8bk2lnw15zn4cbgn6wrnb4lm0000gn/T//ccCGlkPS.s 			page 195


 9369 0238 00       		.uleb128 0
 9370 0239 11790000 		.4byte	.LASF94
 9371 023d 05       		.byte	0x5
 9372 023e 00       		.uleb128 0
 9373 023f AD620000 		.4byte	.LASF95
 9374 0243 05       		.byte	0x5
 9375 0244 00       		.uleb128 0
 9376 0245 220E0000 		.4byte	.LASF96
 9377 0249 05       		.byte	0x5
 9378 024a 00       		.uleb128 0
 9379 024b 955E0000 		.4byte	.LASF97
 9380 024f 05       		.byte	0x5
 9381 0250 00       		.uleb128 0
 9382 0251 9A660000 		.4byte	.LASF98
 9383 0255 05       		.byte	0x5
 9384 0256 00       		.uleb128 0
 9385 0257 017B0000 		.4byte	.LASF99
 9386 025b 05       		.byte	0x5
 9387 025c 00       		.uleb128 0
 9388 025d FB070000 		.4byte	.LASF100
 9389 0261 05       		.byte	0x5
 9390 0262 00       		.uleb128 0
 9391 0263 A35B0000 		.4byte	.LASF101
 9392 0267 05       		.byte	0x5
 9393 0268 00       		.uleb128 0
 9394 0269 43680000 		.4byte	.LASF102
 9395 026d 05       		.byte	0x5
 9396 026e 00       		.uleb128 0
 9397 026f FA6A0000 		.4byte	.LASF103
 9398 0273 05       		.byte	0x5
 9399 0274 00       		.uleb128 0
 9400 0275 D9290000 		.4byte	.LASF104
 9401 0279 05       		.byte	0x5
 9402 027a 00       		.uleb128 0
 9403 027b D1520000 		.4byte	.LASF105
 9404 027f 05       		.byte	0x5
 9405 0280 00       		.uleb128 0
 9406 0281 DF560000 		.4byte	.LASF106
 9407 0285 05       		.byte	0x5
 9408 0286 00       		.uleb128 0
 9409 0287 36530000 		.4byte	.LASF107
 9410 028b 05       		.byte	0x5
 9411 028c 00       		.uleb128 0
 9412 028d 2B160000 		.4byte	.LASF108
 9413 0291 05       		.byte	0x5
 9414 0292 00       		.uleb128 0
 9415 0293 C2000000 		.4byte	.LASF109
 9416 0297 05       		.byte	0x5
 9417 0298 00       		.uleb128 0
 9418 0299 C0310000 		.4byte	.LASF110
 9419 029d 05       		.byte	0x5
 9420 029e 00       		.uleb128 0
 9421 029f C4200000 		.4byte	.LASF111
 9422 02a3 05       		.byte	0x5
 9423 02a4 00       		.uleb128 0
 9424 02a5 7F750000 		.4byte	.LASF112
 9425 02a9 05       		.byte	0x5
ARM GAS  /var/folders/f9/8bk2lnw15zn4cbgn6wrnb4lm0000gn/T//ccCGlkPS.s 			page 196


 9426 02aa 00       		.uleb128 0
 9427 02ab E17A0000 		.4byte	.LASF113
 9428 02af 05       		.byte	0x5
 9429 02b0 00       		.uleb128 0
 9430 02b1 EB130000 		.4byte	.LASF114
 9431 02b5 05       		.byte	0x5
 9432 02b6 00       		.uleb128 0
 9433 02b7 8C4A0000 		.4byte	.LASF115
 9434 02bb 05       		.byte	0x5
 9435 02bc 00       		.uleb128 0
 9436 02bd 72490000 		.4byte	.LASF116
 9437 02c1 05       		.byte	0x5
 9438 02c2 00       		.uleb128 0
 9439 02c3 254A0000 		.4byte	.LASF117
 9440 02c7 05       		.byte	0x5
 9441 02c8 00       		.uleb128 0
 9442 02c9 37480000 		.4byte	.LASF118
 9443 02cd 05       		.byte	0x5
 9444 02ce 00       		.uleb128 0
 9445 02cf 5D400000 		.4byte	.LASF119
 9446 02d3 05       		.byte	0x5
 9447 02d4 00       		.uleb128 0
 9448 02d5 AD3B0000 		.4byte	.LASF120
 9449 02d9 05       		.byte	0x5
 9450 02da 00       		.uleb128 0
 9451 02db A2490000 		.4byte	.LASF121
 9452 02df 05       		.byte	0x5
 9453 02e0 00       		.uleb128 0
 9454 02e1 20480000 		.4byte	.LASF122
 9455 02e5 05       		.byte	0x5
 9456 02e6 00       		.uleb128 0
 9457 02e7 E01A0000 		.4byte	.LASF123
 9458 02eb 05       		.byte	0x5
 9459 02ec 00       		.uleb128 0
 9460 02ed 10180000 		.4byte	.LASF124
 9461 02f1 05       		.byte	0x5
 9462 02f2 00       		.uleb128 0
 9463 02f3 08620000 		.4byte	.LASF125
 9464 02f7 05       		.byte	0x5
 9465 02f8 00       		.uleb128 0
 9466 02f9 3C1B0000 		.4byte	.LASF126
 9467 02fd 05       		.byte	0x5
 9468 02fe 00       		.uleb128 0
 9469 02ff 3A250000 		.4byte	.LASF127
 9470 0303 05       		.byte	0x5
 9471 0304 00       		.uleb128 0
 9472 0305 A6240000 		.4byte	.LASF128
 9473 0309 05       		.byte	0x5
 9474 030a 00       		.uleb128 0
 9475 030b 802A0000 		.4byte	.LASF129
 9476 030f 05       		.byte	0x5
 9477 0310 00       		.uleb128 0
 9478 0311 EF280000 		.4byte	.LASF130
 9479 0315 05       		.byte	0x5
 9480 0316 00       		.uleb128 0
 9481 0317 DA060000 		.4byte	.LASF131
 9482 031b 05       		.byte	0x5
ARM GAS  /var/folders/f9/8bk2lnw15zn4cbgn6wrnb4lm0000gn/T//ccCGlkPS.s 			page 197


 9483 031c 00       		.uleb128 0
 9484 031d 85350000 		.4byte	.LASF132
 9485 0321 05       		.byte	0x5
 9486 0322 00       		.uleb128 0
 9487 0323 981C0000 		.4byte	.LASF133
 9488 0327 05       		.byte	0x5
 9489 0328 00       		.uleb128 0
 9490 0329 2A7B0000 		.4byte	.LASF134
 9491 032d 05       		.byte	0x5
 9492 032e 00       		.uleb128 0
 9493 032f 94040000 		.4byte	.LASF135
 9494 0333 05       		.byte	0x5
 9495 0334 00       		.uleb128 0
 9496 0335 00550000 		.4byte	.LASF136
 9497 0339 05       		.byte	0x5
 9498 033a 00       		.uleb128 0
 9499 033b 057A0000 		.4byte	.LASF137
 9500 033f 05       		.byte	0x5
 9501 0340 00       		.uleb128 0
 9502 0341 AF200000 		.4byte	.LASF138
 9503 0345 05       		.byte	0x5
 9504 0346 00       		.uleb128 0
 9505 0347 0D050000 		.4byte	.LASF139
 9506 034b 05       		.byte	0x5
 9507 034c 00       		.uleb128 0
 9508 034d 906A0000 		.4byte	.LASF140
 9509 0351 05       		.byte	0x5
 9510 0352 00       		.uleb128 0
 9511 0353 A2740000 		.4byte	.LASF141
 9512 0357 05       		.byte	0x5
 9513 0358 00       		.uleb128 0
 9514 0359 6A140000 		.4byte	.LASF142
 9515 035d 05       		.byte	0x5
 9516 035e 00       		.uleb128 0
 9517 035f 4B350000 		.4byte	.LASF143
 9518 0363 05       		.byte	0x5
 9519 0364 00       		.uleb128 0
 9520 0365 966E0000 		.4byte	.LASF144
 9521 0369 05       		.byte	0x5
 9522 036a 00       		.uleb128 0
 9523 036b 7C270000 		.4byte	.LASF145
 9524 036f 05       		.byte	0x5
 9525 0370 00       		.uleb128 0
 9526 0371 35690000 		.4byte	.LASF146
 9527 0375 05       		.byte	0x5
 9528 0376 00       		.uleb128 0
 9529 0377 38700000 		.4byte	.LASF147
 9530 037b 05       		.byte	0x5
 9531 037c 00       		.uleb128 0
 9532 037d A1070000 		.4byte	.LASF148
 9533 0381 05       		.byte	0x5
 9534 0382 00       		.uleb128 0
 9535 0383 86730000 		.4byte	.LASF149
 9536 0387 05       		.byte	0x5
 9537 0388 00       		.uleb128 0
 9538 0389 88070000 		.4byte	.LASF150
 9539 038d 05       		.byte	0x5
ARM GAS  /var/folders/f9/8bk2lnw15zn4cbgn6wrnb4lm0000gn/T//ccCGlkPS.s 			page 198


 9540 038e 00       		.uleb128 0
 9541 038f 03360000 		.4byte	.LASF151
 9542 0393 05       		.byte	0x5
 9543 0394 00       		.uleb128 0
 9544 0395 F4260000 		.4byte	.LASF152
 9545 0399 05       		.byte	0x5
 9546 039a 00       		.uleb128 0
 9547 039b 1E470000 		.4byte	.LASF153
 9548 039f 05       		.byte	0x5
 9549 03a0 00       		.uleb128 0
 9550 03a1 3D000000 		.4byte	.LASF154
 9551 03a5 05       		.byte	0x5
 9552 03a6 00       		.uleb128 0
 9553 03a7 37400000 		.4byte	.LASF155
 9554 03ab 05       		.byte	0x5
 9555 03ac 00       		.uleb128 0
 9556 03ad 47670000 		.4byte	.LASF156
 9557 03b1 05       		.byte	0x5
 9558 03b2 00       		.uleb128 0
 9559 03b3 30260000 		.4byte	.LASF157
 9560 03b7 05       		.byte	0x5
 9561 03b8 00       		.uleb128 0
 9562 03b9 3F3D0000 		.4byte	.LASF158
 9563 03bd 05       		.byte	0x5
 9564 03be 00       		.uleb128 0
 9565 03bf 62560000 		.4byte	.LASF159
 9566 03c3 05       		.byte	0x5
 9567 03c4 00       		.uleb128 0
 9568 03c5 9F470000 		.4byte	.LASF160
 9569 03c9 05       		.byte	0x5
 9570 03ca 00       		.uleb128 0
 9571 03cb 2D120000 		.4byte	.LASF161
 9572 03cf 05       		.byte	0x5
 9573 03d0 00       		.uleb128 0
 9574 03d1 B0500000 		.4byte	.LASF162
 9575 03d5 05       		.byte	0x5
 9576 03d6 00       		.uleb128 0
 9577 03d7 E7250000 		.4byte	.LASF163
 9578 03db 05       		.byte	0x5
 9579 03dc 00       		.uleb128 0
 9580 03dd E5370000 		.4byte	.LASF164
 9581 03e1 05       		.byte	0x5
 9582 03e2 00       		.uleb128 0
 9583 03e3 EE050000 		.4byte	.LASF165
 9584 03e7 05       		.byte	0x5
 9585 03e8 00       		.uleb128 0
 9586 03e9 11120000 		.4byte	.LASF166
 9587 03ed 05       		.byte	0x5
 9588 03ee 00       		.uleb128 0
 9589 03ef 730F0000 		.4byte	.LASF167
 9590 03f3 05       		.byte	0x5
 9591 03f4 00       		.uleb128 0
 9592 03f5 16030000 		.4byte	.LASF168
 9593 03f9 05       		.byte	0x5
 9594 03fa 00       		.uleb128 0
 9595 03fb 4F550000 		.4byte	.LASF169
 9596 03ff 05       		.byte	0x5
ARM GAS  /var/folders/f9/8bk2lnw15zn4cbgn6wrnb4lm0000gn/T//ccCGlkPS.s 			page 199


 9597 0400 00       		.uleb128 0
 9598 0401 64790000 		.4byte	.LASF170
 9599 0405 05       		.byte	0x5
 9600 0406 00       		.uleb128 0
 9601 0407 83060000 		.4byte	.LASF171
 9602 040b 05       		.byte	0x5
 9603 040c 00       		.uleb128 0
 9604 040d BA550000 		.4byte	.LASF172
 9605 0411 05       		.byte	0x5
 9606 0412 00       		.uleb128 0
 9607 0413 371A0000 		.4byte	.LASF173
 9608 0417 05       		.byte	0x5
 9609 0418 00       		.uleb128 0
 9610 0419 FF730000 		.4byte	.LASF174
 9611 041d 05       		.byte	0x5
 9612 041e 00       		.uleb128 0
 9613 041f 56310000 		.4byte	.LASF175
 9614 0423 05       		.byte	0x5
 9615 0424 00       		.uleb128 0
 9616 0425 694D0000 		.4byte	.LASF176
 9617 0429 05       		.byte	0x5
 9618 042a 00       		.uleb128 0
 9619 042b F7140000 		.4byte	.LASF177
 9620 042f 05       		.byte	0x5
 9621 0430 00       		.uleb128 0
 9622 0431 E21E0000 		.4byte	.LASF178
 9623 0435 05       		.byte	0x5
 9624 0436 00       		.uleb128 0
 9625 0437 81660000 		.4byte	.LASF179
 9626 043b 05       		.byte	0x5
 9627 043c 00       		.uleb128 0
 9628 043d 50020000 		.4byte	.LASF180
 9629 0441 05       		.byte	0x5
 9630 0442 00       		.uleb128 0
 9631 0443 D63A0000 		.4byte	.LASF181
 9632 0447 05       		.byte	0x5
 9633 0448 00       		.uleb128 0
 9634 0449 72650000 		.4byte	.LASF182
 9635 044d 05       		.byte	0x5
 9636 044e 00       		.uleb128 0
 9637 044f 8F010000 		.4byte	.LASF183
 9638 0453 05       		.byte	0x5
 9639 0454 00       		.uleb128 0
 9640 0455 E3760000 		.4byte	.LASF184
 9641 0459 05       		.byte	0x5
 9642 045a 00       		.uleb128 0
 9643 045b 9C360000 		.4byte	.LASF185
 9644 045f 05       		.byte	0x5
 9645 0460 00       		.uleb128 0
 9646 0461 69780000 		.4byte	.LASF186
 9647 0465 05       		.byte	0x5
 9648 0466 00       		.uleb128 0
 9649 0467 060E0000 		.4byte	.LASF187
 9650 046b 05       		.byte	0x5
 9651 046c 00       		.uleb128 0
 9652 046d 0D3B0000 		.4byte	.LASF188
 9653 0471 05       		.byte	0x5
ARM GAS  /var/folders/f9/8bk2lnw15zn4cbgn6wrnb4lm0000gn/T//ccCGlkPS.s 			page 200


 9654 0472 00       		.uleb128 0
 9655 0473 FF250000 		.4byte	.LASF189
 9656 0477 05       		.byte	0x5
 9657 0478 00       		.uleb128 0
 9658 0479 80260000 		.4byte	.LASF190
 9659 047d 05       		.byte	0x5
 9660 047e 00       		.uleb128 0
 9661 047f 2D0B0000 		.4byte	.LASF191
 9662 0483 05       		.byte	0x5
 9663 0484 00       		.uleb128 0
 9664 0485 87310000 		.4byte	.LASF192
 9665 0489 05       		.byte	0x5
 9666 048a 00       		.uleb128 0
 9667 048b 7C1C0000 		.4byte	.LASF193
 9668 048f 05       		.byte	0x5
 9669 0490 00       		.uleb128 0
 9670 0491 15580000 		.4byte	.LASF194
 9671 0495 05       		.byte	0x5
 9672 0496 00       		.uleb128 0
 9673 0497 58050000 		.4byte	.LASF195
 9674 049b 05       		.byte	0x5
 9675 049c 00       		.uleb128 0
 9676 049d F9470000 		.4byte	.LASF196
 9677 04a1 05       		.byte	0x5
 9678 04a2 00       		.uleb128 0
 9679 04a3 20390000 		.4byte	.LASF197
 9680 04a7 05       		.byte	0x5
 9681 04a8 00       		.uleb128 0
 9682 04a9 30680000 		.4byte	.LASF198
 9683 04ad 05       		.byte	0x5
 9684 04ae 00       		.uleb128 0
 9685 04af EA530000 		.4byte	.LASF199
 9686 04b3 05       		.byte	0x5
 9687 04b4 00       		.uleb128 0
 9688 04b5 C47B0000 		.4byte	.LASF200
 9689 04b9 05       		.byte	0x5
 9690 04ba 00       		.uleb128 0
 9691 04bb 38440000 		.4byte	.LASF201
 9692 04bf 05       		.byte	0x5
 9693 04c0 00       		.uleb128 0
 9694 04c1 9E3F0000 		.4byte	.LASF202
 9695 04c5 05       		.byte	0x5
 9696 04c6 00       		.uleb128 0
 9697 04c7 436D0000 		.4byte	.LASF203
 9698 04cb 05       		.byte	0x5
 9699 04cc 00       		.uleb128 0
 9700 04cd 3F540000 		.4byte	.LASF204
 9701 04d1 05       		.byte	0x5
 9702 04d2 00       		.uleb128 0
 9703 04d3 A2030000 		.4byte	.LASF205
 9704 04d7 05       		.byte	0x5
 9705 04d8 00       		.uleb128 0
 9706 04d9 C24B0000 		.4byte	.LASF206
 9707 04dd 05       		.byte	0x5
 9708 04de 00       		.uleb128 0
 9709 04df 794E0000 		.4byte	.LASF207
 9710 04e3 05       		.byte	0x5
ARM GAS  /var/folders/f9/8bk2lnw15zn4cbgn6wrnb4lm0000gn/T//ccCGlkPS.s 			page 201


 9711 04e4 00       		.uleb128 0
 9712 04e5 0D0D0000 		.4byte	.LASF208
 9713 04e9 05       		.byte	0x5
 9714 04ea 00       		.uleb128 0
 9715 04eb 3E7B0000 		.4byte	.LASF209
 9716 04ef 05       		.byte	0x5
 9717 04f0 00       		.uleb128 0
 9718 04f1 D95D0000 		.4byte	.LASF210
 9719 04f5 05       		.byte	0x5
 9720 04f6 00       		.uleb128 0
 9721 04f7 945A0000 		.4byte	.LASF211
 9722 04fb 05       		.byte	0x5
 9723 04fc 00       		.uleb128 0
 9724 04fd C1650000 		.4byte	.LASF212
 9725 0501 05       		.byte	0x5
 9726 0502 00       		.uleb128 0
 9727 0503 E4740000 		.4byte	.LASF213
 9728 0507 05       		.byte	0x5
 9729 0508 00       		.uleb128 0
 9730 0509 42710000 		.4byte	.LASF214
 9731 050d 05       		.byte	0x5
 9732 050e 00       		.uleb128 0
 9733 050f F66D0000 		.4byte	.LASF215
 9734 0513 05       		.byte	0x5
 9735 0514 00       		.uleb128 0
 9736 0515 C1630000 		.4byte	.LASF216
 9737 0519 05       		.byte	0x5
 9738 051a 00       		.uleb128 0
 9739 051b 39600000 		.4byte	.LASF217
 9740 051f 05       		.byte	0x5
 9741 0520 00       		.uleb128 0
 9742 0521 E9090000 		.4byte	.LASF218
 9743 0525 05       		.byte	0x5
 9744 0526 00       		.uleb128 0
 9745 0527 C13D0000 		.4byte	.LASF219
 9746 052b 05       		.byte	0x5
 9747 052c 00       		.uleb128 0
 9748 052d 98700000 		.4byte	.LASF220
 9749 0531 05       		.byte	0x5
 9750 0532 00       		.uleb128 0
 9751 0533 83160000 		.4byte	.LASF221
 9752 0537 05       		.byte	0x5
 9753 0538 00       		.uleb128 0
 9754 0539 5E6C0000 		.4byte	.LASF222
 9755 053d 05       		.byte	0x5
 9756 053e 00       		.uleb128 0
 9757 053f 78560000 		.4byte	.LASF223
 9758 0543 05       		.byte	0x5
 9759 0544 00       		.uleb128 0
 9760 0545 49160000 		.4byte	.LASF224
 9761 0549 05       		.byte	0x5
 9762 054a 00       		.uleb128 0
 9763 054b 725A0000 		.4byte	.LASF225
 9764 054f 05       		.byte	0x5
 9765 0550 00       		.uleb128 0
 9766 0551 B8640000 		.4byte	.LASF226
 9767 0555 05       		.byte	0x5
ARM GAS  /var/folders/f9/8bk2lnw15zn4cbgn6wrnb4lm0000gn/T//ccCGlkPS.s 			page 202


 9768 0556 00       		.uleb128 0
 9769 0557 06720000 		.4byte	.LASF227
 9770 055b 05       		.byte	0x5
 9771 055c 00       		.uleb128 0
 9772 055d 702C0000 		.4byte	.LASF228
 9773 0561 05       		.byte	0x5
 9774 0562 00       		.uleb128 0
 9775 0563 D8480000 		.4byte	.LASF229
 9776 0567 05       		.byte	0x5
 9777 0568 00       		.uleb128 0
 9778 0569 43510000 		.4byte	.LASF230
 9779 056d 05       		.byte	0x5
 9780 056e 00       		.uleb128 0
 9781 056f 73450000 		.4byte	.LASF231
 9782 0573 05       		.byte	0x5
 9783 0574 00       		.uleb128 0
 9784 0575 6F150000 		.4byte	.LASF232
 9785 0579 05       		.byte	0x5
 9786 057a 00       		.uleb128 0
 9787 057b 41130000 		.4byte	.LASF233
 9788 057f 05       		.byte	0x5
 9789 0580 00       		.uleb128 0
 9790 0581 6D670000 		.4byte	.LASF234
 9791 0585 05       		.byte	0x5
 9792 0586 00       		.uleb128 0
 9793 0587 3A040000 		.4byte	.LASF235
 9794 058b 05       		.byte	0x5
 9795 058c 00       		.uleb128 0
 9796 058d AC350000 		.4byte	.LASF236
 9797 0591 05       		.byte	0x5
 9798 0592 00       		.uleb128 0
 9799 0593 4C730000 		.4byte	.LASF237
 9800 0597 05       		.byte	0x5
 9801 0598 00       		.uleb128 0
 9802 0599 8B3F0000 		.4byte	.LASF238
 9803 059d 05       		.byte	0x5
 9804 059e 00       		.uleb128 0
 9805 059f CF130000 		.4byte	.LASF239
 9806 05a3 05       		.byte	0x5
 9807 05a4 00       		.uleb128 0
 9808 05a5 5A2F0000 		.4byte	.LASF240
 9809 05a9 05       		.byte	0x5
 9810 05aa 00       		.uleb128 0
 9811 05ab F6020000 		.4byte	.LASF241
 9812 05af 05       		.byte	0x5
 9813 05b0 00       		.uleb128 0
 9814 05b1 842B0000 		.4byte	.LASF242
 9815 05b5 05       		.byte	0x5
 9816 05b6 00       		.uleb128 0
 9817 05b7 342D0000 		.4byte	.LASF243
 9818 05bb 05       		.byte	0x5
 9819 05bc 00       		.uleb128 0
 9820 05bd AF660000 		.4byte	.LASF244
 9821 05c1 05       		.byte	0x5
 9822 05c2 00       		.uleb128 0
 9823 05c3 3B6E0000 		.4byte	.LASF245
 9824 05c7 05       		.byte	0x5
ARM GAS  /var/folders/f9/8bk2lnw15zn4cbgn6wrnb4lm0000gn/T//ccCGlkPS.s 			page 203


 9825 05c8 00       		.uleb128 0
 9826 05c9 77080000 		.4byte	.LASF246
 9827 05cd 05       		.byte	0x5
 9828 05ce 00       		.uleb128 0
 9829 05cf 1B020000 		.4byte	.LASF247
 9830 05d3 05       		.byte	0x5
 9831 05d4 00       		.uleb128 0
 9832 05d5 1C6B0000 		.4byte	.LASF248
 9833 05d9 05       		.byte	0x5
 9834 05da 00       		.uleb128 0
 9835 05db 13590000 		.4byte	.LASF249
 9836 05df 05       		.byte	0x5
 9837 05e0 00       		.uleb128 0
 9838 05e1 15400000 		.4byte	.LASF250
 9839 05e5 05       		.byte	0x5
 9840 05e6 00       		.uleb128 0
 9841 05e7 8E5D0000 		.4byte	.LASF251
 9842 05eb 05       		.byte	0x5
 9843 05ec 00       		.uleb128 0
 9844 05ed 67730000 		.4byte	.LASF252
 9845 05f1 05       		.byte	0x5
 9846 05f2 00       		.uleb128 0
 9847 05f3 CC610000 		.4byte	.LASF253
 9848 05f7 05       		.byte	0x5
 9849 05f8 00       		.uleb128 0
 9850 05f9 CF380000 		.4byte	.LASF254
 9851 05fd 05       		.byte	0x5
 9852 05fe 00       		.uleb128 0
 9853 05ff F4010000 		.4byte	.LASF255
 9854 0603 05       		.byte	0x5
 9855 0604 00       		.uleb128 0
 9856 0605 1E320000 		.4byte	.LASF256
 9857 0609 05       		.byte	0x5
 9858 060a 00       		.uleb128 0
 9859 060b 2F5C0000 		.4byte	.LASF257
 9860 060f 05       		.byte	0x5
 9861 0610 00       		.uleb128 0
 9862 0611 00220000 		.4byte	.LASF258
 9863 0615 05       		.byte	0x5
 9864 0616 00       		.uleb128 0
 9865 0617 216D0000 		.4byte	.LASF259
 9866 061b 05       		.byte	0x5
 9867 061c 00       		.uleb128 0
 9868 061d 300F0000 		.4byte	.LASF260
 9869 0621 05       		.byte	0x5
 9870 0622 00       		.uleb128 0
 9871 0623 73050000 		.4byte	.LASF261
 9872 0627 05       		.byte	0x5
 9873 0628 00       		.uleb128 0
 9874 0629 34290000 		.4byte	.LASF262
 9875 062d 05       		.byte	0x5
 9876 062e 00       		.uleb128 0
 9877 062f 206C0000 		.4byte	.LASF263
 9878 0633 05       		.byte	0x5
 9879 0634 00       		.uleb128 0
 9880 0635 45610000 		.4byte	.LASF264
 9881 0639 05       		.byte	0x5
ARM GAS  /var/folders/f9/8bk2lnw15zn4cbgn6wrnb4lm0000gn/T//ccCGlkPS.s 			page 204


 9882 063a 00       		.uleb128 0
 9883 063b BC750000 		.4byte	.LASF265
 9884 063f 05       		.byte	0x5
 9885 0640 00       		.uleb128 0
 9886 0641 502C0000 		.4byte	.LASF266
 9887 0645 05       		.byte	0x5
 9888 0646 00       		.uleb128 0
 9889 0647 880E0000 		.4byte	.LASF267
 9890 064b 05       		.byte	0x5
 9891 064c 00       		.uleb128 0
 9892 064d 47060000 		.4byte	.LASF268
 9893 0651 05       		.byte	0x5
 9894 0652 00       		.uleb128 0
 9895 0653 CB590000 		.4byte	.LASF269
 9896 0657 05       		.byte	0x5
 9897 0658 00       		.uleb128 0
 9898 0659 FA5D0000 		.4byte	.LASF270
 9899 065d 05       		.byte	0x5
 9900 065e 00       		.uleb128 0
 9901 065f FA200000 		.4byte	.LASF271
 9902 0663 05       		.byte	0x5
 9903 0664 00       		.uleb128 0
 9904 0665 3D030000 		.4byte	.LASF272
 9905 0669 05       		.byte	0x5
 9906 066a 00       		.uleb128 0
 9907 066b D84A0000 		.4byte	.LASF273
 9908 066f 05       		.byte	0x5
 9909 0670 00       		.uleb128 0
 9910 0671 E83F0000 		.4byte	.LASF274
 9911 0675 05       		.byte	0x5
 9912 0676 00       		.uleb128 0
 9913 0677 D90E0000 		.4byte	.LASF275
 9914 067b 05       		.byte	0x5
 9915 067c 00       		.uleb128 0
 9916 067d 65620000 		.4byte	.LASF276
 9917 0681 05       		.byte	0x5
 9918 0682 00       		.uleb128 0
 9919 0683 360E0000 		.4byte	.LASF277
 9920 0687 05       		.byte	0x5
 9921 0688 00       		.uleb128 0
 9922 0689 2E620000 		.4byte	.LASF278
 9923 068d 05       		.byte	0x5
 9924 068e 00       		.uleb128 0
 9925 068f CC460000 		.4byte	.LASF279
 9926 0693 05       		.byte	0x5
 9927 0694 00       		.uleb128 0
 9928 0695 22710000 		.4byte	.LASF280
 9929 0699 05       		.byte	0x5
 9930 069a 00       		.uleb128 0
 9931 069b BE5B0000 		.4byte	.LASF281
 9932 069f 05       		.byte	0x5
 9933 06a0 00       		.uleb128 0
 9934 06a1 F95F0000 		.4byte	.LASF282
 9935 06a5 05       		.byte	0x5
 9936 06a6 00       		.uleb128 0
 9937 06a7 E0240000 		.4byte	.LASF283
 9938 06ab 05       		.byte	0x5
ARM GAS  /var/folders/f9/8bk2lnw15zn4cbgn6wrnb4lm0000gn/T//ccCGlkPS.s 			page 205


 9939 06ac 00       		.uleb128 0
 9940 06ad 75410000 		.4byte	.LASF284
 9941 06b1 05       		.byte	0x5
 9942 06b2 00       		.uleb128 0
 9943 06b3 2A600000 		.4byte	.LASF285
 9944 06b7 05       		.byte	0x5
 9945 06b8 00       		.uleb128 0
 9946 06b9 CC360000 		.4byte	.LASF286
 9947 06bd 05       		.byte	0x5
 9948 06be 00       		.uleb128 0
 9949 06bf 6D280000 		.4byte	.LASF287
 9950 06c3 05       		.byte	0x5
 9951 06c4 00       		.uleb128 0
 9952 06c5 30790000 		.4byte	.LASF288
 9953 06c9 05       		.byte	0x5
 9954 06ca 00       		.uleb128 0
 9955 06cb F62D0000 		.4byte	.LASF289
 9956 06cf 05       		.byte	0x5
 9957 06d0 00       		.uleb128 0
 9958 06d1 3B010000 		.4byte	.LASF290
 9959 06d5 05       		.byte	0x5
 9960 06d6 00       		.uleb128 0
 9961 06d7 C0440000 		.4byte	.LASF291
 9962 06db 05       		.byte	0x5
 9963 06dc 00       		.uleb128 0
 9964 06dd 1F730000 		.4byte	.LASF292
 9965 06e1 05       		.byte	0x5
 9966 06e2 00       		.uleb128 0
 9967 06e3 CD4D0000 		.4byte	.LASF293
 9968 06e7 05       		.byte	0x5
 9969 06e8 00       		.uleb128 0
 9970 06e9 AE230000 		.4byte	.LASF294
 9971 06ed 05       		.byte	0x5
 9972 06ee 00       		.uleb128 0
 9973 06ef 55150000 		.4byte	.LASF295
 9974 06f3 05       		.byte	0x5
 9975 06f4 00       		.uleb128 0
 9976 06f5 90680000 		.4byte	.LASF296
 9977 06f9 05       		.byte	0x5
 9978 06fa 00       		.uleb128 0
 9979 06fb A60E0000 		.4byte	.LASF297
 9980 06ff 05       		.byte	0x5
 9981 0700 00       		.uleb128 0
 9982 0701 116D0000 		.4byte	.LASF298
 9983 0705 05       		.byte	0x5
 9984 0706 00       		.uleb128 0
 9985 0707 5D650000 		.4byte	.LASF299
 9986 070b 05       		.byte	0x5
 9987 070c 00       		.uleb128 0
 9988 070d 91320000 		.4byte	.LASF300
 9989 0711 05       		.byte	0x5
 9990 0712 00       		.uleb128 0
 9991 0713 9D410000 		.4byte	.LASF301
 9992 0717 05       		.byte	0x5
 9993 0718 00       		.uleb128 0
 9994 0719 CD620000 		.4byte	.LASF302
 9995 071d 05       		.byte	0x5
ARM GAS  /var/folders/f9/8bk2lnw15zn4cbgn6wrnb4lm0000gn/T//ccCGlkPS.s 			page 206


 9996 071e 00       		.uleb128 0
 9997 071f DB150000 		.4byte	.LASF303
 9998 0723 05       		.byte	0x5
 9999 0724 00       		.uleb128 0
 10000 0725 3F4E0000 		.4byte	.LASF304
 10001 0729 05       		.byte	0x5
 10002 072a 00       		.uleb128 0
 10003 072b 563B0000 		.4byte	.LASF305
 10004 072f 05       		.byte	0x5
 10005 0730 00       		.uleb128 0
 10006 0731 C71C0000 		.4byte	.LASF306
 10007 0735 05       		.byte	0x5
 10008 0736 00       		.uleb128 0
 10009 0737 1A010000 		.4byte	.LASF307
 10010 073b 05       		.byte	0x5
 10011 073c 00       		.uleb128 0
 10012 073d EA2B0000 		.4byte	.LASF308
 10013 0741 05       		.byte	0x5
 10014 0742 00       		.uleb128 0
 10015 0743 90620000 		.4byte	.LASF309
 10016 0747 05       		.byte	0x5
 10017 0748 00       		.uleb128 0
 10018 0749 F73F0000 		.4byte	.LASF310
 10019 074d 05       		.byte	0x5
 10020 074e 00       		.uleb128 0
 10021 074f 5E250000 		.4byte	.LASF311
 10022 0753 05       		.byte	0x5
 10023 0754 00       		.uleb128 0
 10024 0755 832C0000 		.4byte	.LASF312
 10025 0759 05       		.byte	0x5
 10026 075a 00       		.uleb128 0
 10027 075b DF540000 		.4byte	.LASF313
 10028 075f 05       		.byte	0x5
 10029 0760 00       		.uleb128 0
 10030 0761 6C360000 		.4byte	.LASF314
 10031 0765 05       		.byte	0x5
 10032 0766 00       		.uleb128 0
 10033 0767 3E230000 		.4byte	.LASF315
 10034 076b 05       		.byte	0x5
 10035 076c 00       		.uleb128 0
 10036 076d 2B430000 		.4byte	.LASF316
 10037 0771 05       		.byte	0x5
 10038 0772 00       		.uleb128 0
 10039 0773 886D0000 		.4byte	.LASF317
 10040 0777 05       		.byte	0x5
 10041 0778 00       		.uleb128 0
 10042 0779 E24B0000 		.4byte	.LASF318
 10043 077d 05       		.byte	0x5
 10044 077e 00       		.uleb128 0
 10045 077f DF070000 		.4byte	.LASF319
 10046 0783 05       		.byte	0x5
 10047 0784 00       		.uleb128 0
 10048 0785 BD120000 		.4byte	.LASF320
 10049 0789 05       		.byte	0x5
 10050 078a 00       		.uleb128 0
 10051 078b 09070000 		.4byte	.LASF321
 10052 078f 05       		.byte	0x5
ARM GAS  /var/folders/f9/8bk2lnw15zn4cbgn6wrnb4lm0000gn/T//ccCGlkPS.s 			page 207


 10053 0790 00       		.uleb128 0
 10054 0791 1C4F0000 		.4byte	.LASF322
 10055 0795 05       		.byte	0x5
 10056 0796 00       		.uleb128 0
 10057 0797 4E5D0000 		.4byte	.LASF323
 10058 079b 05       		.byte	0x5
 10059 079c 00       		.uleb128 0
 10060 079d 68590000 		.4byte	.LASF324
 10061 07a1 05       		.byte	0x5
 10062 07a2 00       		.uleb128 0
 10063 07a3 38750000 		.4byte	.LASF325
 10064 07a7 05       		.byte	0x5
 10065 07a8 00       		.uleb128 0
 10066 07a9 BA520000 		.4byte	.LASF326
 10067 07ad 05       		.byte	0x5
 10068 07ae 00       		.uleb128 0
 10069 07af DC6B0000 		.4byte	.LASF327
 10070 07b3 05       		.byte	0x5
 10071 07b4 00       		.uleb128 0
 10072 07b5 13210000 		.4byte	.LASF328
 10073 07b9 05       		.byte	0x5
 10074 07ba 00       		.uleb128 0
 10075 07bb C4370000 		.4byte	.LASF329
 10076 07bf 05       		.byte	0x5
 10077 07c0 00       		.uleb128 0
 10078 07c1 A12B0000 		.4byte	.LASF330
 10079 07c5 05       		.byte	0x5
 10080 07c6 00       		.uleb128 0
 10081 07c7 CE5F0000 		.4byte	.LASF331
 10082 07cb 05       		.byte	0x5
 10083 07cc 00       		.uleb128 0
 10084 07cd 19060000 		.4byte	.LASF332
 10085 07d1 05       		.byte	0x5
 10086 07d2 00       		.uleb128 0
 10087 07d3 440A0000 		.4byte	.LASF333
 10088 07d7 05       		.byte	0x5
 10089 07d8 00       		.uleb128 0
 10090 07d9 FA650000 		.4byte	.LASF334
 10091 07dd 05       		.byte	0x5
 10092 07de 00       		.uleb128 0
 10093 07df 912E0000 		.4byte	.LASF335
 10094 07e3 05       		.byte	0x5
 10095 07e4 00       		.uleb128 0
 10096 07e5 7D6E0000 		.4byte	.LASF336
 10097 07e9 05       		.byte	0x5
 10098 07ea 00       		.uleb128 0
 10099 07eb B5390000 		.4byte	.LASF337
 10100 07ef 05       		.byte	0x5
 10101 07f0 00       		.uleb128 0
 10102 07f1 D6600000 		.4byte	.LASF338
 10103 07f5 05       		.byte	0x5
 10104 07f6 00       		.uleb128 0
 10105 07f7 AD210000 		.4byte	.LASF339
 10106 07fb 05       		.byte	0x5
 10107 07fc 00       		.uleb128 0
 10108 07fd F66F0000 		.4byte	.LASF340
 10109 0801 00       		.byte	0
ARM GAS  /var/folders/f9/8bk2lnw15zn4cbgn6wrnb4lm0000gn/T//ccCGlkPS.s 			page 208


 10110              		.section	.debug_macro,"G",%progbits,wm4.features.h.22.6a4ca7cd053637cc1d0db6c16f39b2d7,comdat
 10111              	.Ldebug_macro2:
 10112 0000 0400     		.2byte	0x4
 10113 0002 00       		.byte	0
 10114 0003 05       		.byte	0x5
 10115 0004 16       		.uleb128 0x16
 10116 0005 B3220000 		.4byte	.LASF345
 10117 0009 05       		.byte	0x5
 10118 000a 1F       		.uleb128 0x1f
 10119 000b 53130000 		.4byte	.LASF346
 10120 000f 05       		.byte	0x5
 10121 0010 26       		.uleb128 0x26
 10122 0011 CA6C0000 		.4byte	.LASF347
 10123 0015 00       		.byte	0
 10124              		.section	.debug_macro,"G",%progbits,wm4._default_types.h.15.8b2cb27e528498f8ff711db085d6e489,comda
 10125              	.Ldebug_macro3:
 10126 0000 0400     		.2byte	0x4
 10127 0002 00       		.byte	0
 10128 0003 05       		.byte	0x5
 10129 0004 0F       		.uleb128 0xf
 10130 0005 13450000 		.4byte	.LASF348
 10131 0009 05       		.byte	0x5
 10132 000a 1D       		.uleb128 0x1d
 10133 000b 88360000 		.4byte	.LASF349
 10134 000f 05       		.byte	0x5
 10135 0010 27       		.uleb128 0x27
 10136 0011 DF260000 		.4byte	.LASF350
 10137 0015 05       		.byte	0x5
 10138 0016 39       		.uleb128 0x39
 10139 0017 80420000 		.4byte	.LASF351
 10140 001b 05       		.byte	0x5
 10141 001c 4F       		.uleb128 0x4f
 10142 001d 4D560000 		.4byte	.LASF352
 10143 0021 05       		.byte	0x5
 10144 0022 6A       		.uleb128 0x6a
 10145 0023 144C0000 		.4byte	.LASF353
 10146 0027 05       		.byte	0x5
 10147 0028 8001     		.uleb128 0x80
 10148 002a C2140000 		.4byte	.LASF354
 10149 002e 05       		.byte	0x5
 10150 002f 9201     		.uleb128 0x92
 10151 0031 36180000 		.4byte	.LASF355
 10152 0035 05       		.byte	0x5
 10153 0036 A001     		.uleb128 0xa0
 10154 0038 3E720000 		.4byte	.LASF356
 10155 003c 06       		.byte	0x6
 10156 003d B201     		.uleb128 0xb2
 10157 003f 2C560000 		.4byte	.LASF357
 10158 0043 00       		.byte	0
 10159              		.section	.debug_macro,"G",%progbits,wm4.stdint.h.20.796e373797e732130a803d4c0338fa1b,comdat
 10160              	.Ldebug_macro4:
 10161 0000 0400     		.2byte	0x4
 10162 0002 00       		.byte	0
 10163 0003 05       		.byte	0x5
 10164 0004 14       		.uleb128 0x14
 10165 0005 F7440000 		.4byte	.LASF358
 10166 0009 05       		.byte	0x5
ARM GAS  /var/folders/f9/8bk2lnw15zn4cbgn6wrnb4lm0000gn/T//ccCGlkPS.s 			page 209


 10167 000a 1E       		.uleb128 0x1e
 10168 000b 7E5C0000 		.4byte	.LASF359
 10169 000f 05       		.byte	0x5
 10170 0010 25       		.uleb128 0x25
 10171 0011 C16A0000 		.4byte	.LASF360
 10172 0015 05       		.byte	0x5
 10173 0016 2B       		.uleb128 0x2b
 10174 0017 4D270000 		.4byte	.LASF361
 10175 001b 05       		.byte	0x5
 10176 001c 31       		.uleb128 0x31
 10177 001d 0D770000 		.4byte	.LASF362
 10178 0021 05       		.byte	0x5
 10179 0022 37       		.uleb128 0x37
 10180 0023 AD3D0000 		.4byte	.LASF363
 10181 0027 05       		.byte	0x5
 10182 0028 3D       		.uleb128 0x3d
 10183 0029 6A2B0000 		.4byte	.LASF364
 10184 002d 05       		.byte	0x5
 10185 002e 43       		.uleb128 0x43
 10186 002f D1370000 		.4byte	.LASF365
 10187 0033 05       		.byte	0x5
 10188 0034 49       		.uleb128 0x49
 10189 0035 77320000 		.4byte	.LASF366
 10190 0039 05       		.byte	0x5
 10191 003a 4F       		.uleb128 0x4f
 10192 003b AE6B0000 		.4byte	.LASF367
 10193 003f 05       		.byte	0x5
 10194 0040 55       		.uleb128 0x55
 10195 0041 B0300000 		.4byte	.LASF368
 10196 0045 05       		.byte	0x5
 10197 0046 61       		.uleb128 0x61
 10198 0047 DA4C0000 		.4byte	.LASF369
 10199 004b 05       		.byte	0x5
 10200 004c 6B       		.uleb128 0x6b
 10201 004d EC460000 		.4byte	.LASF370
 10202 0051 05       		.byte	0x5
 10203 0052 75       		.uleb128 0x75
 10204 0053 740D0000 		.4byte	.LASF371
 10205 0057 05       		.byte	0x5
 10206 0058 7F       		.uleb128 0x7f
 10207 0059 74210000 		.4byte	.LASF372
 10208 005d 05       		.byte	0x5
 10209 005e C201     		.uleb128 0xc2
 10210 0060 592E0000 		.4byte	.LASF373
 10211 0064 05       		.byte	0x5
 10212 0065 C301     		.uleb128 0xc3
 10213 0067 CA6F0000 		.4byte	.LASF374
 10214 006b 05       		.byte	0x5
 10215 006c C401     		.uleb128 0xc4
 10216 006e 741D0000 		.4byte	.LASF375
 10217 0072 05       		.byte	0x5
 10218 0073 DA01     		.uleb128 0xda
 10219 0075 77330000 		.4byte	.LASF376
 10220 0079 05       		.byte	0x5
 10221 007a DB01     		.uleb128 0xdb
 10222 007c 43500000 		.4byte	.LASF377
 10223 0080 05       		.byte	0x5
ARM GAS  /var/folders/f9/8bk2lnw15zn4cbgn6wrnb4lm0000gn/T//ccCGlkPS.s 			page 210


 10224 0081 DC01     		.uleb128 0xdc
 10225 0083 5F170000 		.4byte	.LASF378
 10226 0087 05       		.byte	0x5
 10227 0088 E401     		.uleb128 0xe4
 10228 008a D16A0000 		.4byte	.LASF379
 10229 008e 05       		.byte	0x5
 10230 008f E501     		.uleb128 0xe5
 10231 0091 73290000 		.4byte	.LASF380
 10232 0095 05       		.byte	0x5
 10233 0096 E601     		.uleb128 0xe6
 10234 0098 82530000 		.4byte	.LASF381
 10235 009c 05       		.byte	0x5
 10236 009d F001     		.uleb128 0xf0
 10237 009f 24500000 		.4byte	.LASF382
 10238 00a3 05       		.byte	0x5
 10239 00a4 F101     		.uleb128 0xf1
 10240 00a6 B92F0000 		.4byte	.LASF383
 10241 00aa 05       		.byte	0x5
 10242 00ab F201     		.uleb128 0xf2
 10243 00ad 052E0000 		.4byte	.LASF384
 10244 00b1 05       		.byte	0x5
 10245 00b2 FA01     		.uleb128 0xfa
 10246 00b4 7E430000 		.4byte	.LASF385
 10247 00b8 05       		.byte	0x5
 10248 00b9 FB01     		.uleb128 0xfb
 10249 00bb 8D4B0000 		.4byte	.LASF386
 10250 00bf 05       		.byte	0x5
 10251 00c0 FC01     		.uleb128 0xfc
 10252 00c2 BF5E0000 		.4byte	.LASF387
 10253 00c6 05       		.byte	0x5
 10254 00c7 8602     		.uleb128 0x106
 10255 00c9 E0600000 		.4byte	.LASF388
 10256 00cd 05       		.byte	0x5
 10257 00ce 8702     		.uleb128 0x107
 10258 00d0 733F0000 		.4byte	.LASF389
 10259 00d4 05       		.byte	0x5
 10260 00d5 8802     		.uleb128 0x108
 10261 00d7 9D0C0000 		.4byte	.LASF390
 10262 00db 05       		.byte	0x5
 10263 00dc 9602     		.uleb128 0x116
 10264 00de CB660000 		.4byte	.LASF391
 10265 00e2 05       		.byte	0x5
 10266 00e3 9702     		.uleb128 0x117
 10267 00e5 53330000 		.4byte	.LASF392
 10268 00e9 05       		.byte	0x5
 10269 00ea 9802     		.uleb128 0x118
 10270 00ec 72690000 		.4byte	.LASF393
 10271 00f0 05       		.byte	0x5
 10272 00f1 A802     		.uleb128 0x128
 10273 00f3 C3680000 		.4byte	.LASF394
 10274 00f7 05       		.byte	0x5
 10275 00f8 A902     		.uleb128 0x129
 10276 00fa 38020000 		.4byte	.LASF395
 10277 00fe 05       		.byte	0x5
 10278 00ff AA02     		.uleb128 0x12a
 10279 0101 0F4D0000 		.4byte	.LASF396
 10280 0105 05       		.byte	0x5
ARM GAS  /var/folders/f9/8bk2lnw15zn4cbgn6wrnb4lm0000gn/T//ccCGlkPS.s 			page 211


 10281 0106 B802     		.uleb128 0x138
 10282 0108 51110000 		.4byte	.LASF397
 10283 010c 05       		.byte	0x5
 10284 010d B902     		.uleb128 0x139
 10285 010f B00D0000 		.4byte	.LASF398
 10286 0113 05       		.byte	0x5
 10287 0114 BA02     		.uleb128 0x13a
 10288 0116 4C690000 		.4byte	.LASF399
 10289 011a 05       		.byte	0x5
 10290 011b C802     		.uleb128 0x148
 10291 011d FA480000 		.4byte	.LASF400
 10292 0121 05       		.byte	0x5
 10293 0122 C902     		.uleb128 0x149
 10294 0124 EB320000 		.4byte	.LASF401
 10295 0128 05       		.byte	0x5
 10296 0129 CA02     		.uleb128 0x14a
 10297 012b 1B170000 		.4byte	.LASF402
 10298 012f 05       		.byte	0x5
 10299 0130 D802     		.uleb128 0x158
 10300 0132 B6070000 		.4byte	.LASF403
 10301 0136 05       		.byte	0x5
 10302 0137 D902     		.uleb128 0x159
 10303 0139 5D750000 		.4byte	.LASF404
 10304 013d 05       		.byte	0x5
 10305 013e DA02     		.uleb128 0x15a
 10306 0140 35740000 		.4byte	.LASF405
 10307 0144 05       		.byte	0x5
 10308 0145 E802     		.uleb128 0x168
 10309 0147 94120000 		.4byte	.LASF406
 10310 014b 05       		.byte	0x5
 10311 014c E902     		.uleb128 0x169
 10312 014e 08600000 		.4byte	.LASF407
 10313 0152 05       		.byte	0x5
 10314 0153 EA02     		.uleb128 0x16a
 10315 0155 68570000 		.4byte	.LASF408
 10316 0159 05       		.byte	0x5
 10317 015a F802     		.uleb128 0x178
 10318 015c C5500000 		.4byte	.LASF409
 10319 0160 05       		.byte	0x5
 10320 0161 F902     		.uleb128 0x179
 10321 0163 6A090000 		.4byte	.LASF410
 10322 0167 05       		.byte	0x5
 10323 0168 FA02     		.uleb128 0x17a
 10324 016a 4F450000 		.4byte	.LASF411
 10325 016e 05       		.byte	0x5
 10326 016f 8803     		.uleb128 0x188
 10327 0171 E9410000 		.4byte	.LASF412
 10328 0175 05       		.byte	0x5
 10329 0176 8903     		.uleb128 0x189
 10330 0178 624C0000 		.4byte	.LASF413
 10331 017c 05       		.byte	0x5
 10332 017d 9103     		.uleb128 0x191
 10333 017f F62E0000 		.4byte	.LASF414
 10334 0183 05       		.byte	0x5
 10335 0184 9903     		.uleb128 0x199
 10336 0186 44140000 		.4byte	.LASF415
 10337 018a 05       		.byte	0x5
ARM GAS  /var/folders/f9/8bk2lnw15zn4cbgn6wrnb4lm0000gn/T//ccCGlkPS.s 			page 212


 10338 018b 9F03     		.uleb128 0x19f
 10339 018d D12F0000 		.4byte	.LASF416
 10340 0191 05       		.byte	0x5
 10341 0192 A003     		.uleb128 0x1a0
 10342 0194 964E0000 		.4byte	.LASF417
 10343 0198 05       		.byte	0x5
 10344 0199 A403     		.uleb128 0x1a4
 10345 019b E75C0000 		.4byte	.LASF418
 10346 019f 05       		.byte	0x5
 10347 01a0 A803     		.uleb128 0x1a8
 10348 01a2 D8230000 		.4byte	.LASF419
 10349 01a6 05       		.byte	0x5
 10350 01a7 AB03     		.uleb128 0x1ab
 10351 01a9 6C120000 		.4byte	.LASF420
 10352 01ad 05       		.byte	0x5
 10353 01ae AE03     		.uleb128 0x1ae
 10354 01b0 1E530000 		.4byte	.LASF421
 10355 01b4 05       		.byte	0x5
 10356 01b5 B303     		.uleb128 0x1b3
 10357 01b7 76230000 		.4byte	.LASF422
 10358 01bb 05       		.byte	0x5
 10359 01bc B803     		.uleb128 0x1b8
 10360 01be 57030000 		.4byte	.LASF423
 10361 01c2 05       		.byte	0x5
 10362 01c3 BF03     		.uleb128 0x1bf
 10363 01c5 98380000 		.4byte	.LASF424
 10364 01c9 05       		.byte	0x5
 10365 01ca C003     		.uleb128 0x1c0
 10366 01cc 3C6A0000 		.4byte	.LASF425
 10367 01d0 05       		.byte	0x5
 10368 01d1 CB03     		.uleb128 0x1cb
 10369 01d3 DE670000 		.4byte	.LASF426
 10370 01d7 05       		.byte	0x5
 10371 01d8 CC03     		.uleb128 0x1cc
 10372 01da 55710000 		.4byte	.LASF427
 10373 01de 05       		.byte	0x5
 10374 01df D703     		.uleb128 0x1d7
 10375 01e1 A9630000 		.4byte	.LASF428
 10376 01e5 05       		.byte	0x5
 10377 01e6 D803     		.uleb128 0x1d8
 10378 01e8 4D480000 		.4byte	.LASF429
 10379 01ec 05       		.byte	0x5
 10380 01ed E403     		.uleb128 0x1e4
 10381 01ef 3B330000 		.4byte	.LASF430
 10382 01f3 05       		.byte	0x5
 10383 01f4 E503     		.uleb128 0x1e5
 10384 01f6 B2610000 		.4byte	.LASF431
 10385 01fa 05       		.byte	0x5
 10386 01fb F403     		.uleb128 0x1f4
 10387 01fd BE230000 		.4byte	.LASF432
 10388 0201 05       		.byte	0x5
 10389 0202 F503     		.uleb128 0x1f5
 10390 0204 06560000 		.4byte	.LASF433
 10391 0208 00       		.byte	0
 10392              		.section	.debug_macro,"G",%progbits,wm4.stdbool.h.29.1c9ee6859ce8145f7838a4f2549ccec2,comdat
 10393              	.Ldebug_macro5:
 10394 0000 0400     		.2byte	0x4
ARM GAS  /var/folders/f9/8bk2lnw15zn4cbgn6wrnb4lm0000gn/T//ccCGlkPS.s 			page 213


 10395 0002 00       		.byte	0
 10396 0003 05       		.byte	0x5
 10397 0004 1D       		.uleb128 0x1d
 10398 0005 F41D0000 		.4byte	.LASF435
 10399 0009 05       		.byte	0x5
 10400 000a 21       		.uleb128 0x21
 10401 000b 9D2E0000 		.4byte	.LASF436
 10402 000f 05       		.byte	0x5
 10403 0010 22       		.uleb128 0x22
 10404 0011 B64D0000 		.4byte	.LASF437
 10405 0015 05       		.byte	0x5
 10406 0016 23       		.uleb128 0x23
 10407 0017 092C0000 		.4byte	.LASF438
 10408 001b 05       		.byte	0x5
 10409 001c 30       		.uleb128 0x30
 10410 001d CB750000 		.4byte	.LASF439
 10411 0021 00       		.byte	0
 10412              		.section	.debug_macro,"G",%progbits,wm4.lpc_types.h.63.860ba57581a002825766a7c2ac00d549,comdat
 10413              	.Ldebug_macro6:
 10414 0000 0400     		.2byte	0x4
 10415 0002 00       		.byte	0
 10416 0003 05       		.byte	0x5
 10417 0004 3F       		.uleb128 0x3f
 10418 0005 99170000 		.4byte	.LASF440
 10419 0009 05       		.byte	0x5
 10420 000a 45       		.uleb128 0x45
 10421 000b DC080000 		.4byte	.LASF441
 10422 000f 06       		.byte	0x6
 10423 0010 66       		.uleb128 0x66
 10424 0011 BD000000 		.4byte	.LASF442
 10425 0015 05       		.byte	0x5
 10426 0016 68       		.uleb128 0x68
 10427 0017 12260000 		.4byte	.LASF443
 10428 001b 06       		.byte	0x6
 10429 001c 6E       		.uleb128 0x6e
 10430 001d 572A0000 		.4byte	.LASF444
 10431 0021 05       		.byte	0x5
 10432 0022 70       		.uleb128 0x70
 10433 0023 B01C0000 		.4byte	.LASF445
 10434 0027 06       		.byte	0x6
 10435 0028 7F       		.uleb128 0x7f
 10436 0029 B7310000 		.4byte	.LASF446
 10437 002d 05       		.byte	0x5
 10438 002e 8101     		.uleb128 0x81
 10439 0030 4E6F0000 		.4byte	.LASF447
 10440 0034 05       		.byte	0x5
 10441 0035 8501     		.uleb128 0x85
 10442 0037 31550000 		.4byte	.LASF448
 10443 003b 05       		.byte	0x5
 10444 003c 8901     		.uleb128 0x89
 10445 003e 60460000 		.4byte	.LASF449
 10446 0042 05       		.byte	0x5
 10447 0043 8C01     		.uleb128 0x8c
 10448 0045 D3220000 		.4byte	.LASF450
 10449 0049 05       		.byte	0x5
 10450 004a 8E01     		.uleb128 0x8e
 10451 004c 3B390000 		.4byte	.LASF451
ARM GAS  /var/folders/f9/8bk2lnw15zn4cbgn6wrnb4lm0000gn/T//ccCGlkPS.s 			page 214


 10452 0050 05       		.byte	0x5
 10453 0051 9101     		.uleb128 0x91
 10454 0053 190B0000 		.4byte	.LASF452
 10455 0057 05       		.byte	0x5
 10456 0058 9401     		.uleb128 0x94
 10457 005a 53680000 		.4byte	.LASF453
 10458 005e 05       		.byte	0x5
 10459 005f 9701     		.uleb128 0x97
 10460 0061 90220000 		.4byte	.LASF454
 10461 0065 05       		.byte	0x5
 10462 0066 D001     		.uleb128 0xd0
 10463 0068 7F6C0000 		.4byte	.LASF455
 10464 006c 00       		.byte	0
 10465              		.section	.debug_macro,"G",%progbits,wm4.sys_config.h.31.9f234e9c90333d233c7e647ebe63e928,comdat
 10466              	.Ldebug_macro7:
 10467 0000 0400     		.2byte	0x4
 10468 0002 00       		.byte	0
 10469 0003 05       		.byte	0x5
 10470 0004 1F       		.uleb128 0x1f
 10471 0005 D03C0000 		.4byte	.LASF456
 10472 0009 05       		.byte	0x5
 10473 000a 26       		.uleb128 0x26
 10474 000b 161C0000 		.4byte	.LASF457
 10475 000f 00       		.byte	0
 10476              		.section	.debug_macro,"G",%progbits,wm4.cmsis_11cxx.h.33.407e9bbb5d170cd1552d3f7dc3fd5c42,comdat
 10477              	.Ldebug_macro8:
 10478 0000 0400     		.2byte	0x4
 10479 0002 00       		.byte	0
 10480 0003 05       		.byte	0x5
 10481 0004 21       		.uleb128 0x21
 10482 0005 73760000 		.4byte	.LASF459
 10483 0009 05       		.byte	0x5
 10484 000a 8801     		.uleb128 0x88
 10485 000c D6390000 		.4byte	.LASF460
 10486 0010 05       		.byte	0x5
 10487 0011 8901     		.uleb128 0x89
 10488 0013 B7720000 		.4byte	.LASF461
 10489 0017 05       		.byte	0x5
 10490 0018 8A01     		.uleb128 0x8a
 10491 001a 6B540000 		.4byte	.LASF462
 10492 001e 00       		.byte	0
 10493              		.section	.debug_macro,"G",%progbits,wm4.core_cm0.h.32.192d13cfa8b31e63c86621de62eb153f,comdat
 10494              	.Ldebug_macro9:
 10495 0000 0400     		.2byte	0x4
 10496 0002 00       		.byte	0
 10497 0003 05       		.byte	0x5
 10498 0004 20       		.uleb128 0x20
 10499 0005 D15C0000 		.4byte	.LASF463
 10500 0009 05       		.byte	0x5
 10501 000a 38       		.uleb128 0x38
 10502 000b FE520000 		.4byte	.LASF464
 10503 000f 05       		.byte	0x5
 10504 0010 39       		.uleb128 0x39
 10505 0011 696D0000 		.4byte	.LASF465
 10506 0015 05       		.byte	0x5
 10507 0016 3A       		.uleb128 0x3a
 10508 0017 101F0000 		.4byte	.LASF466
ARM GAS  /var/folders/f9/8bk2lnw15zn4cbgn6wrnb4lm0000gn/T//ccCGlkPS.s 			page 215


 10509 001b 05       		.byte	0x5
 10510 001c 3D       		.uleb128 0x3d
 10511 001d 5E2C0000 		.4byte	.LASF467
 10512 0021 05       		.byte	0x5
 10513 0022 4B       		.uleb128 0x4b
 10514 0023 EC0F0000 		.4byte	.LASF468
 10515 0027 05       		.byte	0x5
 10516 0028 4C       		.uleb128 0x4c
 10517 0029 DC460000 		.4byte	.LASF469
 10518 002d 05       		.byte	0x5
 10519 002e 4D       		.uleb128 0x4d
 10520 002f C23E0000 		.4byte	.LASF470
 10521 0033 05       		.byte	0x5
 10522 0034 58       		.uleb128 0x58
 10523 0035 366D0000 		.4byte	.LASF471
 10524 0039 00       		.byte	0
 10525              		.section	.debug_macro,"G",%progbits,wm4.core_cm0.h.120.f4257ea7d0bce0cbabffe223e23b2fd4,comdat
 10526              	.Ldebug_macro10:
 10527 0000 0400     		.2byte	0x4
 10528 0002 00       		.byte	0
 10529 0003 05       		.byte	0x5
 10530 0004 78       		.uleb128 0x78
 10531 0005 F5760000 		.4byte	.LASF474
 10532 0009 05       		.byte	0x5
 10533 000a 9701     		.uleb128 0x97
 10534 000c E13C0000 		.4byte	.LASF475
 10535 0010 05       		.byte	0x5
 10536 0011 9901     		.uleb128 0x99
 10537 0013 AC2F0000 		.4byte	.LASF476
 10538 0017 05       		.byte	0x5
 10539 0018 9A01     		.uleb128 0x9a
 10540 001a E0690000 		.4byte	.LASF477
 10541 001e 05       		.byte	0x5
 10542 001f B002     		.uleb128 0x130
 10543 0021 925C0000 		.4byte	.LASF478
 10544 0025 05       		.byte	0x5
 10545 0026 B102     		.uleb128 0x131
 10546 0028 F8740000 		.4byte	.LASF479
 10547 002c 05       		.byte	0x5
 10548 002d B302     		.uleb128 0x133
 10549 002f 3E5E0000 		.4byte	.LASF480
 10550 0033 05       		.byte	0x5
 10551 0034 B402     		.uleb128 0x134
 10552 0036 67480000 		.4byte	.LASF481
 10553 003a 05       		.byte	0x5
 10554 003b B602     		.uleb128 0x136
 10555 003d C1210000 		.4byte	.LASF482
 10556 0041 05       		.byte	0x5
 10557 0042 B702     		.uleb128 0x137
 10558 0044 F9030000 		.4byte	.LASF483
 10559 0048 05       		.byte	0x5
 10560 0049 B902     		.uleb128 0x139
 10561 004b EF290000 		.4byte	.LASF484
 10562 004f 05       		.byte	0x5
 10563 0050 BA02     		.uleb128 0x13a
 10564 0052 6E1B0000 		.4byte	.LASF485
 10565 0056 05       		.byte	0x5
ARM GAS  /var/folders/f9/8bk2lnw15zn4cbgn6wrnb4lm0000gn/T//ccCGlkPS.s 			page 216


 10566 0057 BC02     		.uleb128 0x13c
 10567 0059 A93E0000 		.4byte	.LASF486
 10568 005d 05       		.byte	0x5
 10569 005e BD02     		.uleb128 0x13d
 10570 0060 A6540000 		.4byte	.LASF487
 10571 0064 05       		.byte	0x5
 10572 0065 C002     		.uleb128 0x140
 10573 0067 70520000 		.4byte	.LASF488
 10574 006b 05       		.byte	0x5
 10575 006c C102     		.uleb128 0x141
 10576 006e 062A0000 		.4byte	.LASF489
 10577 0072 05       		.byte	0x5
 10578 0073 C302     		.uleb128 0x143
 10579 0075 6F2F0000 		.4byte	.LASF490
 10580 0079 05       		.byte	0x5
 10581 007a C402     		.uleb128 0x144
 10582 007c 66640000 		.4byte	.LASF491
 10583 0080 05       		.byte	0x5
 10584 0081 C602     		.uleb128 0x146
 10585 0083 A76A0000 		.4byte	.LASF492
 10586 0087 05       		.byte	0x5
 10587 0088 C702     		.uleb128 0x147
 10588 008a B8280000 		.4byte	.LASF493
 10589 008e 05       		.byte	0x5
 10590 008f C902     		.uleb128 0x149
 10591 0091 83410000 		.4byte	.LASF494
 10592 0095 05       		.byte	0x5
 10593 0096 CA02     		.uleb128 0x14a
 10594 0098 B6510000 		.4byte	.LASF495
 10595 009c 05       		.byte	0x5
 10596 009d CC02     		.uleb128 0x14c
 10597 009f B7470000 		.4byte	.LASF496
 10598 00a3 05       		.byte	0x5
 10599 00a4 CD02     		.uleb128 0x14d
 10600 00a6 BF020000 		.4byte	.LASF497
 10601 00aa 05       		.byte	0x5
 10602 00ab CF02     		.uleb128 0x14f
 10603 00ad 4D520000 		.4byte	.LASF498
 10604 00b1 05       		.byte	0x5
 10605 00b2 D002     		.uleb128 0x150
 10606 00b4 49390000 		.4byte	.LASF499
 10607 00b8 05       		.byte	0x5
 10608 00b9 D202     		.uleb128 0x152
 10609 00bb CA040000 		.4byte	.LASF500
 10610 00bf 05       		.byte	0x5
 10611 00c0 D302     		.uleb128 0x153
 10612 00c2 CA350000 		.4byte	.LASF501
 10613 00c6 05       		.byte	0x5
 10614 00c7 D502     		.uleb128 0x155
 10615 00c9 F9430000 		.4byte	.LASF502
 10616 00cd 05       		.byte	0x5
 10617 00ce D602     		.uleb128 0x156
 10618 00d0 C92C0000 		.4byte	.LASF503
 10619 00d4 05       		.byte	0x5
 10620 00d5 D802     		.uleb128 0x158
 10621 00d7 91270000 		.4byte	.LASF504
 10622 00db 05       		.byte	0x5
ARM GAS  /var/folders/f9/8bk2lnw15zn4cbgn6wrnb4lm0000gn/T//ccCGlkPS.s 			page 217


 10623 00dc D902     		.uleb128 0x159
 10624 00de B71D0000 		.4byte	.LASF505
 10625 00e2 05       		.byte	0x5
 10626 00e3 DC02     		.uleb128 0x15c
 10627 00e5 12160000 		.4byte	.LASF506
 10628 00e9 05       		.byte	0x5
 10629 00ea DD02     		.uleb128 0x15d
 10630 00ec 583A0000 		.4byte	.LASF507
 10631 00f0 05       		.byte	0x5
 10632 00f1 DF02     		.uleb128 0x15f
 10633 00f3 4E0C0000 		.4byte	.LASF508
 10634 00f7 05       		.byte	0x5
 10635 00f8 E002     		.uleb128 0x160
 10636 00fa 3F7A0000 		.4byte	.LASF509
 10637 00fe 05       		.byte	0x5
 10638 00ff E202     		.uleb128 0x162
 10639 0101 306B0000 		.4byte	.LASF510
 10640 0105 05       		.byte	0x5
 10641 0106 E302     		.uleb128 0x163
 10642 0108 E91C0000 		.4byte	.LASF511
 10643 010c 05       		.byte	0x5
 10644 010d E502     		.uleb128 0x165
 10645 010f 902F0000 		.4byte	.LASF512
 10646 0113 05       		.byte	0x5
 10647 0114 E602     		.uleb128 0x166
 10648 0116 E3380000 		.4byte	.LASF513
 10649 011a 05       		.byte	0x5
 10650 011b E802     		.uleb128 0x168
 10651 011d 2E760000 		.4byte	.LASF514
 10652 0121 05       		.byte	0x5
 10653 0122 E902     		.uleb128 0x169
 10654 0124 6D6B0000 		.4byte	.LASF515
 10655 0128 05       		.byte	0x5
 10656 0129 EC02     		.uleb128 0x16c
 10657 012b 5A510000 		.4byte	.LASF516
 10658 012f 05       		.byte	0x5
 10659 0130 ED02     		.uleb128 0x16d
 10660 0132 7D790000 		.4byte	.LASF517
 10661 0136 05       		.byte	0x5
 10662 0137 EF02     		.uleb128 0x16f
 10663 0139 A0280000 		.4byte	.LASF518
 10664 013d 05       		.byte	0x5
 10665 013e F002     		.uleb128 0x170
 10666 0140 6E1A0000 		.4byte	.LASF519
 10667 0144 05       		.byte	0x5
 10668 0145 F202     		.uleb128 0x172
 10669 0147 1A270000 		.4byte	.LASF520
 10670 014b 05       		.byte	0x5
 10671 014c F302     		.uleb128 0x173
 10672 014e B31F0000 		.4byte	.LASF521
 10673 0152 05       		.byte	0x5
 10674 0153 F602     		.uleb128 0x176
 10675 0155 8D6C0000 		.4byte	.LASF522
 10676 0159 05       		.byte	0x5
 10677 015a F702     		.uleb128 0x177
 10678 015c B90F0000 		.4byte	.LASF523
 10679 0160 05       		.byte	0x5
ARM GAS  /var/folders/f9/8bk2lnw15zn4cbgn6wrnb4lm0000gn/T//ccCGlkPS.s 			page 218


 10680 0161 F902     		.uleb128 0x179
 10681 0163 5A770000 		.4byte	.LASF524
 10682 0167 05       		.byte	0x5
 10683 0168 FA02     		.uleb128 0x17a
 10684 016a A1060000 		.4byte	.LASF525
 10685 016e 05       		.byte	0x5
 10686 016f FD02     		.uleb128 0x17d
 10687 0171 A5680000 		.4byte	.LASF526
 10688 0175 05       		.byte	0x5
 10689 0176 FE02     		.uleb128 0x17e
 10690 0178 DD4E0000 		.4byte	.LASF527
 10691 017c 05       		.byte	0x5
 10692 017d 9403     		.uleb128 0x194
 10693 017f 4C2B0000 		.4byte	.LASF528
 10694 0183 05       		.byte	0x5
 10695 0184 9503     		.uleb128 0x195
 10696 0186 B76D0000 		.4byte	.LASF529
 10697 018a 05       		.byte	0x5
 10698 018b 9703     		.uleb128 0x197
 10699 018d 480B0000 		.4byte	.LASF530
 10700 0191 05       		.byte	0x5
 10701 0192 9803     		.uleb128 0x198
 10702 0194 9F050000 		.4byte	.LASF531
 10703 0198 05       		.byte	0x5
 10704 0199 9A03     		.uleb128 0x19a
 10705 019b D5120000 		.4byte	.LASF532
 10706 019f 05       		.byte	0x5
 10707 01a0 9B03     		.uleb128 0x19b
 10708 01a2 7E5F0000 		.4byte	.LASF533
 10709 01a6 05       		.byte	0x5
 10710 01a7 9D03     		.uleb128 0x19d
 10711 01a9 DA270000 		.4byte	.LASF534
 10712 01ad 05       		.byte	0x5
 10713 01ae 9E03     		.uleb128 0x19e
 10714 01b0 24650000 		.4byte	.LASF535
 10715 01b4 05       		.byte	0x5
 10716 01b5 A103     		.uleb128 0x1a1
 10717 01b7 C26B0000 		.4byte	.LASF536
 10718 01bb 05       		.byte	0x5
 10719 01bc A203     		.uleb128 0x1a2
 10720 01be EB630000 		.4byte	.LASF537
 10721 01c2 05       		.byte	0x5
 10722 01c3 A503     		.uleb128 0x1a5
 10723 01c5 B65A0000 		.4byte	.LASF538
 10724 01c9 05       		.byte	0x5
 10725 01ca A603     		.uleb128 0x1a6
 10726 01cc E74A0000 		.4byte	.LASF539
 10727 01d0 05       		.byte	0x5
 10728 01d1 A903     		.uleb128 0x1a9
 10729 01d3 9D640000 		.4byte	.LASF540
 10730 01d7 05       		.byte	0x5
 10731 01d8 AA03     		.uleb128 0x1aa
 10732 01da 3C200000 		.4byte	.LASF541
 10733 01de 05       		.byte	0x5
 10734 01df AC03     		.uleb128 0x1ac
 10735 01e1 FD360000 		.4byte	.LASF542
 10736 01e5 05       		.byte	0x5
ARM GAS  /var/folders/f9/8bk2lnw15zn4cbgn6wrnb4lm0000gn/T//ccCGlkPS.s 			page 219


 10737 01e6 AD03     		.uleb128 0x1ad
 10738 01e8 E8720000 		.4byte	.LASF543
 10739 01ec 05       		.byte	0x5
 10740 01ed AF03     		.uleb128 0x1af
 10741 01ef FA370000 		.4byte	.LASF544
 10742 01f3 05       		.byte	0x5
 10743 01f4 B003     		.uleb128 0x1b0
 10744 01f6 F6560000 		.4byte	.LASF545
 10745 01fa 05       		.byte	0x5
 10746 01fb C603     		.uleb128 0x1c6
 10747 01fd 19540000 		.4byte	.LASF546
 10748 0201 05       		.byte	0x5
 10749 0202 C703     		.uleb128 0x1c7
 10750 0204 68380000 		.4byte	.LASF547
 10751 0208 05       		.byte	0x5
 10752 0209 C803     		.uleb128 0x1c8
 10753 020b FA000000 		.4byte	.LASF548
 10754 020f 05       		.byte	0x5
 10755 0210 C903     		.uleb128 0x1c9
 10756 0212 33220000 		.4byte	.LASF549
 10757 0216 05       		.byte	0x5
 10758 0217 CB03     		.uleb128 0x1cb
 10759 0219 8C230000 		.4byte	.LASF550
 10760 021d 05       		.byte	0x5
 10761 021e CC03     		.uleb128 0x1cc
 10762 0220 676A0000 		.4byte	.LASF551
 10763 0224 05       		.byte	0x5
 10764 0225 CD03     		.uleb128 0x1cd
 10765 0227 36470000 		.4byte	.LASF552
 10766 022b 05       		.byte	0x5
 10767 022c E903     		.uleb128 0x1e9
 10768 022e B3410000 		.4byte	.LASF553
 10769 0232 05       		.byte	0x5
 10770 0233 EA03     		.uleb128 0x1ea
 10771 0235 1E5F0000 		.4byte	.LASF554
 10772 0239 05       		.byte	0x5
 10773 023a EB03     		.uleb128 0x1eb
 10774 023c 75180000 		.4byte	.LASF555
 10775 0240 00       		.byte	0
 10776              		.section	.debug_macro,"G",%progbits,wm4.chip.h.116.857da603c399e979152c31968de4baae,comdat
 10777              	.Ldebug_macro11:
 10778 0000 0400     		.2byte	0x4
 10779 0002 00       		.byte	0
 10780 0003 05       		.byte	0x5
 10781 0004 74       		.uleb128 0x74
 10782 0005 A72A0000 		.4byte	.LASF556
 10783 0009 05       		.byte	0x5
 10784 000a 75       		.uleb128 0x75
 10785 000b D2010000 		.4byte	.LASF557
 10786 000f 05       		.byte	0x5
 10787 0010 76       		.uleb128 0x76
 10788 0011 F76C0000 		.4byte	.LASF558
 10789 0015 05       		.byte	0x5
 10790 0016 77       		.uleb128 0x77
 10791 0017 94610000 		.4byte	.LASF559
 10792 001b 05       		.byte	0x5
 10793 001c 78       		.uleb128 0x78
ARM GAS  /var/folders/f9/8bk2lnw15zn4cbgn6wrnb4lm0000gn/T//ccCGlkPS.s 			page 220


 10794 001d 0F280000 		.4byte	.LASF560
 10795 0021 05       		.byte	0x5
 10796 0022 79       		.uleb128 0x79
 10797 0023 9F080000 		.4byte	.LASF561
 10798 0027 05       		.byte	0x5
 10799 0028 7A       		.uleb128 0x7a
 10800 0029 29060000 		.4byte	.LASF562
 10801 002d 05       		.byte	0x5
 10802 002e 7B       		.uleb128 0x7b
 10803 002f 20700000 		.4byte	.LASF563
 10804 0033 05       		.byte	0x5
 10805 0034 7C       		.uleb128 0x7c
 10806 0035 E96E0000 		.4byte	.LASF564
 10807 0039 05       		.byte	0x5
 10808 003a 7D       		.uleb128 0x7d
 10809 003b F9150000 		.4byte	.LASF565
 10810 003f 05       		.byte	0x5
 10811 0040 7E       		.uleb128 0x7e
 10812 0041 E73E0000 		.4byte	.LASF566
 10813 0045 05       		.byte	0x5
 10814 0046 7F       		.uleb128 0x7f
 10815 0047 64430000 		.4byte	.LASF567
 10816 004b 05       		.byte	0x5
 10817 004c 8001     		.uleb128 0x80
 10818 004e 714F0000 		.4byte	.LASF568
 10819 0052 05       		.byte	0x5
 10820 0053 8101     		.uleb128 0x81
 10821 0055 E0000000 		.4byte	.LASF569
 10822 0059 05       		.byte	0x5
 10823 005a 8201     		.uleb128 0x82
 10824 005c 122F0000 		.4byte	.LASF570
 10825 0060 05       		.byte	0x5
 10826 0061 8301     		.uleb128 0x83
 10827 0063 C05D0000 		.4byte	.LASF571
 10828 0067 05       		.byte	0x5
 10829 0068 8401     		.uleb128 0x84
 10830 006a 8C570000 		.4byte	.LASF572
 10831 006e 05       		.byte	0x5
 10832 006f 8501     		.uleb128 0x85
 10833 0071 B70A0000 		.4byte	.LASF573
 10834 0075 05       		.byte	0x5
 10835 0076 9001     		.uleb128 0x90
 10836 0078 98600000 		.4byte	.LASF574
 10837 007c 05       		.byte	0x5
 10838 007d 9101     		.uleb128 0x91
 10839 007f 70300000 		.4byte	.LASF575
 10840 0083 05       		.byte	0x5
 10841 0084 9301     		.uleb128 0x93
 10842 0086 6C3D0000 		.4byte	.LASF576
 10843 008a 05       		.byte	0x5
 10844 008b 9401     		.uleb128 0x94
 10845 008d CC320000 		.4byte	.LASF577
 10846 0091 05       		.byte	0x5
 10847 0092 9701     		.uleb128 0x97
 10848 0094 5F6E0000 		.4byte	.LASF578
 10849 0098 05       		.byte	0x5
 10850 0099 9801     		.uleb128 0x98
ARM GAS  /var/folders/f9/8bk2lnw15zn4cbgn6wrnb4lm0000gn/T//ccCGlkPS.s 			page 221


 10851 009b 8D210000 		.4byte	.LASF579
 10852 009f 05       		.byte	0x5
 10853 00a0 9B01     		.uleb128 0x9b
 10854 00a2 BF2A0000 		.4byte	.LASF580
 10855 00a6 05       		.byte	0x5
 10856 00a7 9E01     		.uleb128 0x9e
 10857 00a9 565F0000 		.4byte	.LASF581
 10858 00ad 05       		.byte	0x5
 10859 00ae 9F01     		.uleb128 0x9f
 10860 00b0 F7700000 		.4byte	.LASF582
 10861 00b4 05       		.byte	0x5
 10862 00b5 A001     		.uleb128 0xa0
 10863 00b7 39360000 		.4byte	.LASF583
 10864 00bb 05       		.byte	0x5
 10865 00bc A101     		.uleb128 0xa1
 10866 00be 093A0000 		.4byte	.LASF584
 10867 00c2 05       		.byte	0x5
 10868 00c3 A201     		.uleb128 0xa2
 10869 00c5 E8160000 		.4byte	.LASF585
 10870 00c9 05       		.byte	0x5
 10871 00ca A301     		.uleb128 0xa3
 10872 00cc 381E0000 		.4byte	.LASF586
 10873 00d0 05       		.byte	0x5
 10874 00d1 A401     		.uleb128 0xa4
 10875 00d3 AE2B0000 		.4byte	.LASF587
 10876 00d7 05       		.byte	0x5
 10877 00d8 B101     		.uleb128 0xb1
 10878 00da 26410000 		.4byte	.LASF588
 10879 00de 05       		.byte	0x5
 10880 00df B201     		.uleb128 0xb2
 10881 00e1 035D0000 		.4byte	.LASF589
 10882 00e5 05       		.byte	0x5
 10883 00e6 B301     		.uleb128 0xb3
 10884 00e8 E9310000 		.4byte	.LASF590
 10885 00ec 05       		.byte	0x5
 10886 00ed B401     		.uleb128 0xb4
 10887 00ef D1550000 		.4byte	.LASF591
 10888 00f3 05       		.byte	0x5
 10889 00f4 B501     		.uleb128 0xb5
 10890 00f6 0C250000 		.4byte	.LASF592
 10891 00fa 05       		.byte	0x5
 10892 00fb B701     		.uleb128 0xb7
 10893 00fd 4E3E0000 		.4byte	.LASF593
 10894 0101 05       		.byte	0x5
 10895 0102 B801     		.uleb128 0xb8
 10896 0104 A7130000 		.4byte	.LASF594
 10897 0108 05       		.byte	0x5
 10898 0109 BA01     		.uleb128 0xba
 10899 010b 59720000 		.4byte	.LASF595
 10900 010f 05       		.byte	0x5
 10901 0110 C101     		.uleb128 0xc1
 10902 0112 52220000 		.4byte	.LASF596
 10903 0116 05       		.byte	0x5
 10904 0117 C401     		.uleb128 0xc4
 10905 0119 873C0000 		.4byte	.LASF597
 10906 011d 00       		.byte	0
 10907              		.section	.debug_macro,"G",%progbits,wm4.pmu_11xx.h.33.1d6b708881441cb98d19b8bab3caa180,comdat
ARM GAS  /var/folders/f9/8bk2lnw15zn4cbgn6wrnb4lm0000gn/T//ccCGlkPS.s 			page 222


 10908              	.Ldebug_macro12:
 10909 0000 0400     		.2byte	0x4
 10910 0002 00       		.byte	0
 10911 0003 05       		.byte	0x5
 10912 0004 21       		.uleb128 0x21
 10913 0005 6A4E0000 		.4byte	.LASF598
 10914 0009 05       		.byte	0x5
 10915 000a 4D       		.uleb128 0x4d
 10916 000b 20610000 		.4byte	.LASF599
 10917 000f 05       		.byte	0x5
 10918 0010 53       		.uleb128 0x53
 10919 0011 40340000 		.4byte	.LASF600
 10920 0015 05       		.byte	0x5
 10921 0016 55       		.uleb128 0x55
 10922 0017 22720000 		.4byte	.LASF601
 10923 001b 05       		.byte	0x5
 10924 001c 56       		.uleb128 0x56
 10925 001d 9C6D0000 		.4byte	.LASF602
 10926 0021 00       		.byte	0
 10927              		.section	.debug_macro,"G",%progbits,wm4.sysctl_11xx.h.33.ae61a1181e608f8409883008e291930c,comdat
 10928              	.Ldebug_macro13:
 10929 0000 0400     		.2byte	0x4
 10930 0002 00       		.byte	0
 10931 0003 05       		.byte	0x5
 10932 0004 21       		.uleb128 0x21
 10933 0005 E46F0000 		.4byte	.LASF604
 10934 0009 05       		.byte	0x5
 10935 000a BC01     		.uleb128 0xbc
 10936 000c 817A0000 		.4byte	.LASF605
 10937 0010 05       		.byte	0x5
 10938 0011 BD01     		.uleb128 0xbd
 10939 0013 575A0000 		.4byte	.LASF606
 10940 0017 05       		.byte	0x5
 10941 0018 BE01     		.uleb128 0xbe
 10942 001a DE2E0000 		.4byte	.LASF607
 10943 001e 05       		.byte	0x5
 10944 001f BF01     		.uleb128 0xbf
 10945 0021 7D6F0000 		.4byte	.LASF608
 10946 0025 05       		.byte	0x5
 10947 0026 C001     		.uleb128 0xc0
 10948 0028 BA700000 		.4byte	.LASF609
 10949 002c 05       		.byte	0x5
 10950 002d C501     		.uleb128 0xc5
 10951 002f D4170000 		.4byte	.LASF610
 10952 0033 05       		.byte	0x5
 10953 0034 A904     		.uleb128 0x229
 10954 0036 BB270000 		.4byte	.LASF611
 10955 003a 05       		.byte	0x5
 10956 003b AA04     		.uleb128 0x22a
 10957 003d 575E0000 		.4byte	.LASF612
 10958 0041 05       		.byte	0x5
 10959 0042 C904     		.uleb128 0x249
 10960 0044 D5700000 		.4byte	.LASF613
 10961 0048 05       		.byte	0x5
 10962 0049 CA04     		.uleb128 0x24a
 10963 004b 83740000 		.4byte	.LASF614
 10964 004f 05       		.byte	0x5
ARM GAS  /var/folders/f9/8bk2lnw15zn4cbgn6wrnb4lm0000gn/T//ccCGlkPS.s 			page 223


 10965 0050 CB04     		.uleb128 0x24b
 10966 0052 47380000 		.4byte	.LASF615
 10967 0056 05       		.byte	0x5
 10968 0057 CC04     		.uleb128 0x24c
 10969 0059 1A100000 		.4byte	.LASF616
 10970 005d 05       		.byte	0x5
 10971 005e CD04     		.uleb128 0x24d
 10972 0060 385A0000 		.4byte	.LASF617
 10973 0064 05       		.byte	0x5
 10974 0065 CE04     		.uleb128 0x24e
 10975 0067 E8400000 		.4byte	.LASF618
 10976 006b 05       		.byte	0x5
 10977 006c CF04     		.uleb128 0x24f
 10978 006e 4B6B0000 		.4byte	.LASF619
 10979 0072 05       		.byte	0x5
 10980 0073 D004     		.uleb128 0x250
 10981 0075 1C5E0000 		.4byte	.LASF620
 10982 0079 05       		.byte	0x5
 10983 007a F104     		.uleb128 0x271
 10984 007c 9E480000 		.4byte	.LASF621
 10985 0080 05       		.byte	0x5
 10986 0081 F204     		.uleb128 0x272
 10987 0083 FF4D0000 		.4byte	.LASF622
 10988 0087 05       		.byte	0x5
 10989 0088 F304     		.uleb128 0x273
 10990 008a E61B0000 		.4byte	.LASF623
 10991 008e 05       		.byte	0x5
 10992 008f F504     		.uleb128 0x275
 10993 0091 3F460000 		.4byte	.LASF624
 10994 0095 05       		.byte	0x5
 10995 0096 F704     		.uleb128 0x277
 10996 0098 BF100000 		.4byte	.LASF625
 10997 009c 05       		.byte	0x5
 10998 009d F804     		.uleb128 0x278
 10999 009f 770A0000 		.4byte	.LASF626
 11000 00a3 05       		.byte	0x5
 11001 00a4 F904     		.uleb128 0x279
 11002 00a6 49280000 		.4byte	.LASF627
 11003 00aa 05       		.byte	0x5
 11004 00ab FA04     		.uleb128 0x27a
 11005 00ad 3A4D0000 		.4byte	.LASF628
 11006 00b1 00       		.byte	0
 11007              		.section	.debug_macro,"G",%progbits,wm4.clock_11xx.h.33.23290a9e2ed919e3a6958d25130bc848,comdat
 11008              	.Ldebug_macro14:
 11009 0000 0400     		.2byte	0x4
 11010 0002 00       		.byte	0
 11011 0003 05       		.byte	0x5
 11012 0004 21       		.uleb128 0x21
 11013 0005 B14B0000 		.4byte	.LASF629
 11014 0009 05       		.byte	0x5
 11015 000a 2D       		.uleb128 0x2d
 11016 000b 30640000 		.4byte	.LASF630
 11017 000f 00       		.byte	0
 11018              		.section	.debug_macro,"G",%progbits,wm4.iocon_11xx.h.33.25e2b3cde122df23fb07b984cb4f3a93,comdat
 11019              	.Ldebug_macro15:
 11020 0000 0400     		.2byte	0x4
 11021 0002 00       		.byte	0
ARM GAS  /var/folders/f9/8bk2lnw15zn4cbgn6wrnb4lm0000gn/T//ccCGlkPS.s 			page 224


 11022 0003 05       		.byte	0x5
 11023 0004 21       		.uleb128 0x21
 11024 0005 472D0000 		.4byte	.LASF631
 11025 0009 05       		.byte	0x5
 11026 000a A601     		.uleb128 0xa6
 11027 000c 1E620000 		.4byte	.LASF632
 11028 0010 05       		.byte	0x5
 11029 0011 A701     		.uleb128 0xa7
 11030 0013 8C090000 		.4byte	.LASF633
 11031 0017 05       		.byte	0x5
 11032 0018 A801     		.uleb128 0xa8
 11033 001a D7190000 		.4byte	.LASF634
 11034 001e 05       		.byte	0x5
 11035 001f A901     		.uleb128 0xa9
 11036 0021 10610000 		.4byte	.LASF635
 11037 0025 05       		.byte	0x5
 11038 0026 AA01     		.uleb128 0xaa
 11039 0028 BD4D0000 		.4byte	.LASF636
 11040 002c 05       		.byte	0x5
 11041 002d AB01     		.uleb128 0xab
 11042 002f 99140000 		.4byte	.LASF637
 11043 0033 05       		.byte	0x5
 11044 0034 AC01     		.uleb128 0xac
 11045 0036 0A270000 		.4byte	.LASF638
 11046 003a 05       		.byte	0x5
 11047 003b AD01     		.uleb128 0xad
 11048 003d 84120000 		.4byte	.LASF639
 11049 0041 05       		.byte	0x5
 11050 0042 AE01     		.uleb128 0xae
 11051 0044 A9250000 		.4byte	.LASF640
 11052 0048 05       		.byte	0x5
 11053 0049 AF01     		.uleb128 0xaf
 11054 004b 264F0000 		.4byte	.LASF641
 11055 004f 05       		.byte	0x5
 11056 0050 B001     		.uleb128 0xb0
 11057 0052 12630000 		.4byte	.LASF642
 11058 0056 05       		.byte	0x5
 11059 0057 B101     		.uleb128 0xb1
 11060 0059 2A1C0000 		.4byte	.LASF643
 11061 005d 05       		.byte	0x5
 11062 005e B201     		.uleb128 0xb2
 11063 0060 72510000 		.4byte	.LASF644
 11064 0064 05       		.byte	0x5
 11065 0065 B301     		.uleb128 0xb3
 11066 0067 A0670000 		.4byte	.LASF645
 11067 006b 05       		.byte	0x5
 11068 006c B401     		.uleb128 0xb4
 11069 006e 32560000 		.4byte	.LASF646
 11070 0072 05       		.byte	0x5
 11071 0073 B501     		.uleb128 0xb5
 11072 0075 23080000 		.4byte	.LASF647
 11073 0079 05       		.byte	0x5
 11074 007a B601     		.uleb128 0xb6
 11075 007c E0100000 		.4byte	.LASF648
 11076 0080 05       		.byte	0x5
 11077 0081 B701     		.uleb128 0xb7
 11078 0083 F6660000 		.4byte	.LASF649
ARM GAS  /var/folders/f9/8bk2lnw15zn4cbgn6wrnb4lm0000gn/T//ccCGlkPS.s 			page 225


 11079 0087 05       		.byte	0x5
 11080 0088 B801     		.uleb128 0xb8
 11081 008a C2670000 		.4byte	.LASF650
 11082 008e 05       		.byte	0x5
 11083 008f B901     		.uleb128 0xb9
 11084 0091 76680000 		.4byte	.LASF651
 11085 0095 05       		.byte	0x5
 11086 0096 BA01     		.uleb128 0xba
 11087 0098 12150000 		.4byte	.LASF652
 11088 009c 05       		.byte	0x5
 11089 009d C001     		.uleb128 0xc0
 11090 009f 6F0B0000 		.4byte	.LASF653
 11091 00a3 05       		.byte	0x5
 11092 00a4 C101     		.uleb128 0xc1
 11093 00a6 EE690000 		.4byte	.LASF654
 11094 00aa 05       		.byte	0x5
 11095 00ab C201     		.uleb128 0xc2
 11096 00ad 7C280000 		.4byte	.LASF655
 11097 00b1 05       		.byte	0x5
 11098 00b2 C301     		.uleb128 0xc3
 11099 00b4 A5310000 		.4byte	.LASF656
 11100 00b8 05       		.byte	0x5
 11101 00b9 C401     		.uleb128 0xc4
 11102 00bb EC1F0000 		.4byte	.LASF657
 11103 00bf 05       		.byte	0x5
 11104 00c0 C501     		.uleb128 0xc5
 11105 00c2 FE170000 		.4byte	.LASF658
 11106 00c6 05       		.byte	0x5
 11107 00c7 C601     		.uleb128 0xc6
 11108 00c9 C0030000 		.4byte	.LASF659
 11109 00cd 05       		.byte	0x5
 11110 00ce C701     		.uleb128 0xc7
 11111 00d0 C2480000 		.4byte	.LASF660
 11112 00d4 05       		.byte	0x5
 11113 00d5 C801     		.uleb128 0xc8
 11114 00d7 04060000 		.4byte	.LASF661
 11115 00db 05       		.byte	0x5
 11116 00dc C901     		.uleb128 0xc9
 11117 00de B6570000 		.4byte	.LASF662
 11118 00e2 05       		.byte	0x5
 11119 00e3 CA01     		.uleb128 0xca
 11120 00e5 8E490000 		.4byte	.LASF663
 11121 00e9 05       		.byte	0x5
 11122 00ea CB01     		.uleb128 0xcb
 11123 00ec F7230000 		.4byte	.LASF664
 11124 00f0 05       		.byte	0x5
 11125 00f1 CC01     		.uleb128 0xcc
 11126 00f3 AC450000 		.4byte	.LASF665
 11127 00f7 05       		.byte	0x5
 11128 00f8 CD01     		.uleb128 0xcd
 11129 00fa 18550000 		.4byte	.LASF666
 11130 00fe 05       		.byte	0x5
 11131 00ff CE01     		.uleb128 0xce
 11132 0101 50700000 		.4byte	.LASF667
 11133 0105 05       		.byte	0x5
 11134 0106 CF01     		.uleb128 0xcf
 11135 0108 FC550000 		.4byte	.LASF668
ARM GAS  /var/folders/f9/8bk2lnw15zn4cbgn6wrnb4lm0000gn/T//ccCGlkPS.s 			page 226


 11136 010c 05       		.byte	0x5
 11137 010d D001     		.uleb128 0xd0
 11138 010f 84600000 		.4byte	.LASF669
 11139 0113 05       		.byte	0x5
 11140 0114 D101     		.uleb128 0xd1
 11141 0116 294D0000 		.4byte	.LASF670
 11142 011a 05       		.byte	0x5
 11143 011b D201     		.uleb128 0xd2
 11144 011d 7B400000 		.4byte	.LASF671
 11145 0121 05       		.byte	0x5
 11146 0122 D301     		.uleb128 0xd3
 11147 0124 97260000 		.4byte	.LASF672
 11148 0128 05       		.byte	0x5
 11149 0129 D401     		.uleb128 0xd4
 11150 012b 62320000 		.4byte	.LASF673
 11151 012f 05       		.byte	0x5
 11152 0130 D501     		.uleb128 0xd5
 11153 0132 997A0000 		.4byte	.LASF674
 11154 0136 00       		.byte	0
 11155              		.section	.debug_macro,"G",%progbits,wm4.timer_11xx.h.33.c92f50a9325789ee6a8ffd6248980d70,comdat
 11156              	.Ldebug_macro16:
 11157 0000 0400     		.2byte	0x4
 11158 0002 00       		.byte	0
 11159 0003 05       		.byte	0x5
 11160 0004 21       		.uleb128 0x21
 11161 0005 0F700000 		.4byte	.LASF675
 11162 0009 05       		.byte	0x5
 11163 000a 40       		.uleb128 0x40
 11164 000b 3B580000 		.4byte	.LASF676
 11165 000f 05       		.byte	0x5
 11166 0010 43       		.uleb128 0x43
 11167 0011 5D370000 		.4byte	.LASF677
 11168 0015 05       		.byte	0x5
 11169 0016 45       		.uleb128 0x45
 11170 0017 8F2D0000 		.4byte	.LASF678
 11171 001b 05       		.byte	0x5
 11172 001c 48       		.uleb128 0x48
 11173 001d 5F100000 		.4byte	.LASF679
 11174 0021 05       		.byte	0x5
 11175 0022 4A       		.uleb128 0x4a
 11176 0023 877B0000 		.4byte	.LASF680
 11177 0027 05       		.byte	0x5
 11178 0028 4D       		.uleb128 0x4d
 11179 0029 40210000 		.4byte	.LASF681
 11180 002d 05       		.byte	0x5
 11181 002e 4F       		.uleb128 0x4f
 11182 002f 112C0000 		.4byte	.LASF682
 11183 0033 05       		.byte	0x5
 11184 0034 51       		.uleb128 0x51
 11185 0035 CF5B0000 		.4byte	.LASF683
 11186 0039 05       		.byte	0x5
 11187 003a 54       		.uleb128 0x54
 11188 003b C2450000 		.4byte	.LASF684
 11189 003f 05       		.byte	0x5
 11190 0040 56       		.uleb128 0x56
 11191 0041 93440000 		.4byte	.LASF685
 11192 0045 05       		.byte	0x5
ARM GAS  /var/folders/f9/8bk2lnw15zn4cbgn6wrnb4lm0000gn/T//ccCGlkPS.s 			page 227


 11193 0046 58       		.uleb128 0x58
 11194 0047 82780000 		.4byte	.LASF686
 11195 004b 00       		.byte	0
 11196              		.section	.debug_macro,"G",%progbits,wm4.ring_buffer.h.33.ffd8153954783612f9c626df1ed9e770,comdat
 11197              	.Ldebug_macro17:
 11198 0000 0400     		.2byte	0x4
 11199 0002 00       		.byte	0
 11200 0003 05       		.byte	0x5
 11201 0004 21       		.uleb128 0x21
 11202 0005 A8520000 		.4byte	.LASF688
 11203 0009 05       		.byte	0x5
 11204 000a 39       		.uleb128 0x39
 11205 000b 36570000 		.4byte	.LASF689
 11206 000f 05       		.byte	0x5
 11207 0010 3F       		.uleb128 0x3f
 11208 0011 7D770000 		.4byte	.LASF690
 11209 0015 00       		.byte	0
 11210              		.section	.debug_macro,"G",%progbits,wm4.uart_11xx.h.98.fe68b709973730a4fba3f3ce60c5c312,comdat
 11211              	.Ldebug_macro18:
 11212 0000 0400     		.2byte	0x4
 11213 0002 00       		.byte	0
 11214 0003 05       		.byte	0x5
 11215 0004 62       		.uleb128 0x62
 11216 0005 8A4F0000 		.4byte	.LASF691
 11217 0009 05       		.byte	0x5
 11218 000a 67       		.uleb128 0x67
 11219 000b 84540000 		.4byte	.LASF692
 11220 000f 05       		.byte	0x5
 11221 0010 68       		.uleb128 0x68
 11222 0011 9A720000 		.4byte	.LASF693
 11223 0015 05       		.byte	0x5
 11224 0016 6D       		.uleb128 0x6d
 11225 0017 9D560000 		.4byte	.LASF694
 11226 001b 05       		.byte	0x5
 11227 001c 6E       		.uleb128 0x6e
 11228 001d 006A0000 		.4byte	.LASF695
 11229 0021 05       		.byte	0x5
 11230 0022 73       		.uleb128 0x73
 11231 0023 C6560000 		.4byte	.LASF696
 11232 0027 05       		.byte	0x5
 11233 0028 74       		.uleb128 0x74
 11234 0029 734B0000 		.4byte	.LASF697
 11235 002d 05       		.byte	0x5
 11236 002e 75       		.uleb128 0x75
 11237 002f 05470000 		.4byte	.LASF698
 11238 0033 05       		.byte	0x5
 11239 0034 76       		.uleb128 0x76
 11240 0035 1F2E0000 		.4byte	.LASF699
 11241 0039 05       		.byte	0x5
 11242 003a 77       		.uleb128 0x77
 11243 003b 1C690000 		.4byte	.LASF700
 11244 003f 05       		.byte	0x5
 11245 0040 78       		.uleb128 0x78
 11246 0041 1D1A0000 		.4byte	.LASF701
 11247 0045 05       		.byte	0x5
 11248 0046 79       		.uleb128 0x79
 11249 0047 753E0000 		.4byte	.LASF702
ARM GAS  /var/folders/f9/8bk2lnw15zn4cbgn6wrnb4lm0000gn/T//ccCGlkPS.s 			page 228


 11250 004b 05       		.byte	0x5
 11251 004c 7A       		.uleb128 0x7a
 11252 004d 655C0000 		.4byte	.LASF703
 11253 0051 05       		.byte	0x5
 11254 0052 7B       		.uleb128 0x7b
 11255 0053 F91A0000 		.4byte	.LASF704
 11256 0057 05       		.byte	0x5
 11257 0058 7C       		.uleb128 0x7c
 11258 0059 FE090000 		.4byte	.LASF705
 11259 005d 05       		.byte	0x5
 11260 005e 8101     		.uleb128 0x81
 11261 0060 BA290000 		.4byte	.LASF706
 11262 0064 05       		.byte	0x5
 11263 0065 8201     		.uleb128 0x82
 11264 0067 48320000 		.4byte	.LASF707
 11265 006b 05       		.byte	0x5
 11266 006c 8301     		.uleb128 0x83
 11267 006e A4090000 		.4byte	.LASF708
 11268 0072 05       		.byte	0x5
 11269 0073 8401     		.uleb128 0x84
 11270 0075 FC7B0000 		.4byte	.LASF709
 11271 0079 05       		.byte	0x5
 11272 007a 8501     		.uleb128 0x85
 11273 007c 34270000 		.4byte	.LASF710
 11274 0080 05       		.byte	0x5
 11275 0081 8801     		.uleb128 0x88
 11276 0083 B2790000 		.4byte	.LASF711
 11277 0087 05       		.byte	0x5
 11278 0088 8901     		.uleb128 0x89
 11279 008a 795E0000 		.4byte	.LASF712
 11280 008e 05       		.byte	0x5
 11281 008f 8A01     		.uleb128 0x8a
 11282 0091 56470000 		.4byte	.LASF713
 11283 0095 05       		.byte	0x5
 11284 0096 8B01     		.uleb128 0x8b
 11285 0098 F13A0000 		.4byte	.LASF714
 11286 009c 05       		.byte	0x5
 11287 009d 8C01     		.uleb128 0x8c
 11288 009f 5A0A0000 		.4byte	.LASF715
 11289 00a3 05       		.byte	0x5
 11290 00a4 8D01     		.uleb128 0x8d
 11291 00a6 1F0C0000 		.4byte	.LASF716
 11292 00aa 05       		.byte	0x5
 11293 00ab 9201     		.uleb128 0x92
 11294 00ad BD190000 		.4byte	.LASF717
 11295 00b1 05       		.byte	0x5
 11296 00b2 9301     		.uleb128 0x93
 11297 00b4 F5680000 		.4byte	.LASF718
 11298 00b8 05       		.byte	0x5
 11299 00b9 9401     		.uleb128 0x94
 11300 00bb 1E350000 		.4byte	.LASF719
 11301 00bf 05       		.byte	0x5
 11302 00c0 9501     		.uleb128 0x95
 11303 00c2 12680000 		.4byte	.LASF720
 11304 00c6 05       		.byte	0x5
 11305 00c7 9601     		.uleb128 0x96
 11306 00c9 1B220000 		.4byte	.LASF721
ARM GAS  /var/folders/f9/8bk2lnw15zn4cbgn6wrnb4lm0000gn/T//ccCGlkPS.s 			page 229


 11307 00cd 05       		.byte	0x5
 11308 00ce 9801     		.uleb128 0x98
 11309 00d0 C20E0000 		.4byte	.LASF722
 11310 00d4 05       		.byte	0x5
 11311 00d5 9B01     		.uleb128 0x9b
 11312 00d7 6B0C0000 		.4byte	.LASF723
 11313 00db 05       		.byte	0x5
 11314 00dc 9C01     		.uleb128 0x9c
 11315 00de BD110000 		.4byte	.LASF724
 11316 00e2 05       		.byte	0x5
 11317 00e3 9D01     		.uleb128 0x9d
 11318 00e5 0F2B0000 		.4byte	.LASF725
 11319 00e9 05       		.byte	0x5
 11320 00ea 9E01     		.uleb128 0x9e
 11321 00ec 103E0000 		.4byte	.LASF726
 11322 00f0 05       		.byte	0x5
 11323 00f1 A401     		.uleb128 0xa4
 11324 00f3 2D280000 		.4byte	.LASF727
 11325 00f7 05       		.byte	0x5
 11326 00f8 A501     		.uleb128 0xa5
 11327 00fa 2F630000 		.4byte	.LASF728
 11328 00fe 05       		.byte	0x5
 11329 00ff A601     		.uleb128 0xa6
 11330 0101 A6530000 		.4byte	.LASF729
 11331 0105 05       		.byte	0x5
 11332 0106 A701     		.uleb128 0xa7
 11333 0108 3F2A0000 		.4byte	.LASF730
 11334 010c 05       		.byte	0x5
 11335 010d A801     		.uleb128 0xa8
 11336 010f 0B330000 		.4byte	.LASF731
 11337 0113 05       		.byte	0x5
 11338 0114 AB01     		.uleb128 0xab
 11339 0116 23230000 		.4byte	.LASF732
 11340 011a 05       		.byte	0x5
 11341 011b AC01     		.uleb128 0xac
 11342 011d A97B0000 		.4byte	.LASF733
 11343 0121 05       		.byte	0x5
 11344 0122 AD01     		.uleb128 0xad
 11345 0124 6C3C0000 		.4byte	.LASF734
 11346 0128 05       		.byte	0x5
 11347 0129 B001     		.uleb128 0xb0
 11348 012b E0710000 		.4byte	.LASF735
 11349 012f 05       		.byte	0x5
 11350 0130 B101     		.uleb128 0xb1
 11351 0132 E24D0000 		.4byte	.LASF736
 11352 0136 05       		.byte	0x5
 11353 0137 B201     		.uleb128 0xb2
 11354 0139 AF460000 		.4byte	.LASF737
 11355 013d 05       		.byte	0x5
 11356 013e B301     		.uleb128 0xb3
 11357 0140 AE690000 		.4byte	.LASF738
 11358 0144 05       		.byte	0x5
 11359 0145 B401     		.uleb128 0xb4
 11360 0147 C0420000 		.4byte	.LASF739
 11361 014b 05       		.byte	0x5
 11362 014c B501     		.uleb128 0xb5
 11363 014e 1F200000 		.4byte	.LASF740
ARM GAS  /var/folders/f9/8bk2lnw15zn4cbgn6wrnb4lm0000gn/T//ccCGlkPS.s 			page 230


 11364 0152 05       		.byte	0x5
 11365 0153 B601     		.uleb128 0xb6
 11366 0155 6D030000 		.4byte	.LASF741
 11367 0159 05       		.byte	0x5
 11368 015a B701     		.uleb128 0xb7
 11369 015c 001E0000 		.4byte	.LASF742
 11370 0160 05       		.byte	0x5
 11371 0161 B801     		.uleb128 0xb8
 11372 0163 85400000 		.4byte	.LASF743
 11373 0167 05       		.byte	0x5
 11374 0168 BD01     		.uleb128 0xbd
 11375 016a 3D050000 		.4byte	.LASF744
 11376 016e 05       		.byte	0x5
 11377 016f BE01     		.uleb128 0xbe
 11378 0171 82390000 		.4byte	.LASF745
 11379 0175 05       		.byte	0x5
 11380 0176 BF01     		.uleb128 0xbf
 11381 0178 D3180000 		.4byte	.LASF746
 11382 017c 05       		.byte	0x5
 11383 017d C001     		.uleb128 0xc0
 11384 017f EB110000 		.4byte	.LASF747
 11385 0183 05       		.byte	0x5
 11386 0184 C101     		.uleb128 0xc1
 11387 0186 76040000 		.4byte	.LASF748
 11388 018a 05       		.byte	0x5
 11389 018b C201     		.uleb128 0xc2
 11390 018d E90A0000 		.4byte	.LASF749
 11391 0191 05       		.byte	0x5
 11392 0192 C701     		.uleb128 0xc7
 11393 0194 584A0000 		.4byte	.LASF750
 11394 0198 05       		.byte	0x5
 11395 0199 C801     		.uleb128 0xc8
 11396 019b A1730000 		.4byte	.LASF751
 11397 019f 05       		.byte	0x5
 11398 01a0 C901     		.uleb128 0xc9
 11399 01a2 5F1D0000 		.4byte	.LASF752
 11400 01a6 05       		.byte	0x5
 11401 01a7 CA01     		.uleb128 0xca
 11402 01a9 20660000 		.4byte	.LASF753
 11403 01ad 05       		.byte	0x5
 11404 01ae CB01     		.uleb128 0xcb
 11405 01b0 0E230000 		.4byte	.LASF754
 11406 01b4 05       		.byte	0x5
 11407 01b5 CC01     		.uleb128 0xcc
 11408 01b7 6B190000 		.4byte	.LASF755
 11409 01bb 05       		.byte	0x5
 11410 01bc CD01     		.uleb128 0xcd
 11411 01be 28460000 		.4byte	.LASF756
 11412 01c2 05       		.byte	0x5
 11413 01c3 CE01     		.uleb128 0xce
 11414 01c5 B36C0000 		.4byte	.LASF757
 11415 01c9 05       		.byte	0x5
 11416 01ca CF01     		.uleb128 0xcf
 11417 01cc 71070000 		.4byte	.LASF758
 11418 01d0 05       		.byte	0x5
 11419 01d1 D001     		.uleb128 0xd0
 11420 01d3 D40D0000 		.4byte	.LASF759
ARM GAS  /var/folders/f9/8bk2lnw15zn4cbgn6wrnb4lm0000gn/T//ccCGlkPS.s 			page 231


 11421 01d7 05       		.byte	0x5
 11422 01d8 D101     		.uleb128 0xd1
 11423 01da F63D0000 		.4byte	.LASF760
 11424 01de 05       		.byte	0x5
 11425 01df D601     		.uleb128 0xd6
 11426 01e1 90450000 		.4byte	.LASF761
 11427 01e5 05       		.byte	0x5
 11428 01e6 D701     		.uleb128 0xd7
 11429 01e8 7C700000 		.4byte	.LASF762
 11430 01ec 05       		.byte	0x5
 11431 01ed D801     		.uleb128 0xd8
 11432 01ef 5B040000 		.4byte	.LASF763
 11433 01f3 05       		.byte	0x5
 11434 01f4 D901     		.uleb128 0xd9
 11435 01f6 1F420000 		.4byte	.LASF764
 11436 01fa 05       		.byte	0x5
 11437 01fb DA01     		.uleb128 0xda
 11438 01fd 877C0000 		.4byte	.LASF765
 11439 0201 05       		.byte	0x5
 11440 0202 DB01     		.uleb128 0xdb
 11441 0204 A4550000 		.4byte	.LASF766
 11442 0208 05       		.byte	0x5
 11443 0209 DC01     		.uleb128 0xdc
 11444 020b B95F0000 		.4byte	.LASF767
 11445 020f 05       		.byte	0x5
 11446 0210 DD01     		.uleb128 0xdd
 11447 0212 CB7A0000 		.4byte	.LASF768
 11448 0216 05       		.byte	0x5
 11449 0217 DE01     		.uleb128 0xde
 11450 0219 45370000 		.4byte	.LASF769
 11451 021d 05       		.byte	0x5
 11452 021e E301     		.uleb128 0xe3
 11453 0220 58300000 		.4byte	.LASF770
 11454 0224 05       		.byte	0x5
 11455 0225 E401     		.uleb128 0xe4
 11456 0227 A9430000 		.4byte	.LASF771
 11457 022b 05       		.byte	0x5
 11458 022c E501     		.uleb128 0xe5
 11459 022e B7600000 		.4byte	.LASF772
 11460 0232 05       		.byte	0x5
 11461 0233 E601     		.uleb128 0xe6
 11462 0235 6E4A0000 		.4byte	.LASF773
 11463 0239 05       		.byte	0x5
 11464 023a E701     		.uleb128 0xe7
 11465 023c A1260000 		.4byte	.LASF774
 11466 0240 05       		.byte	0x5
 11467 0241 E801     		.uleb128 0xe8
 11468 0243 24050000 		.4byte	.LASF775
 11469 0247 05       		.byte	0x5
 11470 0248 ED01     		.uleb128 0xed
 11471 024a BD080000 		.4byte	.LASF776
 11472 024e 05       		.byte	0x5
 11473 024f EE01     		.uleb128 0xee
 11474 0251 E90E0000 		.4byte	.LASF777
 11475 0255 05       		.byte	0x5
 11476 0256 EF01     		.uleb128 0xef
 11477 0258 F3780000 		.4byte	.LASF778
ARM GAS  /var/folders/f9/8bk2lnw15zn4cbgn6wrnb4lm0000gn/T//ccCGlkPS.s 			page 232


 11478 025c 05       		.byte	0x5
 11479 025d F001     		.uleb128 0xf0
 11480 025f 9F180000 		.4byte	.LASF779
 11481 0263 05       		.byte	0x5
 11482 0264 F201     		.uleb128 0xf2
 11483 0266 D8490000 		.4byte	.LASF780
 11484 026a 05       		.byte	0x5
 11485 026b F301     		.uleb128 0xf3
 11486 026d 204E0000 		.4byte	.LASF781
 11487 0271 05       		.byte	0x5
 11488 0272 F601     		.uleb128 0xf6
 11489 0274 55290000 		.4byte	.LASF782
 11490 0278 05       		.byte	0x5
 11491 0279 FB01     		.uleb128 0xfb
 11492 027b 6B1E0000 		.4byte	.LASF783
 11493 027f 05       		.byte	0x5
 11494 0280 FC01     		.uleb128 0xfc
 11495 0282 EC0D0000 		.4byte	.LASF784
 11496 0286 05       		.byte	0x5
 11497 0287 FD01     		.uleb128 0xfd
 11498 0289 C5760000 		.4byte	.LASF785
 11499 028d 05       		.byte	0x5
 11500 028e FE01     		.uleb128 0xfe
 11501 0290 381D0000 		.4byte	.LASF786
 11502 0294 05       		.byte	0x5
 11503 0295 FF01     		.uleb128 0xff
 11504 0297 490F0000 		.4byte	.LASF787
 11505 029b 05       		.byte	0x5
 11506 029c 8402     		.uleb128 0x104
 11507 029e 8F3E0000 		.4byte	.LASF788
 11508 02a2 05       		.byte	0x5
 11509 02a3 8902     		.uleb128 0x109
 11510 02a5 3B420000 		.4byte	.LASF789
 11511 02a9 05       		.byte	0x5
 11512 02aa 8A02     		.uleb128 0x10a
 11513 02ac C2710000 		.4byte	.LASF790
 11514 02b0 05       		.byte	0x5
 11515 02b1 8B02     		.uleb128 0x10b
 11516 02b3 8F300000 		.4byte	.LASF791
 11517 02b7 05       		.byte	0x5
 11518 02b8 8C02     		.uleb128 0x10c
 11519 02ba EB570000 		.4byte	.LASF792
 11520 02be 05       		.byte	0x5
 11521 02bf 8D02     		.uleb128 0x10d
 11522 02c1 1F310000 		.4byte	.LASF793
 11523 02c5 05       		.byte	0x5
 11524 02c6 9202     		.uleb128 0x112
 11525 02c8 76500000 		.4byte	.LASF794
 11526 02cc 05       		.byte	0x5
 11527 02cd 9302     		.uleb128 0x113
 11528 02cf 58600000 		.4byte	.LASF795
 11529 02d3 05       		.byte	0x5
 11530 02d4 9402     		.uleb128 0x114
 11531 02d6 BF090000 		.4byte	.LASF796
 11532 02da 05       		.byte	0x5
 11533 02db 9902     		.uleb128 0x119
 11534 02dd 02100000 		.4byte	.LASF797
ARM GAS  /var/folders/f9/8bk2lnw15zn4cbgn6wrnb4lm0000gn/T//ccCGlkPS.s 			page 233


 11535 02e1 05       		.byte	0x5
 11536 02e2 9A02     		.uleb128 0x11a
 11537 02e4 1F070000 		.4byte	.LASF798
 11538 02e8 05       		.byte	0x5
 11539 02e9 9F02     		.uleb128 0x11f
 11540 02eb 325D0000 		.4byte	.LASF799
 11541 02ef 05       		.byte	0x5
 11542 02f0 A002     		.uleb128 0x120
 11543 02f2 14380000 		.4byte	.LASF800
 11544 02f6 05       		.byte	0x5
 11545 02f7 A102     		.uleb128 0x121
 11546 02f9 851F0000 		.4byte	.LASF801
 11547 02fd 05       		.byte	0x5
 11548 02fe A202     		.uleb128 0x122
 11549 0300 5B5D0000 		.4byte	.LASF802
 11550 0304 05       		.byte	0x5
 11551 0305 A302     		.uleb128 0x123
 11552 0307 3B4A0000 		.4byte	.LASF803
 11553 030b 05       		.byte	0x5
 11554 030c A402     		.uleb128 0x124
 11555 030e 17780000 		.4byte	.LASF804
 11556 0312 05       		.byte	0x5
 11557 0313 A502     		.uleb128 0x125
 11558 0315 9F750000 		.4byte	.LASF805
 11559 0319 00       		.byte	0
 11560              		.section	.debug_macro,"G",%progbits,wm4.wwdt_11xx.h.33.5768344983cb842df69cc91ea86cabb0,comdat
 11561              	.Ldebug_macro19:
 11562 0000 0400     		.2byte	0x4
 11563 0002 00       		.byte	0
 11564 0003 05       		.byte	0x5
 11565 0004 21       		.uleb128 0x21
 11566 0005 1F110000 		.4byte	.LASF806
 11567 0009 05       		.byte	0x5
 11568 000a 4B       		.uleb128 0x4b
 11569 000b 35660000 		.4byte	.LASF807
 11570 000f 05       		.byte	0x5
 11571 0010 4D       		.uleb128 0x4d
 11572 0011 7C110000 		.4byte	.LASF808
 11573 0015 05       		.byte	0x5
 11574 0016 4F       		.uleb128 0x4f
 11575 0017 74580000 		.4byte	.LASF809
 11576 001b 05       		.byte	0x5
 11577 001c 51       		.uleb128 0x51
 11578 001d F43C0000 		.4byte	.LASF810
 11579 0021 05       		.byte	0x5
 11580 0022 53       		.uleb128 0x53
 11581 0023 94330000 		.4byte	.LASF811
 11582 0027 05       		.byte	0x5
 11583 0028 55       		.uleb128 0x55
 11584 0029 95420000 		.4byte	.LASF812
 11585 002d 00       		.byte	0
 11586              		.section	.debug_macro,"G",%progbits,wm4.ssp_11xx.h.33.af054d3d65f4cb0c078be40bb872ec37,comdat
 11587              	.Ldebug_macro20:
 11588 0000 0400     		.2byte	0x4
 11589 0002 00       		.byte	0
 11590 0003 05       		.byte	0x5
 11591 0004 21       		.uleb128 0x21
ARM GAS  /var/folders/f9/8bk2lnw15zn4cbgn6wrnb4lm0000gn/T//ccCGlkPS.s 			page 234


 11592 0005 412C0000 		.4byte	.LASF813
 11593 0009 05       		.byte	0x5
 11594 000a 40       		.uleb128 0x40
 11595 000b B24C0000 		.4byte	.LASF814
 11596 000f 05       		.byte	0x5
 11597 0010 42       		.uleb128 0x42
 11598 0011 4B070000 		.4byte	.LASF815
 11599 0015 05       		.byte	0x5
 11600 0016 44       		.uleb128 0x44
 11601 0017 95290000 		.4byte	.LASF816
 11602 001b 05       		.byte	0x5
 11603 001c 46       		.uleb128 0x46
 11604 001d 454F0000 		.4byte	.LASF817
 11605 0021 05       		.byte	0x5
 11606 0022 49       		.uleb128 0x49
 11607 0023 27590000 		.4byte	.LASF818
 11608 0027 05       		.byte	0x5
 11609 0028 4A       		.uleb128 0x4a
 11610 0029 39090000 		.4byte	.LASF819
 11611 002d 05       		.byte	0x5
 11612 002e 4D       		.uleb128 0x4d
 11613 002f 2A6F0000 		.4byte	.LASF820
 11614 0033 05       		.byte	0x5
 11615 0034 4E       		.uleb128 0x4e
 11616 0035 8E340000 		.4byte	.LASF821
 11617 0039 05       		.byte	0x5
 11618 003a 51       		.uleb128 0x51
 11619 003b DA340000 		.4byte	.LASF822
 11620 003f 05       		.byte	0x5
 11621 0040 53       		.uleb128 0x53
 11622 0041 46120000 		.4byte	.LASF823
 11623 0045 05       		.byte	0x5
 11624 0046 55       		.uleb128 0x55
 11625 0047 46120000 		.4byte	.LASF823
 11626 004b 05       		.byte	0x5
 11627 004c 58       		.uleb128 0x58
 11628 004d DA340000 		.4byte	.LASF822
 11629 0051 05       		.byte	0x5
 11630 0052 5F       		.uleb128 0x5f
 11631 0053 28520000 		.4byte	.LASF824
 11632 0057 05       		.byte	0x5
 11633 0058 61       		.uleb128 0x61
 11634 0059 98000000 		.4byte	.LASF825
 11635 005d 05       		.byte	0x5
 11636 005e 63       		.uleb128 0x63
 11637 005f 7F240000 		.4byte	.LASF826
 11638 0063 05       		.byte	0x5
 11639 0064 64       		.uleb128 0x64
 11640 0065 60340000 		.4byte	.LASF827
 11641 0069 05       		.byte	0x5
 11642 006a 67       		.uleb128 0x67
 11643 006b 016F0000 		.4byte	.LASF828
 11644 006f 05       		.byte	0x5
 11645 0070 69       		.uleb128 0x69
 11646 0071 CF780000 		.4byte	.LASF829
 11647 0075 05       		.byte	0x5
 11648 0076 6C       		.uleb128 0x6c
ARM GAS  /var/folders/f9/8bk2lnw15zn4cbgn6wrnb4lm0000gn/T//ccCGlkPS.s 			page 235


 11649 0077 B9770000 		.4byte	.LASF830
 11650 007b 05       		.byte	0x5
 11651 007c 72       		.uleb128 0x72
 11652 007d FE1F0000 		.4byte	.LASF831
 11653 0081 05       		.byte	0x5
 11654 0082 79       		.uleb128 0x79
 11655 0083 22370000 		.4byte	.LASF832
 11656 0087 05       		.byte	0x5
 11657 0088 7C       		.uleb128 0x7c
 11658 0089 40430000 		.4byte	.LASF833
 11659 008d 05       		.byte	0x5
 11660 008e C503     		.uleb128 0x1c5
 11661 0090 8B3D0000 		.4byte	.LASF834
 11662 0094 05       		.byte	0x5
 11663 0095 C603     		.uleb128 0x1c6
 11664 0097 A8320000 		.4byte	.LASF835
 11665 009b 05       		.byte	0x5
 11666 009c CF03     		.uleb128 0x1cf
 11667 009e C41A0000 		.4byte	.LASF836
 11668 00a2 05       		.byte	0x5
 11669 00a3 D003     		.uleb128 0x1d0
 11670 00a5 901D0000 		.4byte	.LASF837
 11671 00a9 05       		.byte	0x5
 11672 00aa D303     		.uleb128 0x1d3
 11673 00ac 1F7A0000 		.4byte	.LASF838
 11674 00b0 05       		.byte	0x5
 11675 00b1 D403     		.uleb128 0x1d4
 11676 00b3 B70C0000 		.4byte	.LASF839
 11677 00b7 00       		.byte	0
 11678              		.section	.debug_macro,"G",%progbits,wm4.error.h.38.ae74fe1dd9d19c80c505f1fda144fce8,comdat
 11679              	.Ldebug_macro21:
 11680 0000 0400     		.2byte	0x4
 11681 0002 00       		.byte	0
 11682 0003 05       		.byte	0x5
 11683 0004 26       		.uleb128 0x26
 11684 0005 A5510000 		.4byte	.LASF841
 11685 0009 05       		.byte	0x5
 11686 000a 8401     		.uleb128 0x84
 11687 000c 3F080000 		.4byte	.LASF842
 11688 0010 00       		.byte	0
 11689              		.section	.debug_macro,"G",%progbits,wm4.adc_11xx.h.33.6ce7433ac6b30df70a6993d01dbd513f,comdat
 11690              	.Ldebug_macro22:
 11691 0000 0400     		.2byte	0x4
 11692 0002 00       		.byte	0
 11693 0003 05       		.byte	0x5
 11694 0004 21       		.uleb128 0x21
 11695 0005 CF1B0000 		.4byte	.LASF843
 11696 0009 05       		.byte	0x5
 11697 000a 2F       		.uleb128 0x2f
 11698 000b BB330000 		.4byte	.LASF844
 11699 000f 05       		.byte	0x5
 11700 0010 40       		.uleb128 0x40
 11701 0011 93590000 		.4byte	.LASF845
 11702 0015 05       		.byte	0x5
 11703 0016 41       		.uleb128 0x41
 11704 0017 A64A0000 		.4byte	.LASF846
 11705 001b 05       		.byte	0x5
ARM GAS  /var/folders/f9/8bk2lnw15zn4cbgn6wrnb4lm0000gn/T//ccCGlkPS.s 			page 236


 11706 001c 43       		.uleb128 0x43
 11707 001d F24C0000 		.4byte	.LASF847
 11708 0021 05       		.byte	0x5
 11709 0022 44       		.uleb128 0x44
 11710 0023 4B410000 		.4byte	.LASF848
 11711 0027 05       		.byte	0x5
 11712 0028 45       		.uleb128 0x45
 11713 0029 3D3C0000 		.4byte	.LASF849
 11714 002d 05       		.byte	0x5
 11715 002e 46       		.uleb128 0x46
 11716 002f 607B0000 		.4byte	.LASF850
 11717 0033 05       		.byte	0x5
 11718 0034 47       		.uleb128 0x47
 11719 0035 A2110000 		.4byte	.LASF851
 11720 0039 05       		.byte	0x5
 11721 003a 48       		.uleb128 0x48
 11722 003b 44750000 		.4byte	.LASF852
 11723 003f 05       		.byte	0x5
 11724 0040 49       		.uleb128 0x49
 11725 0041 74610000 		.4byte	.LASF853
 11726 0045 05       		.byte	0x5
 11727 0046 4A       		.uleb128 0x4a
 11728 0047 131B0000 		.4byte	.LASF854
 11729 004b 05       		.byte	0x5
 11730 004c 4B       		.uleb128 0x4b
 11731 004d 21210000 		.4byte	.LASF855
 11732 0051 05       		.byte	0x5
 11733 0052 4C       		.uleb128 0x4c
 11734 0053 15440000 		.4byte	.LASF856
 11735 0057 05       		.byte	0x5
 11736 0058 4D       		.uleb128 0x4d
 11737 0059 3D170000 		.4byte	.LASF857
 11738 005d 05       		.byte	0x5
 11739 005e 4E       		.uleb128 0x4e
 11740 005f 53530000 		.4byte	.LASF858
 11741 0063 05       		.byte	0x5
 11742 0064 4F       		.uleb128 0x4f
 11743 0065 1B3D0000 		.4byte	.LASF859
 11744 0069 05       		.byte	0x5
 11745 006a 50       		.uleb128 0x50
 11746 006b 53610000 		.4byte	.LASF860
 11747 006f 05       		.byte	0x5
 11748 0070 51       		.uleb128 0x51
 11749 0071 51540000 		.4byte	.LASF861
 11750 0075 05       		.byte	0x5
 11751 0076 52       		.uleb128 0x52
 11752 0077 F95A0000 		.4byte	.LASF862
 11753 007b 00       		.byte	0
 11754              		.section	.debug_macro,"G",%progbits,wm4.i2c_11xx.h.33.2b506d1350e00a8c26e8bf006a5f9390,comdat
 11755              	.Ldebug_macro23:
 11756 0000 0400     		.2byte	0x4
 11757 0002 00       		.byte	0
 11758 0003 05       		.byte	0x5
 11759 0004 21       		.uleb128 0x21
 11760 0005 A46C0000 		.4byte	.LASF864
 11761 0009 05       		.byte	0x5
 11762 000a 46       		.uleb128 0x46
ARM GAS  /var/folders/f9/8bk2lnw15zn4cbgn6wrnb4lm0000gn/T//ccCGlkPS.s 			page 237


 11763 000b 970E0000 		.4byte	.LASF865
 11764 000f 05       		.byte	0x5
 11765 0010 47       		.uleb128 0x47
 11766 0011 00700000 		.4byte	.LASF866
 11767 0015 05       		.byte	0x5
 11768 0016 48       		.uleb128 0x48
 11769 0017 6B1C0000 		.4byte	.LASF867
 11770 001b 05       		.byte	0x5
 11771 001c 49       		.uleb128 0x49
 11772 001d 186A0000 		.4byte	.LASF868
 11773 0021 05       		.byte	0x5
 11774 0022 4E       		.uleb128 0x4e
 11775 0023 98690000 		.4byte	.LASF869
 11776 0027 05       		.byte	0x5
 11777 0028 53       		.uleb128 0x53
 11778 0029 E1300000 		.4byte	.LASF870
 11779 002d 05       		.byte	0x5
 11780 002e 54       		.uleb128 0x54
 11781 002f D00A0000 		.4byte	.LASF871
 11782 0033 05       		.byte	0x5
 11783 0034 55       		.uleb128 0x55
 11784 0035 00000000 		.4byte	.LASF872
 11785 0039 05       		.byte	0x5
 11786 003a 56       		.uleb128 0x56
 11787 003b A82E0000 		.4byte	.LASF873
 11788 003f 05       		.byte	0x5
 11789 0040 57       		.uleb128 0x57
 11790 0041 150F0000 		.4byte	.LASF874
 11791 0045 05       		.byte	0x5
 11792 0046 5C       		.uleb128 0x5c
 11793 0047 34770000 		.4byte	.LASF875
 11794 004b 05       		.byte	0x5
 11795 004c 5D       		.uleb128 0x5d
 11796 004d 810C0000 		.4byte	.LASF876
 11797 0051 05       		.byte	0x5
 11798 0052 5E       		.uleb128 0x5e
 11799 0053 FC530000 		.4byte	.LASF877
 11800 0057 05       		.byte	0x5
 11801 0058 5F       		.uleb128 0x5f
 11802 0059 F00C0000 		.4byte	.LASF878
 11803 005d 05       		.byte	0x5
 11804 005e 60       		.uleb128 0x60
 11805 005f 59260000 		.4byte	.LASF879
 11806 0063 05       		.byte	0x5
 11807 0064 65       		.uleb128 0x65
 11808 0065 9C4C0000 		.4byte	.LASF880
 11809 0069 05       		.byte	0x5
 11810 006a 66       		.uleb128 0x66
 11811 006b D4530000 		.4byte	.LASF881
 11812 006f 05       		.byte	0x5
 11813 0070 67       		.uleb128 0x67
 11814 0071 D90C0000 		.4byte	.LASF882
 11815 0075 05       		.byte	0x5
 11816 0076 68       		.uleb128 0x68
 11817 0077 E3200000 		.4byte	.LASF883
 11818 007b 05       		.byte	0x5
 11819 007c 69       		.uleb128 0x69
ARM GAS  /var/folders/f9/8bk2lnw15zn4cbgn6wrnb4lm0000gn/T//ccCGlkPS.s 			page 238


 11820 007d 9E4D0000 		.4byte	.LASF884
 11821 0081 05       		.byte	0x5
 11822 0082 6E       		.uleb128 0x6e
 11823 0083 1A3F0000 		.4byte	.LASF885
 11824 0087 05       		.byte	0x5
 11825 0088 6F       		.uleb128 0x6f
 11826 0089 59500000 		.4byte	.LASF886
 11827 008d 05       		.byte	0x5
 11828 008e 74       		.uleb128 0x74
 11829 008f 223C0000 		.4byte	.LASF887
 11830 0093 05       		.byte	0x5
 11831 0094 75       		.uleb128 0x75
 11832 0095 E7190000 		.4byte	.LASF888
 11833 0099 05       		.byte	0x5
 11834 009a 7A       		.uleb128 0x7a
 11835 009b 544B0000 		.4byte	.LASF889
 11836 009f 05       		.byte	0x5
 11837 00a0 7B       		.uleb128 0x7b
 11838 00a1 A31A0000 		.4byte	.LASF890
 11839 00a5 05       		.byte	0x5
 11840 00a6 7C       		.uleb128 0x7c
 11841 00a7 C5250000 		.4byte	.LASF891
 11842 00ab 05       		.byte	0x5
 11843 00ac 7D       		.uleb128 0x7d
 11844 00ad 1A000000 		.4byte	.LASF892
 11845 00b1 05       		.byte	0x5
 11846 00b2 7E       		.uleb128 0x7e
 11847 00b3 FD2F0000 		.4byte	.LASF893
 11848 00b7 05       		.byte	0x5
 11849 00b8 7F       		.uleb128 0x7f
 11850 00b9 8B3B0000 		.4byte	.LASF894
 11851 00bd 05       		.byte	0x5
 11852 00be 8001     		.uleb128 0x80
 11853 00c0 491C0000 		.4byte	.LASF895
 11854 00c4 05       		.byte	0x5
 11855 00c5 8501     		.uleb128 0x85
 11856 00c7 8A020000 		.4byte	.LASF896
 11857 00cb 05       		.byte	0x5
 11858 00cc 8601     		.uleb128 0x86
 11859 00ce 5D010000 		.4byte	.LASF897
 11860 00d2 05       		.byte	0x5
 11861 00d3 8701     		.uleb128 0x87
 11862 00d5 A72C0000 		.4byte	.LASF898
 11863 00d9 05       		.byte	0x5
 11864 00da 8801     		.uleb128 0x88
 11865 00dc F0620000 		.4byte	.LASF899
 11866 00e0 05       		.byte	0x5
 11867 00e1 8901     		.uleb128 0x89
 11868 00e3 2B3E0000 		.4byte	.LASF900
 11869 00e7 05       		.byte	0x5
 11870 00e8 8A01     		.uleb128 0x8a
 11871 00ea 4B0D0000 		.4byte	.LASF901
 11872 00ee 05       		.byte	0x5
 11873 00ef 8B01     		.uleb128 0x8b
 11874 00f1 2F110000 		.4byte	.LASF902
 11875 00f5 05       		.byte	0x5
 11876 00f6 9001     		.uleb128 0x90
ARM GAS  /var/folders/f9/8bk2lnw15zn4cbgn6wrnb4lm0000gn/T//ccCGlkPS.s 			page 239


 11877 00f8 372E0000 		.4byte	.LASF903
 11878 00fc 05       		.byte	0x5
 11879 00fd 9101     		.uleb128 0x91
 11880 00ff 06760000 		.4byte	.LASF904
 11881 0103 05       		.byte	0x5
 11882 0104 9301     		.uleb128 0x93
 11883 0106 FA300000 		.4byte	.LASF905
 11884 010a 05       		.byte	0x5
 11885 010b 9401     		.uleb128 0x94
 11886 010d CA4F0000 		.4byte	.LASF906
 11887 0111 05       		.byte	0x5
 11888 0112 9601     		.uleb128 0x96
 11889 0114 96100000 		.4byte	.LASF907
 11890 0118 05       		.byte	0x5
 11891 0119 9701     		.uleb128 0x97
 11892 011b 210D0000 		.4byte	.LASF908
 11893 011f 05       		.byte	0x5
 11894 0120 9801     		.uleb128 0x98
 11895 0122 17140000 		.4byte	.LASF909
 11896 0126 05       		.byte	0x5
 11897 0127 9901     		.uleb128 0x99
 11898 0129 13130000 		.4byte	.LASF910
 11899 012d 05       		.byte	0x5
 11900 012e 9A01     		.uleb128 0x9a
 11901 0130 CA430000 		.4byte	.LASF911
 11902 0134 05       		.byte	0x5
 11903 0135 A001     		.uleb128 0xa0
 11904 0137 F1580000 		.4byte	.LASF912
 11905 013b 05       		.byte	0x5
 11906 013c A101     		.uleb128 0xa1
 11907 013e A24F0000 		.4byte	.LASF913
 11908 0142 05       		.byte	0x5
 11909 0143 A301     		.uleb128 0xa3
 11910 0145 EE180000 		.4byte	.LASF914
 11911 0149 05       		.byte	0x5
 11912 014a A401     		.uleb128 0xa4
 11913 014c 21510000 		.4byte	.LASF915
 11914 0150 05       		.byte	0x5
 11915 0151 A501     		.uleb128 0xa5
 11916 0153 6F710000 		.4byte	.LASF916
 11917 0157 05       		.byte	0x5
 11918 0158 A601     		.uleb128 0xa6
 11919 015a 38300000 		.4byte	.LASF917
 11920 015e 05       		.byte	0x5
 11921 015f AB01     		.uleb128 0xab
 11922 0161 EB750000 		.4byte	.LASF918
 11923 0165 05       		.byte	0x5
 11924 0166 AC01     		.uleb128 0xac
 11925 0168 436C0000 		.4byte	.LASF919
 11926 016c 05       		.byte	0x5
 11927 016d B201     		.uleb128 0xb2
 11928 016f 50000000 		.4byte	.LASF920
 11929 0173 05       		.byte	0x5
 11930 0174 B301     		.uleb128 0xb3
 11931 0176 B6730000 		.4byte	.LASF921
 11932 017a 05       		.byte	0x5
 11933 017b B401     		.uleb128 0xb4
ARM GAS  /var/folders/f9/8bk2lnw15zn4cbgn6wrnb4lm0000gn/T//ccCGlkPS.s 			page 240


 11934 017d 71440000 		.4byte	.LASF922
 11935 0181 05       		.byte	0x5
 11936 0182 B501     		.uleb128 0xb5
 11937 0184 712D0000 		.4byte	.LASF923
 11938 0188 05       		.byte	0x5
 11939 0189 BA01     		.uleb128 0xba
 11940 018b 4C760000 		.4byte	.LASF924
 11941 018f 05       		.byte	0x5
 11942 0190 BF01     		.uleb128 0xbf
 11943 0192 25670000 		.4byte	.LASF925
 11944 0196 05       		.byte	0x5
 11945 0197 C001     		.uleb128 0xc0
 11946 0199 FF3E0000 		.4byte	.LASF926
 11947 019d 05       		.byte	0x5
 11948 019e C501     		.uleb128 0xc5
 11949 01a0 BA580000 		.4byte	.LASF927
 11950 01a4 05       		.byte	0x5
 11951 01a5 CA01     		.uleb128 0xca
 11952 01a7 2E730000 		.4byte	.LASF928
 11953 01ab 05       		.byte	0x5
 11954 01ac CF01     		.uleb128 0xcf
 11955 01ae 57420000 		.4byte	.LASF929
 11956 01b2 05       		.byte	0x5
 11957 01b3 D401     		.uleb128 0xd4
 11958 01b5 105C0000 		.4byte	.LASF930
 11959 01b9 05       		.byte	0x5
 11960 01ba D501     		.uleb128 0xd5
 11961 01bc 9D7C0000 		.4byte	.LASF931
 11962 01c0 05       		.byte	0x5
 11963 01c1 D601     		.uleb128 0xd6
 11964 01c3 C8400000 		.4byte	.LASF932
 11965 01c7 05       		.byte	0x5
 11966 01c8 DB01     		.uleb128 0xdb
 11967 01ca 43550000 		.4byte	.LASF933
 11968 01ce 05       		.byte	0x5
 11969 01cf DC01     		.uleb128 0xdc
 11970 01d1 7B5D0000 		.4byte	.LASF934
 11971 01d5 05       		.byte	0x5
 11972 01d6 DD01     		.uleb128 0xdd
 11973 01d8 4A010000 		.4byte	.LASF935
 11974 01dc 05       		.byte	0x5
 11975 01dd DE01     		.uleb128 0xde
 11976 01df 9D390000 		.4byte	.LASF936
 11977 01e3 05       		.byte	0x5
 11978 01e4 DF01     		.uleb128 0xdf
 11979 01e6 FE5B0000 		.4byte	.LASF937
 11980 01ea 05       		.byte	0x5
 11981 01eb E001     		.uleb128 0xe0
 11982 01ed 8E280000 		.4byte	.LASF938
 11983 01f1 05       		.byte	0x5
 11984 01f2 E101     		.uleb128 0xe1
 11985 01f4 98690000 		.4byte	.LASF869
 11986 01f8 05       		.byte	0x5
 11987 01f9 E301     		.uleb128 0xe3
 11988 01fb 2E6C0000 		.4byte	.LASF939
 11989 01ff 05       		.byte	0x5
 11990 0200 E401     		.uleb128 0xe4
ARM GAS  /var/folders/f9/8bk2lnw15zn4cbgn6wrnb4lm0000gn/T//ccCGlkPS.s 			page 241


 11991 0202 AF160000 		.4byte	.LASF940
 11992 0206 05       		.byte	0x5
 11993 0207 E601     		.uleb128 0xe6
 11994 0209 393F0000 		.4byte	.LASF941
 11995 020d 05       		.byte	0x5
 11996 020e EB01     		.uleb128 0xeb
 11997 0210 F8510000 		.4byte	.LASF942
 11998 0214 05       		.byte	0x5
 11999 0215 EC01     		.uleb128 0xec
 12000 0217 7F200000 		.4byte	.LASF943
 12001 021b 00       		.byte	0
 12002              		.section	.debug_macro,"G",%progbits,wm4.ccand_11xx.h.33.99627f4b529fecdc77b0877ab6fe5266,comdat
 12003              	.Ldebug_macro24:
 12004 0000 0400     		.2byte	0x4
 12005 0002 00       		.byte	0
 12006 0003 05       		.byte	0x5
 12007 0004 21       		.uleb128 0x21
 12008 0005 76000000 		.4byte	.LASF944
 12009 0009 05       		.byte	0x5
 12010 000a 6E       		.uleb128 0x6e
 12011 000b 72550000 		.4byte	.LASF945
 12012 000f 05       		.byte	0x5
 12013 0010 6F       		.uleb128 0x6f
 12014 0011 8D250000 		.4byte	.LASF946
 12015 0015 05       		.byte	0x5
 12016 0016 70       		.uleb128 0x70
 12017 0017 0A410000 		.4byte	.LASF947
 12018 001b 05       		.byte	0x5
 12019 001c 71       		.uleb128 0x71
 12020 001d AE780000 		.4byte	.LASF948
 12021 0021 05       		.byte	0x5
 12022 0022 72       		.uleb128 0x72
 12023 0023 A1190000 		.4byte	.LASF949
 12024 0027 05       		.byte	0x5
 12025 0028 73       		.uleb128 0x73
 12026 0029 8C0F0000 		.4byte	.LASF950
 12027 002d 05       		.byte	0x5
 12028 002e 74       		.uleb128 0x74
 12029 002f 3F790000 		.4byte	.LASF951
 12030 0033 05       		.byte	0x5
 12031 0034 75       		.uleb128 0x75
 12032 0035 C22E0000 		.4byte	.LASF952
 12033 0039 05       		.byte	0x5
 12034 003a 76       		.uleb128 0x76
 12035 003b 19740000 		.4byte	.LASF953
 12036 003f 05       		.byte	0x5
 12037 0040 77       		.uleb128 0x77
 12038 0041 FE450000 		.4byte	.LASF954
 12039 0045 05       		.byte	0x5
 12040 0046 7C       		.uleb128 0x7c
 12041 0047 521B0000 		.4byte	.LASF955
 12042 004b 05       		.byte	0x5
 12043 004c 7D       		.uleb128 0x7d
 12044 004d 60270000 		.4byte	.LASF956
 12045 0051 05       		.byte	0x5
 12046 0052 7E       		.uleb128 0x7e
 12047 0053 F6670000 		.4byte	.LASF957
ARM GAS  /var/folders/f9/8bk2lnw15zn4cbgn6wrnb4lm0000gn/T//ccCGlkPS.s 			page 242


 12048 0057 05       		.byte	0x5
 12049 0058 7F       		.uleb128 0x7f
 12050 0059 3C3A0000 		.4byte	.LASF958
 12051 005d 05       		.byte	0x5
 12052 005e 9101     		.uleb128 0x91
 12053 0060 EE240000 		.4byte	.LASF959
 12054 0064 05       		.byte	0x5
 12055 0065 9201     		.uleb128 0x92
 12056 0067 5A700000 		.4byte	.LASF960
 12057 006b 05       		.byte	0x5
 12058 006c 9301     		.uleb128 0x93
 12059 006e A3040000 		.4byte	.LASF961
 12060 0072 05       		.byte	0x5
 12061 0073 9401     		.uleb128 0x94
 12062 0075 8D0D0000 		.4byte	.LASF962
 12063 0079 05       		.byte	0x5
 12064 007a 9501     		.uleb128 0x95
 12065 007c 53580000 		.4byte	.LASF963
 12066 0080 05       		.byte	0x5
 12067 0081 9601     		.uleb128 0x96
 12068 0083 BF260000 		.4byte	.LASF964
 12069 0087 05       		.byte	0x5
 12070 0088 9701     		.uleb128 0x97
 12071 008a 85760000 		.4byte	.LASF965
 12072 008e 05       		.byte	0x5
 12073 008f 9801     		.uleb128 0x98
 12074 0091 2A2B0000 		.4byte	.LASF966
 12075 0095 05       		.byte	0x5
 12076 0096 9901     		.uleb128 0x99
 12077 0098 CA570000 		.4byte	.LASF967
 12078 009c 05       		.byte	0x5
 12079 009d 9A01     		.uleb128 0x9a
 12080 009f D5030000 		.4byte	.LASF968
 12081 00a3 05       		.byte	0x5
 12082 00a4 9B01     		.uleb128 0x9b
 12083 00a6 B8340000 		.4byte	.LASF969
 12084 00aa 05       		.byte	0x5
 12085 00ab 9C01     		.uleb128 0x9c
 12086 00ad 621F0000 		.4byte	.LASF970
 12087 00b1 05       		.byte	0x5
 12088 00b2 9D01     		.uleb128 0x9d
 12089 00b4 49780000 		.4byte	.LASF971
 12090 00b8 05       		.byte	0x5
 12091 00b9 9E01     		.uleb128 0x9e
 12092 00bb 8B520000 		.4byte	.LASF972
 12093 00bf 05       		.byte	0x5
 12094 00c0 9F01     		.uleb128 0x9f
 12095 00c2 82190000 		.4byte	.LASF973
 12096 00c6 05       		.byte	0x5
 12097 00c7 A901     		.uleb128 0xa9
 12098 00c9 38610000 		.4byte	.LASF974
 12099 00cd 05       		.byte	0x5
 12100 00ce AA01     		.uleb128 0xaa
 12101 00d0 A9140000 		.4byte	.LASF975
 12102 00d4 05       		.byte	0x5
 12103 00d5 AB01     		.uleb128 0xab
 12104 00d7 C4220000 		.4byte	.LASF976
ARM GAS  /var/folders/f9/8bk2lnw15zn4cbgn6wrnb4lm0000gn/T//ccCGlkPS.s 			page 243


 12105 00db 05       		.byte	0x5
 12106 00dc AC01     		.uleb128 0xac
 12107 00de 15500000 		.4byte	.LASF977
 12108 00e2 05       		.byte	0x5
 12109 00e3 AD01     		.uleb128 0xad
 12110 00e5 C13C0000 		.4byte	.LASF978
 12111 00e9 05       		.byte	0x5
 12112 00ea AE01     		.uleb128 0xae
 12113 00ec 3A3B0000 		.4byte	.LASF979
 12114 00f0 05       		.byte	0x5
 12115 00f1 AF01     		.uleb128 0xaf
 12116 00f3 EB480000 		.4byte	.LASF980
 12117 00f7 05       		.byte	0x5
 12118 00f8 C401     		.uleb128 0xc4
 12119 00fa 051A0000 		.4byte	.LASF981
 12120 00fe 05       		.byte	0x5
 12121 00ff C501     		.uleb128 0xc5
 12122 0101 E0650000 		.4byte	.LASF982
 12123 0105 05       		.byte	0x5
 12124 0106 C601     		.uleb128 0xc6
 12125 0108 9B0A0000 		.4byte	.LASF983
 12126 010c 05       		.byte	0x5
 12127 010d C901     		.uleb128 0xc9
 12128 010f E2440000 		.4byte	.LASF984
 12129 0113 05       		.byte	0x5
 12130 0114 CA01     		.uleb128 0xca
 12131 0116 8D470000 		.4byte	.LASF985
 12132 011a 05       		.byte	0x5
 12133 011b CB01     		.uleb128 0xcb
 12134 011d D8110000 		.4byte	.LASF986
 12135 0121 05       		.byte	0x5
 12136 0122 E501     		.uleb128 0xe5
 12137 0124 E55E0000 		.4byte	.LASF987
 12138 0128 00       		.byte	0
 12139              		.section	.debug_line,"",%progbits
 12140              	.Ldebug_line0:
 12141 0000 E5090000 		.section	.debug_str,"MS",%progbits,1
 12141      02003103 
 12141      00000201 
 12141      FB0E0D00 
 12141      01010101 
 12142              	.LASF872:
 12143 0000 4932435F 		.ascii	"I2C_I2CONSET_STO ((0x10))\000"
 12143      4932434F 
 12143      4E534554 
 12143      5F53544F 
 12143      20282830 
 12144              	.LASF892:
 12145 001a 4932435F 		.ascii	"I2C_I2STAT_M_TX_SLAW_NACK ((0x20))\000"
 12145      49325354 
 12145      41545F4D 
 12145      5F54585F 
 12145      534C4157 
 12146              	.LASF154:
 12147 003d 5F5F4445 		.ascii	"__DECIMAL_DIG__ 17\000"
 12147      43494D41 
 12147      4C5F4449 
ARM GAS  /var/folders/f9/8bk2lnw15zn4cbgn6wrnb4lm0000gn/T//ccCGlkPS.s 			page 244


 12147      475F5F20 
 12147      313700
 12148              	.LASF920:
 12149 0050 4932435F 		.ascii	"I2C_I2MMCTRL_MM_ENA ((1 << 0))\000"
 12149      49324D4D 
 12149      4354524C 
 12149      5F4D4D5F 
 12149      454E4120 
 12150              	.LASF1214:
 12151 006f 77646174 		.ascii	"wdata8\000"
 12151      613800
 12152              	.LASF944:
 12153 0076 5F5F4343 		.ascii	"__CCAND_11XX_H_ \000"
 12153      414E445F 
 12153      31315858 
 12153      5F485F20 
 12153      00
 12154              	.LASF1089:
 12155 0087 53595343 		.ascii	"SYSCTL_CLOCK_SYS\000"
 12155      544C5F43 
 12155      4C4F434B 
 12155      5F535953 
 12155      00
 12156              	.LASF825:
 12157 0098 5353505F 		.ascii	"SSP_CR1_SSP_EN ((uint32_t) (1 << 1))\000"
 12157      4352315F 
 12157      5353505F 
 12157      454E2028 
 12157      2875696E 
 12158              	.LASF442:
 12159 00bd 5F424954 		.ascii	"_BIT\000"
 12159      00
 12160              	.LASF109:
 12161 00c2 5F5F494E 		.ascii	"__INT_FAST32_MAX__ 2147483647\000"
 12161      545F4641 
 12161      53543332 
 12161      5F4D4158 
 12161      5F5F2032 
 12162              	.LASF569:
 12163 00e0 4C50435F 		.ascii	"LPC_IOCON_BASE 0x40044000\000"
 12163      494F434F 
 12163      4E5F4241 
 12163      53452030 
 12163      78343030 
 12164              	.LASF548:
 12165 00fa 4E564943 		.ascii	"NVIC_BASE (SCS_BASE + 0x0100UL)\000"
 12165      5F424153 
 12165      45202853 
 12165      43535F42 
 12165      41534520 
 12166              	.LASF307:
 12167 011a 5F5F4743 		.ascii	"__GCC_ATOMIC_WCHAR_T_LOCK_FREE 1\000"
 12167      435F4154 
 12167      4F4D4943 
 12167      5F574348 
 12167      41525F54 
 12168              	.LASF290:
ARM GAS  /var/folders/f9/8bk2lnw15zn4cbgn6wrnb4lm0000gn/T//ccCGlkPS.s 			page 245


 12169 013b 5F5F5441 		.ascii	"__TA_IBIT__ 64\000"
 12169      5F494249 
 12169      545F5F20 
 12169      363400
 12170              	.LASF935:
 12171 014a 4932435F 		.ascii	"I2C_BYTE_RECV 0x02\000"
 12171      42595445 
 12171      5F524543 
 12171      56203078 
 12171      303200
 12172              	.LASF897:
 12173 015d 4932435F 		.ascii	"I2C_I2STAT_M_RX_RESTART ((0x10))\000"
 12173      49325354 
 12173      41545F4D 
 12173      5F52585F 
 12173      52455354 
 12174              	.LASF1091:
 12175 017e 53595343 		.ascii	"SYSCTL_CLOCK_RAM\000"
 12175      544C5F43 
 12175      4C4F434B 
 12175      5F52414D 
 12175      00
 12176              	.LASF183:
 12177 018f 5F5F5346 		.ascii	"__SFRACT_FBIT__ 7\000"
 12177      52414354 
 12177      5F464249 
 12177      545F5F20 
 12177      3700
 12178              	.LASF1011:
 12179 01a1 73697A65 		.ascii	"sizetype\000"
 12179      74797065 
 12179      00
 12180              	.LASF70:
 12181 01aa 5F5F4C4F 		.ascii	"__LONG_LONG_MAX__ 9223372036854775807LL\000"
 12181      4E475F4C 
 12181      4F4E475F 
 12181      4D41585F 
 12181      5F203932 
 12182              	.LASF557:
 12183 01d2 4C50435F 		.ascii	"LPC_WWDT_BASE 0x40004000\000"
 12183      57574454 
 12183      5F424153 
 12183      45203078 
 12183      34303030 
 12184              	.LASF1194:
 12185 01eb 636C6B5F 		.ascii	"clk_rate\000"
 12185      72617465 
 12185      00
 12186              	.LASF255:
 12187 01f4 5F5F4C4C 		.ascii	"__LLACCUM_MIN__ (-0X1P31LLK-0X1P31LLK)\000"
 12187      41434355 
 12187      4D5F4D49 
 12187      4E5F5F20 
 12187      282D3058 
 12188              	.LASF247:
 12189 021b 5F5F4C41 		.ascii	"__LACCUM_EPSILON__ 0x1P-31LK\000"
 12189      4343554D 
ARM GAS  /var/folders/f9/8bk2lnw15zn4cbgn6wrnb4lm0000gn/T//ccCGlkPS.s 			page 246


 12189      5F455053 
 12189      494C4F4E 
 12189      5F5F2030 
 12190              	.LASF395:
 12191 0238 494E5436 		.ascii	"INT64_MAX __INT64_MAX__\000"
 12191      345F4D41 
 12191      58205F5F 
 12191      494E5436 
 12191      345F4D41 
 12192              	.LASF180:
 12193 0250 5F5F4445 		.ascii	"__DEC128_MAX__ 9.999999999999999999999999999999999E"
 12193      43313238 
 12193      5F4D4158 
 12193      5F5F2039 
 12193      2E393939 
 12194 0283 36313434 		.ascii	"6144DL\000"
 12194      444C00
 12195              	.LASF896:
 12196 028a 4932435F 		.ascii	"I2C_I2STAT_M_RX_START ((0x08))\000"
 12196      49325354 
 12196      41545F4D 
 12196      5F52585F 
 12196      53544152 
 12197              	.LASF78:
 12198 02a9 5F5F494E 		.ascii	"__INTMAX_C(c) c ## LL\000"
 12198      544D4158 
 12198      5F432863 
 12198      29206320 
 12198      2323204C 
 12199              	.LASF497:
 12200 02bf 5343425F 		.ascii	"SCB_ICSR_PENDSTCLR_Msk (1UL << SCB_ICSR_PENDSTCLR_P"
 12200      49435352 
 12200      5F50454E 
 12200      44535443 
 12200      4C525F4D 
 12201 02f2 6F732900 		.ascii	"os)\000"
 12202              	.LASF241:
 12203 02f6 5F5F5541 		.ascii	"__UACCUM_MAX__ 0XFFFFFFFFP-16UK\000"
 12203      4343554D 
 12203      5F4D4158 
 12203      5F5F2030 
 12203      58464646 
 12204              	.LASF168:
 12205 0316 5F5F4445 		.ascii	"__DEC32_SUBNORMAL_MIN__ 0.000001E-95DF\000"
 12205      4333325F 
 12205      5355424E 
 12205      4F524D41 
 12205      4C5F4D49 
 12206              	.LASF272:
 12207 033d 5F5F5451 		.ascii	"__TQ_IBIT__ 0\000"
 12207      5F494249 
 12207      545F5F20 
 12207      3000
 12208              	.LASF1154:
 12209 034b 5353505F 		.ascii	"SSP_BITS_12\000"
 12209      42495453 
 12209      5F313200 
ARM GAS  /var/folders/f9/8bk2lnw15zn4cbgn6wrnb4lm0000gn/T//ccCGlkPS.s 			page 247


 12210              	.LASF423:
 12211 0357 57494E54 		.ascii	"WINT_MIN __WINT_MIN__\000"
 12211      5F4D494E 
 12211      205F5F57 
 12211      494E545F 
 12211      4D494E5F 
 12212              	.LASF741:
 12213 036d 55415254 		.ascii	"UART_LCR_BREAK_EN (1 << 6)\000"
 12213      5F4C4352 
 12213      5F425245 
 12213      414B5F45 
 12213      4E202831 
 12214              	.LASF1187:
 12215 0388 52617749 		.ascii	"RawInt\000"
 12215      6E7400
 12216              	.LASF11:
 12217 038f 5F5F4154 		.ascii	"__ATOMIC_CONSUME 1\000"
 12217      4F4D4943 
 12217      5F434F4E 
 12217      53554D45 
 12217      203100
 12218              	.LASF205:
 12219 03a2 5F5F4C46 		.ascii	"__LFRACT_MIN__ (-0.5LR-0.5LR)\000"
 12219      52414354 
 12219      5F4D494E 
 12219      5F5F2028 
 12219      2D302E35 
 12220              	.LASF659:
 12221 03c0 4D445F41 		.ascii	"MD_ADMODE (0x0 << 7)\000"
 12221      444D4F44 
 12221      45202830 
 12221      7830203C 
 12221      3C203729 
 12222              	.LASF968:
 12223 03d5 53444F5F 		.ascii	"SDO_ABORT_TYPEMISMATCH 0x06070010UL\000"
 12223      41424F52 
 12223      545F5459 
 12223      50454D49 
 12223      534D4154 
 12224              	.LASF483:
 12225 03f9 5343425F 		.ascii	"SCB_CPUID_ARCHITECTURE_Msk (0xFUL << SCB_CPUID_ARCH"
 12225      43505549 
 12225      445F4152 
 12225      43484954 
 12225      45435455 
 12226 042c 49544543 		.ascii	"ITECTURE_Pos)\000"
 12226      54555245 
 12226      5F506F73 
 12226      2900
 12227              	.LASF235:
 12228 043a 5F5F4143 		.ascii	"__ACCUM_MIN__ (-0X1P15K-0X1P15K)\000"
 12228      43554D5F 
 12228      4D494E5F 
 12228      5F20282D 
 12228      30583150 
 12229              	.LASF763:
 12230 045b 55415254 		.ascii	"UART_MSR_LO2HI_RI (1 << 2)\000"
ARM GAS  /var/folders/f9/8bk2lnw15zn4cbgn6wrnb4lm0000gn/T//ccCGlkPS.s 			page 248


 12230      5F4D5352 
 12230      5F4C4F32 
 12230      48495F52 
 12230      49202831 
 12231              	.LASF748:
 12232 0476 55415254 		.ascii	"UART_MCR_AUTO_CTS_EN (1 << 7)\000"
 12232      5F4D4352 
 12232      5F415554 
 12232      4F5F4354 
 12232      535F454E 
 12233              	.LASF135:
 12234 0494 5F5F4442 		.ascii	"__DBL_DIG__ 15\000"
 12234      4C5F4449 
 12234      475F5F20 
 12234      313500
 12235              	.LASF961:
 12236 04a3 53444F5F 		.ascii	"SDO_ABORT_UNKNOWN_COMMAND 0x05040001UL\000"
 12236      41424F52 
 12236      545F554E 
 12236      4B4E4F57 
 12236      4E5F434F 
 12237              	.LASF500:
 12238 04ca 5343425F 		.ascii	"SCB_ICSR_ISRPENDING_Pos 22\000"
 12238      49435352 
 12238      5F495352 
 12238      50454E44 
 12238      494E475F 
 12239              	.LASF1208:
 12240 04e5 43686970 		.ascii	"Chip_SSP_Disable\000"
 12240      5F535350 
 12240      5F446973 
 12240      61626C65 
 12240      00
 12241              	.LASF16:
 12242 04f6 5F5F5349 		.ascii	"__SIZEOF_LONG_LONG__ 8\000"
 12242      5A454F46 
 12242      5F4C4F4E 
 12242      475F4C4F 
 12242      4E475F5F 
 12243              	.LASF139:
 12244 050d 5F5F4442 		.ascii	"__DBL_MAX_10_EXP__ 308\000"
 12244      4C5F4D41 
 12244      585F3130 
 12244      5F455850 
 12244      5F5F2033 
 12245              	.LASF775:
 12246 0524 55415254 		.ascii	"UART_ACR_BITMASK (0x307)\000"
 12246      5F414352 
 12246      5F424954 
 12246      4D41534B 
 12246      20283078 
 12247              	.LASF744:
 12248 053d 55415254 		.ascii	"UART_MCR_DTR_CTRL (1 << 0)\000"
 12248      5F4D4352 
 12248      5F445452 
 12248      5F435452 
 12248      4C202831 
ARM GAS  /var/folders/f9/8bk2lnw15zn4cbgn6wrnb4lm0000gn/T//ccCGlkPS.s 			page 249


 12249              	.LASF195:
 12250 0558 5F5F4652 		.ascii	"__FRACT_MIN__ (-0.5R-0.5R)\000"
 12250      4143545F 
 12250      4D494E5F 
 12250      5F20282D 
 12250      302E3552 
 12251              	.LASF261:
 12252 0573 5F5F554C 		.ascii	"__ULLACCUM_MAX__ 0XFFFFFFFFFFFFFFFFP-32ULLK\000"
 12252      4C414343 
 12252      554D5F4D 
 12252      41585F5F 
 12252      20305846 
 12253              	.LASF531:
 12254 059f 53797354 		.ascii	"SysTick_CTRL_CLKSOURCE_Msk (1UL << SysTick_CTRL_CLK"
 12254      69636B5F 
 12254      4354524C 
 12254      5F434C4B 
 12254      534F5552 
 12255 05d2 534F5552 		.ascii	"SOURCE_Pos)\000"
 12255      43455F50 
 12255      6F732900 
 12256              	.LASF1139:
 12257 05de 5353505F 		.ascii	"SSP_CLOCK_MODE2\000"
 12257      434C4F43 
 12257      4B5F4D4F 
 12257      44453200 
 12258              	.LASF165:
 12259 05ee 5F5F4445 		.ascii	"__DEC32_MIN__ 1E-95DF\000"
 12259      4333325F 
 12259      4D494E5F 
 12259      5F203145 
 12259      2D393544 
 12260              	.LASF661:
 12261 0604 4D445F44 		.ascii	"MD_DISFIL (0x0 << 8)\000"
 12261      49534649 
 12261      4C202830 
 12261      7830203C 
 12261      3C203829 
 12262              	.LASF332:
 12263 0619 5F5F4152 		.ascii	"__ARM_NEON_FP 4\000"
 12263      4D5F4E45 
 12263      4F4E5F46 
 12263      50203400 
 12264              	.LASF562:
 12265 0629 4C50435F 		.ascii	"LPC_TIMER32_1_BASE 0x40018000\000"
 12265      54494D45 
 12265      5233325F 
 12265      315F4241 
 12265      53452030 
 12266              	.LASF268:
 12267 0647 5F5F5351 		.ascii	"__SQ_IBIT__ 0\000"
 12267      5F494249 
 12267      545F5F20 
 12267      3000
 12268              	.LASF26:
 12269 0655 5F5F4F52 		.ascii	"__ORDER_PDP_ENDIAN__ 3412\000"
 12269      4445525F 
ARM GAS  /var/folders/f9/8bk2lnw15zn4cbgn6wrnb4lm0000gn/T//ccCGlkPS.s 			page 250


 12269      5044505F 
 12269      454E4449 
 12269      414E5F5F 
 12270              	.LASF1108:
 12271 066f 43484950 		.ascii	"CHIP_SYSCTL_CLOCK_T\000"
 12271      5F535953 
 12271      43544C5F 
 12271      434C4F43 
 12271      4B5F5400 
 12272              	.LASF171:
 12273 0683 5F5F4445 		.ascii	"__DEC64_MAX_EXP__ 385\000"
 12273      4336345F 
 12273      4D41585F 
 12273      4558505F 
 12273      5F203338 
 12274              	.LASF1054:
 12275 0699 424F4443 		.ascii	"BODCTRL\000"
 12275      54524C00 
 12276              	.LASF525:
 12277 06a1 5343425F 		.ascii	"SCB_CCR_UNALIGN_TRP_Msk (1UL << SCB_CCR_UNALIGN_TRP"
 12277      4343525F 
 12277      554E414C 
 12277      49474E5F 
 12277      5452505F 
 12278 06d4 5F506F73 		.ascii	"_Pos)\000"
 12278      2900
 12279              	.LASF131:
 12280 06da 5F5F464C 		.ascii	"__FLT_HAS_DENORM__ 1\000"
 12280      545F4841 
 12280      535F4445 
 12280      4E4F524D 
 12280      5F5F2031 
 12281              	.LASF39:
 12282 06ef 5F5F494E 		.ascii	"__INT8_TYPE__ signed char\000"
 12282      54385F54 
 12282      5950455F 
 12282      5F207369 
 12282      676E6564 
 12283              	.LASF321:
 12284 0709 5F5F4152 		.ascii	"__ARM_ARCH_PROFILE 77\000"
 12284      4D5F4152 
 12284      43485F50 
 12284      524F4649 
 12284      4C452037 
 12285              	.LASF798:
 12286 071f 55415254 		.ascii	"UART_TER2_TXEN (1 << 0)\000"
 12286      5F544552 
 12286      325F5458 
 12286      454E2028 
 12286      31203C3C 
 12287              	.LASF1097:
 12288 0737 53595343 		.ascii	"SYSCTL_CLOCK_CT16B1\000"
 12288      544C5F43 
 12288      4C4F434B 
 12288      5F435431 
 12288      36423100 
 12289              	.LASF815:
ARM GAS  /var/folders/f9/8bk2lnw15zn4cbgn6wrnb4lm0000gn/T//ccCGlkPS.s 			page 251


 12290 074b 5353505F 		.ascii	"SSP_CR0_FRF_SPI ((uint32_t) (0 << 4))\000"
 12290      4352305F 
 12290      4652465F 
 12290      53504920 
 12290      28287569 
 12291              	.LASF758:
 12292 0771 55415254 		.ascii	"UART_LSR_TXFE (1 << 8)\000"
 12292      5F4C5352 
 12292      5F545846 
 12292      45202831 
 12292      203C3C20 
 12293              	.LASF150:
 12294 0788 5F5F4C44 		.ascii	"__LDBL_MIN_EXP__ (-1021)\000"
 12294      424C5F4D 
 12294      494E5F45 
 12294      58505F5F 
 12294      20282D31 
 12295              	.LASF148:
 12296 07a1 5F5F4C44 		.ascii	"__LDBL_MANT_DIG__ 53\000"
 12296      424C5F4D 
 12296      414E545F 
 12296      4449475F 
 12296      5F203533 
 12297              	.LASF403:
 12298 07b6 494E545F 		.ascii	"INT_FAST16_MIN (-__INT_FAST16_MAX__ - 1)\000"
 12298      46415354 
 12298      31365F4D 
 12298      494E2028 
 12298      2D5F5F49 
 12299              	.LASF319:
 12300 07df 5F5F4152 		.ascii	"__ARM_SIZEOF_MINIMAL_ENUM 1\000"
 12300      4D5F5349 
 12300      5A454F46 
 12300      5F4D494E 
 12300      494D414C 
 12301              	.LASF100:
 12302 07fb 5F5F5549 		.ascii	"__UINT8_C(c) c\000"
 12302      4E54385F 
 12302      43286329 
 12302      206300
 12303              	.LASF40:
 12304 080a 5F5F494E 		.ascii	"__INT16_TYPE__ short int\000"
 12304      5431365F 
 12304      54595045 
 12304      5F5F2073 
 12304      686F7274 
 12305              	.LASF647:
 12306 0823 494F434F 		.ascii	"IOCON_DIGMODE_EN (0x1 << 7)\000"
 12306      4E5F4449 
 12306      474D4F44 
 12306      455F454E 
 12306      20283078 
 12307              	.LASF842:
 12308 083f 434F4D50 		.ascii	"COMPILE_TIME_ASSERT(pred) switch(0){case 0:case pre"
 12308      494C455F 
 12308      54494D45 
 12308      5F415353 
ARM GAS  /var/folders/f9/8bk2lnw15zn4cbgn6wrnb4lm0000gn/T//ccCGlkPS.s 			page 252


 12308      45525428 
 12309 0872 643A3B7D 		.ascii	"d:;}\000"
 12309      00
 12310              	.LASF246:
 12311 0877 5F5F4C41 		.ascii	"__LACCUM_MAX__ 0X7FFFFFFFFFFFFFFFP-31LK\000"
 12311      4343554D 
 12311      5F4D4158 
 12311      5F5F2030 
 12311      58374646 
 12312              	.LASF561:
 12313 089f 4C50435F 		.ascii	"LPC_TIMER32_0_BASE 0x40014000\000"
 12313      54494D45 
 12313      5233325F 
 12313      305F4241 
 12313      53452030 
 12314              	.LASF776:
 12315 08bd 55415254 		.ascii	"UART_RS485CTRL_NMM_EN (1 << 0)\000"
 12315      5F525334 
 12315      38354354 
 12315      524C5F4E 
 12315      4D4D5F45 
 12316              	.LASF441:
 12317 08dc 50415241 		.ascii	"PARAM_FUNCTIONALSTATE(State) ((State == DISABLE) ||"
 12317      4D5F4655 
 12317      4E435449 
 12317      4F4E414C 
 12317      53544154 
 12318 090f 20285374 		.ascii	" (State == ENABLE))\000"
 12318      61746520 
 12318      3D3D2045 
 12318      4E41424C 
 12318      45292900 
 12319              	.LASF1141:
 12320 0923 43484950 		.ascii	"CHIP_SSP_FRAME_FORMAT\000"
 12320      5F535350 
 12320      5F465241 
 12320      4D455F46 
 12320      4F524D41 
 12321              	.LASF819:
 12322 0939 5353505F 		.ascii	"SSP_CR0_CPOL_HI ((uint32_t) (1 << 6))\000"
 12322      4352305F 
 12322      43504F4C 
 12322      5F484920 
 12322      28287569 
 12323              	.LASF1079:
 12324 095f 52455345 		.ascii	"RESET_CAN0\000"
 12324      545F4341 
 12324      4E3000
 12325              	.LASF410:
 12326 096a 494E545F 		.ascii	"INT_FAST64_MAX __INT_FAST64_MAX__\000"
 12326      46415354 
 12326      36345F4D 
 12326      4158205F 
 12326      5F494E54 
 12327              	.LASF633:
 12328 098c 494F434F 		.ascii	"IOCON_FUNC1 0x1\000"
 12328      4E5F4655 
ARM GAS  /var/folders/f9/8bk2lnw15zn4cbgn6wrnb4lm0000gn/T//ccCGlkPS.s 			page 253


 12328      4E433120 
 12328      30783100 
 12329              	.LASF1218:
 12330 099c 72646174 		.ascii	"rdata16\000"
 12330      61313600 
 12331              	.LASF708:
 12332 09a4 55415254 		.ascii	"UART_IIR_ABEO_INT (1 << 8)\000"
 12332      5F494952 
 12332      5F414245 
 12332      4F5F494E 
 12332      54202831 
 12333              	.LASF796:
 12334 09bf 55415254 		.ascii	"UART_FDR_BITMASK (0xFF)\000"
 12334      5F464452 
 12334      5F424954 
 12334      4D41534B 
 12334      20283078 
 12335              	.LASF1:
 12336 09d7 5F5F5354 		.ascii	"__STDC_HOSTED__ 1\000"
 12336      44435F48 
 12336      4F535445 
 12336      445F5F20 
 12336      3100
 12337              	.LASF218:
 12338 09e9 5F5F554C 		.ascii	"__ULLFRACT_FBIT__ 64\000"
 12338      4C465241 
 12338      43545F46 
 12338      4249545F 
 12338      5F203634 
 12339              	.LASF705:
 12340 09fe 55415254 		.ascii	"UART2_IER_BITMASK (0x38F)\000"
 12340      325F4945 
 12340      525F4249 
 12340      544D4153 
 12340      4B202830 
 12341              	.LASF1042:
 12342 0a18 55534243 		.ascii	"USBCLKDIV\000"
 12342      4C4B4449 
 12342      5600
 12343              	.LASF58:
 12344 0a22 5F5F494E 		.ascii	"__INT_FAST64_TYPE__ long long int\000"
 12344      545F4641 
 12344      53543634 
 12344      5F545950 
 12344      455F5F20 
 12345              	.LASF333:
 12346 0a44 5F5F5448 		.ascii	"__THUMB_INTERWORK__ 1\000"
 12346      554D425F 
 12346      494E5445 
 12346      52574F52 
 12346      4B5F5F20 
 12347              	.LASF715:
 12348 0a5a 55415254 		.ascii	"UART_IIR_INTID_THRE (1 << 1)\000"
 12348      5F494952 
 12348      5F494E54 
 12348      49445F54 
 12348      48524520 
ARM GAS  /var/folders/f9/8bk2lnw15zn4cbgn6wrnb4lm0000gn/T//ccCGlkPS.s 			page 254


 12349              	.LASF626:
 12350 0a77 53595343 		.ascii	"SYSCTL_POWERDOWN_SYSOSC_PD (1 << 5)\000"
 12350      544C5F50 
 12350      4F574552 
 12350      444F574E 
 12350      5F535953 
 12351              	.LASF983:
 12352 0a9b 43414E5F 		.ascii	"CAN_SDOREQ_HANDLED_NOSEND 2\000"
 12352      53444F52 
 12352      45515F48 
 12352      414E444C 
 12352      45445F4E 
 12353              	.LASF573:
 12354 0ab7 4C50435F 		.ascii	"LPC_SSP1_BASE 0x40058000\000"
 12354      53535031 
 12354      5F424153 
 12354      45203078 
 12354      34303035 
 12355              	.LASF871:
 12356 0ad0 4932435F 		.ascii	"I2C_I2CONSET_SI ((0x08))\000"
 12356      4932434F 
 12356      4E534554 
 12356      5F534920 
 12356      28283078 
 12357              	.LASF749:
 12358 0ae9 55415254 		.ascii	"UART_MCR_BITMASK (0xD3)\000"
 12358      5F4D4352 
 12358      5F424954 
 12358      4D41534B 
 12358      20283078 
 12359              	.LASF80:
 12360 0b01 5F5F5549 		.ascii	"__UINTMAX_C(c) c ## ULL\000"
 12360      4E544D41 
 12360      585F4328 
 12360      63292063 
 12360      20232320 
 12361              	.LASF452:
 12362 0b19 554E5553 		.ascii	"UNUSED(x) (void)(x)\000"
 12362      45442878 
 12362      29202876 
 12362      6F696429 
 12362      28782900 
 12363              	.LASF191:
 12364 0b2d 5F5F5553 		.ascii	"__USFRACT_MAX__ 0XFFP-8UHR\000"
 12364      46524143 
 12364      545F4D41 
 12364      585F5F20 
 12364      30584646 
 12365              	.LASF530:
 12366 0b48 53797354 		.ascii	"SysTick_CTRL_CLKSOURCE_Pos 2\000"
 12366      69636B5F 
 12366      4354524C 
 12366      5F434C4B 
 12366      534F5552 
 12367              	.LASF1111:
 12368 0b65 4C50435F 		.ascii	"LPC_SSP_T\000"
 12368      5353505F 
ARM GAS  /var/folders/f9/8bk2lnw15zn4cbgn6wrnb4lm0000gn/T//ccCGlkPS.s 			page 255


 12368      5400
 12369              	.LASF653:
 12370 0b6f 4D445F50 		.ascii	"MD_PLN (0x0 << 3)\000"
 12370      4C4E2028 
 12370      30783020 
 12370      3C3C2033 
 12370      2900
 12371              	.LASF1231:
 12372 0b81 474E5520 		.ascii	"GNU C 4.8.4 20140725 (release) [ARM/embedded-4_8-br"
 12372      4320342E 
 12372      382E3420 
 12372      32303134 
 12372      30373235 
 12373 0bb4 616E6368 		.ascii	"anch revision 213147] -mcpu=cortex-m0 -mthumb -g -g"
 12373      20726576 
 12373      6973696F 
 12373      6E203231 
 12373      33313437 
 12374 0be7 67646233 		.ascii	"gdb3 -O2 -std=gnu90 -ffunction-sections -fdata-sect"
 12374      202D4F32 
 12374      202D7374 
 12374      643D676E 
 12374      75393020 
 12375 0c1a 696F6E73 		.ascii	"ions\000"
 12375      00
 12376              	.LASF716:
 12377 0c1f 55415254 		.ascii	"UART_IIR_INTID_MODEM (0 << 1)\000"
 12377      5F494952 
 12377      5F494E54 
 12377      49445F4D 
 12377      4F44454D 
 12378              	.LASF473:
 12379 0c3d 5F5F434F 		.ascii	"__CORE_CMFUNC_H \000"
 12379      52455F43 
 12379      4D46554E 
 12379      435F4820 
 12379      00
 12380              	.LASF508:
 12381 0c4e 5343425F 		.ascii	"SCB_AIRCR_VECTKEYSTAT_Pos 16\000"
 12381      41495243 
 12381      525F5645 
 12381      43544B45 
 12381      59535441 
 12382              	.LASF723:
 12383 0c6b 55415254 		.ascii	"UART_FCR_TRG_LEV0 (0)\000"
 12383      5F464352 
 12383      5F545247 
 12383      5F4C4556 
 12383      30202830 
 12384              	.LASF876:
 12385 0c81 4932435F 		.ascii	"I2C_I2CONCLR_SIC ((1 << 3))\000"
 12385      4932434F 
 12385      4E434C52 
 12385      5F534943 
 12385      20282831 
 12386              	.LASF390:
 12387 0c9d 55494E54 		.ascii	"UINT32_MAX __UINT32_MAX__\000"
ARM GAS  /var/folders/f9/8bk2lnw15zn4cbgn6wrnb4lm0000gn/T//ccCGlkPS.s 			page 256


 12387      33325F4D 
 12387      4158205F 
 12387      5F55494E 
 12387      5433325F 
 12388              	.LASF839:
 12389 0cb7 5353505F 		.ascii	"SSP_MASTER_MODE SSP_CR1_MASTER_EN\000"
 12389      4D415354 
 12389      45525F4D 
 12389      4F444520 
 12389      5353505F 
 12390              	.LASF882:
 12391 0cd9 4932435F 		.ascii	"I2C_CON_STO (1UL << 4)\000"
 12391      434F4E5F 
 12391      53544F20 
 12391      2831554C 
 12391      203C3C20 
 12392              	.LASF878:
 12393 0cf0 4932435F 		.ascii	"I2C_I2CONCLR_STAC ((1 << 5))\000"
 12393      4932434F 
 12393      4E434C52 
 12393      5F535441 
 12393      43202828 
 12394              	.LASF208:
 12395 0d0d 5F5F554C 		.ascii	"__ULFRACT_FBIT__ 32\000"
 12395      46524143 
 12395      545F4642 
 12395      49545F5F 
 12395      20333200 
 12396              	.LASF908:
 12397 0d21 4932435F 		.ascii	"I2C_I2STAT_S_RX_PRE_SLA_DAT_NACK ((0x88))\000"
 12397      49325354 
 12397      41545F53 
 12397      5F52585F 
 12397      5052455F 
 12398              	.LASF901:
 12399 0d4b 4932435F 		.ascii	"I2C_I2STAT_M_RX_DAT_ACK ((0x50))\000"
 12399      49325354 
 12399      41545F4D 
 12399      5F52585F 
 12399      4441545F 
 12400              	.LASF1164:
 12401 0d6c 72785F64 		.ascii	"rx_data\000"
 12401      61746100 
 12402              	.LASF371:
 12403 0d74 5F5F696E 		.ascii	"__int_fast32_t_defined 1\000"
 12403      745F6661 
 12403      73743332 
 12403      5F745F64 
 12403      6566696E 
 12404              	.LASF962:
 12405 0d8d 53444F5F 		.ascii	"SDO_ABORT_UNSUPPORTED 0x06010000UL\000"
 12405      41424F52 
 12405      545F554E 
 12405      53555050 
 12405      4F525445 
 12406              	.LASF398:
 12407 0db0 494E545F 		.ascii	"INT_LEAST64_MAX __INT_LEAST64_MAX__\000"
ARM GAS  /var/folders/f9/8bk2lnw15zn4cbgn6wrnb4lm0000gn/T//ccCGlkPS.s 			page 257


 12407      4C454153 
 12407      5436345F 
 12407      4D415820 
 12407      5F5F494E 
 12408              	.LASF759:
 12409 0dd4 55415254 		.ascii	"UART_LSR_BITMASK (0xFF)\000"
 12409      5F4C5352 
 12409      5F424954 
 12409      4D41534B 
 12409      20283078 
 12410              	.LASF784:
 12411 0dec 55415254 		.ascii	"UART_ICR_IRDAINV (1 << 1)\000"
 12411      5F494352 
 12411      5F495244 
 12411      41494E56 
 12411      20283120 
 12412              	.LASF187:
 12413 0e06 5F5F5346 		.ascii	"__SFRACT_EPSILON__ 0x1P-7HR\000"
 12413      52414354 
 12413      5F455053 
 12413      494C4F4E 
 12413      5F5F2030 
 12414              	.LASF96:
 12415 0e22 5F5F494E 		.ascii	"__INT32_C(c) c ## L\000"
 12415      5433325F 
 12415      43286329 
 12415      20632023 
 12415      23204C00 
 12416              	.LASF277:
 12417 0e36 5F5F5553 		.ascii	"__USQ_FBIT__ 32\000"
 12417      515F4642 
 12417      49545F5F 
 12417      20333200 
 12418              	.LASF25:
 12419 0e46 5F5F4F52 		.ascii	"__ORDER_BIG_ENDIAN__ 4321\000"
 12419      4445525F 
 12419      4249475F 
 12419      454E4449 
 12419      414E5F5F 
 12420              	.LASF1098:
 12421 0e60 53595343 		.ascii	"SYSCTL_CLOCK_CT32B0\000"
 12421      544C5F43 
 12421      4C4F434B 
 12421      5F435433 
 12421      32423000 
 12422              	.LASF1099:
 12423 0e74 53595343 		.ascii	"SYSCTL_CLOCK_CT32B1\000"
 12423      544C5F43 
 12423      4C4F434B 
 12423      5F435433 
 12423      32423100 
 12424              	.LASF267:
 12425 0e88 5F5F5351 		.ascii	"__SQ_FBIT__ 31\000"
 12425      5F464249 
 12425      545F5F20 
 12425      333100
 12426              	.LASF865:
ARM GAS  /var/folders/f9/8bk2lnw15zn4cbgn6wrnb4lm0000gn/T//ccCGlkPS.s 			page 258


 12427 0e97 5245545F 		.ascii	"RET_SLAVE_TX 6\000"
 12427      534C4156 
 12427      455F5458 
 12427      203600
 12428              	.LASF297:
 12429 0ea6 5F5F5554 		.ascii	"__UTA_FBIT__ 64\000"
 12429      415F4642 
 12429      49545F5F 
 12429      20363400 
 12430              	.LASF1080:
 12431 0eb6 52455345 		.ascii	"RESET_UART0\000"
 12431      545F5541 
 12431      52543000 
 12432              	.LASF722:
 12433 0ec2 55415254 		.ascii	"UART_TX_FIFO_SIZE (16)\000"
 12433      5F54585F 
 12433      4649464F 
 12433      5F53495A 
 12433      45202831 
 12434              	.LASF275:
 12435 0ed9 5F5F5548 		.ascii	"__UHQ_FBIT__ 16\000"
 12435      515F4642 
 12435      49545F5F 
 12435      20313600 
 12436              	.LASF777:
 12437 0ee9 55415254 		.ascii	"UART_RS485CTRL_RX_DIS (1 << 1)\000"
 12437      5F525334 
 12437      38354354 
 12437      524C5F52 
 12437      585F4449 
 12438              	.LASF1115:
 12439 0f08 5353505F 		.ascii	"SSP_STAT_TNF\000"
 12439      53544154 
 12439      5F544E46 
 12439      00
 12440              	.LASF874:
 12441 0f15 4932435F 		.ascii	"I2C_I2CONSET_I2EN ((0x40))\000"
 12441      4932434F 
 12441      4E534554 
 12441      5F493245 
 12441      4E202828 
 12442              	.LASF260:
 12443 0f30 5F5F554C 		.ascii	"__ULLACCUM_MIN__ 0.0ULLK\000"
 12443      4C414343 
 12443      554D5F4D 
 12443      494E5F5F 
 12443      20302E30 
 12444              	.LASF787:
 12445 0f49 55415254 		.ascii	"UART_ICR_BITMASK (0x3F)\000"
 12445      5F494352 
 12445      5F424954 
 12445      4D41534B 
 12445      20283078 
 12446              	.LASF66:
 12447 0f61 5F5F5343 		.ascii	"__SCHAR_MAX__ 127\000"
 12447      4841525F 
 12447      4D41585F 
ARM GAS  /var/folders/f9/8bk2lnw15zn4cbgn6wrnb4lm0000gn/T//ccCGlkPS.s 			page 259


 12447      5F203132 
 12447      3700
 12448              	.LASF167:
 12449 0f73 5F5F4445 		.ascii	"__DEC32_EPSILON__ 1E-6DF\000"
 12449      4333325F 
 12449      45505349 
 12449      4C4F4E5F 
 12449      5F203145 
 12450              	.LASF950:
 12451 0f8c 43414E5F 		.ascii	"CAN_ERROR_FORM 0x00000010UL\000"
 12451      4552524F 
 12451      525F464F 
 12451      524D2030 
 12451      78303030 
 12452              	.LASF1104:
 12453 0fa8 53595343 		.ascii	"SYSCTL_CLOCK_WDT\000"
 12453      544C5F43 
 12453      4C4F434B 
 12453      5F574454 
 12453      00
 12454              	.LASF523:
 12455 0fb9 5343425F 		.ascii	"SCB_CCR_STKALIGN_Msk (1UL << SCB_CCR_STKALIGN_Pos)\000"
 12455      4343525F 
 12455      53544B41 
 12455      4C49474E 
 12455      5F4D736B 
 12456              	.LASF468:
 12457 0fec 5F5F4153 		.ascii	"__ASM __asm\000"
 12457      4D205F5F 
 12457      61736D00 
 12458              	.LASF992:
 12459 0ff8 5F5F7569 		.ascii	"__uint8_t\000"
 12459      6E74385F 
 12459      7400
 12460              	.LASF797:
 12461 1002 55415254 		.ascii	"UART_TER1_TXEN (1 << 7)\000"
 12461      5F544552 
 12461      315F5458 
 12461      454E2028 
 12461      31203C3C 
 12462              	.LASF616:
 12463 101a 53595343 		.ascii	"SYSCTL_SLPWAKE_BOD_PD (1 << 3)\000"
 12463      544C5F53 
 12463      4C505741 
 12463      4B455F42 
 12463      4F445F50 
 12464              	.LASF1172:
 12465 1039 70535350 		.ascii	"pSSP\000"
 12465      00
 12466              	.LASF84:
 12467 103e 5F5F494E 		.ascii	"__INT16_MAX__ 32767\000"
 12467      5431365F 
 12467      4D41585F 
 12467      5F203332 
 12467      37363700 
 12468              	.LASF1075:
 12469 1052 4C50435F 		.ascii	"LPC_SYSCTL_T\000"
ARM GAS  /var/folders/f9/8bk2lnw15zn4cbgn6wrnb4lm0000gn/T//ccCGlkPS.s 			page 260


 12469      53595343 
 12469      544C5F54 
 12469      00
 12470              	.LASF679:
 12471 105f 54494D45 		.ascii	"TIMER_ENABLE ((uint32_t) (1 << 0))\000"
 12471      525F454E 
 12471      41424C45 
 12471      20282875 
 12471      696E7433 
 12472              	.LASF1224:
 12473 1082 43686970 		.ascii	"Chip_SSP_SetBitRate\000"
 12473      5F535350 
 12473      5F536574 
 12473      42697452 
 12473      61746500 
 12474              	.LASF907:
 12475 1096 4932435F 		.ascii	"I2C_I2STAT_S_RX_PRE_SLA_DAT_ACK ((0x80))\000"
 12475      49325354 
 12475      41545F53 
 12475      5F52585F 
 12475      5052455F 
 12476              	.LASF625:
 12477 10bf 53595343 		.ascii	"SYSCTL_POWERDOWN_ADC_PD (1 << 4)\000"
 12477      544C5F50 
 12477      4F574552 
 12477      444F574E 
 12477      5F414443 
 12478              	.LASF648:
 12479 10e0 494F434F 		.ascii	"IOCON_SFI2C_EN (0x0 << 8)\000"
 12479      4E5F5346 
 12479      4932435F 
 12479      454E2028 
 12479      30783020 
 12480              	.LASF77:
 12481 10fa 5F5F494E 		.ascii	"__INTMAX_MAX__ 9223372036854775807LL\000"
 12481      544D4158 
 12481      5F4D4158 
 12481      5F5F2039 
 12481      32323333 
 12482              	.LASF806:
 12483 111f 5F5F5757 		.ascii	"__WWDT_11XX_H_ \000"
 12483      44545F31 
 12483      3158585F 
 12483      485F2000 
 12484              	.LASF902:
 12485 112f 4932435F 		.ascii	"I2C_I2STAT_M_RX_DAT_NACK ((0x58))\000"
 12485      49325354 
 12485      41545F4D 
 12485      5F52585F 
 12485      4441545F 
 12486              	.LASF397:
 12487 1151 494E545F 		.ascii	"INT_LEAST64_MIN (-__INT_LEAST64_MAX__ - 1)\000"
 12487      4C454153 
 12487      5436345F 
 12487      4D494E20 
 12487      282D5F5F 
 12488              	.LASF808:
ARM GAS  /var/folders/f9/8bk2lnw15zn4cbgn6wrnb4lm0000gn/T//ccCGlkPS.s 			page 261


 12489 117c 57574454 		.ascii	"WWDT_WDMOD_WDEN ((uint32_t) (1 << 0))\000"
 12489      5F57444D 
 12489      4F445F57 
 12489      44454E20 
 12489      28287569 
 12490              	.LASF851:
 12491 11a2 4144435F 		.ascii	"ADC_CR_BURST ((1UL << 16))\000"
 12491      43525F42 
 12491      55525354 
 12491      20282831 
 12491      554C203C 
 12492              	.LASF724:
 12493 11bd 55415254 		.ascii	"UART_FCR_TRG_LEV1 (1 << 6)\000"
 12493      5F464352 
 12493      5F545247 
 12493      5F4C4556 
 12493      31202831 
 12494              	.LASF986:
 12495 11d8 43414E5F 		.ascii	"CAN_SDOSEG_CLOSE 2\000"
 12495      53444F53 
 12495      45475F43 
 12495      4C4F5345 
 12495      203200
 12496              	.LASF747:
 12497 11eb 55415254 		.ascii	"UART_MCR_AUTO_RTS_EN (1 << 6)\000"
 12497      5F4D4352 
 12497      5F415554 
 12497      4F5F5254 
 12497      535F454E 
 12498              	.LASF1059:
 12499 1209 50494E54 		.ascii	"PINTSEL\000"
 12499      53454C00 
 12500              	.LASF166:
 12501 1211 5F5F4445 		.ascii	"__DEC32_MAX__ 9.999999E96DF\000"
 12501      4333325F 
 12501      4D41585F 
 12501      5F20392E 
 12501      39393939 
 12502              	.LASF161:
 12503 122d 5F5F4C44 		.ascii	"__LDBL_HAS_QUIET_NAN__ 1\000"
 12503      424C5F48 
 12503      41535F51 
 12503      55494554 
 12503      5F4E414E 
 12504              	.LASF823:
 12505 1246 5353505F 		.ascii	"SSP_CR0_BITMASK ((uint32_t) (0xFFFF))\000"
 12505      4352305F 
 12505      4249544D 
 12505      41534B20 
 12505      28287569 
 12506              	.LASF420:
 12507 126c 57434841 		.ascii	"WCHAR_MAX __WCHAR_MAX__\000"
 12507      525F4D41 
 12507      58205F5F 
 12507      57434841 
 12507      525F4D41 
 12508              	.LASF639:
ARM GAS  /var/folders/f9/8bk2lnw15zn4cbgn6wrnb4lm0000gn/T//ccCGlkPS.s 			page 262


 12509 1284 494F434F 		.ascii	"IOCON_FUNC7 0x7\000"
 12509      4E5F4655 
 12509      4E433720 
 12509      30783700 
 12510              	.LASF406:
 12511 1294 494E545F 		.ascii	"INT_FAST32_MIN (-__INT_FAST32_MAX__ - 1)\000"
 12511      46415354 
 12511      33325F4D 
 12511      494E2028 
 12511      2D5F5F49 
 12512              	.LASF320:
 12513 12bd 5F5F4152 		.ascii	"__ARM_SIZEOF_WCHAR_T 32\000"
 12513      4D5F5349 
 12513      5A454F46 
 12513      5F574348 
 12513      41525F54 
 12514              	.LASF532:
 12515 12d5 53797354 		.ascii	"SysTick_CTRL_TICKINT_Pos 1\000"
 12515      69636B5F 
 12515      4354524C 
 12515      5F544943 
 12515      4B494E54 
 12516              	.LASF51:
 12517 12f0 5F5F5549 		.ascii	"__UINT_LEAST8_TYPE__ unsigned char\000"
 12517      4E545F4C 
 12517      45415354 
 12517      385F5459 
 12517      50455F5F 
 12518              	.LASF910:
 12519 1313 4932435F 		.ascii	"I2C_I2STAT_S_RX_PRE_GENCALL_DAT_NACK ((0x98))\000"
 12519      49325354 
 12519      41545F53 
 12519      5F52585F 
 12519      5052455F 
 12520              	.LASF233:
 12521 1341 5F5F4143 		.ascii	"__ACCUM_FBIT__ 15\000"
 12521      43554D5F 
 12521      46424954 
 12521      5F5F2031 
 12521      3500
 12522              	.LASF346:
 12523 1353 5F5F474E 		.ascii	"__GNUC_PREREQ(maj,min) ((__GNUC__ << 16) + __GNUC_M"
 12523      55435F50 
 12523      52455245 
 12523      51286D61 
 12523      6A2C6D69 
 12524 1386 494E4F52 		.ascii	"INOR__ >= ((maj) << 16) + (min))\000"
 12524      5F5F203E 
 12524      3D202828 
 12524      6D616A29 
 12524      203C3C20 
 12525              	.LASF594:
 12526 13a7 4C50435F 		.ascii	"LPC_CCAN ((LPC_CCAN_T *) LPC_CAN0_BASE)\000"
 12526      4343414E 
 12526      2028284C 
 12526      50435F43 
 12526      43414E5F 
ARM GAS  /var/folders/f9/8bk2lnw15zn4cbgn6wrnb4lm0000gn/T//ccCGlkPS.s 			page 263


 12527              	.LASF239:
 12528 13cf 5F5F5541 		.ascii	"__UACCUM_IBIT__ 16\000"
 12528      4343554D 
 12528      5F494249 
 12528      545F5F20 
 12528      313600
 12529              	.LASF995:
 12530 13e2 6C6F6E67 		.ascii	"long int\000"
 12530      20696E74 
 12530      00
 12531              	.LASF114:
 12532 13eb 5F5F5549 		.ascii	"__UINT_FAST64_MAX__ 18446744073709551615ULL\000"
 12532      4E545F46 
 12532      41535436 
 12532      345F4D41 
 12532      585F5F20 
 12533              	.LASF909:
 12534 1417 4932435F 		.ascii	"I2C_I2STAT_S_RX_PRE_GENCALL_DAT_ACK ((0x90))\000"
 12534      49325354 
 12534      41545F53 
 12534      5F52585F 
 12534      5052455F 
 12535              	.LASF415:
 12536 1444 53495A45 		.ascii	"SIZE_MAX __SIZE_MAX__\000"
 12536      5F4D4158 
 12536      205F5F53 
 12536      495A455F 
 12536      4D41585F 
 12537              	.LASF1160:
 12538 145a 5353505F 		.ascii	"SSP_MODE_MASTER\000"
 12538      4D4F4445 
 12538      5F4D4153 
 12538      54455200 
 12539              	.LASF142:
 12540 146a 5F5F4442 		.ascii	"__DBL_MIN__ ((double)2.2250738585072014e-308L)\000"
 12540      4C5F4D49 
 12540      4E5F5F20 
 12540      2828646F 
 12540      75626C65 
 12541              	.LASF637:
 12542 1499 494F434F 		.ascii	"IOCON_FUNC5 0x5\000"
 12542      4E5F4655 
 12542      4E433520 
 12542      30783500 
 12543              	.LASF975:
 12544 14a9 4F445F45 		.ascii	"OD_EXP_RO 0x10\000"
 12544      58505F52 
 12544      4F203078 
 12544      313000
 12545              	.LASF1052:
 12546 14b8 50494F50 		.ascii	"PIOPORCAP\000"
 12546      4F524341 
 12546      5000
 12547              	.LASF354:
 12548 14c2 5F5F5F69 		.ascii	"___int_least16_t_defined 1\000"
 12548      6E745F6C 
 12548      65617374 
ARM GAS  /var/folders/f9/8bk2lnw15zn4cbgn6wrnb4lm0000gn/T//ccCGlkPS.s 			page 264


 12548      31365F74 
 12548      5F646566 
 12549              	.LASF71:
 12550 14dd 5F5F5743 		.ascii	"__WCHAR_MAX__ 4294967295U\000"
 12550      4841525F 
 12550      4D41585F 
 12550      5F203432 
 12550      39343936 
 12551              	.LASF177:
 12552 14f7 5F5F4445 		.ascii	"__DEC128_MIN_EXP__ (-6142)\000"
 12552      43313238 
 12552      5F4D494E 
 12552      5F455850 
 12552      5F5F2028 
 12553              	.LASF652:
 12554 1512 494F434F 		.ascii	"IOCON_OPENDRAIN_EN (0x1 << 10)\000"
 12554      4E5F4F50 
 12554      454E4452 
 12554      41494E5F 
 12554      454E2028 
 12555              	.LASF55:
 12556 1531 5F5F494E 		.ascii	"__INT_FAST8_TYPE__ int\000"
 12556      545F4641 
 12556      5354385F 
 12556      54595045 
 12556      5F5F2069 
 12557              	.LASF1025:
 12558 1548 53595350 		.ascii	"SYSPLLCLKSEL\000"
 12558      4C4C434C 
 12558      4B53454C 
 12558      00
 12559              	.LASF295:
 12560 1555 5F5F5544 		.ascii	"__UDA_FBIT__ 32\000"
 12560      415F4642 
 12560      49545F5F 
 12560      20333200 
 12561              	.LASF1045:
 12562 1565 57445443 		.ascii	"WDTCLKUEN\000"
 12562      4C4B5545 
 12562      4E00
 12563              	.LASF232:
 12564 156f 5F5F5553 		.ascii	"__USACCUM_EPSILON__ 0x1P-8UHK\000"
 12564      41434355 
 12564      4D5F4550 
 12564      53494C4F 
 12564      4E5F5F20 
 12565              	.LASF1183:
 12566 158d 43686970 		.ascii	"Chip_SSP_ClearIntPending\000"
 12566      5F535350 
 12566      5F436C65 
 12566      6172496E 
 12566      7450656E 
 12567              	.LASF29:
 12568 15a6 5F5F5349 		.ascii	"__SIZEOF_POINTER__ 4\000"
 12568      5A454F46 
 12568      5F504F49 
 12568      4E544552 
ARM GAS  /var/folders/f9/8bk2lnw15zn4cbgn6wrnb4lm0000gn/T//ccCGlkPS.s 			page 265


 12568      5F5F2034 
 12569              	.LASF47:
 12570 15bb 5F5F494E 		.ascii	"__INT_LEAST8_TYPE__ signed char\000"
 12570      545F4C45 
 12570      41535438 
 12570      5F545950 
 12570      455F5F20 
 12571              	.LASF303:
 12572 15db 5F5F4743 		.ascii	"__GCC_ATOMIC_BOOL_LOCK_FREE 1\000"
 12572      435F4154 
 12572      4F4D4943 
 12572      5F424F4F 
 12572      4C5F4C4F 
 12573              	.LASF565:
 12574 15f9 4C50435F 		.ascii	"LPC_ACMP_BASE 0x40028000\000"
 12574      41434D50 
 12574      5F424153 
 12574      45203078 
 12574      34303032 
 12575              	.LASF506:
 12576 1612 5343425F 		.ascii	"SCB_AIRCR_VECTKEY_Pos 16\000"
 12576      41495243 
 12576      525F5645 
 12576      43544B45 
 12576      595F506F 
 12577              	.LASF108:
 12578 162b 5F5F494E 		.ascii	"__INT_FAST16_MAX__ 2147483647\000"
 12578      545F4641 
 12578      53543136 
 12578      5F4D4158 
 12578      5F5F2032 
 12579              	.LASF224:
 12580 1649 5F5F5341 		.ascii	"__SACCUM_IBIT__ 8\000"
 12580      4343554D 
 12580      5F494249 
 12580      545F5F20 
 12580      3800
 12581              	.LASF1232:
 12582 165b 2E2E2F2E 		.ascii	"../../lpc_chip_11cxx_lib/src/ssp_11xx.c\000"
 12582      2E2F6C70 
 12582      635F6368 
 12582      69705F31 
 12582      31637878 
 12583              	.LASF221:
 12584 1683 5F5F554C 		.ascii	"__ULLFRACT_MAX__ 0XFFFFFFFFFFFFFFFFP-64ULLR\000"
 12584      4C465241 
 12584      43545F4D 
 12584      41585F5F 
 12584      20305846 
 12585              	.LASF940:
 12586 16af 4932435F 		.ascii	"I2C_NAK_RECV (0x10000000 | 0x01)\000"
 12586      4E414B5F 
 12586      52454356 
 12586      20283078 
 12586      31303030 
 12587              	.LASF1203:
 12588 16d0 43686970 		.ascii	"Chip_SYSCTL_PeriphReset\000"
ARM GAS  /var/folders/f9/8bk2lnw15zn4cbgn6wrnb4lm0000gn/T//ccCGlkPS.s 			page 266


 12588      5F535953 
 12588      43544C5F 
 12588      50657269 
 12588      70685265 
 12589              	.LASF585:
 12590 16e8 4C50435F 		.ascii	"LPC_TIMER32_0 ((LPC_TIMER_T *) LPC_TIMER32_0_BASE)\000"
 12590      54494D45 
 12590      5233325F 
 12590      30202828 
 12590      4C50435F 
 12591              	.LASF402:
 12592 171b 55494E54 		.ascii	"UINT_FAST8_MAX __UINT_FAST8_MAX__\000"
 12592      5F464153 
 12592      54385F4D 
 12592      4158205F 
 12592      5F55494E 
 12593              	.LASF857:
 12594 173d 4144435F 		.ascii	"ADC_CR_START_CTOUT8 ((3UL << 24))\000"
 12594      43525F53 
 12594      54415254 
 12594      5F43544F 
 12594      55543820 
 12595              	.LASF378:
 12596 175f 55494E54 		.ascii	"UINT8_MAX __UINT8_MAX__\000"
 12596      385F4D41 
 12596      58205F5F 
 12596      55494E54 
 12596      385F4D41 
 12597              	.LASF37:
 12598 1777 5F5F4348 		.ascii	"__CHAR32_TYPE__ long unsigned int\000"
 12598      41523332 
 12598      5F545950 
 12598      455F5F20 
 12598      6C6F6E67 
 12599              	.LASF440:
 12600 1799 50415241 		.ascii	"PARAM_SETSTATE(State) ((State == RESET) || (State ="
 12600      4D5F5345 
 12600      54535441 
 12600      54452853 
 12600      74617465 
 12601 17cc 3D205345 		.ascii	"= SET))\000"
 12601      54292900 
 12602              	.LASF610:
 12603 17d4 53595343 		.ascii	"SYSCTL_NMISRC_ENABLE ((uint32_t) 1 << 31)\000"
 12603      544C5F4E 
 12603      4D495352 
 12603      435F454E 
 12603      41424C45 
 12604              	.LASF658:
 12605 17fe 4D445F49 		.ascii	"MD_INV (0x1 << 6)\000"
 12605      4E562028 
 12605      30783120 
 12605      3C3C2036 
 12605      2900
 12606              	.LASF124:
 12607 1810 5F5F464C 		.ascii	"__FLT_MAX_EXP__ 128\000"
 12607      545F4D41 
ARM GAS  /var/folders/f9/8bk2lnw15zn4cbgn6wrnb4lm0000gn/T//ccCGlkPS.s 			page 267


 12607      585F4558 
 12607      505F5F20 
 12607      31323800 
 12608              	.LASF15:
 12609 1824 5F5F5349 		.ascii	"__SIZEOF_LONG__ 4\000"
 12609      5A454F46 
 12609      5F4C4F4E 
 12609      475F5F20 
 12609      3400
 12610              	.LASF355:
 12611 1836 5F5F5F69 		.ascii	"___int_least32_t_defined 1\000"
 12611      6E745F6C 
 12611      65617374 
 12611      33325F74 
 12611      5F646566 
 12612              	.LASF1130:
 12613 1851 5353505F 		.ascii	"SSP_INT_CLEAR_BITMASK\000"
 12613      494E545F 
 12613      434C4541 
 12613      525F4249 
 12613      544D4153 
 12614              	.LASF1159:
 12615 1867 43484950 		.ascii	"CHIP_SSP_MODE\000"
 12615      5F535350 
 12615      5F4D4F44 
 12615      4500
 12616              	.LASF555:
 12617 1875 5F49505F 		.ascii	"_IP_IDX(IRQn) ( ((uint32_t)(IRQn) >> 2) )\000"
 12617      49445828 
 12617      4952516E 
 12617      29202820 
 12617      28287569 
 12618              	.LASF779:
 12619 189f 55415254 		.ascii	"UART_RS485CTRL_SEL_DTR (1 << 3)\000"
 12619      5F525334 
 12619      38354354 
 12619      524C5F53 
 12619      454C5F44 
 12620              	.LASF19:
 12621 18bf 5F5F5349 		.ascii	"__SIZEOF_DOUBLE__ 8\000"
 12621      5A454F46 
 12621      5F444F55 
 12621      424C455F 
 12621      5F203800 
 12622              	.LASF746:
 12623 18d3 55415254 		.ascii	"UART_MCR_LOOPB_EN (1 << 4)\000"
 12623      5F4D4352 
 12623      5F4C4F4F 
 12623      50425F45 
 12623      4E202831 
 12624              	.LASF914:
 12625 18ee 4932435F 		.ascii	"I2C_I2STAT_S_TX_DAT_ACK ((0xB8))\000"
 12625      49325354 
 12625      41545F53 
 12625      5F54585F 
 12625      4441545F 
 12626              	.LASF1233:
ARM GAS  /var/folders/f9/8bk2lnw15zn4cbgn6wrnb4lm0000gn/T//ccCGlkPS.s 			page 268


 12627 190f 2F557365 		.ascii	"/Users/eaponce/Documents/evt/opel_EE/lpc11cx4-libra"
 12627      72732F65 
 12627      61706F6E 
 12627      63652F44 
 12627      6F63756D 
 12628 1942 72792F65 		.ascii	"ry/examples/can\000"
 12628      78616D70 
 12628      6C65732F 
 12628      63616E00 
 12629              	.LASF1125:
 12630 1952 5353505F 		.ascii	"SSP_RAW_INT_STAT_BITMASK\000"
 12630      5241575F 
 12630      494E545F 
 12630      53544154 
 12630      5F424954 
 12631              	.LASF755:
 12632 196b 55415254 		.ascii	"UART_LSR_THRE (1 << 5)\000"
 12632      5F4C5352 
 12632      5F544852 
 12632      45202831 
 12632      203C3C20 
 12633              	.LASF973:
 12634 1982 53444F5F 		.ascii	"SDO_ABORT_DEVSTAT 0x08000022UL\000"
 12634      41424F52 
 12634      545F4445 
 12634      56535441 
 12634      54203078 
 12635              	.LASF949:
 12636 19a1 43414E5F 		.ascii	"CAN_ERROR_STUF 0x00000008UL\000"
 12636      4552524F 
 12636      525F5354 
 12636      55462030 
 12636      78303030 
 12637              	.LASF717:
 12638 19bd 55415254 		.ascii	"UART_FCR_FIFO_EN (1 << 0)\000"
 12638      5F464352 
 12638      5F464946 
 12638      4F5F454E 
 12638      20283120 
 12639              	.LASF634:
 12640 19d7 494F434F 		.ascii	"IOCON_FUNC2 0x2\000"
 12640      4E5F4655 
 12640      4E433220 
 12640      30783200 
 12641              	.LASF888:
 12642 19e7 4932435F 		.ascii	"I2C_I2STAT_BUS_ERROR ((0x00))\000"
 12642      49325354 
 12642      41545F42 
 12642      55535F45 
 12642      52524F52 
 12643              	.LASF981:
 12644 1a05 43414E5F 		.ascii	"CAN_SDOREQ_NOTHANDLED 0\000"
 12644      53444F52 
 12644      45515F4E 
 12644      4F544841 
 12644      4E444C45 
 12645              	.LASF701:
ARM GAS  /var/folders/f9/8bk2lnw15zn4cbgn6wrnb4lm0000gn/T//ccCGlkPS.s 			page 269


 12646 1a1d 55415254 		.ascii	"UART_IER_ABEOINT (1 << 8)\000"
 12646      5F494552 
 12646      5F414245 
 12646      4F494E54 
 12646      20283120 
 12647              	.LASF173:
 12648 1a37 5F5F4445 		.ascii	"__DEC64_MAX__ 9.999999999999999E384DD\000"
 12648      4336345F 
 12648      4D41585F 
 12648      5F20392E 
 12648      39393939 
 12649              	.LASF1162:
 12650 1a5d 74785F64 		.ascii	"tx_data\000"
 12650      61746100 
 12651              	.LASF1072:
 12652 1a65 50445255 		.ascii	"PDRUNCFG\000"
 12652      4E434647 
 12652      00
 12653              	.LASF519:
 12654 1a6e 5343425F 		.ascii	"SCB_SCR_SLEEPDEEP_Msk (1UL << SCB_SCR_SLEEPDEEP_Pos"
 12654      5343525F 
 12654      534C4545 
 12654      50444545 
 12654      505F4D73 
 12655 1aa1 2900     		.ascii	")\000"
 12656              	.LASF890:
 12657 1aa3 4932435F 		.ascii	"I2C_I2STAT_M_TX_RESTART ((0x10))\000"
 12657      49325354 
 12657      41545F4D 
 12657      5F54585F 
 12657      52455354 
 12658              	.LASF836:
 12659 1ac4 5353505F 		.ascii	"SSP_CPOL_HI SSP_CR0_CPOL_LO\000"
 12659      43504F4C 
 12659      5F484920 
 12659      5353505F 
 12659      4352305F 
 12660              	.LASF123:
 12661 1ae0 5F5F464C 		.ascii	"__FLT_MIN_10_EXP__ (-37)\000"
 12661      545F4D49 
 12661      4E5F3130 
 12661      5F455850 
 12661      5F5F2028 
 12662              	.LASF704:
 12663 1af9 55415254 		.ascii	"UART1_IER_BITMASK (0x30F)\000"
 12663      315F4945 
 12663      525F4249 
 12663      544D4153 
 12663      4B202830 
 12664              	.LASF854:
 12665 1b13 4144435F 		.ascii	"ADC_CR_START_MODE_SEL(SEL) ((SEL << 24))\000"
 12665      43525F53 
 12665      54415254 
 12665      5F4D4F44 
 12665      455F5345 
 12666              	.LASF126:
 12667 1b3c 5F5F464C 		.ascii	"__FLT_DECIMAL_DIG__ 9\000"
ARM GAS  /var/folders/f9/8bk2lnw15zn4cbgn6wrnb4lm0000gn/T//ccCGlkPS.s 			page 270


 12667      545F4445 
 12667      43494D41 
 12667      4C5F4449 
 12667      475F5F20 
 12668              	.LASF955:
 12669 1b52 43414E5F 		.ascii	"CAN_MSGOBJ_STD 0x00000000UL\000"
 12669      4D53474F 
 12669      424A5F53 
 12669      54442030 
 12669      78303030 
 12670              	.LASF485:
 12671 1b6e 5343425F 		.ascii	"SCB_CPUID_PARTNO_Msk (0xFFFUL << SCB_CPUID_PARTNO_P"
 12671      43505549 
 12671      445F5041 
 12671      52544E4F 
 12671      5F4D736B 
 12672 1ba1 6F732900 		.ascii	"os)\000"
 12673              	.LASF989:
 12674 1ba5 7369676E 		.ascii	"signed char\000"
 12674      65642063 
 12674      68617200 
 12675              	.LASF1168:
 12676 1bb1 43686970 		.ascii	"Chip_SYSCTL_AssertPeriphReset\000"
 12676      5F535953 
 12676      43544C5F 
 12676      41737365 
 12676      72745065 
 12677              	.LASF843:
 12678 1bcf 5F5F4144 		.ascii	"__ADC_11XX_H_ \000"
 12678      435F3131 
 12678      58585F48 
 12678      5F2000
 12679              	.LASF1000:
 12680 1bde 75696E74 		.ascii	"uint8_t\000"
 12680      385F7400 
 12681              	.LASF623:
 12682 1be6 53595343 		.ascii	"SYSCTL_POWERDOWN_FLASH_PD (1 << 2)\000"
 12682      544C5F50 
 12682      4F574552 
 12682      444F574E 
 12682      5F464C41 
 12683              	.LASF1027:
 12684 1c09 55534250 		.ascii	"USBPLLCLKSEL\000"
 12684      4C4C434C 
 12684      4B53454C 
 12684      00
 12685              	.LASF457:
 12686 1c16 43484950 		.ascii	"CHIP_LPC11CXX \000"
 12686      5F4C5043 
 12686      31314358 
 12686      582000
 12687              	.LASF1110:
 12688 1c25 494D5343 		.ascii	"IMSC\000"
 12688      00
 12689              	.LASF643:
 12690 1c2a 494F434F 		.ascii	"IOCON_MODE_REPEATER (0x3 << 3)\000"
 12690      4E5F4D4F 
ARM GAS  /var/folders/f9/8bk2lnw15zn4cbgn6wrnb4lm0000gn/T//ccCGlkPS.s 			page 271


 12690      44455F52 
 12690      45504541 
 12690      54455220 
 12691              	.LASF895:
 12692 1c49 4932435F 		.ascii	"I2C_I2STAT_M_TX_ARB_LOST ((0x38))\000"
 12692      49325354 
 12692      41545F4D 
 12692      5F54585F 
 12692      4152425F 
 12693              	.LASF867:
 12694 1c6b 5245545F 		.ascii	"RET_SLAVE_IDLE 2\000"
 12694      534C4156 
 12694      455F4944 
 12694      4C452032 
 12694      00
 12695              	.LASF193:
 12696 1c7c 5F5F4652 		.ascii	"__FRACT_FBIT__ 15\000"
 12696      4143545F 
 12696      46424954 
 12696      5F5F2031 
 12696      3500
 12697              	.LASF1049:
 12698 1c8e 434C4B4F 		.ascii	"CLKOUTUEN\000"
 12698      55545545 
 12698      4E00
 12699              	.LASF133:
 12700 1c98 5F5F464C 		.ascii	"__FLT_HAS_QUIET_NAN__ 1\000"
 12700      545F4841 
 12700      535F5155 
 12700      4945545F 
 12700      4E414E5F 
 12701              	.LASF445:
 12702 1cb0 5F534246 		.ascii	"_SBF(f,v) ((v) << (f))\000"
 12702      28662C76 
 12702      29202828 
 12702      7629203C 
 12702      3C202866 
 12703              	.LASF306:
 12704 1cc7 5F5F4743 		.ascii	"__GCC_ATOMIC_CHAR32_T_LOCK_FREE 1\000"
 12704      435F4154 
 12704      4F4D4943 
 12704      5F434841 
 12704      5233325F 
 12705              	.LASF511:
 12706 1ce9 5343425F 		.ascii	"SCB_AIRCR_ENDIANESS_Msk (1UL << SCB_AIRCR_ENDIANESS"
 12706      41495243 
 12706      525F454E 
 12706      4449414E 
 12706      4553535F 
 12707 1d1c 5F506F73 		.ascii	"_Pos)\000"
 12707      2900
 12708              	.LASF4:
 12709 1d22 5F5F474E 		.ascii	"__GNUC_PATCHLEVEL__ 4\000"
 12709      55435F50 
 12709      41544348 
 12709      4C455645 
 12709      4C5F5F20 
ARM GAS  /var/folders/f9/8bk2lnw15zn4cbgn6wrnb4lm0000gn/T//ccCGlkPS.s 			page 272


 12710              	.LASF786:
 12711 1d38 55415254 		.ascii	"UART_ICR_PULSEDIV(n) ((n & 0x07) << 3)\000"
 12711      5F494352 
 12711      5F50554C 
 12711      53454449 
 12711      56286E29 
 12712              	.LASF752:
 12713 1d5f 55415254 		.ascii	"UART_LSR_PE (1 << 2)\000"
 12713      5F4C5352 
 12713      5F504520 
 12713      2831203C 
 12713      3C203229 
 12714              	.LASF375:
 12715 1d74 55494E54 		.ascii	"UINTPTR_MAX __UINTPTR_MAX__\000"
 12715      5054525F 
 12715      4D415820 
 12715      5F5F5549 
 12715      4E545054 
 12716              	.LASF837:
 12717 1d90 5353505F 		.ascii	"SSP_CPOL_LO SSP_CR0_CPOL_HI\000"
 12717      43504F4C 
 12717      5F4C4F20 
 12717      5353505F 
 12717      4352305F 
 12718              	.LASF343:
 12719 1dac 5F535444 		.ascii	"_STDINT_H \000"
 12719      494E545F 
 12719      482000
 12720              	.LASF505:
 12721 1db7 5343425F 		.ascii	"SCB_ICSR_VECTACTIVE_Msk (0x1FFUL << SCB_ICSR_VECTAC"
 12721      49435352 
 12721      5F564543 
 12721      54414354 
 12721      4956455F 
 12722 1dea 54495645 		.ascii	"TIVE_Pos)\000"
 12722      5F506F73 
 12722      2900
 12723              	.LASF435:
 12724 1df4 5F535444 		.ascii	"_STDBOOL_H \000"
 12724      424F4F4C 
 12724      5F482000 
 12725              	.LASF742:
 12726 1e00 55415254 		.ascii	"UART_LCR_DLAB_EN (1 << 7)\000"
 12726      5F4C4352 
 12726      5F444C41 
 12726      425F454E 
 12726      20283120 
 12727              	.LASF472:
 12728 1e1a 5F5F434F 		.ascii	"__CORE_CMINSTR_H \000"
 12728      52455F43 
 12728      4D494E53 
 12728      54525F48 
 12728      2000
 12729              	.LASF1206:
 12730 1e2c 6672616D 		.ascii	"frameFormat\000"
 12730      65466F72 
 12730      6D617400 
ARM GAS  /var/folders/f9/8bk2lnw15zn4cbgn6wrnb4lm0000gn/T//ccCGlkPS.s 			page 273


 12731              	.LASF586:
 12732 1e38 4C50435F 		.ascii	"LPC_TIMER32_1 ((LPC_TIMER_T *) LPC_TIMER32_1_BASE)\000"
 12732      54494D45 
 12732      5233325F 
 12732      31202828 
 12732      4C50435F 
 12733              	.LASF783:
 12734 1e6b 55415254 		.ascii	"UART_ICR_IRDAEN (1 << 0)\000"
 12734      5F494352 
 12734      5F495244 
 12734      41454E20 
 12734      2831203C 
 12735              	.LASF1018:
 12736 1e84 52455345 		.ascii	"RESERVED1\000"
 12736      52564544 
 12736      3100
 12737              	.LASF990:
 12738 1e8e 756E7369 		.ascii	"unsigned char\000"
 12738      676E6564 
 12738      20636861 
 12738      7200
 12739              	.LASF1029:
 12740 1e9c 52455345 		.ascii	"RESERVED3\000"
 12740      52564544 
 12740      3300
 12741              	.LASF1033:
 12742 1ea6 52455345 		.ascii	"RESERVED4\000"
 12742      52564544 
 12742      3400
 12743              	.LASF1035:
 12744 1eb0 52455345 		.ascii	"RESERVED5\000"
 12744      52564544 
 12744      3500
 12745              	.LASF1039:
 12746 1eba 52455345 		.ascii	"RESERVED6\000"
 12746      52564544 
 12746      3600
 12747              	.LASF1043:
 12748 1ec4 52455345 		.ascii	"RESERVED7\000"
 12748      52564544 
 12748      3700
 12749              	.LASF1047:
 12750 1ece 52455345 		.ascii	"RESERVED8\000"
 12750      52564544 
 12750      3800
 12751              	.LASF1051:
 12752 1ed8 52455345 		.ascii	"RESERVED9\000"
 12752      52564544 
 12752      3900
 12753              	.LASF178:
 12754 1ee2 5F5F4445 		.ascii	"__DEC128_MAX_EXP__ 6145\000"
 12754      43313238 
 12754      5F4D4158 
 12754      5F455850 
 12754      5F5F2036 
 12755              	.LASF1030:
 12756 1efa 4D41494E 		.ascii	"MAINCLKSEL\000"
ARM GAS  /var/folders/f9/8bk2lnw15zn4cbgn6wrnb4lm0000gn/T//ccCGlkPS.s 			page 274


 12756      434C4B53 
 12756      454C00
 12757              	.LASF1147:
 12758 1f05 5353505F 		.ascii	"SSP_BITS_5\000"
 12758      42495453 
 12758      5F3500
 12759              	.LASF466:
 12760 1f10 5F5F434D 		.ascii	"__CM0_CMSIS_VERSION ((__CM0_CMSIS_VERSION_MAIN << 1"
 12760      305F434D 
 12760      5349535F 
 12760      56455253 
 12760      494F4E20 
 12761 1f43 3629207C 		.ascii	"6) | __CM0_CMSIS_VERSION_SUB )\000"
 12761      205F5F43 
 12761      4D305F43 
 12761      4D534953 
 12761      5F564552 
 12762              	.LASF970:
 12763 1f62 53444F5F 		.ascii	"SDO_ABORT_VALUE_RANGE 0x06090030UL\000"
 12763      41424F52 
 12763      545F5641 
 12763      4C55455F 
 12763      52414E47 
 12764              	.LASF801:
 12765 1f85 55415254 		.ascii	"UART_SYNCCTRL_FES (1 << 2)\000"
 12765      5F53594E 
 12765      43435452 
 12765      4C5F4645 
 12765      53202831 
 12766              	.LASF7:
 12767 1fa0 5F5F4154 		.ascii	"__ATOMIC_SEQ_CST 5\000"
 12767      4F4D4943 
 12767      5F534551 
 12767      5F435354 
 12767      203500
 12768              	.LASF521:
 12769 1fb3 5343425F 		.ascii	"SCB_SCR_SLEEPONEXIT_Msk (1UL << SCB_SCR_SLEEPONEXIT"
 12769      5343525F 
 12769      534C4545 
 12769      504F4E45 
 12769      5849545F 
 12770 1fe6 5F506F73 		.ascii	"_Pos)\000"
 12770      2900
 12771              	.LASF657:
 12772 1fec 4D445F48 		.ascii	"MD_HYS (0x1 << 5)\000"
 12772      59532028 
 12772      30783120 
 12772      3C3C2035 
 12772      2900
 12773              	.LASF831:
 12774 1ffe 5353505F 		.ascii	"SSP_DR_BITMASK(n) ((n) & 0xFFFF)\000"
 12774      44525F42 
 12774      49544D41 
 12774      534B286E 
 12774      29202828 
 12775              	.LASF740:
 12776 201f 55415254 		.ascii	"UART_LCR_PARITY_F_0 (3 << 4)\000"
ARM GAS  /var/folders/f9/8bk2lnw15zn4cbgn6wrnb4lm0000gn/T//ccCGlkPS.s 			page 275


 12776      5F4C4352 
 12776      5F504152 
 12776      4954595F 
 12776      465F3020 
 12777              	.LASF541:
 12778 203c 53797354 		.ascii	"SysTick_CALIB_NOREF_Msk (1UL << SysTick_CALIB_NOREF"
 12778      69636B5F 
 12778      43414C49 
 12778      425F4E4F 
 12778      5245465F 
 12779 206f 5F506F73 		.ascii	"_Pos)\000"
 12779      2900
 12780              	.LASF1122:
 12781 2075 5353505F 		.ascii	"SSP_RTRIS\000"
 12781      52545249 
 12781      5300
 12782              	.LASF943:
 12783 207f 4932435F 		.ascii	"I2C_MONITOR_CFG_MATCHALL I2C_I2MMCTRL_MATCH_ALL\000"
 12783      4D4F4E49 
 12783      544F525F 
 12783      4346475F 
 12783      4D415443 
 12784              	.LASF138:
 12785 20af 5F5F4442 		.ascii	"__DBL_MAX_EXP__ 1024\000"
 12785      4C5F4D41 
 12785      585F4558 
 12785      505F5F20 
 12785      31303234 
 12786              	.LASF111:
 12787 20c4 5F5F5549 		.ascii	"__UINT_FAST8_MAX__ 4294967295U\000"
 12787      4E545F46 
 12787      41535438 
 12787      5F4D4158 
 12787      5F5F2034 
 12788              	.LASF883:
 12789 20e3 4932435F 		.ascii	"I2C_CON_STA (1UL << 5)\000"
 12789      434F4E5F 
 12789      53544120 
 12789      2831554C 
 12789      203C3C20 
 12790              	.LASF271:
 12791 20fa 5F5F5451 		.ascii	"__TQ_FBIT__ 127\000"
 12791      5F464249 
 12791      545F5F20 
 12791      31323700 
 12792              	.LASF1174:
 12793 210a 78665F73 		.ascii	"xf_setup\000"
 12793      65747570 
 12793      00
 12794              	.LASF328:
 12795 2113 5F5F5448 		.ascii	"__THUMBEL__ 1\000"
 12795      554D4245 
 12795      4C5F5F20 
 12795      3100
 12796              	.LASF855:
 12797 2121 4144435F 		.ascii	"ADC_CR_START_NOW ((1UL << 24))\000"
 12797      43525F53 
ARM GAS  /var/folders/f9/8bk2lnw15zn4cbgn6wrnb4lm0000gn/T//ccCGlkPS.s 			page 276


 12797      54415254 
 12797      5F4E4F57 
 12797      20282831 
 12798              	.LASF681:
 12799 2140 54494D45 		.ascii	"TIMER_INT_ON_MATCH(n) (_BIT(((n) * 3)))\000"
 12799      525F494E 
 12799      545F4F4E 
 12799      5F4D4154 
 12799      4348286E 
 12800              	.LASF1113:
 12801 2168 5F535350 		.ascii	"_SSP_STATUS\000"
 12801      5F535441 
 12801      54555300 
 12802              	.LASF372:
 12803 2174 5F5F696E 		.ascii	"__int_fast64_t_defined 1\000"
 12803      745F6661 
 12803      73743634 
 12803      5F745F64 
 12803      6566696E 
 12804              	.LASF579:
 12805 218d 4C50435F 		.ascii	"LPC_ROM_API_BASE_LOC 0x1FFF1FF8\000"
 12805      524F4D5F 
 12805      4150495F 
 12805      42415345 
 12805      5F4C4F43 
 12806              	.LASF339:
 12807 21ad 5F5F5553 		.ascii	"__USES_INITFINI__ 1\000"
 12807      45535F49 
 12807      4E495446 
 12807      494E495F 
 12807      5F203100 
 12808              	.LASF482:
 12809 21c1 5343425F 		.ascii	"SCB_CPUID_ARCHITECTURE_Pos 16\000"
 12809      43505549 
 12809      445F4152 
 12809      43484954 
 12809      45435455 
 12810              	.LASF1127:
 12811 21df 5F535350 		.ascii	"_SSP_INTCLEAR\000"
 12811      5F494E54 
 12811      434C4541 
 12811      5200
 12812              	.LASF17:
 12813 21ed 5F5F5349 		.ascii	"__SIZEOF_SHORT__ 2\000"
 12813      5A454F46 
 12813      5F53484F 
 12813      52545F5F 
 12813      203200
 12814              	.LASF258:
 12815 2200 5F5F554C 		.ascii	"__ULLACCUM_FBIT__ 32\000"
 12815      4C414343 
 12815      554D5F46 
 12815      4249545F 
 12815      5F203332 
 12816              	.LASF1010:
 12817 2215 5F426F6F 		.ascii	"_Bool\000"
 12817      6C00
ARM GAS  /var/folders/f9/8bk2lnw15zn4cbgn6wrnb4lm0000gn/T//ccCGlkPS.s 			page 277


 12818              	.LASF721:
 12819 221b 55415254 		.ascii	"UART_FCR_BITMASK (0xCF)\000"
 12819      5F464352 
 12819      5F424954 
 12819      4D41534B 
 12819      20283078 
 12820              	.LASF549:
 12821 2233 5343425F 		.ascii	"SCB_BASE (SCS_BASE + 0x0D00UL)\000"
 12821      42415345 
 12821      20285343 
 12821      535F4241 
 12821      5345202B 
 12822              	.LASF596:
 12823 2252 4C50435F 		.ascii	"LPC_GPIO ((LPC_GPIO_T *) LPC_GPIO_PORT0_BASE)\000"
 12823      4750494F 
 12823      2028284C 
 12823      50435F47 
 12823      50494F5F 
 12824              	.LASF342:
 12825 2280 5F5F4C50 		.ascii	"__LPC_TYPES_H_ \000"
 12825      435F5459 
 12825      5045535F 
 12825      485F2000 
 12826              	.LASF454:
 12827 2290 4D494E28 		.ascii	"MIN(a,b) (((a) < (b)) ? (a) : (b))\000"
 12827      612C6229 
 12827      20282828 
 12827      6129203C 
 12827      20286229 
 12828              	.LASF345:
 12829 22b3 5F535953 		.ascii	"_SYS_FEATURES_H \000"
 12829      5F464541 
 12829      54555245 
 12829      535F4820 
 12829      00
 12830              	.LASF976:
 12831 22c4 4F445F45 		.ascii	"OD_EXP_WO 0x20\000"
 12831      58505F57 
 12831      4F203078 
 12831      323000
 12832              	.LASF450:
 12833 22d3 53544154 		.ascii	"STATIC static\000"
 12833      49432073 
 12833      74617469 
 12833      6300
 12834              	.LASF1024:
 12835 22e1 52455345 		.ascii	"RESERVED2\000"
 12835      52564544 
 12835      3200
 12836              	.LASF1123:
 12837 22eb 5353505F 		.ascii	"SSP_RXRIS\000"
 12837      52585249 
 12837      5300
 12838              	.LASF20:
 12839 22f5 5F5F5349 		.ascii	"__SIZEOF_LONG_DOUBLE__ 8\000"
 12839      5A454F46 
 12839      5F4C4F4E 
ARM GAS  /var/folders/f9/8bk2lnw15zn4cbgn6wrnb4lm0000gn/T//ccCGlkPS.s 			page 278


 12839      475F444F 
 12839      55424C45 
 12840              	.LASF754:
 12841 230e 55415254 		.ascii	"UART_LSR_BI (1 << 4)\000"
 12841      5F4C5352 
 12841      5F424920 
 12841      2831203C 
 12841      3C203429 
 12842              	.LASF732:
 12843 2323 55415254 		.ascii	"UART_LCR_SBS_MASK (1 << 2)\000"
 12843      5F4C4352 
 12843      5F534253 
 12843      5F4D4153 
 12843      4B202831 
 12844              	.LASF315:
 12845 233e 5F5F5052 		.ascii	"__PRAGMA_REDEFINE_EXTNAME 1\000"
 12845      41474D41 
 12845      5F524544 
 12845      4546494E 
 12845      455F4558 
 12846              	.LASF32:
 12847 235a 5F5F5743 		.ascii	"__WCHAR_TYPE__ unsigned int\000"
 12847      4841525F 
 12847      54595045 
 12847      5F5F2075 
 12847      6E736967 
 12848              	.LASF422:
 12849 2376 57494E54 		.ascii	"WINT_MAX __WINT_MAX__\000"
 12849      5F4D4158 
 12849      205F5F57 
 12849      494E545F 
 12849      4D41585F 
 12850              	.LASF550:
 12851 238c 53434220 		.ascii	"SCB ((SCB_Type *) SCB_BASE )\000"
 12851      28285343 
 12851      425F5479 
 12851      7065202A 
 12851      29205343 
 12852              	.LASF1009:
 12853 23a9 63686172 		.ascii	"char\000"
 12853      00
 12854              	.LASF294:
 12855 23ae 5F5F5553 		.ascii	"__USA_IBIT__ 16\000"
 12855      415F4942 
 12855      49545F5F 
 12855      20313600 
 12856              	.LASF432:
 12857 23be 494E544D 		.ascii	"INTMAX_C(x) __INTMAX_C(x)\000"
 12857      41585F43 
 12857      28782920 
 12857      5F5F494E 
 12857      544D4158 
 12858              	.LASF419:
 12859 23d8 50545244 		.ascii	"PTRDIFF_MIN (-PTRDIFF_MAX - 1)\000"
 12859      4946465F 
 12859      4D494E20 
 12859      282D5054 
ARM GAS  /var/folders/f9/8bk2lnw15zn4cbgn6wrnb4lm0000gn/T//ccCGlkPS.s 			page 279


 12859      52444946 
 12860              	.LASF664:
 12861 23f7 4D445F53 		.ascii	"MD_STDI2C (0x1 << 8)\000"
 12861      54444932 
 12861      43202830 
 12861      7831203C 
 12861      3C203829 
 12862              	.LASF1037:
 12863 240c 55534152 		.ascii	"USARTCLKDIV\000"
 12863      54434C4B 
 12863      44495600 
 12864              	.LASF65:
 12865 2418 5F5F4758 		.ascii	"__GXX_ABI_VERSION 1002\000"
 12865      585F4142 
 12865      495F5645 
 12865      5253494F 
 12865      4E203130 
 12866              	.LASF62:
 12867 242f 5F5F5549 		.ascii	"__UINT_FAST64_TYPE__ long long unsigned int\000"
 12867      4E545F46 
 12867      41535436 
 12867      345F5459 
 12867      50455F5F 
 12868              	.LASF1100:
 12869 245b 53595343 		.ascii	"SYSCTL_CLOCK_SSP0\000"
 12869      544C5F43 
 12869      4C4F434B 
 12869      5F535350 
 12869      3000
 12870              	.LASF1107:
 12871 246d 53595343 		.ascii	"SYSCTL_CLOCK_SSP1\000"
 12871      544C5F43 
 12871      4C4F434B 
 12871      5F535350 
 12871      3100
 12872              	.LASF826:
 12873 247f 5353505F 		.ascii	"SSP_CR1_SLAVE_EN ((uint32_t) (1 << 2))\000"
 12873      4352315F 
 12873      534C4156 
 12873      455F454E 
 12873      20282875 
 12874              	.LASF128:
 12875 24a6 5F5F464C 		.ascii	"__FLT_MIN__ 1.1754943508222875e-38F\000"
 12875      545F4D49 
 12875      4E5F5F20 
 12875      312E3137 
 12875      35343934 
 12876              	.LASF1191:
 12877 24ca 43686970 		.ascii	"Chip_SSP_GetPCLKkRate\000"
 12877      5F535350 
 12877      5F476574 
 12877      50434C4B 
 12877      6B526174 
 12878              	.LASF283:
 12879 24e0 5F5F4841 		.ascii	"__HA_FBIT__ 7\000"
 12879      5F464249 
 12879      545F5F20 
ARM GAS  /var/folders/f9/8bk2lnw15zn4cbgn6wrnb4lm0000gn/T//ccCGlkPS.s 			page 280


 12879      3700
 12880              	.LASF959:
 12881 24ee 53444F5F 		.ascii	"SDO_ABORT_TOGGLE 0x05030000UL\000"
 12881      41424F52 
 12881      545F544F 
 12881      47474C45 
 12881      20307830 
 12882              	.LASF592:
 12883 250c 4C50435F 		.ascii	"LPC_SYSCTL ((LPC_SYSCTL_T *) LPC_SYSCTL_BASE)\000"
 12883      53595343 
 12883      544C2028 
 12883      284C5043 
 12883      5F535953 
 12884              	.LASF127:
 12885 253a 5F5F464C 		.ascii	"__FLT_MAX__ 3.4028234663852886e+38F\000"
 12885      545F4D41 
 12885      585F5F20 
 12885      332E3430 
 12885      32383233 
 12886              	.LASF311:
 12887 255e 5F5F4743 		.ascii	"__GCC_ATOMIC_LLONG_LOCK_FREE 1\000"
 12887      435F4154 
 12887      4F4D4943 
 12887      5F4C4C4F 
 12887      4E475F4C 
 12888              	.LASF687:
 12889 257d 5F5F5541 		.ascii	"__UART_11XX_H_ \000"
 12889      52545F31 
 12889      3158585F 
 12889      485F2000 
 12890              	.LASF946:
 12891 258d 43414E5F 		.ascii	"CAN_ERROR_PASS 0x00000001UL\000"
 12891      4552524F 
 12891      525F5041 
 12891      53532030 
 12891      78303030 
 12892              	.LASF640:
 12893 25a9 494F434F 		.ascii	"IOCON_MODE_INACT (0x0 << 3)\000"
 12893      4E5F4D4F 
 12893      44455F49 
 12893      4E414354 
 12893      20283078 
 12894              	.LASF891:
 12895 25c5 4932435F 		.ascii	"I2C_I2STAT_M_TX_SLAW_ACK ((0x18))\000"
 12895      49325354 
 12895      41545F4D 
 12895      5F54585F 
 12895      534C4157 
 12896              	.LASF163:
 12897 25e7 5F5F4445 		.ascii	"__DEC32_MIN_EXP__ (-94)\000"
 12897      4333325F 
 12897      4D494E5F 
 12897      4558505F 
 12897      5F20282D 
 12898              	.LASF189:
 12899 25ff 5F5F5553 		.ascii	"__USFRACT_IBIT__ 0\000"
 12899      46524143 
ARM GAS  /var/folders/f9/8bk2lnw15zn4cbgn6wrnb4lm0000gn/T//ccCGlkPS.s 			page 281


 12899      545F4942 
 12899      49545F5F 
 12899      203000
 12900              	.LASF443:
 12901 2612 5F424954 		.ascii	"_BIT(n) (1 << (n))\000"
 12901      286E2920 
 12901      2831203C 
 12901      3C20286E 
 12901      292900
 12902              	.LASF993:
 12903 2625 5F5F7569 		.ascii	"__uint16_t\000"
 12903      6E743136 
 12903      5F7400
 12904              	.LASF157:
 12905 2630 5F5F4C44 		.ascii	"__LDBL_EPSILON__ 2.2204460492503131e-16L\000"
 12905      424C5F45 
 12905      5053494C 
 12905      4F4E5F5F 
 12905      20322E32 
 12906              	.LASF879:
 12907 2659 4932435F 		.ascii	"I2C_I2CONCLR_I2ENC ((1 << 6))\000"
 12907      4932434F 
 12907      4E434C52 
 12907      5F493245 
 12907      4E432028 
 12908              	.LASF1184:
 12909 2677 496E7443 		.ascii	"IntClear\000"
 12909      6C656172 
 12909      00
 12910              	.LASF190:
 12911 2680 5F5F5553 		.ascii	"__USFRACT_MIN__ 0.0UHR\000"
 12911      46524143 
 12911      545F4D49 
 12911      4E5F5F20 
 12911      302E3055 
 12912              	.LASF672:
 12913 2697 46554E43 		.ascii	"FUNC5 0x5\000"
 12913      35203078 
 12913      3500
 12914              	.LASF774:
 12915 26a1 55415254 		.ascii	"UART_ACR_ABTOINT_CLR (1 << 9)\000"
 12915      5F414352 
 12915      5F414254 
 12915      4F494E54 
 12915      5F434C52 
 12916              	.LASF964:
 12917 26bf 53444F5F 		.ascii	"SDO_ABORT_READONLY 0x06010002UL\000"
 12917      41424F52 
 12917      545F5245 
 12917      41444F4E 
 12917      4C592030 
 12918              	.LASF350:
 12919 26df 5F5F5F69 		.ascii	"___int16_t_defined 1\000"
 12919      6E743136 
 12919      5F745F64 
 12919      6566696E 
 12919      65642031 
ARM GAS  /var/folders/f9/8bk2lnw15zn4cbgn6wrnb4lm0000gn/T//ccCGlkPS.s 			page 282


 12920              	.LASF152:
 12921 26f4 5F5F4C44 		.ascii	"__LDBL_MAX_EXP__ 1024\000"
 12921      424C5F4D 
 12921      41585F45 
 12921      58505F5F 
 12921      20313032 
 12922              	.LASF638:
 12923 270a 494F434F 		.ascii	"IOCON_FUNC6 0x6\000"
 12923      4E5F4655 
 12923      4E433620 
 12923      30783600 
 12924              	.LASF520:
 12925 271a 5343425F 		.ascii	"SCB_SCR_SLEEPONEXIT_Pos 1\000"
 12925      5343525F 
 12925      534C4545 
 12925      504F4E45 
 12925      5849545F 
 12926              	.LASF710:
 12927 2734 55415254 		.ascii	"UART_IIR_BITMASK (0x3CF)\000"
 12927      5F494952 
 12927      5F424954 
 12927      4D41534B 
 12927      20283078 
 12928              	.LASF361:
 12929 274d 5F5F696E 		.ascii	"__int8_t_defined 1\000"
 12929      74385F74 
 12929      5F646566 
 12929      696E6564 
 12929      203100
 12930              	.LASF956:
 12931 2760 43414E5F 		.ascii	"CAN_MSGOBJ_EXT 0x20000000UL\000"
 12931      4D53474F 
 12931      424A5F45 
 12931      58542030 
 12931      78323030 
 12932              	.LASF145:
 12933 277c 5F5F4442 		.ascii	"__DBL_HAS_DENORM__ 1\000"
 12933      4C5F4841 
 12933      535F4445 
 12933      4E4F524D 
 12933      5F5F2031 
 12934              	.LASF504:
 12935 2791 5343425F 		.ascii	"SCB_ICSR_VECTACTIVE_Pos 0\000"
 12935      49435352 
 12935      5F564543 
 12935      54414354 
 12935      4956455F 
 12936              	.LASF1230:
 12937 27ab 43686970 		.ascii	"Chip_SSP_DeInit\000"
 12937      5F535350 
 12937      5F446549 
 12937      6E697400 
 12938              	.LASF611:
 12939 27bb 53595343 		.ascii	"SYSCTL_DEEPSLP_BOD_PD (1 << 3)\000"
 12939      544C5F44 
 12939      45455053 
 12939      4C505F42 
ARM GAS  /var/folders/f9/8bk2lnw15zn4cbgn6wrnb4lm0000gn/T//ccCGlkPS.s 			page 283


 12939      4F445F50 
 12940              	.LASF534:
 12941 27da 53797354 		.ascii	"SysTick_CTRL_ENABLE_Pos 0\000"
 12941      69636B5F 
 12941      4354524C 
 12941      5F454E41 
 12941      424C455F 
 12942              	.LASF1179:
 12943 27f4 43686970 		.ascii	"Chip_Clock_SetSSP0ClockDiv\000"
 12943      5F436C6F 
 12943      636B5F53 
 12943      65745353 
 12943      5030436C 
 12944              	.LASF560:
 12945 280f 4C50435F 		.ascii	"LPC_TIMER16_1_BASE 0x40010000\000"
 12945      54494D45 
 12945      5231365F 
 12945      315F4241 
 12945      53452030 
 12946              	.LASF727:
 12947 282d 55415254 		.ascii	"UART_LCR_WLEN_MASK (3 << 0)\000"
 12947      5F4C4352 
 12947      5F574C45 
 12947      4E5F4D41 
 12947      534B2028 
 12948              	.LASF627:
 12949 2849 53595343 		.ascii	"SYSCTL_POWERDOWN_WDTOSC_PD (1 << 6)\000"
 12949      544C5F50 
 12949      4F574552 
 12949      444F574E 
 12949      5F574454 
 12950              	.LASF287:
 12951 286d 5F5F4441 		.ascii	"__DA_FBIT__ 31\000"
 12951      5F464249 
 12951      545F5F20 
 12951      333100
 12952              	.LASF655:
 12953 287c 4D445F50 		.ascii	"MD_PUP (0x2 << 3)\000"
 12953      55502028 
 12953      30783220 
 12953      3C3C2033 
 12953      2900
 12954              	.LASF938:
 12955 288e 4932435F 		.ascii	"I2C_RECV_END 0x10\000"
 12955      52454356 
 12955      5F454E44 
 12955      20307831 
 12955      3000
 12956              	.LASF518:
 12957 28a0 5343425F 		.ascii	"SCB_SCR_SLEEPDEEP_Pos 2\000"
 12957      5343525F 
 12957      534C4545 
 12957      50444545 
 12957      505F506F 
 12958              	.LASF493:
 12959 28b8 5343425F 		.ascii	"SCB_ICSR_PENDSVCLR_Msk (1UL << SCB_ICSR_PENDSVCLR_P"
 12959      49435352 
ARM GAS  /var/folders/f9/8bk2lnw15zn4cbgn6wrnb4lm0000gn/T//ccCGlkPS.s 			page 284


 12959      5F50454E 
 12959      44535643 
 12959      4C525F4D 
 12960 28eb 6F732900 		.ascii	"os)\000"
 12961              	.LASF130:
 12962 28ef 5F5F464C 		.ascii	"__FLT_DENORM_MIN__ 1.4012984643248171e-45F\000"
 12962      545F4445 
 12962      4E4F524D 
 12962      5F4D494E 
 12962      5F5F2031 
 12963              	.LASF93:
 12964 291a 5F5F494E 		.ascii	"__INT_LEAST16_MAX__ 32767\000"
 12964      545F4C45 
 12964      41535431 
 12964      365F4D41 
 12964      585F5F20 
 12965              	.LASF262:
 12966 2934 5F5F554C 		.ascii	"__ULLACCUM_EPSILON__ 0x1P-32ULLK\000"
 12966      4C414343 
 12966      554D5F45 
 12966      5053494C 
 12966      4F4E5F5F 
 12967              	.LASF782:
 12968 2955 55415254 		.ascii	"UART_RS485CTRL_BITMASK (0x3F)\000"
 12968      5F525334 
 12968      38354354 
 12968      524C5F42 
 12968      49544D41 
 12969              	.LASF380:
 12970 2973 494E545F 		.ascii	"INT_LEAST8_MAX __INT_LEAST8_MAX__\000"
 12970      4C454153 
 12970      54385F4D 
 12970      4158205F 
 12970      5F494E54 
 12971              	.LASF816:
 12972 2995 5353505F 		.ascii	"SSP_CR0_FRF_TI ((uint32_t) (1 << 4))\000"
 12972      4352305F 
 12972      4652465F 
 12972      54492028 
 12972      2875696E 
 12973              	.LASF706:
 12974 29ba 55415254 		.ascii	"UART_IIR_INTSTAT_PEND (1 << 0)\000"
 12974      5F494952 
 12974      5F494E54 
 12974      53544154 
 12974      5F50454E 
 12975              	.LASF104:
 12976 29d9 5F5F5549 		.ascii	"__UINT32_C(c) c ## UL\000"
 12976      4E543332 
 12976      5F432863 
 12976      29206320 
 12976      23232055 
 12977              	.LASF484:
 12978 29ef 5343425F 		.ascii	"SCB_CPUID_PARTNO_Pos 4\000"
 12978      43505549 
 12978      445F5041 
 12978      52544E4F 
ARM GAS  /var/folders/f9/8bk2lnw15zn4cbgn6wrnb4lm0000gn/T//ccCGlkPS.s 			page 285


 12978      5F506F73 
 12979              	.LASF489:
 12980 2a06 5343425F 		.ascii	"SCB_ICSR_NMIPENDSET_Msk (1UL << SCB_ICSR_NMIPENDSET"
 12980      49435352 
 12980      5F4E4D49 
 12980      50454E44 
 12980      5345545F 
 12981 2a39 5F506F73 		.ascii	"_Pos)\000"
 12981      2900
 12982              	.LASF730:
 12983 2a3f 55415254 		.ascii	"UART_LCR_WLEN7 (2 << 0)\000"
 12983      5F4C4352 
 12983      5F574C45 
 12983      4E372028 
 12983      32203C3C 
 12984              	.LASF444:
 12985 2a57 5F534246 		.ascii	"_SBF\000"
 12985      00
 12986              	.LASF86:
 12987 2a5c 5F5F494E 		.ascii	"__INT64_MAX__ 9223372036854775807LL\000"
 12987      5436345F 
 12987      4D41585F 
 12987      5F203932 
 12987      32333337 
 12988              	.LASF129:
 12989 2a80 5F5F464C 		.ascii	"__FLT_EPSILON__ 1.1920928955078125e-7F\000"
 12989      545F4550 
 12989      53494C4F 
 12989      4E5F5F20 
 12989      312E3139 
 12990              	.LASF556:
 12991 2aa7 4C50435F 		.ascii	"LPC_I2C_BASE 0x40000000\000"
 12991      4932435F 
 12991      42415345 
 12991      20307834 
 12991      30303030 
 12992              	.LASF580:
 12993 2abf 4C50435F 		.ascii	"LPC_I2C ((LPC_I2C_T *) LPC_I2C_BASE)\000"
 12993      49324320 
 12993      28284C50 
 12993      435F4932 
 12993      435F5420 
 12994              	.LASF1132:
 12995 2ae4 43484950 		.ascii	"CHIP_SSP_CLOCK_FORMAT\000"
 12995      5F535350 
 12995      5F434C4F 
 12995      434B5F46 
 12995      4F524D41 
 12996              	.LASF31:
 12997 2afa 5F5F5054 		.ascii	"__PTRDIFF_TYPE__ int\000"
 12997      52444946 
 12997      465F5459 
 12997      50455F5F 
 12997      20696E74 
 12998              	.LASF725:
 12999 2b0f 55415254 		.ascii	"UART_FCR_TRG_LEV2 (2 << 6)\000"
 12999      5F464352 
ARM GAS  /var/folders/f9/8bk2lnw15zn4cbgn6wrnb4lm0000gn/T//ccCGlkPS.s 			page 286


 12999      5F545247 
 12999      5F4C4556 
 12999      32202832 
 13000              	.LASF966:
 13001 2b2a 53444F5F 		.ascii	"SDO_ABORT_PARAINCOMP 0x06040043UL\000"
 13001      41424F52 
 13001      545F5041 
 13001      5241494E 
 13001      434F4D50 
 13002              	.LASF528:
 13003 2b4c 53797354 		.ascii	"SysTick_CTRL_COUNTFLAG_Pos 16\000"
 13003      69636B5F 
 13003      4354524C 
 13003      5F434F55 
 13003      4E54464C 
 13004              	.LASF364:
 13005 2b6a 5F5F696E 		.ascii	"__int_least16_t_defined 1\000"
 13005      745F6C65 
 13005      61737431 
 13005      365F745F 
 13005      64656669 
 13006              	.LASF242:
 13007 2b84 5F5F5541 		.ascii	"__UACCUM_EPSILON__ 0x1P-16UK\000"
 13007      4343554D 
 13007      5F455053 
 13007      494C4F4E 
 13007      5F5F2030 
 13008              	.LASF330:
 13009 2ba1 5F5F5646 		.ascii	"__VFP_FP__ 1\000"
 13009      505F4650 
 13009      5F5F2031 
 13009      00
 13010              	.LASF587:
 13011 2bae 4C50435F 		.ascii	"LPC_ADC ((LPC_ADC_T *) LPC_ADC_BASE)\000"
 13011      41444320 
 13011      28284C50 
 13011      435F4144 
 13011      435F5420 
 13012              	.LASF1197:
 13013 2bd3 43686970 		.ascii	"Chip_SSP_GetClockIndex\000"
 13013      5F535350 
 13013      5F476574 
 13013      436C6F63 
 13013      6B496E64 
 13014              	.LASF308:
 13015 2bea 5F5F4743 		.ascii	"__GCC_ATOMIC_SHORT_LOCK_FREE 1\000"
 13015      435F4154 
 13015      4F4D4943 
 13015      5F53484F 
 13015      52545F4C 
 13016              	.LASF438:
 13017 2c09 66616C73 		.ascii	"false 0\000"
 13017      65203000 
 13018              	.LASF682:
 13019 2c11 54494D45 		.ascii	"TIMER_RESET_ON_MATCH(n) (_BIT((((n) * 3) + 1)))\000"
 13019      525F5245 
 13019      5345545F 
ARM GAS  /var/folders/f9/8bk2lnw15zn4cbgn6wrnb4lm0000gn/T//ccCGlkPS.s 			page 287


 13019      4F4E5F4D 
 13019      41544348 
 13020              	.LASF813:
 13021 2c41 5F5F5353 		.ascii	"__SSP_11XX_H_ \000"
 13021      505F3131 
 13021      58585F48 
 13021      5F2000
 13022              	.LASF266:
 13023 2c50 5F5F4851 		.ascii	"__HQ_IBIT__ 0\000"
 13023      5F494249 
 13023      545F5F20 
 13023      3000
 13024              	.LASF467:
 13025 2c5e 5F5F434F 		.ascii	"__CORTEX_M (0x00)\000"
 13025      52544558 
 13025      5F4D2028 
 13025      30783030 
 13025      2900
 13026              	.LASF228:
 13027 2c70 5F5F5553 		.ascii	"__USACCUM_FBIT__ 8\000"
 13027      41434355 
 13027      4D5F4642 
 13027      49545F5F 
 13027      203800
 13028              	.LASF312:
 13029 2c83 5F5F4743 		.ascii	"__GCC_ATOMIC_TEST_AND_SET_TRUEVAL 1\000"
 13029      435F4154 
 13029      4F4D4943 
 13029      5F544553 
 13029      545F414E 
 13030              	.LASF898:
 13031 2ca7 4932435F 		.ascii	"I2C_I2STAT_M_RX_ARB_LOST ((0x38))\000"
 13031      49325354 
 13031      41545F4D 
 13031      5F52585F 
 13031      4152425F 
 13032              	.LASF503:
 13033 2cc9 5343425F 		.ascii	"SCB_ICSR_VECTPENDING_Msk (0x1FFUL << SCB_ICSR_VECTP"
 13033      49435352 
 13033      5F564543 
 13033      5450454E 
 13033      44494E47 
 13034 2cfc 454E4449 		.ascii	"ENDING_Pos)\000"
 13034      4E475F50 
 13034      6F732900 
 13035              	.LASF1133:
 13036 2d08 5353505F 		.ascii	"SSP_CLOCK_CPHA0_CPOL0\000"
 13036      434C4F43 
 13036      4B5F4350 
 13036      4841305F 
 13036      43504F4C 
 13037              	.LASF1134:
 13038 2d1e 5353505F 		.ascii	"SSP_CLOCK_CPHA0_CPOL1\000"
 13038      434C4F43 
 13038      4B5F4350 
 13038      4841305F 
 13038      43504F4C 
ARM GAS  /var/folders/f9/8bk2lnw15zn4cbgn6wrnb4lm0000gn/T//ccCGlkPS.s 			page 288


 13039              	.LASF243:
 13040 2d34 5F5F4C41 		.ascii	"__LACCUM_FBIT__ 31\000"
 13040      4343554D 
 13040      5F464249 
 13040      545F5F20 
 13040      333100
 13041              	.LASF631:
 13042 2d47 5F5F494F 		.ascii	"__IOCON_11XX_H_ \000"
 13042      434F4E5F 
 13042      31315858 
 13042      5F485F20 
 13042      00
 13043              	.LASF1143:
 13044 2d58 43484950 		.ascii	"CHIP_SSP_FRAME_FORMAT_TI\000"
 13044      5F535350 
 13044      5F465241 
 13044      4D455F46 
 13044      4F524D41 
 13045              	.LASF923:
 13046 2d71 4932435F 		.ascii	"I2C_I2MMCTRL_BITMASK ((0x07))\000"
 13046      49324D4D 
 13046      4354524C 
 13046      5F424954 
 13046      4D41534B 
 13047              	.LASF678:
 13048 2d8f 54494D45 		.ascii	"TIMER_CAP_INT(n) (_BIT((((n) & 0x0F) + 4)))\000"
 13048      525F4341 
 13048      505F494E 
 13048      54286E29 
 13048      20285F42 
 13049              	.LASF1137:
 13050 2dbb 5353505F 		.ascii	"SSP_CLOCK_MODE0\000"
 13050      434C4F43 
 13050      4B5F4D4F 
 13050      44453000 
 13051              	.LASF1138:
 13052 2dcb 5353505F 		.ascii	"SSP_CLOCK_MODE1\000"
 13052      434C4F43 
 13052      4B5F4D4F 
 13052      44453100 
 13053              	.LASF1014:
 13054 2ddb 53595350 		.ascii	"SYSPLLCTRL\000"
 13054      4C4C4354 
 13054      524C00
 13055              	.LASF1140:
 13056 2de6 5353505F 		.ascii	"SSP_CLOCK_MODE3\000"
 13056      434C4F43 
 13056      4B5F4D4F 
 13056      44453300 
 13057              	.LASF289:
 13058 2df6 5F5F5441 		.ascii	"__TA_FBIT__ 63\000"
 13058      5F464249 
 13058      545F5F20 
 13058      363300
 13059              	.LASF384:
 13060 2e05 55494E54 		.ascii	"UINT16_MAX __UINT16_MAX__\000"
 13060      31365F4D 
ARM GAS  /var/folders/f9/8bk2lnw15zn4cbgn6wrnb4lm0000gn/T//ccCGlkPS.s 			page 289


 13060      4158205F 
 13060      5F55494E 
 13060      5431365F 
 13061              	.LASF699:
 13062 2e1f 55415254 		.ascii	"UART_IER_MSINT (1 << 3)\000"
 13062      5F494552 
 13062      5F4D5349 
 13062      4E542028 
 13062      31203C3C 
 13063              	.LASF903:
 13064 2e37 4932435F 		.ascii	"I2C_I2STAT_S_RX_SLAW_ACK ((0x60))\000"
 13064      49325354 
 13064      41545F53 
 13064      5F52585F 
 13064      534C4157 
 13065              	.LASF373:
 13066 2e59 494E5450 		.ascii	"INTPTR_MIN (-__INTPTR_MAX__ - 1)\000"
 13066      54525F4D 
 13066      494E2028 
 13066      2D5F5F49 
 13066      4E545054 
 13067              	.LASF1012:
 13068 2e7a 5359534D 		.ascii	"SYSMEMREMAP\000"
 13068      454D5245 
 13068      4D415000 
 13069              	.LASF1086:
 13070 2e86 52455345 		.ascii	"RESET_DAC0\000"
 13070      545F4441 
 13070      433000
 13071              	.LASF335:
 13072 2e91 5F5F4152 		.ascii	"__ARM_PCS 1\000"
 13072      4D5F5043 
 13072      53203100 
 13073              	.LASF436:
 13074 2e9d 626F6F6C 		.ascii	"bool _Bool\000"
 13074      205F426F 
 13074      6F6C00
 13075              	.LASF873:
 13076 2ea8 4932435F 		.ascii	"I2C_I2CONSET_STA ((0x20))\000"
 13076      4932434F 
 13076      4E534554 
 13076      5F535441 
 13076      20282830 
 13077              	.LASF952:
 13078 2ec2 43414E5F 		.ascii	"CAN_ERROR_BIT1 0x00000040UL\000"
 13078      4552524F 
 13078      525F4249 
 13078      54312030 
 13078      78303030 
 13079              	.LASF607:
 13080 2ede 53595343 		.ascii	"SYSCTL_RST_WDT (1 << 2)\000"
 13080      544C5F52 
 13080      53545F57 
 13080      44542028 
 13080      31203C3C 
 13081              	.LASF414:
 13082 2ef6 55494E54 		.ascii	"UINTMAX_MAX __UINTMAX_MAX__\000"
ARM GAS  /var/folders/f9/8bk2lnw15zn4cbgn6wrnb4lm0000gn/T//ccCGlkPS.s 			page 290


 13082      4D41585F 
 13082      4D415820 
 13082      5F5F5549 
 13082      4E544D41 
 13083              	.LASF570:
 13084 2f12 4C50435F 		.ascii	"LPC_SYSCTL_BASE 0x40048000\000"
 13084      53595343 
 13084      544C5F42 
 13084      41534520 
 13084      30783430 
 13085              	.LASF82:
 13086 2f2d 5F5F5349 		.ascii	"__SIG_ATOMIC_MIN__ (-__SIG_ATOMIC_MAX__ - 1)\000"
 13086      475F4154 
 13086      4F4D4943 
 13086      5F4D494E 
 13086      5F5F2028 
 13087              	.LASF240:
 13088 2f5a 5F5F5541 		.ascii	"__UACCUM_MIN__ 0.0UK\000"
 13088      4343554D 
 13088      5F4D494E 
 13088      5F5F2030 
 13088      2E30554B 
 13089              	.LASF490:
 13090 2f6f 5343425F 		.ascii	"SCB_ICSR_PENDSVSET_Pos 28\000"
 13090      49435352 
 13090      5F50454E 
 13090      44535653 
 13090      45545F50 
 13091              	.LASF1212:
 13092 2f89 62756666 		.ascii	"buffer\000"
 13092      657200
 13093              	.LASF512:
 13094 2f90 5343425F 		.ascii	"SCB_AIRCR_SYSRESETREQ_Pos 2\000"
 13094      41495243 
 13094      525F5359 
 13094      53524553 
 13094      45545245 
 13095              	.LASF476:
 13096 2fac 5F5F4F20 		.ascii	"__O volatile\000"
 13096      766F6C61 
 13096      74696C65 
 13096      00
 13097              	.LASF383:
 13098 2fb9 494E5431 		.ascii	"INT16_MAX __INT16_MAX__\000"
 13098      365F4D41 
 13098      58205F5F 
 13098      494E5431 
 13098      365F4D41 
 13099              	.LASF416:
 13100 2fd1 5349475F 		.ascii	"SIG_ATOMIC_MIN (-__STDINT_EXP(INT_MAX) - 1)\000"
 13100      41544F4D 
 13100      49435F4D 
 13100      494E2028 
 13100      2D5F5F53 
 13101              	.LASF893:
 13102 2ffd 4932435F 		.ascii	"I2C_I2STAT_M_TX_DAT_ACK ((0x28))\000"
 13102      49325354 
ARM GAS  /var/folders/f9/8bk2lnw15zn4cbgn6wrnb4lm0000gn/T//ccCGlkPS.s 			page 291


 13102      41545F4D 
 13102      5F54585F 
 13102      4441545F 
 13103              	.LASF1173:
 13104 301e 5353505F 		.ascii	"SSP_Write2BFifo\000"
 13104      57726974 
 13104      65324246 
 13104      69666F00 
 13105              	.LASF1041:
 13106 302e 55534243 		.ascii	"USBCLKUEN\000"
 13106      4C4B5545 
 13106      4E00
 13107              	.LASF917:
 13108 3038 4932435F 		.ascii	"I2C_SLAVE_TIME_OUT 0x10000000UL\000"
 13108      534C4156 
 13108      455F5449 
 13108      4D455F4F 
 13108      55542030 
 13109              	.LASF770:
 13110 3058 55415254 		.ascii	"UART_ACR_START (1 << 0)\000"
 13110      5F414352 
 13110      5F535441 
 13110      52542028 
 13110      31203C3C 
 13111              	.LASF575:
 13112 3070 4C50435F 		.ascii	"LPC_GPIO_PORT1_BASE 0x50010000\000"
 13112      4750494F 
 13112      5F504F52 
 13112      54315F42 
 13112      41534520 
 13113              	.LASF791:
 13114 308f 55415254 		.ascii	"UART_SCICTRL_PROTSEL_T1 (1 << 2)\000"
 13114      5F534349 
 13114      4354524C 
 13114      5F50524F 
 13114      5453454C 
 13115              	.LASF368:
 13116 30b0 5F5F696E 		.ascii	"__int_least64_t_defined 1\000"
 13116      745F6C65 
 13116      61737436 
 13116      345F745F 
 13116      64656669 
 13117              	.LASF1221:
 13118 30ca 43686970 		.ascii	"Chip_SSP_Int_FlushData\000"
 13118      5F535350 
 13118      5F496E74 
 13118      5F466C75 
 13118      73684461 
 13119              	.LASF870:
 13120 30e1 4932435F 		.ascii	"I2C_I2CONSET_AA ((0x04))\000"
 13120      4932434F 
 13120      4E534554 
 13120      5F414120 
 13120      28283078 
 13121              	.LASF905:
 13122 30fa 4932435F 		.ascii	"I2C_I2STAT_S_RX_GENCALL_ACK ((0x70))\000"
 13122      49325354 
ARM GAS  /var/folders/f9/8bk2lnw15zn4cbgn6wrnb4lm0000gn/T//ccCGlkPS.s 			page 292


 13122      41545F53 
 13122      5F52585F 
 13122      47454E43 
 13123              	.LASF793:
 13124 311f 55415254 		.ascii	"UART_SCICTRL_GUARDTIME(n) ((n & 0xFF) << 8)\000"
 13124      5F534349 
 13124      4354524C 
 13124      5F475541 
 13124      52445449 
 13125              	.LASF1060:
 13126 314b 55534243 		.ascii	"USBCLKCTRL\000"
 13126      4C4B4354 
 13126      524C00
 13127              	.LASF175:
 13128 3156 5F5F4445 		.ascii	"__DEC64_SUBNORMAL_MIN__ 0.000000000000001E-383DD\000"
 13128      4336345F 
 13128      5355424E 
 13128      4F524D41 
 13128      4C5F4D49 
 13129              	.LASF192:
 13130 3187 5F5F5553 		.ascii	"__USFRACT_EPSILON__ 0x1P-8UHR\000"
 13130      46524143 
 13130      545F4550 
 13130      53494C4F 
 13130      4E5F5F20 
 13131              	.LASF656:
 13132 31a5 4D445F42 		.ascii	"MD_BUK (0x3 << 3)\000"
 13132      554B2028 
 13132      30783320 
 13132      3C3C2033 
 13132      2900
 13133              	.LASF446:
 13134 31b7 5F424954 		.ascii	"_BITMASK\000"
 13134      4D41534B 
 13134      00
 13135              	.LASF110:
 13136 31c0 5F5F494E 		.ascii	"__INT_FAST64_MAX__ 9223372036854775807LL\000"
 13136      545F4641 
 13136      53543634 
 13136      5F4D4158 
 13136      5F5F2039 
 13137              	.LASF590:
 13138 31e9 4C50435F 		.ascii	"LPC_SSP0 ((LPC_SSP_T *) LPC_SSP0_BASE)\000"
 13138      53535030 
 13138      2028284C 
 13138      50435F53 
 13138      53505F54 
 13139              	.LASF1229:
 13140 3210 43686970 		.ascii	"Chip_SSP_Init\000"
 13140      5F535350 
 13140      5F496E69 
 13140      7400
 13141              	.LASF256:
 13142 321e 5F5F4C4C 		.ascii	"__LLACCUM_MAX__ 0X7FFFFFFFFFFFFFFFP-31LLK\000"
 13142      41434355 
 13142      4D5F4D41 
 13142      585F5F20 
ARM GAS  /var/folders/f9/8bk2lnw15zn4cbgn6wrnb4lm0000gn/T//ccCGlkPS.s 			page 293


 13142      30583746 
 13143              	.LASF707:
 13144 3248 55415254 		.ascii	"UART_IIR_FIFO_EN (3 << 6)\000"
 13144      5F494952 
 13144      5F464946 
 13144      4F5F454E 
 13144      20283320 
 13145              	.LASF673:
 13146 3262 46554E43 		.ascii	"FUNC6 0x6\000"
 13146      36203078 
 13146      3600
 13147              	.LASF1213:
 13148 326c 62756666 		.ascii	"buffer_len\000"
 13148      65725F6C 
 13148      656E00
 13149              	.LASF366:
 13150 3277 5F5F696E 		.ascii	"__int_least32_t_defined 1\000"
 13150      745F6C65 
 13150      61737433 
 13150      325F745F 
 13150      64656669 
 13151              	.LASF300:
 13152 3291 5F5F5553 		.ascii	"__USER_LABEL_PREFIX__ \000"
 13152      45525F4C 
 13152      4142454C 
 13152      5F505245 
 13152      4649585F 
 13153              	.LASF835:
 13154 32a8 5353505F 		.ascii	"SSP_CPHA_SECOND SSP_CR0_CPHA_SECOND\000"
 13154      43504841 
 13154      5F534543 
 13154      4F4E4420 
 13154      5353505F 
 13155              	.LASF577:
 13156 32cc 4C50435F 		.ascii	"LPC_GPIO_PORT3_BASE 0x50030000\000"
 13156      4750494F 
 13156      5F504F52 
 13156      54335F42 
 13156      41534520 
 13157              	.LASF401:
 13158 32eb 494E545F 		.ascii	"INT_FAST8_MAX __INT_FAST8_MAX__\000"
 13158      46415354 
 13158      385F4D41 
 13158      58205F5F 
 13158      494E545F 
 13159              	.LASF731:
 13160 330b 55415254 		.ascii	"UART_LCR_WLEN8 (3 << 0)\000"
 13160      5F4C4352 
 13160      5F574C45 
 13160      4E382028 
 13160      33203C3C 
 13161              	.LASF1093:
 13162 3323 53595343 		.ascii	"SYSCTL_CLOCK_FLASHARRAY\000"
 13162      544C5F43 
 13162      4C4F434B 
 13162      5F464C41 
 13162      53484152 
ARM GAS  /var/folders/f9/8bk2lnw15zn4cbgn6wrnb4lm0000gn/T//ccCGlkPS.s 			page 294


 13163              	.LASF430:
 13164 333b 494E5436 		.ascii	"INT64_C(x) __INT64_C(x)\000"
 13164      345F4328 
 13164      7829205F 
 13164      5F494E54 
 13164      36345F43 
 13165              	.LASF392:
 13166 3353 494E545F 		.ascii	"INT_LEAST32_MAX __INT_LEAST32_MAX__\000"
 13166      4C454153 
 13166      5433325F 
 13166      4D415820 
 13166      5F5F494E 
 13167              	.LASF376:
 13168 3377 494E5438 		.ascii	"INT8_MIN (-__INT8_MAX__ - 1)\000"
 13168      5F4D494E 
 13168      20282D5F 
 13168      5F494E54 
 13168      385F4D41 
 13169              	.LASF811:
 13170 3394 57574454 		.ascii	"WWDT_WDMOD_WDINT ((uint32_t) (1 << 3))\000"
 13170      5F57444D 
 13170      4F445F57 
 13170      44494E54 
 13170      20282875 
 13171              	.LASF844:
 13172 33bb 4144435F 		.ascii	"ADC_MAX_SAMPLE_RATE 400000\000"
 13172      4D41585F 
 13172      53414D50 
 13172      4C455F52 
 13172      41544520 
 13173              	.LASF1095:
 13174 33d6 53595343 		.ascii	"SYSCTL_CLOCK_GPIO\000"
 13174      544C5F43 
 13174      4C4F434B 
 13174      5F475049 
 13174      4F00
 13175              	.LASF1057:
 13176 33e8 4952514C 		.ascii	"IRQLATENCY\000"
 13176      4154454E 
 13176      435900
 13177              	.LASF8:
 13178 33f3 5F5F4154 		.ascii	"__ATOMIC_ACQUIRE 2\000"
 13178      4F4D4943 
 13178      5F414351 
 13178      55495245 
 13178      203200
 13179              	.LASF1220:
 13180 3406 43686970 		.ascii	"Chip_SSP_Int_RWFrames16Bits\000"
 13180      5F535350 
 13180      5F496E74 
 13180      5F525746 
 13180      72616D65 
 13181              	.LASF1209:
 13182 3422 43686970 		.ascii	"Chip_Clock_DisablePeriphClock\000"
 13182      5F436C6F 
 13182      636B5F44 
 13182      69736162 
ARM GAS  /var/folders/f9/8bk2lnw15zn4cbgn6wrnb4lm0000gn/T//ccCGlkPS.s 			page 295


 13182      6C655065 
 13183              	.LASF600:
 13184 3440 504D555F 		.ascii	"PMU_PCON_PM_DEEPPOWERDOWN (0x2)\000"
 13184      50434F4E 
 13184      5F504D5F 
 13184      44454550 
 13184      504F5745 
 13185              	.LASF827:
 13186 3460 5353505F 		.ascii	"SSP_CR1_MASTER_EN ((uint32_t) (0))\000"
 13186      4352315F 
 13186      4D415354 
 13186      45525F45 
 13186      4E202828 
 13187              	.LASF1017:
 13188 3483 55534250 		.ascii	"USBPLLSTAT\000"
 13188      4C4C5354 
 13188      415400
 13189              	.LASF821:
 13190 348e 5353505F 		.ascii	"SSP_CR0_CPHA_SECOND ((uint32_t) (1 << 7))\000"
 13190      4352305F 
 13190      43504841 
 13190      5F534543 
 13190      4F4E4420 
 13191              	.LASF969:
 13192 34b8 53444F5F 		.ascii	"SDO_ABORT_UNKNOWNSUB 0x06090011UL\000"
 13192      41424F52 
 13192      545F554E 
 13192      4B4E4F57 
 13192      4E535542 
 13193              	.LASF822:
 13194 34da 5353505F 		.ascii	"SSP_CR0_SCR(n) ((uint32_t) ((n & 0xFF) << 8))\000"
 13194      4352305F 
 13194      53435228 
 13194      6E292028 
 13194      2875696E 
 13195              	.LASF1234:
 13196 3508 43686970 		.ascii	"Chip_SSP_SetClockRate\000"
 13196      5F535350 
 13196      5F536574 
 13196      436C6F63 
 13196      6B526174 
 13197              	.LASF719:
 13198 351e 55415254 		.ascii	"UART_FCR_TX_RS (1 << 2)\000"
 13198      5F464352 
 13198      5F54585F 
 13198      52532028 
 13198      31203C3C 
 13199              	.LASF1185:
 13200 3536 43686970 		.ascii	"Chip_SSP_GetDataSize\000"
 13200      5F535350 
 13200      5F476574 
 13200      44617461 
 13200      53697A65 
 13201              	.LASF143:
 13202 354b 5F5F4442 		.ascii	"__DBL_EPSILON__ ((double)2.2204460492503131e-16L)\000"
 13202      4C5F4550 
 13202      53494C4F 
ARM GAS  /var/folders/f9/8bk2lnw15zn4cbgn6wrnb4lm0000gn/T//ccCGlkPS.s 			page 296


 13202      4E5F5F20 
 13202      2828646F 
 13203              	.LASF1226:
 13204 357d 7373705F 		.ascii	"ssp_clk\000"
 13204      636C6B00 
 13205              	.LASF132:
 13206 3585 5F5F464C 		.ascii	"__FLT_HAS_INFINITY__ 1\000"
 13206      545F4841 
 13206      535F494E 
 13206      46494E49 
 13206      54595F5F 
 13207              	.LASF1082:
 13208 359c 52455345 		.ascii	"RESET_TIMER1_16\000"
 13208      545F5449 
 13208      4D455231 
 13208      5F313600 
 13209              	.LASF236:
 13210 35ac 5F5F4143 		.ascii	"__ACCUM_MAX__ 0X7FFFFFFFP-15K\000"
 13210      43554D5F 
 13210      4D41585F 
 13210      5F203058 
 13210      37464646 
 13211              	.LASF501:
 13212 35ca 5343425F 		.ascii	"SCB_ICSR_ISRPENDING_Msk (1UL << SCB_ICSR_ISRPENDING"
 13212      49435352 
 13212      5F495352 
 13212      50454E44 
 13212      494E475F 
 13213 35fd 5F506F73 		.ascii	"_Pos)\000"
 13213      2900
 13214              	.LASF151:
 13215 3603 5F5F4C44 		.ascii	"__LDBL_MIN_10_EXP__ (-307)\000"
 13215      424C5F4D 
 13215      494E5F31 
 13215      305F4558 
 13215      505F5F20 
 13216              	.LASF1181:
 13217 361e 43686970 		.ascii	"Chip_Clock_GetSSP0ClockDiv\000"
 13217      5F436C6F 
 13217      636B5F47 
 13217      65745353 
 13217      5030436C 
 13218              	.LASF583:
 13219 3639 4C50435F 		.ascii	"LPC_TIMER16_0 ((LPC_TIMER_T *) LPC_TIMER16_0_BASE)\000"
 13219      54494D45 
 13219      5231365F 
 13219      30202828 
 13219      4C50435F 
 13220              	.LASF314:
 13221 366c 5F5F4743 		.ascii	"__GCC_HAVE_DWARF2_CFI_ASM 1\000"
 13221      435F4841 
 13221      56455F44 
 13221      57415246 
 13221      325F4346 
 13222              	.LASF349:
 13223 3688 5F5F5F69 		.ascii	"___int8_t_defined 1\000"
 13223      6E74385F 
ARM GAS  /var/folders/f9/8bk2lnw15zn4cbgn6wrnb4lm0000gn/T//ccCGlkPS.s 			page 297


 13223      745F6465 
 13223      66696E65 
 13223      64203100 
 13224              	.LASF185:
 13225 369c 5F5F5346 		.ascii	"__SFRACT_MIN__ (-0.5HR-0.5HR)\000"
 13225      52414354 
 13225      5F4D494E 
 13225      5F5F2028 
 13225      2D302E35 
 13226              	.LASF997:
 13227 36ba 6C6F6E67 		.ascii	"long unsigned int\000"
 13227      20756E73 
 13227      69676E65 
 13227      6420696E 
 13227      7400
 13228              	.LASF286:
 13229 36cc 5F5F5341 		.ascii	"__SA_IBIT__ 16\000"
 13229      5F494249 
 13229      545F5F20 
 13229      313600
 13230              	.LASF60:
 13231 36db 5F5F5549 		.ascii	"__UINT_FAST16_TYPE__ unsigned int\000"
 13231      4E545F46 
 13231      41535431 
 13231      365F5459 
 13231      50455F5F 
 13232              	.LASF542:
 13233 36fd 53797354 		.ascii	"SysTick_CALIB_SKEW_Pos 30\000"
 13233      69636B5F 
 13233      43414C49 
 13233      425F534B 
 13233      45575F50 
 13234              	.LASF2:
 13235 3717 5F5F474E 		.ascii	"__GNUC__ 4\000"
 13235      55435F5F 
 13235      203400
 13236              	.LASF832:
 13237 3722 5353505F 		.ascii	"SSP_SR_BITMASK ((uint32_t) (0x1F))\000"
 13237      53525F42 
 13237      49544D41 
 13237      534B2028 
 13237      2875696E 
 13238              	.LASF769:
 13239 3745 55415254 		.ascii	"UART_MSR_BITMASK (0xFF)\000"
 13239      5F4D5352 
 13239      5F424954 
 13239      4D41534B 
 13239      20283078 
 13240              	.LASF677:
 13241 375d 54494D45 		.ascii	"TIMER_MATCH_INT(n) (_BIT((n) & 0x0F))\000"
 13241      525F4D41 
 13241      5443485F 
 13241      494E5428 
 13241      6E292028 
 13242              	.LASF44:
 13243 3783 5F5F5549 		.ascii	"__UINT16_TYPE__ short unsigned int\000"
 13243      4E543136 
ARM GAS  /var/folders/f9/8bk2lnw15zn4cbgn6wrnb4lm0000gn/T//ccCGlkPS.s 			page 298


 13243      5F545950 
 13243      455F5F20 
 13243      73686F72 
 13244              	.LASF64:
 13245 37a6 5F5F5549 		.ascii	"__UINTPTR_TYPE__ unsigned int\000"
 13245      4E545054 
 13245      525F5459 
 13245      50455F5F 
 13245      20756E73 
 13246              	.LASF329:
 13247 37c4 5F5F534F 		.ascii	"__SOFTFP__ 1\000"
 13247      46544650 
 13247      5F5F2031 
 13247      00
 13248              	.LASF365:
 13249 37d1 5F5F696E 		.ascii	"__int32_t_defined 1\000"
 13249      7433325F 
 13249      745F6465 
 13249      66696E65 
 13249      64203100 
 13250              	.LASF164:
 13251 37e5 5F5F4445 		.ascii	"__DEC32_MAX_EXP__ 97\000"
 13251      4333325F 
 13251      4D41585F 
 13251      4558505F 
 13251      5F203937 
 13252              	.LASF544:
 13253 37fa 53797354 		.ascii	"SysTick_CALIB_TENMS_Pos 0\000"
 13253      69636B5F 
 13253      43414C49 
 13253      425F5445 
 13253      4E4D535F 
 13254              	.LASF800:
 13255 3814 55415254 		.ascii	"UART_SYNCCTRL_CSRC_MASTER (1 << 1)\000"
 13255      5F53594E 
 13255      43435452 
 13255      4C5F4353 
 13255      52435F4D 
 13256              	.LASF1175:
 13257 3837 5353505F 		.ascii	"SSP_Write1BFifo\000"
 13257      57726974 
 13257      65314246 
 13257      69666F00 
 13258              	.LASF615:
 13259 3847 53595343 		.ascii	"SYSCTL_SLPWAKE_FLASH_PD (1 << 2)\000"
 13259      544C5F53 
 13259      4C505741 
 13259      4B455F46 
 13259      4C415348 
 13260              	.LASF547:
 13261 3868 53797354 		.ascii	"SysTick_BASE (SCS_BASE + 0x0010UL)\000"
 13261      69636B5F 
 13261      42415345 
 13261      20285343 
 13261      535F4241 
 13262              	.LASF1119:
 13263 388b 5353505F 		.ascii	"SSP_STATUS_T\000"
ARM GAS  /var/folders/f9/8bk2lnw15zn4cbgn6wrnb4lm0000gn/T//ccCGlkPS.s 			page 299


 13263      53544154 
 13263      55535F54 
 13263      00
 13264              	.LASF424:
 13265 3898 494E5438 		.ascii	"INT8_C(x) __INT8_C(x)\000"
 13265      5F432878 
 13265      29205F5F 
 13265      494E5438 
 13265      5F432878 
 13266              	.LASF59:
 13267 38ae 5F5F5549 		.ascii	"__UINT_FAST8_TYPE__ unsigned int\000"
 13267      4E545F46 
 13267      41535438 
 13267      5F545950 
 13267      455F5F20 
 13268              	.LASF254:
 13269 38cf 5F5F4C4C 		.ascii	"__LLACCUM_IBIT__ 32\000"
 13269      41434355 
 13269      4D5F4942 
 13269      49545F5F 
 13269      20333200 
 13270              	.LASF513:
 13271 38e3 5343425F 		.ascii	"SCB_AIRCR_SYSRESETREQ_Msk (1UL << SCB_AIRCR_SYSRESE"
 13271      41495243 
 13271      525F5359 
 13271      53524553 
 13271      45545245 
 13272 3916 54524551 		.ascii	"TREQ_Pos)\000"
 13272      5F506F73 
 13272      2900
 13273              	.LASF197:
 13274 3920 5F5F4652 		.ascii	"__FRACT_EPSILON__ 0x1P-15R\000"
 13274      4143545F 
 13274      45505349 
 13274      4C4F4E5F 
 13274      5F203078 
 13275              	.LASF451:
 13276 393b 45585445 		.ascii	"EXTERN extern\000"
 13276      524E2065 
 13276      78746572 
 13276      6E00
 13277              	.LASF499:
 13278 3949 5343425F 		.ascii	"SCB_ICSR_ISRPREEMPT_Msk (1UL << SCB_ICSR_ISRPREEMPT"
 13278      49435352 
 13278      5F495352 
 13278      50524545 
 13278      4D50545F 
 13279 397c 5F506F73 		.ascii	"_Pos)\000"
 13279      2900
 13280              	.LASF745:
 13281 3982 55415254 		.ascii	"UART_MCR_RTS_CTRL (1 << 1)\000"
 13281      5F4D4352 
 13281      5F525453 
 13281      5F435452 
 13281      4C202831 
 13282              	.LASF936:
 13283 399d 4932435F 		.ascii	"I2C_LAST_BYTE_RECV 0x04\000"
ARM GAS  /var/folders/f9/8bk2lnw15zn4cbgn6wrnb4lm0000gn/T//ccCGlkPS.s 			page 300


 13283      4C415354 
 13283      5F425954 
 13283      455F5245 
 13283      43562030 
 13284              	.LASF337:
 13285 39b5 5F5F4758 		.ascii	"__GXX_TYPEINFO_EQUALITY_INLINE 0\000"
 13285      585F5459 
 13285      5045494E 
 13285      464F5F45 
 13285      5155414C 
 13286              	.LASF460:
 13287 39d6 5F5F4D50 		.ascii	"__MPU_PRESENT 0\000"
 13287      555F5052 
 13287      4553454E 
 13287      54203000 
 13288              	.LASF38:
 13289 39e6 5F5F5349 		.ascii	"__SIG_ATOMIC_TYPE__ int\000"
 13289      475F4154 
 13289      4F4D4943 
 13289      5F545950 
 13289      455F5F20 
 13290              	.LASF1087:
 13291 39fe 52455345 		.ascii	"RESET_ADC0\000"
 13291      545F4144 
 13291      433000
 13292              	.LASF584:
 13293 3a09 4C50435F 		.ascii	"LPC_TIMER16_1 ((LPC_TIMER_T *) LPC_TIMER16_1_BASE)\000"
 13293      54494D45 
 13293      5231365F 
 13293      31202828 
 13293      4C50435F 
 13294              	.LASF958:
 13295 3a3c 43414E5F 		.ascii	"CAN_MSGOBJ_RTR 0x40000000UL\000"
 13295      4D53474F 
 13295      424A5F52 
 13295      54522030 
 13295      78343030 
 13296              	.LASF507:
 13297 3a58 5343425F 		.ascii	"SCB_AIRCR_VECTKEY_Msk (0xFFFFUL << SCB_AIRCR_VECTKE"
 13297      41495243 
 13297      525F5645 
 13297      43544B45 
 13297      595F4D73 
 13298 3a8b 595F506F 		.ascii	"Y_Pos)\000"
 13298      732900
 13299              	.LASF68:
 13300 3a92 5F5F494E 		.ascii	"__INT_MAX__ 2147483647\000"
 13300      545F4D41 
 13300      585F5F20 
 13300      32313437 
 13300      34383336 
 13301              	.LASF54:
 13302 3aa9 5F5F5549 		.ascii	"__UINT_LEAST64_TYPE__ long long unsigned int\000"
 13302      4E545F4C 
 13302      45415354 
 13302      36345F54 
 13302      5950455F 
ARM GAS  /var/folders/f9/8bk2lnw15zn4cbgn6wrnb4lm0000gn/T//ccCGlkPS.s 			page 301


 13303              	.LASF181:
 13304 3ad6 5F5F4445 		.ascii	"__DEC128_EPSILON__ 1E-33DL\000"
 13304      43313238 
 13304      5F455053 
 13304      494C4F4E 
 13304      5F5F2031 
 13305              	.LASF714:
 13306 3af1 55415254 		.ascii	"UART_IIR_INTID_CTI (6 << 1)\000"
 13306      5F494952 
 13306      5F494E54 
 13306      49445F43 
 13306      54492028 
 13307              	.LASF188:
 13308 3b0d 5F5F5553 		.ascii	"__USFRACT_FBIT__ 8\000"
 13308      46524143 
 13308      545F4642 
 13308      49545F5F 
 13308      203800
 13309              	.LASF85:
 13310 3b20 5F5F494E 		.ascii	"__INT32_MAX__ 2147483647L\000"
 13310      5433325F 
 13310      4D41585F 
 13310      5F203231 
 13310      34373438 
 13311              	.LASF979:
 13312 3b3a 4F445F53 		.ascii	"OD_SEG_WO 0x50\000"
 13312      45475F57 
 13312      4F203078 
 13312      353000
 13313              	.LASF1117:
 13314 3b49 5353505F 		.ascii	"SSP_STAT_RFF\000"
 13314      53544154 
 13314      5F524646 
 13314      00
 13315              	.LASF305:
 13316 3b56 5F5F4743 		.ascii	"__GCC_ATOMIC_CHAR16_T_LOCK_FREE 1\000"
 13316      435F4154 
 13316      4F4D4943 
 13316      5F434841 
 13316      5231365F 
 13317              	.LASF9:
 13318 3b78 5F5F4154 		.ascii	"__ATOMIC_RELEASE 3\000"
 13318      4F4D4943 
 13318      5F52454C 
 13318      45415345 
 13318      203300
 13319              	.LASF894:
 13320 3b8b 4932435F 		.ascii	"I2C_I2STAT_M_TX_DAT_NACK ((0x30))\000"
 13320      49325354 
 13320      41545F4D 
 13320      5F54585F 
 13320      4441545F 
 13321              	.LASF120:
 13322 3bad 5F5F464C 		.ascii	"__FLT_MANT_DIG__ 24\000"
 13322      545F4D41 
 13322      4E545F44 
 13322      49475F5F 
ARM GAS  /var/folders/f9/8bk2lnw15zn4cbgn6wrnb4lm0000gn/T//ccCGlkPS.s 			page 302


 13322      20323400 
 13323              	.LASF1112:
 13324 3bc1 43484950 		.ascii	"CHIP_SYSCTL_CLOCK\000"
 13324      5F535953 
 13324      43544C5F 
 13324      434C4F43 
 13324      4B00
 13325              	.LASF1006:
 13326 3bd3 4552524F 		.ascii	"ERROR\000"
 13326      5200
 13327              	.LASF57:
 13328 3bd9 5F5F494E 		.ascii	"__INT_FAST32_TYPE__ int\000"
 13328      545F4641 
 13328      53543332 
 13328      5F545950 
 13328      455F5F20 
 13329              	.LASF1105:
 13330 3bf1 53595343 		.ascii	"SYSCTL_CLOCK_IOCON\000"
 13330      544C5F43 
 13330      4C4F434B 
 13330      5F494F43 
 13330      4F4E00
 13331              	.LASF49:
 13332 3c04 5F5F494E 		.ascii	"__INT_LEAST32_TYPE__ long int\000"
 13332      545F4C45 
 13332      41535433 
 13332      325F5459 
 13332      50455F5F 
 13333              	.LASF887:
 13334 3c22 4932435F 		.ascii	"I2C_I2STAT_NO_INF ((0xF8))\000"
 13334      49325354 
 13334      41545F4E 
 13334      4F5F494E 
 13334      46202828 
 13335              	.LASF849:
 13336 3c3d 4144435F 		.ascii	"ADC_CR_CH_SEL(n) ((1UL << (n)))\000"
 13336      43525F43 
 13336      485F5345 
 13336      4C286E29 
 13336      20282831 
 13337              	.LASF12:
 13338 3c5d 5F5F4F50 		.ascii	"__OPTIMIZE__ 1\000"
 13338      54494D49 
 13338      5A455F5F 
 13338      203100
 13339              	.LASF734:
 13340 3c6c 55415254 		.ascii	"UART_LCR_SBS_2BIT (1 << 2)\000"
 13340      5F4C4352 
 13340      5F534253 
 13340      5F324249 
 13340      54202831 
 13341              	.LASF597:
 13342 3c87 4C50435F 		.ascii	"LPC_ROM_API (*((LPC_ROM_API_T * *) LPC_ROM_API_BASE"
 13342      524F4D5F 
 13342      41504920 
 13342      282A2828 
 13342      4C50435F 
ARM GAS  /var/folders/f9/8bk2lnw15zn4cbgn6wrnb4lm0000gn/T//ccCGlkPS.s 			page 303


 13343 3cba 5F4C4F43 		.ascii	"_LOC))\000"
 13343      292900
 13344              	.LASF978:
 13345 3cc1 4F445F53 		.ascii	"OD_SEG_RO 0x40\000"
 13345      45475F52 
 13345      4F203078 
 13345      343000
 13346              	.LASF456:
 13347 3cd0 5F5F5359 		.ascii	"__SYS_CONFIG_H_ \000"
 13347      535F434F 
 13347      4E464947 
 13347      5F485F20 
 13347      00
 13348              	.LASF475:
 13349 3ce1 5F5F4920 		.ascii	"__I volatile const\000"
 13349      766F6C61 
 13349      74696C65 
 13349      20636F6E 
 13349      737400
 13350              	.LASF810:
 13351 3cf4 57574454 		.ascii	"WWDT_WDMOD_WDTOF ((uint32_t) (1 << 2))\000"
 13351      5F57444D 
 13351      4F445F57 
 13351      44544F46 
 13351      20282875 
 13352              	.LASF859:
 13353 3d1b 4144435F 		.ascii	"ADC_CR_START_ADCTRIG1 ((5UL << 24))\000"
 13353      43525F53 
 13353      54415254 
 13353      5F414443 
 13353      54524947 
 13354              	.LASF158:
 13355 3d3f 5F5F4C44 		.ascii	"__LDBL_DENORM_MIN__ 4.9406564584124654e-324L\000"
 13355      424C5F44 
 13355      454E4F52 
 13355      4D5F4D49 
 13355      4E5F5F20 
 13356              	.LASF576:
 13357 3d6c 4C50435F 		.ascii	"LPC_GPIO_PORT2_BASE 0x50020000\000"
 13357      4750494F 
 13357      5F504F52 
 13357      54325F42 
 13357      41534520 
 13358              	.LASF834:
 13359 3d8b 5353505F 		.ascii	"SSP_CPHA_FIRST SSP_CR0_CPHA_FIRST\000"
 13359      43504841 
 13359      5F464952 
 13359      53542053 
 13359      53505F43 
 13360              	.LASF363:
 13361 3dad 5F5F696E 		.ascii	"__int16_t_defined 1\000"
 13361      7431365F 
 13361      745F6465 
 13361      66696E65 
 13361      64203100 
 13362              	.LASF219:
 13363 3dc1 5F5F554C 		.ascii	"__ULLFRACT_IBIT__ 0\000"
ARM GAS  /var/folders/f9/8bk2lnw15zn4cbgn6wrnb4lm0000gn/T//ccCGlkPS.s 			page 304


 13363      4C465241 
 13363      43545F49 
 13363      4249545F 
 13363      5F203000 
 13364              	.LASF1090:
 13365 3dd5 53595343 		.ascii	"SYSCTL_CLOCK_ROM\000"
 13365      544C5F43 
 13365      4C4F434B 
 13365      5F524F4D 
 13365      00
 13366              	.LASF1084:
 13367 3de6 52455345 		.ascii	"RESET_TIMER1_32\000"
 13367      545F5449 
 13367      4D455231 
 13367      5F333200 
 13368              	.LASF760:
 13369 3df6 55415254 		.ascii	"UART1_LSR_BITMASK (0x1FF)\000"
 13369      315F4C53 
 13369      525F4249 
 13369      544D4153 
 13369      4B202830 
 13370              	.LASF726:
 13371 3e10 55415254 		.ascii	"UART_FCR_TRG_LEV3 (3 << 6)\000"
 13371      5F464352 
 13371      5F545247 
 13371      5F4C4556 
 13371      33202833 
 13372              	.LASF900:
 13373 3e2b 4932435F 		.ascii	"I2C_I2STAT_M_RX_SLAR_NACK ((0x48))\000"
 13373      49325354 
 13373      41545F4D 
 13373      5F52585F 
 13373      534C4152 
 13374              	.LASF593:
 13375 3e4e 4C50435F 		.ascii	"LPC_SSP1 ((LPC_SSP_T *) LPC_SSP1_BASE)\000"
 13375      53535031 
 13375      2028284C 
 13375      50435F53 
 13375      53505F54 
 13376              	.LASF702:
 13377 3e75 55415254 		.ascii	"UART_IER_ABTOINT (1 << 9)\000"
 13377      5F494552 
 13377      5F414254 
 13377      4F494E54 
 13377      20283120 
 13378              	.LASF788:
 13379 3e8f 55415254 		.ascii	"UART_HDEN_HDEN ((1 << 0))\000"
 13379      5F484445 
 13379      4E5F4844 
 13379      454E2028 
 13379      2831203C 
 13380              	.LASF486:
 13381 3ea9 5343425F 		.ascii	"SCB_CPUID_REVISION_Pos 0\000"
 13381      43505549 
 13381      445F5245 
 13381      56495349 
 13381      4F4E5F50 
ARM GAS  /var/folders/f9/8bk2lnw15zn4cbgn6wrnb4lm0000gn/T//ccCGlkPS.s 			page 305


 13382              	.LASF470:
 13383 3ec2 5F5F5354 		.ascii	"__STATIC_INLINE static inline\000"
 13383      41544943 
 13383      5F494E4C 
 13383      494E4520 
 13383      73746174 
 13384              	.LASF1198:
 13385 3ee0 636C6B53 		.ascii	"clkSSP\000"
 13385      535000
 13386              	.LASF566:
 13387 3ee7 4C50435F 		.ascii	"LPC_PMU_BASE 0x40038000\000"
 13387      504D555F 
 13387      42415345 
 13387      20307834 
 13387      30303338 
 13388              	.LASF926:
 13389 3eff 4932435F 		.ascii	"I2C_I2ADR_BITMASK ((0xFF))\000"
 13389      49324144 
 13389      525F4249 
 13389      544D4153 
 13389      4B202828 
 13390              	.LASF885:
 13391 3f1a 4932435F 		.ascii	"I2C_STAT_CODE_BITMASK ((0xF8))\000"
 13391      53544154 
 13391      5F434F44 
 13391      455F4249 
 13391      544D4153 
 13392              	.LASF941:
 13393 3f39 4932435F 		.ascii	"I2C_CheckError(ErrorCode) (ErrorCode & 0x10000000)\000"
 13393      43686563 
 13393      6B457272 
 13393      6F722845 
 13393      72726F72 
 13394              	.LASF1008:
 13395 3f6c 53746174 		.ascii	"Status\000"
 13395      757300
 13396              	.LASF389:
 13397 3f73 494E5433 		.ascii	"INT32_MAX __INT32_MAX__\000"
 13397      325F4D41 
 13397      58205F5F 
 13397      494E5433 
 13397      325F4D41 
 13398              	.LASF238:
 13399 3f8b 5F5F5541 		.ascii	"__UACCUM_FBIT__ 16\000"
 13399      4343554D 
 13399      5F464249 
 13399      545F5F20 
 13399      313600
 13400              	.LASF202:
 13401 3f9e 5F5F5546 		.ascii	"__UFRACT_EPSILON__ 0x1P-16UR\000"
 13401      52414354 
 13401      5F455053 
 13401      494C4F4E 
 13401      5F5F2030 
 13402              	.LASF72:
 13403 3fbb 5F5F5743 		.ascii	"__WCHAR_MIN__ 0U\000"
 13403      4841525F 
ARM GAS  /var/folders/f9/8bk2lnw15zn4cbgn6wrnb4lm0000gn/T//ccCGlkPS.s 			page 306


 13403      4D494E5F 
 13403      5F203055 
 13403      00
 13404              	.LASF89:
 13405 3fcc 5F5F5549 		.ascii	"__UINT32_MAX__ 4294967295UL\000"
 13405      4E543332 
 13405      5F4D4158 
 13405      5F5F2034 
 13405      32393439 
 13406              	.LASF274:
 13407 3fe8 5F5F5551 		.ascii	"__UQQ_IBIT__ 0\000"
 13407      515F4942 
 13407      49545F5F 
 13407      203000
 13408              	.LASF310:
 13409 3ff7 5F5F4743 		.ascii	"__GCC_ATOMIC_LONG_LOCK_FREE 1\000"
 13409      435F4154 
 13409      4F4D4943 
 13409      5F4C4F4E 
 13409      475F4C4F 
 13410              	.LASF250:
 13411 4015 5F5F554C 		.ascii	"__ULACCUM_MIN__ 0.0ULK\000"
 13411      41434355 
 13411      4D5F4D49 
 13411      4E5F5F20 
 13411      302E3055 
 13412              	.LASF996:
 13413 402c 5F5F7569 		.ascii	"__uint32_t\000"
 13413      6E743332 
 13413      5F7400
 13414              	.LASF155:
 13415 4037 5F5F4C44 		.ascii	"__LDBL_MAX__ 1.7976931348623157e+308L\000"
 13415      424C5F4D 
 13415      41585F5F 
 13415      20312E37 
 13415      39373639 
 13416              	.LASF119:
 13417 405d 5F5F464C 		.ascii	"__FLT_RADIX__ 2\000"
 13417      545F5241 
 13417      4449585F 
 13417      5F203200 
 13418              	.LASF998:
 13419 406d 6C6F6E67 		.ascii	"long long int\000"
 13419      206C6F6E 
 13419      6720696E 
 13419      7400
 13420              	.LASF671:
 13421 407b 46554E43 		.ascii	"FUNC4 0x4\000"
 13421      34203078 
 13421      3400
 13422              	.LASF743:
 13423 4085 55415254 		.ascii	"UART_LCR_BITMASK (0xFF)\000"
 13423      5F4C4352 
 13423      5F424954 
 13423      4D41534B 
 13423      20283078 
 13424              	.LASF73:
ARM GAS  /var/folders/f9/8bk2lnw15zn4cbgn6wrnb4lm0000gn/T//ccCGlkPS.s 			page 307


 13425 409d 5F5F5749 		.ascii	"__WINT_MAX__ 4294967295U\000"
 13425      4E545F4D 
 13425      41585F5F 
 13425      20343239 
 13425      34393637 
 13426              	.LASF840:
 13427 40b6 5F5F524F 		.ascii	"__ROMAPI_11XX_H_ \000"
 13427      4D415049 
 13427      5F313158 
 13427      585F485F 
 13427      2000
 13428              	.LASF932:
 13429 40c8 4932435F 		.ascii	"I2C_SETUP_STATUS_DONE (1 << 10)\000"
 13429      53455455 
 13429      505F5354 
 13429      41545553 
 13429      5F444F4E 
 13430              	.LASF618:
 13431 40e8 53595343 		.ascii	"SYSCTL_SLPWAKE_SYSOSC_PD (1 << 5)\000"
 13431      544C5F53 
 13431      4C505741 
 13431      4B455F53 
 13431      59534F53 
 13432              	.LASF947:
 13433 410a 43414E5F 		.ascii	"CAN_ERROR_WARN 0x00000002UL\000"
 13433      4552524F 
 13433      525F5741 
 13433      524E2030 
 13433      78303030 
 13434              	.LASF588:
 13435 4126 4C50435F 		.ascii	"LPC_PMU ((LPC_PMU_T *) LPC_PMU_BASE)\000"
 13435      504D5520 
 13435      28284C50 
 13435      435F504D 
 13435      555F5420 
 13436              	.LASF848:
 13437 414b 4144435F 		.ascii	"ADC_DR_OVERRUN(n) ((((n) >> 30) & (1UL)))\000"
 13437      44525F4F 
 13437      56455252 
 13437      554E286E 
 13437      29202828 
 13438              	.LASF284:
 13439 4175 5F5F4841 		.ascii	"__HA_IBIT__ 8\000"
 13439      5F494249 
 13439      545F5F20 
 13439      3800
 13440              	.LASF494:
 13441 4183 5343425F 		.ascii	"SCB_ICSR_PENDSTSET_Pos 26\000"
 13441      49435352 
 13441      5F50454E 
 13441      44535453 
 13441      45545F50 
 13442              	.LASF301:
 13443 419d 5F5F474E 		.ascii	"__GNUC_GNU_INLINE__ 1\000"
 13443      55435F47 
 13443      4E555F49 
 13443      4E4C494E 
ARM GAS  /var/folders/f9/8bk2lnw15zn4cbgn6wrnb4lm0000gn/T//ccCGlkPS.s 			page 308


 13443      455F5F20 
 13444              	.LASF553:
 13445 41b3 5F424954 		.ascii	"_BIT_SHIFT(IRQn) ( (((uint32_t)(IRQn) ) & 0x03) * 8"
 13445      5F534849 
 13445      46542849 
 13445      52516E29 
 13445      20282028 
 13446 41e6 202900   		.ascii	" )\000"
 13447              	.LASF412:
 13448 41e9 494E544D 		.ascii	"INTMAX_MAX __INTMAX_MAX__\000"
 13448      41585F4D 
 13448      4158205F 
 13448      5F494E54 
 13448      4D41585F 
 13449              	.LASF1237:
 13450 4203 43686970 		.ascii	"Chip_Clock_GetMainClockRate\000"
 13450      5F436C6F 
 13450      636B5F47 
 13450      65744D61 
 13450      696E436C 
 13451              	.LASF764:
 13452 421f 55415254 		.ascii	"UART_MSR_DELTA_DCD (1 << 3)\000"
 13452      5F4D5352 
 13452      5F44454C 
 13452      54415F44 
 13452      43442028 
 13453              	.LASF789:
 13454 423b 55415254 		.ascii	"UART_SCICTRL_SCIEN (1 << 0)\000"
 13454      5F534349 
 13454      4354524C 
 13454      5F534349 
 13454      454E2028 
 13455              	.LASF929:
 13456 4257 4932435F 		.ascii	"I2C_I2SCLL_BITMASK ((0xFFFF))\000"
 13456      49325343 
 13456      4C4C5F42 
 13456      49544D41 
 13456      534B2028 
 13457              	.LASF1023:
 13458 4275 53595352 		.ascii	"SYSRSTSTAT\000"
 13458      53545354 
 13458      415400
 13459              	.LASF351:
 13460 4280 5F5F5F69 		.ascii	"___int32_t_defined 1\000"
 13460      6E743332 
 13460      5F745F64 
 13460      6566696E 
 13460      65642031 
 13461              	.LASF812:
 13462 4295 57574454 		.ascii	"WWDT_WDMOD_WDPROTECT ((uint32_t) (1 << 4))\000"
 13462      5F57444D 
 13462      4F445F57 
 13462      4450524F 
 13462      54454354 
 13463              	.LASF739:
 13464 42c0 55415254 		.ascii	"UART_LCR_PARITY_F_1 (2 << 4)\000"
 13464      5F4C4352 
ARM GAS  /var/folders/f9/8bk2lnw15zn4cbgn6wrnb4lm0000gn/T//ccCGlkPS.s 			page 309


 13464      5F504152 
 13464      4954595F 
 13464      465F3120 
 13465              	.LASF1165:
 13466 42dd 72785F63 		.ascii	"rx_cnt\000"
 13466      6E7400
 13467              	.LASF42:
 13468 42e4 5F5F494E 		.ascii	"__INT64_TYPE__ long long int\000"
 13468      5436345F 
 13468      54595045 
 13468      5F5F206C 
 13468      6F6E6720 
 13469              	.LASF1180:
 13470 4301 43686970 		.ascii	"Chip_Clock_SetSSP1ClockDiv\000"
 13470      5F436C6F 
 13470      636B5F53 
 13470      65745353 
 13470      5031436C 
 13471              	.LASF22:
 13472 431c 5F5F4348 		.ascii	"__CHAR_BIT__ 8\000"
 13472      41525F42 
 13472      49545F5F 
 13472      203800
 13473              	.LASF316:
 13474 432b 5F5F5349 		.ascii	"__SIZEOF_WCHAR_T__ 4\000"
 13474      5A454F46 
 13474      5F574348 
 13474      41525F54 
 13474      5F5F2034 
 13475              	.LASF833:
 13476 4340 5353505F 		.ascii	"SSP_ICR_BITMASK ((uint32_t) (0x03))\000"
 13476      4943525F 
 13476      4249544D 
 13476      41534B20 
 13476      28287569 
 13477              	.LASF567:
 13478 4364 4C50435F 		.ascii	"LPC_FLASH_BASE 0x4003C000\000"
 13478      464C4153 
 13478      485F4241 
 13478      53452030 
 13478      78343030 
 13479              	.LASF385:
 13480 437e 494E545F 		.ascii	"INT_LEAST16_MIN (-__INT_LEAST16_MAX__ - 1)\000"
 13480      4C454153 
 13480      5431365F 
 13480      4D494E20 
 13480      282D5F5F 
 13481              	.LASF771:
 13482 43a9 55415254 		.ascii	"UART_ACR_MODE (1 << 1)\000"
 13482      5F414352 
 13482      5F4D4F44 
 13482      45202831 
 13482      203C3C20 
 13483              	.LASF1128:
 13484 43c0 5353505F 		.ascii	"SSP_RORIC\000"
 13484      524F5249 
 13484      4300
ARM GAS  /var/folders/f9/8bk2lnw15zn4cbgn6wrnb4lm0000gn/T//ccCGlkPS.s 			page 310


 13485              	.LASF911:
 13486 43ca 4932435F 		.ascii	"I2C_I2STAT_S_RX_STA_STO_SLVREC_SLVTRX ((0xA0))\000"
 13486      49325354 
 13486      41545F53 
 13486      5F52585F 
 13486      5354415F 
 13487              	.LASF502:
 13488 43f9 5343425F 		.ascii	"SCB_ICSR_VECTPENDING_Pos 12\000"
 13488      49435352 
 13488      5F564543 
 13488      5450454E 
 13488      44494E47 
 13489              	.LASF856:
 13490 4415 4144435F 		.ascii	"ADC_CR_START_CTOUT15 ((2UL << 24))\000"
 13490      43525F53 
 13490      54415254 
 13490      5F43544F 
 13490      55543135 
 13491              	.LASF201:
 13492 4438 5F5F5546 		.ascii	"__UFRACT_MAX__ 0XFFFFP-16UR\000"
 13492      52414354 
 13492      5F4D4158 
 13492      5F5F2030 
 13492      58464646 
 13493              	.LASF1216:
 13494 4454 43686970 		.ascii	"Chip_SSP_ReadFrames_Blocking\000"
 13494      5F535350 
 13494      5F526561 
 13494      64467261 
 13494      6D65735F 
 13495              	.LASF922:
 13496 4471 4932435F 		.ascii	"I2C_I2MMCTRL_MATCH_ALL ((1 << 2))\000"
 13496      49324D4D 
 13496      4354524C 
 13496      5F4D4154 
 13496      43485F41 
 13497              	.LASF685:
 13498 4493 54494D45 		.ascii	"TIMER_CAP_FALLING(n) (_BIT((((n) * 3) + 1)))\000"
 13498      525F4341 
 13498      505F4641 
 13498      4C4C494E 
 13498      47286E29 
 13499              	.LASF291:
 13500 44c0 5F5F5548 		.ascii	"__UHA_FBIT__ 8\000"
 13500      415F4642 
 13500      49545F5F 
 13500      203800
 13501              	.LASF1204:
 13502 44cf 43686970 		.ascii	"Chip_SSP_SetFormat\000"
 13502      5F535350 
 13502      5F536574 
 13502      466F726D 
 13502      617400
 13503              	.LASF984:
 13504 44e2 43414E5F 		.ascii	"CAN_SDOSEG_SEGMENT 0\000"
 13504      53444F53 
 13504      45475F53 
ARM GAS  /var/folders/f9/8bk2lnw15zn4cbgn6wrnb4lm0000gn/T//ccCGlkPS.s 			page 311


 13504      45474D45 
 13504      4E542030 
 13505              	.LASF358:
 13506 44f7 5F5F5354 		.ascii	"__STDINT_EXP(x) __ ##x ##__\000"
 13506      44494E54 
 13506      5F455850 
 13506      28782920 
 13506      5F5F2023 
 13507              	.LASF348:
 13508 4513 5F5F4558 		.ascii	"__EXP(x) __ ##x ##__\000"
 13508      50287829 
 13508      205F5F20 
 13508      23237820 
 13508      23235F5F 
 13509              	.LASF27:
 13510 4528 5F5F4259 		.ascii	"__BYTE_ORDER__ __ORDER_LITTLE_ENDIAN__\000"
 13510      54455F4F 
 13510      52444552 
 13510      5F5F205F 
 13510      5F4F5244 
 13511              	.LASF411:
 13512 454f 55494E54 		.ascii	"UINT_FAST64_MAX __UINT_FAST64_MAX__\000"
 13512      5F464153 
 13512      5436345F 
 13512      4D415820 
 13512      5F5F5549 
 13513              	.LASF231:
 13514 4573 5F5F5553 		.ascii	"__USACCUM_MAX__ 0XFFFFP-8UHK\000"
 13514      41434355 
 13514      4D5F4D41 
 13514      585F5F20 
 13514      30584646 
 13515              	.LASF761:
 13516 4590 55415254 		.ascii	"UART_MSR_DELTA_CTS (1 << 0)\000"
 13516      5F4D5352 
 13516      5F44454C 
 13516      54415F43 
 13516      54532028 
 13517              	.LASF665:
 13518 45ac 4D445F46 		.ascii	"MD_FASTI2C (0x2 << 8)\000"
 13518      41535449 
 13518      32432028 
 13518      30783220 
 13518      3C3C2038 
 13519              	.LASF684:
 13520 45c2 54494D45 		.ascii	"TIMER_CAP_RISING(n) (_BIT(((n) * 3)))\000"
 13520      525F4341 
 13520      505F5249 
 13520      53494E47 
 13520      286E2920 
 13521              	.LASF1176:
 13522 45e8 43686970 		.ascii	"Chip_SSP_ReceiveFrame\000"
 13522      5F535350 
 13522      5F526563 
 13522      65697665 
 13522      4672616D 
 13523              	.LASF954:
ARM GAS  /var/folders/f9/8bk2lnw15zn4cbgn6wrnb4lm0000gn/T//ccCGlkPS.s 			page 312


 13524 45fe 43414E5F 		.ascii	"CAN_ERROR_CRC 0x00000100UL\000"
 13524      4552524F 
 13524      525F4352 
 13524      43203078 
 13524      30303030 
 13525              	.LASF1188:
 13526 4619 5353505F 		.ascii	"SSP_Read2BFifo\000"
 13526      52656164 
 13526      32424669 
 13526      666F00
 13527              	.LASF756:
 13528 4628 55415254 		.ascii	"UART_LSR_TEMT (1 << 6)\000"
 13528      5F4C5352 
 13528      5F54454D 
 13528      54202831 
 13528      203C3C20 
 13529              	.LASF624:
 13530 463f 53595343 		.ascii	"SYSCTL_POWERDOWN_BOD_PD (1 << 3)\000"
 13530      544C5F50 
 13530      4F574552 
 13530      444F574E 
 13530      5F424F44 
 13531              	.LASF449:
 13532 4660 4E454C45 		.ascii	"NELEMENTS(array) (sizeof(array) / sizeof(array[0]))"
 13532      4D454E54 
 13532      53286172 
 13532      72617929 
 13532      20287369 
 13533 4693 00       		.ascii	"\000"
 13534              	.LASF33:
 13535 4694 5F5F5749 		.ascii	"__WINT_TYPE__ unsigned int\000"
 13535      4E545F54 
 13535      5950455F 
 13535      5F20756E 
 13535      7369676E 
 13536              	.LASF737:
 13537 46af 55415254 		.ascii	"UART_LCR_PARITY_ODD (0 << 4)\000"
 13537      5F4C4352 
 13537      5F504152 
 13537      4954595F 
 13537      4F444420 
 13538              	.LASF279:
 13539 46cc 5F5F5544 		.ascii	"__UDQ_FBIT__ 64\000"
 13539      515F4642 
 13539      49545F5F 
 13539      20363400 
 13540              	.LASF469:
 13541 46dc 5F5F494E 		.ascii	"__INLINE inline\000"
 13541      4C494E45 
 13541      20696E6C 
 13541      696E6500 
 13542              	.LASF370:
 13543 46ec 5F5F696E 		.ascii	"__int_fast16_t_defined 1\000"
 13543      745F6661 
 13543      73743136 
 13543      5F745F64 
 13543      6566696E 
ARM GAS  /var/folders/f9/8bk2lnw15zn4cbgn6wrnb4lm0000gn/T//ccCGlkPS.s 			page 313


 13544              	.LASF698:
 13545 4705 55415254 		.ascii	"UART_IER_RLSINT (1 << 2)\000"
 13545      5F494552 
 13545      5F524C53 
 13545      494E5420 
 13545      2831203C 
 13546              	.LASF153:
 13547 471e 5F5F4C44 		.ascii	"__LDBL_MAX_10_EXP__ 308\000"
 13547      424C5F4D 
 13547      41585F31 
 13547      305F4558 
 13547      505F5F20 
 13548              	.LASF552:
 13549 4736 4E564943 		.ascii	"NVIC ((NVIC_Type *) NVIC_BASE )\000"
 13549      2028284E 
 13549      5649435F 
 13549      54797065 
 13549      202A2920 
 13550              	.LASF713:
 13551 4756 55415254 		.ascii	"UART_IIR_INTID_RDA (2 << 1)\000"
 13551      5F494952 
 13551      5F494E54 
 13551      49445F52 
 13551      44412028 
 13552              	.LASF1088:
 13553 4772 43484950 		.ascii	"CHIP_SYSCTL_PERIPH_RESET_T\000"
 13553      5F535953 
 13553      43544C5F 
 13553      50455249 
 13553      50485F52 
 13554              	.LASF985:
 13555 478d 43414E5F 		.ascii	"CAN_SDOSEG_OPEN 1\000"
 13555      53444F53 
 13555      45475F4F 
 13555      50454E20 
 13555      3100
 13556              	.LASF160:
 13557 479f 5F5F4C44 		.ascii	"__LDBL_HAS_INFINITY__ 1\000"
 13557      424C5F48 
 13557      41535F49 
 13557      4E46494E 
 13557      4954595F 
 13558              	.LASF496:
 13559 47b7 5343425F 		.ascii	"SCB_ICSR_PENDSTCLR_Pos 25\000"
 13559      49435352 
 13559      5F50454E 
 13559      44535443 
 13559      4C525F50 
 13560              	.LASF988:
 13561 47d1 756E7369 		.ascii	"unsigned int\000"
 13561      676E6564 
 13561      20696E74 
 13561      00
 13562              	.LASF1219:
 13563 47de 43686970 		.ascii	"Chip_SSP_Int_RWFrames8Bits\000"
 13563      5F535350 
 13563      5F496E74 
ARM GAS  /var/folders/f9/8bk2lnw15zn4cbgn6wrnb4lm0000gn/T//ccCGlkPS.s 			page 314


 13563      5F525746 
 13563      72616D65 
 13564              	.LASF196:
 13565 47f9 5F5F4652 		.ascii	"__FRACT_MAX__ 0X7FFFP-15R\000"
 13565      4143545F 
 13565      4D41585F 
 13565      5F203058 
 13565      37464646 
 13566              	.LASF1026:
 13567 4813 53595350 		.ascii	"SYSPLLCLKUEN\000"
 13567      4C4C434C 
 13567      4B55454E 
 13567      00
 13568              	.LASF122:
 13569 4820 5F5F464C 		.ascii	"__FLT_MIN_EXP__ (-125)\000"
 13569      545F4D49 
 13569      4E5F4558 
 13569      505F5F20 
 13569      282D3132 
 13570              	.LASF118:
 13571 4837 5F5F4445 		.ascii	"__DEC_EVAL_METHOD__ 2\000"
 13571      435F4556 
 13571      414C5F4D 
 13571      4554484F 
 13571      445F5F20 
 13572              	.LASF429:
 13573 484d 55494E54 		.ascii	"UINT32_C(x) __UINT32_C(x)\000"
 13573      33325F43 
 13573      28782920 
 13573      5F5F5549 
 13573      4E543332 
 13574              	.LASF481:
 13575 4867 5343425F 		.ascii	"SCB_CPUID_VARIANT_Msk (0xFUL << SCB_CPUID_VARIANT_P"
 13575      43505549 
 13575      445F5641 
 13575      5249414E 
 13575      545F4D73 
 13576 489a 6F732900 		.ascii	"os)\000"
 13577              	.LASF621:
 13578 489e 53595343 		.ascii	"SYSCTL_POWERDOWN_IRCOUT_PD (1 << 0)\000"
 13578      544C5F50 
 13578      4F574552 
 13578      444F574E 
 13578      5F495243 
 13579              	.LASF660:
 13580 48c2 4D445F44 		.ascii	"MD_DIGMODE (0x1 << 7)\000"
 13580      49474D4F 
 13580      44452028 
 13580      30783120 
 13580      3C3C2037 
 13581              	.LASF229:
 13582 48d8 5F5F5553 		.ascii	"__USACCUM_IBIT__ 8\000"
 13582      41434355 
 13582      4D5F4942 
 13582      49545F5F 
 13582      203800
 13583              	.LASF980:
ARM GAS  /var/folders/f9/8bk2lnw15zn4cbgn6wrnb4lm0000gn/T//ccCGlkPS.s 			page 315


 13584 48eb 4F445F53 		.ascii	"OD_SEG_RW 0x60\000"
 13584      45475F52 
 13584      57203078 
 13584      363000
 13585              	.LASF400:
 13586 48fa 494E545F 		.ascii	"INT_FAST8_MIN (-__INT_FAST8_MAX__ - 1)\000"
 13586      46415354 
 13586      385F4D49 
 13586      4E20282D 
 13586      5F5F494E 
 13587              	.LASF5:
 13588 4921 5F5F5645 		.ascii	"__VERSION__ \"4.8.4 20140725 (release) [ARM/embedde"
 13588      5253494F 
 13588      4E5F5F20 
 13588      22342E38 
 13588      2E342032 
 13589 4953 642D345F 		.ascii	"d-4_8-branch revision 213147]\"\000"
 13589      382D6272 
 13589      616E6368 
 13589      20726576 
 13589      6973696F 
 13590              	.LASF116:
 13591 4972 5F5F5549 		.ascii	"__UINTPTR_MAX__ 4294967295U\000"
 13591      4E545054 
 13591      525F4D41 
 13591      585F5F20 
 13591      34323934 
 13592              	.LASF663:
 13593 498e 4D445F53 		.ascii	"MD_SFI2C (0x0 << 8)\000"
 13593      46493243 
 13593      20283078 
 13593      30203C3C 
 13593      20382900 
 13594              	.LASF121:
 13595 49a2 5F5F464C 		.ascii	"__FLT_DIG__ 6\000"
 13595      545F4449 
 13595      475F5F20 
 13595      3600
 13596              	.LASF35:
 13597 49b0 5F5F5549 		.ascii	"__UINTMAX_TYPE__ long long unsigned int\000"
 13597      4E544D41 
 13597      585F5459 
 13597      50455F5F 
 13597      206C6F6E 
 13598              	.LASF780:
 13599 49d8 55415254 		.ascii	"UART_RS485CTRL_DCTRL_EN (1 << 4)\000"
 13599      5F525334 
 13599      38354354 
 13599      524C5F44 
 13599      4354524C 
 13600              	.LASF1135:
 13601 49f9 5353505F 		.ascii	"SSP_CLOCK_CPHA1_CPOL0\000"
 13601      434C4F43 
 13601      4B5F4350 
 13601      4841315F 
 13601      43504F4C 
 13602              	.LASF1136:
ARM GAS  /var/folders/f9/8bk2lnw15zn4cbgn6wrnb4lm0000gn/T//ccCGlkPS.s 			page 316


 13603 4a0f 5353505F 		.ascii	"SSP_CLOCK_CPHA1_CPOL1\000"
 13603      434C4F43 
 13603      4B5F4350 
 13603      4841315F 
 13603      43504F4C 
 13604              	.LASF117:
 13605 4a25 5F5F464C 		.ascii	"__FLT_EVAL_METHOD__ 0\000"
 13605      545F4556 
 13605      414C5F4D 
 13605      4554484F 
 13605      445F5F20 
 13606              	.LASF803:
 13607 4a3b 55415254 		.ascii	"UART_SYNCCTRL_CSCEN (1 << 4)\000"
 13607      5F53594E 
 13607      43435452 
 13607      4C5F4353 
 13607      43454E20 
 13608              	.LASF750:
 13609 4a58 55415254 		.ascii	"UART_LSR_RDR (1 << 0)\000"
 13609      5F4C5352 
 13609      5F524452 
 13609      20283120 
 13609      3C3C2030 
 13610              	.LASF773:
 13611 4a6e 55415254 		.ascii	"UART_ACR_ABEOINT_CLR (1 << 8)\000"
 13611      5F414352 
 13611      5F414245 
 13611      4F494E54 
 13611      5F434C52 
 13612              	.LASF115:
 13613 4a8c 5F5F494E 		.ascii	"__INTPTR_MAX__ 2147483647\000"
 13613      54505452 
 13613      5F4D4158 
 13613      5F5F2032 
 13613      31343734 
 13614              	.LASF846:
 13615 4aa6 4144435F 		.ascii	"ADC_CR_BITACC(n) ((((n) & 0x7) << 17))\000"
 13615      43525F42 
 13615      49544143 
 13615      43286E29 
 13615      20282828 
 13616              	.LASF1085:
 13617 4acd 52455345 		.ascii	"RESET_ACMP\000"
 13617      545F4143 
 13617      4D5000
 13618              	.LASF273:
 13619 4ad8 5F5F5551 		.ascii	"__UQQ_FBIT__ 8\000"
 13619      515F4642 
 13619      49545F5F 
 13619      203800
 13620              	.LASF539:
 13621 4ae7 53797354 		.ascii	"SysTick_VAL_CURRENT_Msk (0xFFFFFFUL << SysTick_VAL_"
 13621      69636B5F 
 13621      56414C5F 
 13621      43555252 
 13621      454E545F 
 13622 4b1a 43555252 		.ascii	"CURRENT_Pos)\000"
ARM GAS  /var/folders/f9/8bk2lnw15zn4cbgn6wrnb4lm0000gn/T//ccCGlkPS.s 			page 317


 13622      454E545F 
 13622      506F7329 
 13622      00
 13623              	.LASF1169:
 13624 4b27 43686970 		.ascii	"Chip_SYSCTL_DeassertPeriphReset\000"
 13624      5F535953 
 13624      43544C5F 
 13624      44656173 
 13624      73657274 
 13625              	.LASF1032:
 13626 4b47 53595341 		.ascii	"SYSAHBCLKDIV\000"
 13626      4842434C 
 13626      4B444956 
 13626      00
 13627              	.LASF889:
 13628 4b54 4932435F 		.ascii	"I2C_I2STAT_M_TX_START ((0x08))\000"
 13628      49325354 
 13628      41545F4D 
 13628      5F54585F 
 13628      53544152 
 13629              	.LASF697:
 13630 4b73 55415254 		.ascii	"UART_IER_THREINT (1 << 1)\000"
 13630      5F494552 
 13630      5F544852 
 13630      45494E54 
 13630      20283120 
 13631              	.LASF386:
 13632 4b8d 494E545F 		.ascii	"INT_LEAST16_MAX __INT_LEAST16_MAX__\000"
 13632      4C454153 
 13632      5431365F 
 13632      4D415820 
 13632      5F5F494E 
 13633              	.LASF629:
 13634 4bb1 5F5F434C 		.ascii	"__CLOCK_11XX_H_ \000"
 13634      4F434B5F 
 13634      31315858 
 13634      5F485F20 
 13634      00
 13635              	.LASF206:
 13636 4bc2 5F5F4C46 		.ascii	"__LFRACT_MAX__ 0X7FFFFFFFP-31LR\000"
 13636      52414354 
 13636      5F4D4158 
 13636      5F5F2030 
 13636      58374646 
 13637              	.LASF318:
 13638 4be2 5F5F5349 		.ascii	"__SIZEOF_PTRDIFF_T__ 4\000"
 13638      5A454F46 
 13638      5F505452 
 13638      44494646 
 13638      5F545F5F 
 13639              	.LASF1205:
 13640 4bf9 62697473 		.ascii	"bits\000"
 13640      00
 13641              	.LASF0:
 13642 4bfe 5F5F5354 		.ascii	"__STDC__ 1\000"
 13642      44435F5F 
 13642      203100
ARM GAS  /var/folders/f9/8bk2lnw15zn4cbgn6wrnb4lm0000gn/T//ccCGlkPS.s 			page 318


 13643              	.LASF1070:
 13644 4c09 5044534C 		.ascii	"PDSLEEPCFG\000"
 13644      45455043 
 13644      464700
 13645              	.LASF353:
 13646 4c14 5F5F5F69 		.ascii	"___int_least8_t_defined 1\000"
 13646      6E745F6C 
 13646      65617374 
 13646      385F745F 
 13646      64656669 
 13647              	.LASF28:
 13648 4c2e 5F5F464C 		.ascii	"__FLOAT_WORD_ORDER__ __ORDER_LITTLE_ENDIAN__\000"
 13648      4F41545F 
 13648      574F5244 
 13648      5F4F5244 
 13648      45525F5F 
 13649              	.LASF1223:
 13650 4c5b 6D617374 		.ascii	"master\000"
 13650      657200
 13651              	.LASF413:
 13652 4c62 494E544D 		.ascii	"INTMAX_MIN (-INTMAX_MAX - 1)\000"
 13652      41585F4D 
 13652      494E2028 
 13652      2D494E54 
 13652      4D41585F 
 13653              	.LASF43:
 13654 4c7f 5F5F5549 		.ascii	"__UINT8_TYPE__ unsigned char\000"
 13654      4E54385F 
 13654      54595045 
 13654      5F5F2075 
 13654      6E736967 
 13655              	.LASF880:
 13656 4c9c 4932435F 		.ascii	"I2C_CON_AA (1UL << 2)\000"
 13656      434F4E5F 
 13656      41412028 
 13656      31554C20 
 13656      3C3C2032 
 13657              	.LASF814:
 13658 4cb2 5353505F 		.ascii	"SSP_CR0_DSS(n) ((uint32_t) ((n) & 0xF))\000"
 13658      4352305F 
 13658      44535328 
 13658      6E292028 
 13658      2875696E 
 13659              	.LASF369:
 13660 4cda 5F5F696E 		.ascii	"__int_fast8_t_defined 1\000"
 13660      745F6661 
 13660      7374385F 
 13660      745F6465 
 13660      66696E65 
 13661              	.LASF847:
 13662 4cf2 4144435F 		.ascii	"ADC_DR_DONE(n) (((n) >> 31))\000"
 13662      44525F44 
 13662      4F4E4528 
 13662      6E292028 
 13662      28286E29 
 13663              	.LASF396:
 13664 4d0f 55494E54 		.ascii	"UINT64_MAX __UINT64_MAX__\000"
ARM GAS  /var/folders/f9/8bk2lnw15zn4cbgn6wrnb4lm0000gn/T//ccCGlkPS.s 			page 319


 13664      36345F4D 
 13664      4158205F 
 13664      5F55494E 
 13664      5436345F 
 13665              	.LASF670:
 13666 4d29 46554E43 		.ascii	"FUNC3 0x3\000"
 13666      33203078 
 13666      3300
 13667              	.LASF1217:
 13668 4d33 72646174 		.ascii	"rdata8\000"
 13668      613800
 13669              	.LASF628:
 13670 4d3a 53595343 		.ascii	"SYSCTL_POWERDOWN_SYSPLL_PD (1 << 7)\000"
 13670      544C5F50 
 13670      4F574552 
 13670      444F574E 
 13670      5F535953 
 13671              	.LASF1063:
 13672 4d5e 53544152 		.ascii	"STARTAPRP0\000"
 13672      54415052 
 13672      503000
 13673              	.LASF176:
 13674 4d69 5F5F4445 		.ascii	"__DEC128_MANT_DIG__ 34\000"
 13674      43313238 
 13674      5F4D414E 
 13674      545F4449 
 13674      475F5F20 
 13675              	.LASF81:
 13676 4d80 5F5F5349 		.ascii	"__SIG_ATOMIC_MAX__ 2147483647\000"
 13676      475F4154 
 13676      4F4D4943 
 13676      5F4D4158 
 13676      5F5F2032 
 13677              	.LASF884:
 13678 4d9e 4932435F 		.ascii	"I2C_CON_I2EN (1UL << 6)\000"
 13678      434F4E5F 
 13678      4932454E 
 13678      20283155 
 13678      4C203C3C 
 13679              	.LASF437:
 13680 4db6 74727565 		.ascii	"true 1\000"
 13680      203100
 13681              	.LASF636:
 13682 4dbd 494F434F 		.ascii	"IOCON_FUNC4 0x4\000"
 13682      4E5F4655 
 13682      4E433420 
 13682      30783400 
 13683              	.LASF293:
 13684 4dcd 5F5F5553 		.ascii	"__USA_FBIT__ 16\000"
 13684      415F4642 
 13684      49545F5F 
 13684      20313600 
 13685              	.LASF1178:
 13686 4ddd 53746174 		.ascii	"Stat\000"
 13686      00
 13687              	.LASF736:
 13688 4de2 55415254 		.ascii	"UART_LCR_PARITY_DIS (0 << 3)\000"
ARM GAS  /var/folders/f9/8bk2lnw15zn4cbgn6wrnb4lm0000gn/T//ccCGlkPS.s 			page 320


 13688      5F4C4352 
 13688      5F504152 
 13688      4954595F 
 13688      44495320 
 13689              	.LASF622:
 13690 4dff 53595343 		.ascii	"SYSCTL_POWERDOWN_IRC_PD (1 << 1)\000"
 13690      544C5F50 
 13690      4F574552 
 13690      444F574E 
 13690      5F495243 
 13691              	.LASF781:
 13692 4e20 55415254 		.ascii	"UART_RS485CTRL_OINV_1 (1 << 5)\000"
 13692      5F525334 
 13692      38354354 
 13692      524C5F4F 
 13692      494E565F 
 13693              	.LASF304:
 13694 4e3f 5F5F4743 		.ascii	"__GCC_ATOMIC_CHAR_LOCK_FREE 1\000"
 13694      435F4154 
 13694      4F4D4943 
 13694      5F434841 
 13694      525F4C4F 
 13695              	.LASF1028:
 13696 4e5d 55534250 		.ascii	"USBPLLCLKUEN\000"
 13696      4C4C434C 
 13696      4B55454E 
 13696      00
 13697              	.LASF598:
 13698 4e6a 5F5F504D 		.ascii	"__PMU_11XX_H_ \000"
 13698      555F3131 
 13698      58585F48 
 13698      5F2000
 13699              	.LASF207:
 13700 4e79 5F5F4C46 		.ascii	"__LFRACT_EPSILON__ 0x1P-31LR\000"
 13700      52414354 
 13700      5F455053 
 13700      494C4F4E 
 13700      5F5F2030 
 13701              	.LASF417:
 13702 4e96 5349475F 		.ascii	"SIG_ATOMIC_MAX __STDINT_EXP(INT_MAX)\000"
 13702      41544F4D 
 13702      49435F4D 
 13702      4158205F 
 13702      5F535444 
 13703              	.LASF1121:
 13704 4ebb 5353505F 		.ascii	"SSP_RORRIS\000"
 13704      524F5252 
 13704      495300
 13705              	.LASF91:
 13706 4ec6 5F5F494E 		.ascii	"__INT_LEAST8_MAX__ 127\000"
 13706      545F4C45 
 13706      41535438 
 13706      5F4D4158 
 13706      5F5F2031 
 13707              	.LASF527:
 13708 4edd 5343425F 		.ascii	"SCB_SHCSR_SVCALLPENDED_Msk (1UL << SCB_SHCSR_SVCALL"
 13708      53484353 
ARM GAS  /var/folders/f9/8bk2lnw15zn4cbgn6wrnb4lm0000gn/T//ccCGlkPS.s 			page 321


 13708      525F5356 
 13708      43414C4C 
 13708      50454E44 
 13709 4f10 50454E44 		.ascii	"PENDED_Pos)\000"
 13709      45445F50 
 13709      6F732900 
 13710              	.LASF322:
 13711 4f1c 5F5F6172 		.ascii	"__arm__ 1\000"
 13711      6D5F5F20 
 13711      3100
 13712              	.LASF641:
 13713 4f26 494F434F 		.ascii	"IOCON_MODE_PULLDOWN (0x1 << 3)\000"
 13713      4E5F4D4F 
 13713      44455F50 
 13713      554C4C44 
 13713      4F574E20 
 13714              	.LASF817:
 13715 4f45 5353505F 		.ascii	"SSP_CR0_FRF_MICROWIRE ((uint32_t) (2 << 4))\000"
 13715      4352305F 
 13715      4652465F 
 13715      4D494352 
 13715      4F574952 
 13716              	.LASF568:
 13717 4f71 4C50435F 		.ascii	"LPC_SSP0_BASE 0x40040000\000"
 13717      53535030 
 13717      5F424153 
 13717      45203078 
 13717      34303034 
 13718              	.LASF691:
 13719 4f8a 55415254 		.ascii	"UART_RBR_MASKBIT (0xFF)\000"
 13719      5F524252 
 13719      5F4D4153 
 13719      4B424954 
 13719      20283078 
 13720              	.LASF913:
 13721 4fa2 4932435F 		.ascii	"I2C_I2STAT_S_TX_ARB_LOST_M_SLA ((0xB0))\000"
 13721      49325354 
 13721      41545F53 
 13721      5F54585F 
 13721      4152425F 
 13722              	.LASF906:
 13723 4fca 4932435F 		.ascii	"I2C_I2STAT_S_RX_ARB_LOST_M_GENCALL ((0x78))\000"
 13723      49325354 
 13723      41545F53 
 13723      5F52585F 
 13723      4152425F 
 13724              	.LASF458:
 13725 4ff6 5F5F434D 		.ascii	"__CMSIS_H_ \000"
 13725      5349535F 
 13725      485F2000 
 13726              	.LASF1171:
 13727 5002 43686970 		.ascii	"Chip_SSP_SendFrame\000"
 13727      5F535350 
 13727      5F53656E 
 13727      64467261 
 13727      6D6500
 13728              	.LASF977:
ARM GAS  /var/folders/f9/8bk2lnw15zn4cbgn6wrnb4lm0000gn/T//ccCGlkPS.s 			page 322


 13729 5015 4F445F45 		.ascii	"OD_EXP_RW 0x30\000"
 13729      58505F52 
 13729      57203078 
 13729      333000
 13730              	.LASF382:
 13731 5024 494E5431 		.ascii	"INT16_MIN (-__INT16_MAX__ - 1)\000"
 13731      365F4D49 
 13731      4E20282D 
 13731      5F5F494E 
 13731      5431365F 
 13732              	.LASF377:
 13733 5043 494E5438 		.ascii	"INT8_MAX __INT8_MAX__\000"
 13733      5F4D4158 
 13733      205F5F49 
 13733      4E54385F 
 13733      4D41585F 
 13734              	.LASF886:
 13735 5059 4932435F 		.ascii	"I2C_STAT_CODE_ERROR ((0xFF))\000"
 13735      53544154 
 13735      5F434F44 
 13735      455F4552 
 13735      524F5220 
 13736              	.LASF794:
 13737 5076 55415254 		.ascii	"UART_FDR_DIVADDVAL(n) (n & 0x0F)\000"
 13737      5F464452 
 13737      5F444956 
 13737      41444456 
 13737      414C286E 
 13738              	.LASF1186:
 13739 5097 43686970 		.ascii	"Chip_SSP_GetRawIntStatus\000"
 13739      5F535350 
 13739      5F476574 
 13739      52617749 
 13739      6E745374 
 13740              	.LASF162:
 13741 50b0 5F5F4445 		.ascii	"__DEC32_MANT_DIG__ 7\000"
 13741      4333325F 
 13741      4D414E54 
 13741      5F444947 
 13741      5F5F2037 
 13742              	.LASF409:
 13743 50c5 494E545F 		.ascii	"INT_FAST64_MIN (-__INT_FAST64_MAX__ - 1)\000"
 13743      46415354 
 13743      36345F4D 
 13743      494E2028 
 13743      2D5F5F49 
 13744              	.LASF344:
 13745 50ee 5F4D4143 		.ascii	"_MACHINE__DEFAULT_TYPES_H \000"
 13745      48494E45 
 13745      5F5F4445 
 13745      4641554C 
 13745      545F5459 
 13746              	.LASF23:
 13747 5109 5F5F4249 		.ascii	"__BIGGEST_ALIGNMENT__ 8\000"
 13747      47474553 
 13747      545F414C 
 13747      49474E4D 
ARM GAS  /var/folders/f9/8bk2lnw15zn4cbgn6wrnb4lm0000gn/T//ccCGlkPS.s 			page 323


 13747      454E545F 
 13748              	.LASF915:
 13749 5121 4932435F 		.ascii	"I2C_I2STAT_S_TX_DAT_NACK ((0xC0))\000"
 13749      49325354 
 13749      41545F53 
 13749      5F54585F 
 13749      4441545F 
 13750              	.LASF230:
 13751 5143 5F5F5553 		.ascii	"__USACCUM_MIN__ 0.0UHK\000"
 13751      41434355 
 13751      4D5F4D49 
 13751      4E5F5F20 
 13751      302E3055 
 13752              	.LASF516:
 13753 515a 5343425F 		.ascii	"SCB_SCR_SEVONPEND_Pos 4\000"
 13753      5343525F 
 13753      5345564F 
 13753      4E50454E 
 13753      445F506F 
 13754              	.LASF644:
 13755 5172 494F434F 		.ascii	"IOCON_HYS_EN (0x1 << 5)\000"
 13755      4E5F4859 
 13755      535F454E 
 13755      20283078 
 13755      31203C3C 
 13756              	.LASF1182:
 13757 518a 43686970 		.ascii	"Chip_Clock_GetSSP1ClockDiv\000"
 13757      5F436C6F 
 13757      636B5F47 
 13757      65745353 
 13757      5031436C 
 13758              	.LASF841:
 13759 51a5 5F5F4C50 		.ascii	"__LPC_ERROR_H__ \000"
 13759      435F4552 
 13759      524F525F 
 13759      485F5F20 
 13759      00
 13760              	.LASF495:
 13761 51b6 5343425F 		.ascii	"SCB_ICSR_PENDSTSET_Msk (1UL << SCB_ICSR_PENDSTSET_P"
 13761      49435352 
 13761      5F50454E 
 13761      44535453 
 13761      45545F4D 
 13762 51e9 6F732900 		.ascii	"os)\000"
 13763              	.LASF1031:
 13764 51ed 4D41494E 		.ascii	"MAINCLKUEN\000"
 13764      434C4B55 
 13764      454E00
 13765              	.LASF942:
 13766 51f8 4932435F 		.ascii	"I2C_MONITOR_CFG_SCL_OUTPUT I2C_I2MMCTRL_ENA_SCL\000"
 13766      4D4F4E49 
 13766      544F525F 
 13766      4346475F 
 13766      53434C5F 
 13767              	.LASF824:
 13768 5228 5353505F 		.ascii	"SSP_CR1_LBM_EN ((uint32_t) (1 << 0))\000"
 13768      4352315F 
ARM GAS  /var/folders/f9/8bk2lnw15zn4cbgn6wrnb4lm0000gn/T//ccCGlkPS.s 			page 324


 13768      4C424D5F 
 13768      454E2028 
 13768      2875696E 
 13769              	.LASF498:
 13770 524d 5343425F 		.ascii	"SCB_ICSR_ISRPREEMPT_Pos 23\000"
 13770      49435352 
 13770      5F495352 
 13770      50524545 
 13770      4D50545F 
 13771              	.LASF1215:
 13772 5268 77646174 		.ascii	"wdata16\000"
 13772      61313600 
 13773              	.LASF488:
 13774 5270 5343425F 		.ascii	"SCB_ICSR_NMIPENDSET_Pos 31\000"
 13774      49435352 
 13774      5F4E4D49 
 13774      50454E44 
 13774      5345545F 
 13775              	.LASF972:
 13776 528b 53444F5F 		.ascii	"SDO_ABORT_LOCAL 0x08000021UL\000"
 13776      41424F52 
 13776      545F4C4F 
 13776      43414C20 
 13776      30783038 
 13777              	.LASF688:
 13778 52a8 5F5F5249 		.ascii	"__RING_BUFFER_H_ \000"
 13778      4E475F42 
 13778      55464645 
 13778      525F485F 
 13778      2000
 13779              	.LASF326:
 13780 52ba 5F5F4152 		.ascii	"__ARM_ARCH_ISA_THUMB 1\000"
 13780      4D5F4152 
 13780      43485F49 
 13780      53415F54 
 13780      48554D42 
 13781              	.LASF105:
 13782 52d1 5F5F5549 		.ascii	"__UINT_LEAST64_MAX__ 18446744073709551615ULL\000"
 13782      4E545F4C 
 13782      45415354 
 13782      36345F4D 
 13782      41585F5F 
 13783              	.LASF464:
 13784 52fe 5F5F434D 		.ascii	"__CM0_CMSIS_VERSION_MAIN (0x03)\000"
 13784      305F434D 
 13784      5349535F 
 13784      56455253 
 13784      494F4E5F 
 13785              	.LASF421:
 13786 531e 57434841 		.ascii	"WCHAR_MIN __WCHAR_MIN__\000"
 13786      525F4D49 
 13786      4E205F5F 
 13786      57434841 
 13786      525F4D49 
 13787              	.LASF107:
 13788 5336 5F5F494E 		.ascii	"__INT_FAST8_MAX__ 2147483647\000"
 13788      545F4641 
ARM GAS  /var/folders/f9/8bk2lnw15zn4cbgn6wrnb4lm0000gn/T//ccCGlkPS.s 			page 325


 13788      5354385F 
 13788      4D41585F 
 13788      5F203231 
 13789              	.LASF858:
 13790 5353 4144435F 		.ascii	"ADC_CR_START_ADCTRIG0 ((4UL << 24))\000"
 13790      43525F53 
 13790      54415254 
 13790      5F414443 
 13790      54524947 
 13791              	.LASF1019:
 13792 5377 5359534F 		.ascii	"SYSOSCCTRL\000"
 13792      53434354 
 13792      524C00
 13793              	.LASF381:
 13794 5382 55494E54 		.ascii	"UINT_LEAST8_MAX __UINT_LEAST8_MAX__\000"
 13794      5F4C4541 
 13794      5354385F 
 13794      4D415820 
 13794      5F5F5549 
 13795              	.LASF729:
 13796 53a6 55415254 		.ascii	"UART_LCR_WLEN6 (1 << 0)\000"
 13796      5F4C4352 
 13796      5F574C45 
 13796      4E362028 
 13796      31203C3C 
 13797              	.LASF1167:
 13798 53be 43686970 		.ascii	"Chip_SSP_DATA_SETUP_T\000"
 13798      5F535350 
 13798      5F444154 
 13798      415F5345 
 13798      5455505F 
 13799              	.LASF881:
 13800 53d4 4932435F 		.ascii	"I2C_CON_SI (1UL << 3)\000"
 13800      434F4E5F 
 13800      53492028 
 13800      31554C20 
 13800      3C3C2033 
 13801              	.LASF199:
 13802 53ea 5F5F5546 		.ascii	"__UFRACT_IBIT__ 0\000"
 13802      52414354 
 13802      5F494249 
 13802      545F5F20 
 13802      3000
 13803              	.LASF877:
 13804 53fc 4932435F 		.ascii	"I2C_I2CONCLR_STOC ((1 << 4))\000"
 13804      4932434F 
 13804      4E434C52 
 13804      5F53544F 
 13804      43202828 
 13805              	.LASF546:
 13806 5419 5343535F 		.ascii	"SCS_BASE (0xE000E000UL)\000"
 13806      42415345 
 13806      20283078 
 13806      45303030 
 13806      45303030 
 13807              	.LASF92:
 13808 5431 5F5F494E 		.ascii	"__INT8_C(c) c\000"
ARM GAS  /var/folders/f9/8bk2lnw15zn4cbgn6wrnb4lm0000gn/T//ccCGlkPS.s 			page 326


 13808      54385F43 
 13808      28632920 
 13808      6300
 13809              	.LASF204:
 13810 543f 5F5F4C46 		.ascii	"__LFRACT_IBIT__ 0\000"
 13810      52414354 
 13810      5F494249 
 13810      545F5F20 
 13810      3000
 13811              	.LASF861:
 13812 5451 4144435F 		.ascii	"ADC_CR_EDGE ((1UL << 27))\000"
 13812      43525F45 
 13812      44474520 
 13812      28283155 
 13812      4C203C3C 
 13813              	.LASF462:
 13814 546b 5F5F5665 		.ascii	"__Vendor_SysTickConfig 0\000"
 13814      6E646F72 
 13814      5F537973 
 13814      5469636B 
 13814      436F6E66 
 13815              	.LASF692:
 13816 5484 55415254 		.ascii	"UART_LOAD_DLL(div) ((div) & 0xFF)\000"
 13816      5F4C4F41 
 13816      445F444C 
 13816      4C286469 
 13816      76292028 
 13817              	.LASF487:
 13818 54a6 5343425F 		.ascii	"SCB_CPUID_REVISION_Msk (0xFUL << SCB_CPUID_REVISION"
 13818      43505549 
 13818      445F5245 
 13818      56495349 
 13818      4F4E5F4D 
 13819 54d9 5F506F73 		.ascii	"_Pos)\000"
 13819      2900
 13820              	.LASF313:
 13821 54df 5F5F4743 		.ascii	"__GCC_ATOMIC_POINTER_LOCK_FREE 1\000"
 13821      435F4154 
 13821      4F4D4943 
 13821      5F504F49 
 13821      4E544552 
 13822              	.LASF136:
 13823 5500 5F5F4442 		.ascii	"__DBL_MIN_EXP__ (-1021)\000"
 13823      4C5F4D49 
 13823      4E5F4558 
 13823      505F5F20 
 13823      282D3130 
 13824              	.LASF666:
 13825 5518 4D445F4F 		.ascii	"MD_OPENDRAIN (0x1 << 10)\000"
 13825      50454E44 
 13825      5241494E 
 13825      20283078 
 13825      31203C3C 
 13826              	.LASF448:
 13827 5531 4E554C4C 		.ascii	"NULL ((void *) 0)\000"
 13827      20282876 
 13827      6F696420 
ARM GAS  /var/folders/f9/8bk2lnw15zn4cbgn6wrnb4lm0000gn/T//ccCGlkPS.s 			page 327


 13827      2A292030 
 13827      2900
 13828              	.LASF933:
 13829 5543 4932435F 		.ascii	"I2C_OK 0x00\000"
 13829      4F4B2030 
 13829      78303000 
 13830              	.LASF169:
 13831 554f 5F5F4445 		.ascii	"__DEC64_MANT_DIG__ 16\000"
 13831      4336345F 
 13831      4D414E54 
 13831      5F444947 
 13831      5F5F2031 
 13832              	.LASF1118:
 13833 5565 5353505F 		.ascii	"SSP_STAT_BSY\000"
 13833      53544154 
 13833      5F425359 
 13833      00
 13834              	.LASF945:
 13835 5572 43414E5F 		.ascii	"CAN_ERROR_NONE 0x00000000UL\000"
 13835      4552524F 
 13835      525F4E4F 
 13835      4E452030 
 13835      78303030 
 13836              	.LASF1092:
 13837 558e 53595343 		.ascii	"SYSCTL_CLOCK_FLASHREG\000"
 13837      544C5F43 
 13837      4C4F434B 
 13837      5F464C41 
 13837      53485245 
 13838              	.LASF766:
 13839 55a4 55415254 		.ascii	"UART_MSR_DSR (1 << 5)\000"
 13839      5F4D5352 
 13839      5F445352 
 13839      20283120 
 13839      3C3C2035 
 13840              	.LASF172:
 13841 55ba 5F5F4445 		.ascii	"__DEC64_MIN__ 1E-383DD\000"
 13841      4336345F 
 13841      4D494E5F 
 13841      5F203145 
 13841      2D333833 
 13842              	.LASF591:
 13843 55d1 4C50435F 		.ascii	"LPC_IOCON ((LPC_IOCON_T *) LPC_IOCON_BASE)\000"
 13843      494F434F 
 13843      4E202828 
 13843      4C50435F 
 13843      494F434F 
 13844              	.LASF668:
 13845 55fc 46554E43 		.ascii	"FUNC1 0x1\000"
 13845      31203078 
 13845      3100
 13846              	.LASF433:
 13847 5606 55494E54 		.ascii	"UINTMAX_C(x) __UINTMAX_C(x)\000"
 13847      4D41585F 
 13847      43287829 
 13847      205F5F55 
 13847      494E544D 
ARM GAS  /var/folders/f9/8bk2lnw15zn4cbgn6wrnb4lm0000gn/T//ccCGlkPS.s 			page 328


 13848              	.LASF1236:
 13849 5622 4F736352 		.ascii	"OscRateIn\000"
 13849      61746549 
 13849      6E00
 13850              	.LASF357:
 13851 562c 5F5F4558 		.ascii	"__EXP\000"
 13851      5000
 13852              	.LASF646:
 13853 5632 494F434F 		.ascii	"IOCON_ADMODE_EN (0x0 << 7)\000"
 13853      4E5F4144 
 13853      4D4F4445 
 13853      5F454E20 
 13853      28307830 
 13854              	.LASF352:
 13855 564d 5F5F5F69 		.ascii	"___int64_t_defined 1\000"
 13855      6E743634 
 13855      5F745F64 
 13855      6566696E 
 13855      65642031 
 13856              	.LASF159:
 13857 5662 5F5F4C44 		.ascii	"__LDBL_HAS_DENORM__ 1\000"
 13857      424C5F48 
 13857      41535F44 
 13857      454E4F52 
 13857      4D5F5F20 
 13858              	.LASF223:
 13859 5678 5F5F5341 		.ascii	"__SACCUM_FBIT__ 7\000"
 13859      4343554D 
 13859      5F464249 
 13859      545F5F20 
 13859      3700
 13860              	.LASF1126:
 13861 568a 5353505F 		.ascii	"SSP_RAWINTSTATUS_T\000"
 13861      52415749 
 13861      4E545354 
 13861      41545553 
 13861      5F5400
 13862              	.LASF694:
 13863 569d 55415254 		.ascii	"UART_LOAD_DLM(div) (((div) >> 8) & 0xFF)\000"
 13863      5F4C4F41 
 13863      445F444C 
 13863      4D286469 
 13863      76292028 
 13864              	.LASF696:
 13865 56c6 55415254 		.ascii	"UART_IER_RBRINT (1 << 0)\000"
 13865      5F494552 
 13865      5F524252 
 13865      494E5420 
 13865      2831203C 
 13866              	.LASF106:
 13867 56df 5F5F5549 		.ascii	"__UINT64_C(c) c ## ULL\000"
 13867      4E543634 
 13867      5F432863 
 13867      29206320 
 13867      23232055 
 13868              	.LASF545:
 13869 56f6 53797354 		.ascii	"SysTick_CALIB_TENMS_Msk (0xFFFFFFUL << SysTick_VAL_"
ARM GAS  /var/folders/f9/8bk2lnw15zn4cbgn6wrnb4lm0000gn/T//ccCGlkPS.s 			page 329


 13869      69636B5F 
 13869      43414C49 
 13869      425F5445 
 13869      4E4D535F 
 13870 5729 43555252 		.ascii	"CURRENT_Pos)\000"
 13870      454E545F 
 13870      506F7329 
 13870      00
 13871              	.LASF689:
 13872 5736 52425F56 		.ascii	"RB_VHEAD(rb) (*(volatile uint32_t *) &(rb)->head)\000"
 13872      48454144 
 13872      28726229 
 13872      20282A28 
 13872      766F6C61 
 13873              	.LASF408:
 13874 5768 55494E54 		.ascii	"UINT_FAST32_MAX __UINT_FAST32_MAX__\000"
 13874      5F464153 
 13874      5433325F 
 13874      4D415820 
 13874      5F5F5549 
 13875              	.LASF572:
 13876 578c 4C50435F 		.ascii	"LPC_CAN0_BASE 0x40050000\000"
 13876      43414E30 
 13876      5F424153 
 13876      45203078 
 13876      34303035 
 13877              	.LASF1102:
 13878 57a5 53595343 		.ascii	"SYSCTL_CLOCK_ADC\000"
 13878      544C5F43 
 13878      4C4F434B 
 13878      5F414443 
 13878      00
 13879              	.LASF662:
 13880 57b6 4D445F45 		.ascii	"MD_ENFIL (0x1 << 8)\000"
 13880      4E46494C 
 13880      20283078 
 13880      31203C3C 
 13880      20382900 
 13881              	.LASF967:
 13882 57ca 53444F5F 		.ascii	"SDO_ABORT_ACCINCOMP 0x06040047UL\000"
 13882      41424F52 
 13882      545F4143 
 13882      43494E43 
 13882      4F4D5020 
 13883              	.LASF792:
 13884 57eb 55415254 		.ascii	"UART_SCICTRL_TXRETRY(n) ((n & 0x07) << 5)\000"
 13884      5F534349 
 13884      4354524C 
 13884      5F545852 
 13884      45545259 
 13885              	.LASF194:
 13886 5815 5F5F4652 		.ascii	"__FRACT_IBIT__ 0\000"
 13886      4143545F 
 13886      49424954 
 13886      5F5F2030 
 13886      00
 13887              	.LASF88:
ARM GAS  /var/folders/f9/8bk2lnw15zn4cbgn6wrnb4lm0000gn/T//ccCGlkPS.s 			page 330


 13888 5826 5F5F5549 		.ascii	"__UINT16_MAX__ 65535\000"
 13888      4E543136 
 13888      5F4D4158 
 13888      5F5F2036 
 13888      35353335 
 13889              	.LASF676:
 13890 583b 54494D45 		.ascii	"TIMER_IR_CLR(n) _BIT(n)\000"
 13890      525F4952 
 13890      5F434C52 
 13890      286E2920 
 13890      5F424954 
 13891              	.LASF963:
 13892 5853 53444F5F 		.ascii	"SDO_ABORT_WRITEONLY 0x06010001UL\000"
 13892      41424F52 
 13892      545F5752 
 13892      4954454F 
 13892      4E4C5920 
 13893              	.LASF809:
 13894 5874 57574454 		.ascii	"WWDT_WDMOD_WDRESET ((uint32_t) (1 << 1))\000"
 13894      5F57444D 
 13894      4F445F57 
 13894      44524553 
 13894      45542028 
 13895              	.LASF24:
 13896 589d 5F5F4F52 		.ascii	"__ORDER_LITTLE_ENDIAN__ 1234\000"
 13896      4445525F 
 13896      4C495454 
 13896      4C455F45 
 13896      4E444941 
 13897              	.LASF927:
 13898 58ba 4932435F 		.ascii	"I2C_I2MASK_MASK(n) ((n & 0xFE))\000"
 13898      49324D41 
 13898      534B5F4D 
 13898      41534B28 
 13898      6E292028 
 13899              	.LASF999:
 13900 58da 6C6F6E67 		.ascii	"long long unsigned int\000"
 13900      206C6F6E 
 13900      6720756E 
 13900      7369676E 
 13900      65642069 
 13901              	.LASF912:
 13902 58f1 4932435F 		.ascii	"I2C_I2STAT_S_TX_SLAR_ACK ((0xA8))\000"
 13902      49325354 
 13902      41545F53 
 13902      5F54585F 
 13902      534C4152 
 13903              	.LASF249:
 13904 5913 5F5F554C 		.ascii	"__ULACCUM_IBIT__ 32\000"
 13904      41434355 
 13904      4D5F4942 
 13904      49545F5F 
 13904      20333200 
 13905              	.LASF818:
 13906 5927 5353505F 		.ascii	"SSP_CR0_CPOL_LO ((uint32_t) (0))\000"
 13906      4352305F 
 13906      43504F4C 
ARM GAS  /var/folders/f9/8bk2lnw15zn4cbgn6wrnb4lm0000gn/T//ccCGlkPS.s 			page 331


 13906      5F4C4F20 
 13906      28287569 
 13907              	.LASF1103:
 13908 5948 53595343 		.ascii	"SYSCTL_CLOCK_RESERVED14\000"
 13908      544C5F43 
 13908      4C4F434B 
 13908      5F524553 
 13908      45525645 
 13909              	.LASF1227:
 13910 5960 6372305F 		.ascii	"cr0_div\000"
 13910      64697600 
 13911              	.LASF324:
 13912 5968 5F5F4150 		.ascii	"__APCS_32__ 1\000"
 13912      43535F33 
 13912      325F5F20 
 13912      3100
 13913              	.LASF1199:
 13914 5976 43686970 		.ascii	"Chip_Clock_EnablePeriphClock\000"
 13914      5F436C6F 
 13914      636B5F45 
 13914      6E61626C 
 13914      65506572 
 13915              	.LASF845:
 13916 5993 4144435F 		.ascii	"ADC_DR_RESULT(n) ((((n) >> 6) & 0x3FF))\000"
 13916      44525F52 
 13916      4553554C 
 13916      54286E29 
 13916      20282828 
 13917              	.LASF1166:
 13918 59bb 6C656E67 		.ascii	"length\000"
 13918      746800
 13919              	.LASF1001:
 13920 59c2 75696E74 		.ascii	"uint16_t\000"
 13920      31365F74 
 13920      00
 13921              	.LASF269:
 13922 59cb 5F5F4451 		.ascii	"__DQ_FBIT__ 63\000"
 13922      5F464249 
 13922      545F5F20 
 13922      363300
 13923              	.LASF1101:
 13924 59da 53595343 		.ascii	"SYSCTL_CLOCK_UART0\000"
 13924      544C5F43 
 13924      4C4F434B 
 13924      5F554152 
 13924      543000
 13925              	.LASF1094:
 13926 59ed 53595343 		.ascii	"SYSCTL_CLOCK_I2C\000"
 13926      544C5F43 
 13926      4C4F434B 
 13926      5F493243 
 13926      00
 13927              	.LASF61:
 13928 59fe 5F5F5549 		.ascii	"__UINT_FAST32_TYPE__ unsigned int\000"
 13928      4E545F46 
 13928      41535433 
 13928      325F5459 
ARM GAS  /var/folders/f9/8bk2lnw15zn4cbgn6wrnb4lm0000gn/T//ccCGlkPS.s 			page 332


 13928      50455F5F 
 13929              	.LASF56:
 13930 5a20 5F5F494E 		.ascii	"__INT_FAST16_TYPE__ int\000"
 13930      545F4641 
 13930      53543136 
 13930      5F545950 
 13930      455F5F20 
 13931              	.LASF617:
 13932 5a38 53595343 		.ascii	"SYSCTL_SLPWAKE_ADC_PD (1 << 4)\000"
 13932      544C5F53 
 13932      4C505741 
 13932      4B455F41 
 13932      44435F50 
 13933              	.LASF606:
 13934 5a57 53595343 		.ascii	"SYSCTL_RST_EXTRST (1 << 1)\000"
 13934      544C5F52 
 13934      53545F45 
 13934      58545253 
 13934      54202831 
 13935              	.LASF225:
 13936 5a72 5F5F5341 		.ascii	"__SACCUM_MIN__ (-0X1P7HK-0X1P7HK)\000"
 13936      4343554D 
 13936      5F4D494E 
 13936      5F5F2028 
 13936      2D305831 
 13937              	.LASF211:
 13938 5a94 5F5F554C 		.ascii	"__ULFRACT_MAX__ 0XFFFFFFFFP-32ULR\000"
 13938      46524143 
 13938      545F4D41 
 13938      585F5F20 
 13938      30584646 
 13939              	.LASF538:
 13940 5ab6 53797354 		.ascii	"SysTick_VAL_CURRENT_Pos 0\000"
 13940      69636B5F 
 13940      56414C5F 
 13940      43555252 
 13940      454E545F 
 13941              	.LASF52:
 13942 5ad0 5F5F5549 		.ascii	"__UINT_LEAST16_TYPE__ short unsigned int\000"
 13942      4E545F4C 
 13942      45415354 
 13942      31365F54 
 13942      5950455F 
 13943              	.LASF862:
 13944 5af9 4144435F 		.ascii	"ADC_SAMPLE_RATE_CONFIG_MASK (ADC_CR_CLKDIV(0xFF) | "
 13944      53414D50 
 13944      4C455F52 
 13944      4154455F 
 13944      434F4E46 
 13945 5b2c 4144435F 		.ascii	"ADC_CR_BITACC(0x07))\000"
 13945      43525F42 
 13945      49544143 
 13945      43283078 
 13945      30372929 
 13946              	.LASF1053:
 13947 5b41 52455345 		.ascii	"RESERVED10\000"
 13947      52564544 
ARM GAS  /var/folders/f9/8bk2lnw15zn4cbgn6wrnb4lm0000gn/T//ccCGlkPS.s 			page 333


 13947      313000
 13948              	.LASF1056:
 13949 5b4c 52455345 		.ascii	"RESERVED11\000"
 13949      52564544 
 13949      313100
 13950              	.LASF1062:
 13951 5b57 52455345 		.ascii	"RESERVED12\000"
 13951      52564544 
 13951      313200
 13952              	.LASF1067:
 13953 5b62 52455345 		.ascii	"RESERVED13\000"
 13953      52564544 
 13953      313300
 13954              	.LASF1069:
 13955 5b6d 52455345 		.ascii	"RESERVED14\000"
 13955      52564544 
 13955      313400
 13956              	.LASF1073:
 13957 5b78 52455345 		.ascii	"RESERVED15\000"
 13957      52564544 
 13957      313500
 13958              	.LASF1222:
 13959 5b83 43686970 		.ascii	"Chip_SSP_SetMaster\000"
 13959      5F535350 
 13959      5F536574 
 13959      4D617374 
 13959      657200
 13960              	.LASF1116:
 13961 5b96 5353505F 		.ascii	"SSP_STAT_RNE\000"
 13961      53544154 
 13961      5F524E45 
 13961      00
 13962              	.LASF101:
 13963 5ba3 5F5F5549 		.ascii	"__UINT_LEAST16_MAX__ 65535\000"
 13963      4E545F4C 
 13963      45415354 
 13963      31365F4D 
 13963      41585F5F 
 13964              	.LASF281:
 13965 5bbe 5F5F5554 		.ascii	"__UTQ_FBIT__ 128\000"
 13965      515F4642 
 13965      49545F5F 
 13965      20313238 
 13965      00
 13966              	.LASF683:
 13967 5bcf 54494D45 		.ascii	"TIMER_STOP_ON_MATCH(n) (_BIT((((n) * 3) + 2)))\000"
 13967      525F5354 
 13967      4F505F4F 
 13967      4E5F4D41 
 13967      54434828 
 13968              	.LASF937:
 13969 5bfe 4932435F 		.ascii	"I2C_SEND_END 0x08\000"
 13969      53454E44 
 13969      5F454E44 
 13969      20307830 
 13969      3800
 13970              	.LASF930:
ARM GAS  /var/folders/f9/8bk2lnw15zn4cbgn6wrnb4lm0000gn/T//ccCGlkPS.s 			page 334


 13971 5c10 4932435F 		.ascii	"I2C_SETUP_STATUS_ARBF (1 << 8)\000"
 13971      53455455 
 13971      505F5354 
 13971      41545553 
 13971      5F415242 
 13972              	.LASF257:
 13973 5c2f 5F5F4C4C 		.ascii	"__LLACCUM_EPSILON__ 0x1P-31LLK\000"
 13973      41434355 
 13973      4D5F4550 
 13973      53494C4F 
 13973      4E5F5F20 
 13974              	.LASF13:
 13975 5c4e 5F5F4649 		.ascii	"__FINITE_MATH_ONLY__ 0\000"
 13975      4E495445 
 13975      5F4D4154 
 13975      485F4F4E 
 13975      4C595F5F 
 13976              	.LASF703:
 13977 5c65 55415254 		.ascii	"UART_IER_BITMASK (0x307)\000"
 13977      5F494552 
 13977      5F424954 
 13977      4D41534B 
 13977      20283078 
 13978              	.LASF359:
 13979 5c7e 5F5F6861 		.ascii	"__have_longlong64 1\000"
 13979      76655F6C 
 13979      6F6E676C 
 13979      6F6E6736 
 13979      34203100 
 13980              	.LASF478:
 13981 5c92 5343425F 		.ascii	"SCB_CPUID_IMPLEMENTER_Pos 24\000"
 13981      43505549 
 13981      445F494D 
 13981      504C454D 
 13981      454E5445 
 13982              	.LASF1142:
 13983 5caf 5353505F 		.ascii	"SSP_FRAMEFORMAT_SPI\000"
 13983      4652414D 
 13983      45464F52 
 13983      4D41545F 
 13983      53504900 
 13984              	.LASF1034:
 13985 5cc3 53595341 		.ascii	"SYSAHBCLKCTRL\000"
 13985      4842434C 
 13985      4B435452 
 13985      4C00
 13986              	.LASF463:
 13987 5cd1 5F5F434F 		.ascii	"__CORE_CM0_H_GENERIC \000"
 13987      52455F43 
 13987      4D305F48 
 13987      5F47454E 
 13987      45524943 
 13988              	.LASF418:
 13989 5ce7 50545244 		.ascii	"PTRDIFF_MAX __PTRDIFF_MAX__\000"
 13989      4946465F 
 13989      4D415820 
 13989      5F5F5054 
ARM GAS  /var/folders/f9/8bk2lnw15zn4cbgn6wrnb4lm0000gn/T//ccCGlkPS.s 			page 335


 13989      52444946 
 13990              	.LASF589:
 13991 5d03 4C50435F 		.ascii	"LPC_FMC ((LPC_FMC_T *) LPC_FLASH_BASE)\000"
 13991      464D4320 
 13991      28284C50 
 13991      435F464D 
 13991      435F5420 
 13992              	.LASF1021:
 13993 5d2a 49524343 		.ascii	"IRCCTRL\000"
 13993      54524C00 
 13994              	.LASF799:
 13995 5d32 55415254 		.ascii	"UART_SYNCCTRL_SYNC (1 << 0)\000"
 13995      5F53594E 
 13995      43435452 
 13995      4C5F5359 
 13995      4E432028 
 13996              	.LASF323:
 13997 5d4e 5F5F4152 		.ascii	"__ARM_ARCH 6\000"
 13997      4D5F4152 
 13997      43482036 
 13997      00
 13998              	.LASF802:
 13999 5d5b 55415254 		.ascii	"UART_SYNCCTRL_TSBYPASS (1 << 3)\000"
 13999      5F53594E 
 13999      43435452 
 13999      4C5F5453 
 13999      42595041 
 14000              	.LASF934:
 14001 5d7b 4932435F 		.ascii	"I2C_BYTE_SENT 0x01\000"
 14001      42595445 
 14001      5F53454E 
 14001      54203078 
 14001      303100
 14002              	.LASF251:
 14003 5d8e 5F5F554C 		.ascii	"__ULACCUM_MAX__ 0XFFFFFFFFFFFFFFFFP-32ULK\000"
 14003      41434355 
 14003      4D5F4D41 
 14003      585F5F20 
 14003      30584646 
 14004              	.LASF1007:
 14005 5db8 53554343 		.ascii	"SUCCESS\000"
 14005      45535300 
 14006              	.LASF571:
 14007 5dc0 4C50435F 		.ascii	"LPC_USB0_BASE 0x40080000\000"
 14007      55534230 
 14007      5F424153 
 14007      45203078 
 14007      34303038 
 14008              	.LASF210:
 14009 5dd9 5F5F554C 		.ascii	"__ULFRACT_MIN__ 0.0ULR\000"
 14009      46524143 
 14009      545F4D49 
 14009      4E5F5F20 
 14009      302E3055 
 14010              	.LASF1071:
 14011 5df0 50445741 		.ascii	"PDWAKECFG\000"
 14011      4B454346 
ARM GAS  /var/folders/f9/8bk2lnw15zn4cbgn6wrnb4lm0000gn/T//ccCGlkPS.s 			page 336


 14011      4700
 14012              	.LASF270:
 14013 5dfa 5F5F4451 		.ascii	"__DQ_IBIT__ 0\000"
 14013      5F494249 
 14013      545F5F20 
 14013      3000
 14014              	.LASF1061:
 14015 5e08 55534243 		.ascii	"USBCLKST\000"
 14015      4C4B5354 
 14015      00
 14016              	.LASF1013:
 14017 5e11 50524553 		.ascii	"PRESETCTRL\000"
 14017      45544354 
 14017      524C00
 14018              	.LASF620:
 14019 5e1c 53595343 		.ascii	"SYSCTL_SLPWAKE_SYSPLL_PD (1 << 7)\000"
 14019      544C5F53 
 14019      4C505741 
 14019      4B455F53 
 14019      5953504C 
 14020              	.LASF480:
 14021 5e3e 5343425F 		.ascii	"SCB_CPUID_VARIANT_Pos 20\000"
 14021      43505549 
 14021      445F5641 
 14021      5249414E 
 14021      545F506F 
 14022              	.LASF612:
 14023 5e57 53595343 		.ascii	"SYSCTL_DEEPSLP_WDTOSC_PD (1 << 6)\000"
 14023      544C5F44 
 14023      45455053 
 14023      4C505F57 
 14023      44544F53 
 14024              	.LASF712:
 14025 5e79 55415254 		.ascii	"UART_IIR_INTID_RLS (3 << 1)\000"
 14025      5F494952 
 14025      5F494E54 
 14025      49445F52 
 14025      4C532028 
 14026              	.LASF97:
 14027 5e95 5F5F494E 		.ascii	"__INT_LEAST64_MAX__ 9223372036854775807LL\000"
 14027      545F4C45 
 14027      41535436 
 14027      345F4D41 
 14027      585F5F20 
 14028              	.LASF387:
 14029 5ebf 55494E54 		.ascii	"UINT_LEAST16_MAX __UINT_LEAST16_MAX__\000"
 14029      5F4C4541 
 14029      53543136 
 14029      5F4D4158 
 14029      205F5F55 
 14030              	.LASF987:
 14031 5ee5 4C50435F 		.ascii	"LPC_CCAN_API ((CCAN_API_T *) (LPC_ROM_API->candApiB"
 14031      4343414E 
 14031      5F415049 
 14031      20282843 
 14031      43414E5F 
 14032 5f18 61736529 		.ascii	"ase))\000"
ARM GAS  /var/folders/f9/8bk2lnw15zn4cbgn6wrnb4lm0000gn/T//ccCGlkPS.s 			page 337


 14032      2900
 14033              	.LASF554:
 14034 5f1e 5F534850 		.ascii	"_SHP_IDX(IRQn) ( ((((uint32_t)(IRQn) & 0x0F)-8) >> "
 14034      5F494458 
 14034      28495251 
 14034      6E292028 
 14034      20282828 
 14035 5f51 32292029 		.ascii	"2) )\000"
 14035      00
 14036              	.LASF581:
 14037 5f56 4C50435F 		.ascii	"LPC_WWDT ((LPC_WWDT_T *) LPC_WWDT_BASE)\000"
 14037      57574454 
 14037      2028284C 
 14037      50435F57 
 14037      5744545F 
 14038              	.LASF533:
 14039 5f7e 53797354 		.ascii	"SysTick_CTRL_TICKINT_Msk (1UL << SysTick_CTRL_TICKI"
 14039      69636B5F 
 14039      4354524C 
 14039      5F544943 
 14039      4B494E54 
 14040 5fb1 4E545F50 		.ascii	"NT_Pos)\000"
 14040      6F732900 
 14041              	.LASF767:
 14042 5fb9 55415254 		.ascii	"UART_MSR_RI (1 << 6)\000"
 14042      5F4D5352 
 14042      5F524920 
 14042      2831203C 
 14042      3C203629 
 14043              	.LASF331:
 14044 5fce 5F5F4152 		.ascii	"__ARM_FP 12\000"
 14044      4D5F4650 
 14044      20313200 
 14045              	.LASF76:
 14046 5fda 5F5F5349 		.ascii	"__SIZE_MAX__ 4294967295U\000"
 14046      5A455F4D 
 14046      41585F5F 
 14046      20343239 
 14046      34393637 
 14047              	.LASF1003:
 14048 5ff3 52455345 		.ascii	"RESET\000"
 14048      5400
 14049              	.LASF282:
 14050 5ff9 5F5F5554 		.ascii	"__UTQ_IBIT__ 0\000"
 14050      515F4942 
 14050      49545F5F 
 14050      203000
 14051              	.LASF407:
 14052 6008 494E545F 		.ascii	"INT_FAST32_MAX __INT_FAST32_MAX__\000"
 14052      46415354 
 14052      33325F4D 
 14052      4158205F 
 14052      5F494E54 
 14053              	.LASF285:
 14054 602a 5F5F5341 		.ascii	"__SA_FBIT__ 15\000"
 14054      5F464249 
 14054      545F5F20 
ARM GAS  /var/folders/f9/8bk2lnw15zn4cbgn6wrnb4lm0000gn/T//ccCGlkPS.s 			page 338


 14054      313500
 14055              	.LASF217:
 14056 6039 5F5F4C4C 		.ascii	"__LLFRACT_EPSILON__ 0x1P-63LLR\000"
 14056      46524143 
 14056      545F4550 
 14056      53494C4F 
 14056      4E5F5F20 
 14057              	.LASF795:
 14058 6058 55415254 		.ascii	"UART_FDR_MULVAL(n) ((n << 4) & 0xF0)\000"
 14058      5F464452 
 14058      5F4D554C 
 14058      56414C28 
 14058      6E292028 
 14059              	.LASF1163:
 14060 607d 74785F63 		.ascii	"tx_cnt\000"
 14060      6E7400
 14061              	.LASF669:
 14062 6084 46554E43 		.ascii	"FUNC2 0x2\000"
 14062      32203078 
 14062      3200
 14063              	.LASF1044:
 14064 608e 57445443 		.ascii	"WDTCLKSEL\000"
 14064      4C4B5345 
 14064      4C00
 14065              	.LASF574:
 14066 6098 4C50435F 		.ascii	"LPC_GPIO_PORT0_BASE 0x50000000\000"
 14066      4750494F 
 14066      5F504F52 
 14066      54305F42 
 14066      41534520 
 14067              	.LASF772:
 14068 60b7 55415254 		.ascii	"UART_ACR_AUTO_RESTART (1 << 2)\000"
 14068      5F414352 
 14068      5F415554 
 14068      4F5F5245 
 14068      53544152 
 14069              	.LASF338:
 14070 60d6 5F5F454C 		.ascii	"__ELF__ 1\000"
 14070      465F5F20 
 14070      3100
 14071              	.LASF388:
 14072 60e0 494E5433 		.ascii	"INT32_MIN (-__INT32_MAX__ - 1)\000"
 14072      325F4D49 
 14072      4E20282D 
 14072      5F5F494E 
 14072      5433325F 
 14073              	.LASF83:
 14074 60ff 5F5F494E 		.ascii	"__INT8_MAX__ 127\000"
 14074      54385F4D 
 14074      41585F5F 
 14074      20313237 
 14074      00
 14075              	.LASF635:
 14076 6110 494F434F 		.ascii	"IOCON_FUNC3 0x3\000"
 14076      4E5F4655 
 14076      4E433320 
 14076      30783300 
ARM GAS  /var/folders/f9/8bk2lnw15zn4cbgn6wrnb4lm0000gn/T//ccCGlkPS.s 			page 339


 14077              	.LASF599:
 14078 6120 504D555F 		.ascii	"PMU_PCON_PM_SLEEP (0x0)\000"
 14078      50434F4E 
 14078      5F504D5F 
 14078      534C4545 
 14078      50202830 
 14079              	.LASF974:
 14080 6138 4F445F4E 		.ascii	"OD_NONE 0x00\000"
 14080      4F4E4520 
 14080      30783030 
 14080      00
 14081              	.LASF264:
 14082 6145 5F5F5151 		.ascii	"__QQ_IBIT__ 0\000"
 14082      5F494249 
 14082      545F5F20 
 14082      3000
 14083              	.LASF860:
 14084 6153 4144435F 		.ascii	"ADC_CR_START_MCOA2 ((6UL << 24))\000"
 14084      43525F53 
 14084      54415254 
 14084      5F4D434F 
 14084      41322028 
 14085              	.LASF853:
 14086 6174 4144435F 		.ascii	"ADC_CR_START_MASK ((7UL << 24))\000"
 14086      43525F53 
 14086      54415254 
 14086      5F4D4153 
 14086      4B202828 
 14087              	.LASF559:
 14088 6194 4C50435F 		.ascii	"LPC_TIMER16_0_BASE 0x4000C000\000"
 14088      54494D45 
 14088      5231365F 
 14088      305F4241 
 14088      53452030 
 14089              	.LASF431:
 14090 61b2 55494E54 		.ascii	"UINT64_C(x) __UINT64_C(x)\000"
 14090      36345F43 
 14090      28782920 
 14090      5F5F5549 
 14090      4E543634 
 14091              	.LASF253:
 14092 61cc 5F5F4C4C 		.ascii	"__LLACCUM_FBIT__ 31\000"
 14092      41434355 
 14092      4D5F4642 
 14092      49545F5F 
 14092      20333100 
 14093              	.LASF79:
 14094 61e0 5F5F5549 		.ascii	"__UINTMAX_MAX__ 18446744073709551615ULL\000"
 14094      4E544D41 
 14094      585F4D41 
 14094      585F5F20 
 14094      31383434 
 14095              	.LASF125:
 14096 6208 5F5F464C 		.ascii	"__FLT_MAX_10_EXP__ 38\000"
 14096      545F4D41 
 14096      585F3130 
 14096      5F455850 
ARM GAS  /var/folders/f9/8bk2lnw15zn4cbgn6wrnb4lm0000gn/T//ccCGlkPS.s 			page 340


 14096      5F5F2033 
 14097              	.LASF632:
 14098 621e 494F434F 		.ascii	"IOCON_FUNC0 0x0\000"
 14098      4E5F4655 
 14098      4E433020 
 14098      30783000 
 14099              	.LASF278:
 14100 622e 5F5F5553 		.ascii	"__USQ_IBIT__ 0\000"
 14100      515F4942 
 14100      49545F5F 
 14100      203000
 14101              	.LASF53:
 14102 623d 5F5F5549 		.ascii	"__UINT_LEAST32_TYPE__ long unsigned int\000"
 14102      4E545F4C 
 14102      45415354 
 14102      33325F54 
 14102      5950455F 
 14103              	.LASF276:
 14104 6265 5F5F5548 		.ascii	"__UHQ_IBIT__ 0\000"
 14104      515F4942 
 14104      49545F5F 
 14104      203000
 14105              	.LASF3:
 14106 6274 5F5F474E 		.ascii	"__GNUC_MINOR__ 8\000"
 14106      55435F4D 
 14106      494E4F52 
 14106      5F5F2038 
 14106      00
 14107              	.LASF1004:
 14108 6285 466C6167 		.ascii	"FlagStatus\000"
 14108      53746174 
 14108      757300
 14109              	.LASF309:
 14110 6290 5F5F4743 		.ascii	"__GCC_ATOMIC_INT_LOCK_FREE 1\000"
 14110      435F4154 
 14110      4F4D4943 
 14110      5F494E54 
 14110      5F4C4F43 
 14111              	.LASF95:
 14112 62ad 5F5F494E 		.ascii	"__INT_LEAST32_MAX__ 2147483647L\000"
 14112      545F4C45 
 14112      41535433 
 14112      325F4D41 
 14112      585F5F20 
 14113              	.LASF302:
 14114 62cd 5F5F4348 		.ascii	"__CHAR_UNSIGNED__ 1\000"
 14114      41525F55 
 14114      4E534947 
 14114      4E45445F 
 14114      5F203100 
 14115              	.LASF1225:
 14116 62e1 62697452 		.ascii	"bitRate\000"
 14116      61746500 
 14117              	.LASF1170:
 14118 62e9 70657269 		.ascii	"periph\000"
 14118      706800
 14119              	.LASF899:
ARM GAS  /var/folders/f9/8bk2lnw15zn4cbgn6wrnb4lm0000gn/T//ccCGlkPS.s 			page 341


 14120 62f0 4932435F 		.ascii	"I2C_I2STAT_M_RX_SLAR_ACK ((0x40))\000"
 14120      49325354 
 14120      41545F4D 
 14120      5F52585F 
 14120      534C4152 
 14121              	.LASF642:
 14122 6312 494F434F 		.ascii	"IOCON_MODE_PULLUP (0x2 << 3)\000"
 14122      4E5F4D4F 
 14122      44455F50 
 14122      554C4C55 
 14122      50202830 
 14123              	.LASF728:
 14124 632f 55415254 		.ascii	"UART_LCR_WLEN5 (0 << 0)\000"
 14124      5F4C4352 
 14124      5F574C45 
 14124      4E352028 
 14124      30203C3C 
 14125              	.LASF1152:
 14126 6347 5353505F 		.ascii	"SSP_BITS_10\000"
 14126      42495453 
 14126      5F313000 
 14127              	.LASF1153:
 14128 6353 5353505F 		.ascii	"SSP_BITS_11\000"
 14128      42495453 
 14128      5F313100 
 14129              	.LASF1144:
 14130 635f 5353505F 		.ascii	"SSP_FRAMEFORMAT_MICROWIRE\000"
 14130      4652414D 
 14130      45464F52 
 14130      4D41545F 
 14130      4D494352 
 14131              	.LASF1155:
 14132 6379 5353505F 		.ascii	"SSP_BITS_13\000"
 14132      42495453 
 14132      5F313300 
 14133              	.LASF1156:
 14134 6385 5353505F 		.ascii	"SSP_BITS_14\000"
 14134      42495453 
 14134      5F313400 
 14135              	.LASF1157:
 14136 6391 5353505F 		.ascii	"SSP_BITS_15\000"
 14136      42495453 
 14136      5F313500 
 14137              	.LASF1158:
 14138 639d 5353505F 		.ascii	"SSP_BITS_16\000"
 14138      42495453 
 14138      5F313600 
 14139              	.LASF428:
 14140 63a9 494E5433 		.ascii	"INT32_C(x) __INT32_C(x)\000"
 14140      325F4328 
 14140      7829205F 
 14140      5F494E54 
 14140      33325F43 
 14141              	.LASF216:
 14142 63c1 5F5F4C4C 		.ascii	"__LLFRACT_MAX__ 0X7FFFFFFFFFFFFFFFP-63LLR\000"
 14142      46524143 
 14142      545F4D41 
ARM GAS  /var/folders/f9/8bk2lnw15zn4cbgn6wrnb4lm0000gn/T//ccCGlkPS.s 			page 342


 14142      585F5F20 
 14142      30583746 
 14143              	.LASF537:
 14144 63eb 53797354 		.ascii	"SysTick_LOAD_RELOAD_Msk (0xFFFFFFUL << SysTick_LOAD"
 14144      69636B5F 
 14144      4C4F4144 
 14144      5F52454C 
 14144      4F41445F 
 14145 641e 5F52454C 		.ascii	"_RELOAD_Pos)\000"
 14145      4F41445F 
 14145      506F7329 
 14145      00
 14146              	.LASF1109:
 14147 642b 43505352 		.ascii	"CPSR\000"
 14147      00
 14148              	.LASF630:
 14149 6430 53595343 		.ascii	"SYSCTL_IRC_FREQ (12000000)\000"
 14149      544C5F49 
 14149      52435F46 
 14149      52455120 
 14149      28313230 
 14150              	.LASF75:
 14151 644b 5F5F5054 		.ascii	"__PTRDIFF_MAX__ 2147483647\000"
 14151      52444946 
 14151      465F4D41 
 14151      585F5F20 
 14151      32313437 
 14152              	.LASF491:
 14153 6466 5343425F 		.ascii	"SCB_ICSR_PENDSVSET_Msk (1UL << SCB_ICSR_PENDSVSET_P"
 14153      49435352 
 14153      5F50454E 
 14153      44535653 
 14153      45545F4D 
 14154 6499 6F732900 		.ascii	"os)\000"
 14155              	.LASF540:
 14156 649d 53797354 		.ascii	"SysTick_CALIB_NOREF_Pos 31\000"
 14156      69636B5F 
 14156      43414C49 
 14156      425F4E4F 
 14156      5245465F 
 14157              	.LASF226:
 14158 64b8 5F5F5341 		.ascii	"__SACCUM_MAX__ 0X7FFFP-7HK\000"
 14158      4343554D 
 14158      5F4D4158 
 14158      5F5F2030 
 14158      58374646 
 14159              	.LASF63:
 14160 64d3 5F5F494E 		.ascii	"__INTPTR_TYPE__ int\000"
 14160      54505452 
 14160      5F545950 
 14160      455F5F20 
 14160      696E7400 
 14161              	.LASF36:
 14162 64e7 5F5F4348 		.ascii	"__CHAR16_TYPE__ short unsigned int\000"
 14162      41523136 
 14162      5F545950 
 14162      455F5F20 
ARM GAS  /var/folders/f9/8bk2lnw15zn4cbgn6wrnb4lm0000gn/T//ccCGlkPS.s 			page 343


 14162      73686F72 
 14163              	.LASF1200:
 14164 650a 43686970 		.ascii	"Chip_SSP_SetSSPClkDivider\000"
 14164      5F535350 
 14164      5F536574 
 14164      53535043 
 14164      6C6B4469 
 14165              	.LASF535:
 14166 6524 53797354 		.ascii	"SysTick_CTRL_ENABLE_Msk (1UL << SysTick_CTRL_ENABLE"
 14166      69636B5F 
 14166      4354524C 
 14166      5F454E41 
 14166      424C455F 
 14167 6557 5F506F73 		.ascii	"_Pos)\000"
 14167      2900
 14168              	.LASF299:
 14169 655d 5F5F5245 		.ascii	"__REGISTER_PREFIX__ \000"
 14169      47495354 
 14169      45525F50 
 14169      52454649 
 14169      585F5F20 
 14170              	.LASF182:
 14171 6572 5F5F4445 		.ascii	"__DEC128_SUBNORMAL_MIN__ 0.000000000000000000000000"
 14171      43313238 
 14171      5F535542 
 14171      4E4F524D 
 14171      414C5F4D 
 14172 65a5 30303030 		.ascii	"000000001E-6143DL\000"
 14172      30303030 
 14172      31452D36 
 14172      31343344 
 14172      4C00
 14173              	.LASF1022:
 14174 65b7 4C464F53 		.ascii	"LFOSCCTRL\000"
 14174      43435452 
 14174      4C00
 14175              	.LASF212:
 14176 65c1 5F5F554C 		.ascii	"__ULFRACT_EPSILON__ 0x1P-32ULR\000"
 14176      46524143 
 14176      545F4550 
 14176      53494C4F 
 14176      4E5F5F20 
 14177              	.LASF982:
 14178 65e0 43414E5F 		.ascii	"CAN_SDOREQ_HANDLED_SEND 1\000"
 14178      53444F52 
 14178      45515F48 
 14178      414E444C 
 14178      45445F53 
 14179              	.LASF334:
 14180 65fa 5F5F4152 		.ascii	"__ARM_ARCH_6M__ 1\000"
 14180      4D5F4152 
 14180      43485F36 
 14180      4D5F5F20 
 14180      3100
 14181              	.LASF21:
 14182 660c 5F5F5349 		.ascii	"__SIZEOF_SIZE_T__ 4\000"
 14182      5A454F46 
ARM GAS  /var/folders/f9/8bk2lnw15zn4cbgn6wrnb4lm0000gn/T//ccCGlkPS.s 			page 344


 14182      5F53495A 
 14182      455F545F 
 14182      5F203400 
 14183              	.LASF753:
 14184 6620 55415254 		.ascii	"UART_LSR_FE (1 << 3)\000"
 14184      5F4C5352 
 14184      5F464520 
 14184      2831203C 
 14184      3C203329 
 14185              	.LASF807:
 14186 6635 57574454 		.ascii	"WWDT_WDMOD_BITMASK ((uint32_t) 0x1F)\000"
 14186      5F57444D 
 14186      4F445F42 
 14186      49544D41 
 14186      534B2028 
 14187              	.LASF46:
 14188 665a 5F5F5549 		.ascii	"__UINT64_TYPE__ long long unsigned int\000"
 14188      4E543634 
 14188      5F545950 
 14188      455F5F20 
 14188      6C6F6E67 
 14189              	.LASF179:
 14190 6681 5F5F4445 		.ascii	"__DEC128_MIN__ 1E-6143DL\000"
 14190      43313238 
 14190      5F4D494E 
 14190      5F5F2031 
 14190      452D3631 
 14191              	.LASF98:
 14192 669a 5F5F494E 		.ascii	"__INT64_C(c) c ## LL\000"
 14192      5436345F 
 14192      43286329 
 14192      20632023 
 14192      23204C4C 
 14193              	.LASF244:
 14194 66af 5F5F4C41 		.ascii	"__LACCUM_IBIT__ 32\000"
 14194      4343554D 
 14194      5F494249 
 14194      545F5F20 
 14194      333200
 14195              	.LASF1074:
 14196 66c2 44455649 		.ascii	"DEVICEID\000"
 14196      43454944 
 14196      00
 14197              	.LASF391:
 14198 66cb 494E545F 		.ascii	"INT_LEAST32_MIN (-__INT_LEAST32_MAX__ - 1)\000"
 14198      4C454153 
 14198      5433325F 
 14198      4D494E20 
 14198      282D5F5F 
 14199              	.LASF649:
 14200 66f6 494F434F 		.ascii	"IOCON_STDI2C_EN (0x1 << 8)\000"
 14200      4E5F5354 
 14200      44493243 
 14200      5F454E20 
 14200      28307831 
 14201              	.LASF434:
 14202 6711 5F474343 		.ascii	"_GCC_WRAP_STDINT_H \000"
ARM GAS  /var/folders/f9/8bk2lnw15zn4cbgn6wrnb4lm0000gn/T//ccCGlkPS.s 			page 345


 14202      5F575241 
 14202      505F5354 
 14202      44494E54 
 14202      5F482000 
 14203              	.LASF925:
 14204 6725 4932435F 		.ascii	"I2C_I2ADR_GC ((1 << 0))\000"
 14204      49324144 
 14204      525F4743 
 14204      20282831 
 14204      203C3C20 
 14205              	.LASF1048:
 14206 673d 434C4B4F 		.ascii	"CLKOUTSEL\000"
 14206      55545345 
 14206      4C00
 14207              	.LASF156:
 14208 6747 5F5F4C44 		.ascii	"__LDBL_MIN__ 2.2250738585072014e-308L\000"
 14208      424C5F4D 
 14208      494E5F5F 
 14208      20322E32 
 14208      32353037 
 14209              	.LASF234:
 14210 676d 5F5F4143 		.ascii	"__ACCUM_IBIT__ 16\000"
 14210      43554D5F 
 14210      49424954 
 14210      5F5F2031 
 14210      3600
 14211              	.LASF863:
 14212 677f 5F5F4750 		.ascii	"__GPIO_11XX_2_H_ \000"
 14212      494F5F31 
 14212      3158585F 
 14212      325F485F 
 14212      2000
 14213              	.LASF1235:
 14214 6791 5353505F 		.ascii	"SSP_Read1BFifo\000"
 14214      52656164 
 14214      31424669 
 14214      666F00
 14215              	.LASF645:
 14216 67a0 494F434F 		.ascii	"IOCON_INV_EN (0x1 << 6)\000"
 14216      4E5F494E 
 14216      565F454E 
 14216      20283078 
 14216      31203C3C 
 14217              	.LASF991:
 14218 67b8 73686F72 		.ascii	"short int\000"
 14218      7420696E 
 14218      7400
 14219              	.LASF650:
 14220 67c2 494F434F 		.ascii	"IOCON_FASTI2C_EN (0x2 << 8)\000"
 14220      4E5F4641 
 14220      53544932 
 14220      435F454E 
 14220      20283078 
 14221              	.LASF426:
 14222 67de 494E5431 		.ascii	"INT16_C(x) __INT16_C(x)\000"
 14222      365F4328 
 14222      7829205F 
ARM GAS  /var/folders/f9/8bk2lnw15zn4cbgn6wrnb4lm0000gn/T//ccCGlkPS.s 			page 346


 14222      5F494E54 
 14222      31365F43 
 14223              	.LASF957:
 14224 67f6 43414E5F 		.ascii	"CAN_MSGOBJ_DAT 0x00000000UL\000"
 14224      4D53474F 
 14224      424A5F44 
 14224      41542030 
 14224      78303030 
 14225              	.LASF720:
 14226 6812 55415254 		.ascii	"UART_FCR_DMAMODE_SEL (1 << 3)\000"
 14226      5F464352 
 14226      5F444D41 
 14226      4D4F4445 
 14226      5F53454C 
 14227              	.LASF198:
 14228 6830 5F5F5546 		.ascii	"__UFRACT_FBIT__ 16\000"
 14228      52414354 
 14228      5F464249 
 14228      545F5F20 
 14228      313600
 14229              	.LASF102:
 14230 6843 5F5F5549 		.ascii	"__UINT16_C(c) c\000"
 14230      4E543136 
 14230      5F432863 
 14230      29206300 
 14231              	.LASF453:
 14232 6853 4D415828 		.ascii	"MAX(a,b) (((a) > (b)) ? (a) : (b))\000"
 14232      612C6229 
 14232      20282828 
 14232      6129203E 
 14232      20286229 
 14233              	.LASF651:
 14234 6876 494F434F 		.ascii	"IOCON_FILT_DIS (0x1 << 8)\000"
 14234      4E5F4649 
 14234      4C545F44 
 14234      49532028 
 14234      30783120 
 14235              	.LASF296:
 14236 6890 5F5F5544 		.ascii	"__UDA_IBIT__ 32\000"
 14236      415F4942 
 14236      49545F5F 
 14236      20333200 
 14237              	.LASF1190:
 14238 68a0 6D6F6465 		.ascii	"mode\000"
 14238      00
 14239              	.LASF526:
 14240 68a5 5343425F 		.ascii	"SCB_SHCSR_SVCALLPENDED_Pos 15\000"
 14240      53484353 
 14240      525F5356 
 14240      43414C4C 
 14240      50454E44 
 14241              	.LASF394:
 14242 68c3 494E5436 		.ascii	"INT64_MIN (-__INT64_MAX__ - 1)\000"
 14242      345F4D49 
 14242      4E20282D 
 14242      5F5F494E 
 14242      5436345F 
ARM GAS  /var/folders/f9/8bk2lnw15zn4cbgn6wrnb4lm0000gn/T//ccCGlkPS.s 			page 347


 14243              	.LASF6:
 14244 68e2 5F5F4154 		.ascii	"__ATOMIC_RELAXED 0\000"
 14244      4F4D4943 
 14244      5F52454C 
 14244      41584544 
 14244      203000
 14245              	.LASF718:
 14246 68f5 55415254 		.ascii	"UART_FCR_RX_RS (1 << 1)\000"
 14246      5F464352 
 14246      5F52585F 
 14246      52532028 
 14246      31203C3C 
 14247              	.LASF603:
 14248 690d 5F5F464D 		.ascii	"__FMC_11XX_H_ \000"
 14248      435F3131 
 14248      58585F48 
 14248      5F2000
 14249              	.LASF700:
 14250 691c 55415254 		.ascii	"UART_IER_CTSINT (1 << 7)\000"
 14250      5F494552 
 14250      5F435453 
 14250      494E5420 
 14250      2831203C 
 14251              	.LASF146:
 14252 6935 5F5F4442 		.ascii	"__DBL_HAS_INFINITY__ 1\000"
 14252      4C5F4841 
 14252      535F494E 
 14252      46494E49 
 14252      54595F5F 
 14253              	.LASF399:
 14254 694c 55494E54 		.ascii	"UINT_LEAST64_MAX __UINT_LEAST64_MAX__\000"
 14254      5F4C4541 
 14254      53543634 
 14254      5F4D4158 
 14254      205F5F55 
 14255              	.LASF393:
 14256 6972 55494E54 		.ascii	"UINT_LEAST32_MAX __UINT_LEAST32_MAX__\000"
 14256      5F4C4541 
 14256      53543332 
 14256      5F4D4158 
 14256      205F5F55 
 14257              	.LASF869:
 14258 6998 4932435F 		.ascii	"I2C_STA_STO_RECV 0x20\000"
 14258      5354415F 
 14258      53544F5F 
 14258      52454356 
 14258      20307832 
 14259              	.LASF738:
 14260 69ae 55415254 		.ascii	"UART_LCR_PARITY_EVEN (1 << 4)\000"
 14260      5F4C4352 
 14260      5F504152 
 14260      4954595F 
 14260      4556454E 
 14261              	.LASF1064:
 14262 69cc 53544152 		.ascii	"STARTERP0\000"
 14262      54455250 
 14262      3000
ARM GAS  /var/folders/f9/8bk2lnw15zn4cbgn6wrnb4lm0000gn/T//ccCGlkPS.s 			page 348


 14263              	.LASF1068:
 14264 69d6 53544152 		.ascii	"STARTERP1\000"
 14264      54455250 
 14264      3100
 14265              	.LASF477:
 14266 69e0 5F5F494F 		.ascii	"__IO volatile\000"
 14266      20766F6C 
 14266      6174696C 
 14266      6500
 14267              	.LASF654:
 14268 69ee 4D445F50 		.ascii	"MD_PDN (0x1 << 3)\000"
 14268      444E2028 
 14268      30783120 
 14268      3C3C2033 
 14268      2900
 14269              	.LASF695:
 14270 6a00 55415254 		.ascii	"UART_DLM_MASKBIT (0xFF)\000"
 14270      5F444C4D 
 14270      5F4D4153 
 14270      4B424954 
 14270      20283078 
 14271              	.LASF868:
 14272 6a18 5245545F 		.ascii	"RET_SLAVE_BUSY 0\000"
 14272      534C4156 
 14272      455F4255 
 14272      53592030 
 14272      00
 14273              	.LASF18:
 14274 6a29 5F5F5349 		.ascii	"__SIZEOF_FLOAT__ 4\000"
 14274      5A454F46 
 14274      5F464C4F 
 14274      41545F5F 
 14274      203400
 14275              	.LASF425:
 14276 6a3c 55494E54 		.ascii	"UINT8_C(x) __UINT8_C(x)\000"
 14276      385F4328 
 14276      7829205F 
 14276      5F55494E 
 14276      54385F43 
 14277              	.LASF67:
 14278 6a54 5F5F5348 		.ascii	"__SHRT_MAX__ 32767\000"
 14278      52545F4D 
 14278      41585F5F 
 14278      20333237 
 14278      363700
 14279              	.LASF551:
 14280 6a67 53797354 		.ascii	"SysTick ((SysTick_Type *) SysTick_BASE )\000"
 14280      69636B20 
 14280      28285379 
 14280      73546963 
 14280      6B5F5479 
 14281              	.LASF140:
 14282 6a90 5F5F4442 		.ascii	"__DBL_DECIMAL_DIG__ 17\000"
 14282      4C5F4445 
 14282      43494D41 
 14282      4C5F4449 
 14282      475F5F20 
ARM GAS  /var/folders/f9/8bk2lnw15zn4cbgn6wrnb4lm0000gn/T//ccCGlkPS.s 			page 349


 14283              	.LASF492:
 14284 6aa7 5343425F 		.ascii	"SCB_ICSR_PENDSVCLR_Pos 27\000"
 14284      49435352 
 14284      5F50454E 
 14284      44535643 
 14284      4C525F50 
 14285              	.LASF360:
 14286 6ac1 5F5F6861 		.ascii	"__have_long32 1\000"
 14286      76655F6C 
 14286      6F6E6733 
 14286      32203100 
 14287              	.LASF379:
 14288 6ad1 494E545F 		.ascii	"INT_LEAST8_MIN (-__INT_LEAST8_MAX__ - 1)\000"
 14288      4C454153 
 14288      54385F4D 
 14288      494E2028 
 14288      2D5F5F49 
 14289              	.LASF103:
 14290 6afa 5F5F5549 		.ascii	"__UINT_LEAST32_MAX__ 4294967295UL\000"
 14290      4E545F4C 
 14290      45415354 
 14290      33325F4D 
 14290      41585F5F 
 14291              	.LASF248:
 14292 6b1c 5F5F554C 		.ascii	"__ULACCUM_FBIT__ 32\000"
 14292      41434355 
 14292      4D5F4642 
 14292      49545F5F 
 14292      20333200 
 14293              	.LASF510:
 14294 6b30 5343425F 		.ascii	"SCB_AIRCR_ENDIANESS_Pos 15\000"
 14294      41495243 
 14294      525F454E 
 14294      4449414E 
 14294      4553535F 
 14295              	.LASF619:
 14296 6b4b 53595343 		.ascii	"SYSCTL_SLPWAKE_WDTOSC_PD (1 << 6)\000"
 14296      544C5F53 
 14296      4C505741 
 14296      4B455F57 
 14296      44544F53 
 14297              	.LASF515:
 14298 6b6d 5343425F 		.ascii	"SCB_AIRCR_VECTCLRACTIVE_Msk (1UL << SCB_AIRCR_VECTC"
 14298      41495243 
 14298      525F5645 
 14298      4354434C 
 14298      52414354 
 14299 6ba0 4C524143 		.ascii	"LRACTIVE_Pos)\000"
 14299      54495645 
 14299      5F506F73 
 14299      2900
 14300              	.LASF367:
 14301 6bae 5F5F696E 		.ascii	"__int64_t_defined 1\000"
 14301      7436345F 
 14301      745F6465 
 14301      66696E65 
 14301      64203100 
ARM GAS  /var/folders/f9/8bk2lnw15zn4cbgn6wrnb4lm0000gn/T//ccCGlkPS.s 			page 350


 14302              	.LASF536:
 14303 6bc2 53797354 		.ascii	"SysTick_LOAD_RELOAD_Pos 0\000"
 14303      69636B5F 
 14303      4C4F4144 
 14303      5F52454C 
 14303      4F41445F 
 14304              	.LASF327:
 14305 6bdc 5F5F4152 		.ascii	"__ARMEL__ 1\000"
 14305      4D454C5F 
 14305      5F203100 
 14306              	.LASF1077:
 14307 6be8 52455345 		.ascii	"RESET_I2C0\000"
 14307      545F4932 
 14307      433000
 14308              	.LASF1114:
 14309 6bf3 5353505F 		.ascii	"SSP_STAT_TFE\000"
 14309      53544154 
 14309      5F544645 
 14309      00
 14310              	.LASF1058:
 14311 6c00 4E4D4953 		.ascii	"NMISRC\000"
 14311      524300
 14312              	.LASF69:
 14313 6c07 5F5F4C4F 		.ascii	"__LONG_MAX__ 2147483647L\000"
 14313      4E475F4D 
 14313      41585F5F 
 14313      20323134 
 14313      37343833 
 14314              	.LASF263:
 14315 6c20 5F5F5151 		.ascii	"__QQ_FBIT__ 7\000"
 14315      5F464249 
 14315      545F5F20 
 14315      3700
 14316              	.LASF939:
 14317 6c2e 4932435F 		.ascii	"I2C_ERR (0x10000000)\000"
 14317      45525220 
 14317      28307831 
 14317      30303030 
 14317      30303029 
 14318              	.LASF919:
 14319 6c43 4932435F 		.ascii	"I2C_I2DAT_IDLE_CHAR (0xFF)\000"
 14319      49324441 
 14319      545F4944 
 14319      4C455F43 
 14319      48415220 
 14320              	.LASF222:
 14321 6c5e 5F5F554C 		.ascii	"__ULLFRACT_EPSILON__ 0x1P-64ULLR\000"
 14321      4C465241 
 14321      43545F45 
 14321      5053494C 
 14321      4F4E5F5F 
 14322              	.LASF455:
 14323 6c7f 494E4C49 		.ascii	"INLINE inline\000"
 14323      4E452069 
 14323      6E6C696E 
 14323      6500
 14324              	.LASF522:
ARM GAS  /var/folders/f9/8bk2lnw15zn4cbgn6wrnb4lm0000gn/T//ccCGlkPS.s 			page 351


 14325 6c8d 5343425F 		.ascii	"SCB_CCR_STKALIGN_Pos 9\000"
 14325      4343525F 
 14325      53544B41 
 14325      4C49474E 
 14325      5F506F73 
 14326              	.LASF864:
 14327 6ca4 5F5F4932 		.ascii	"__I2C_11XX_H_ \000"
 14327      435F3131 
 14327      58585F48 
 14327      5F2000
 14328              	.LASF757:
 14329 6cb3 55415254 		.ascii	"UART_LSR_RXFE (1 << 7)\000"
 14329      5F4C5352 
 14329      5F525846 
 14329      45202831 
 14329      203C3C20 
 14330              	.LASF347:
 14331 6cca 5F5F474E 		.ascii	"__GNUC_PREREQ__(ma,mi) __GNUC_PREREQ(ma, mi)\000"
 14331      55435F50 
 14331      52455245 
 14331      515F5F28 
 14331      6D612C6D 
 14332              	.LASF558:
 14333 6cf7 4C50435F 		.ascii	"LPC_USART_BASE 0x40008000\000"
 14333      55534152 
 14333      545F4241 
 14333      53452030 
 14333      78343030 
 14334              	.LASF298:
 14335 6d11 5F5F5554 		.ascii	"__UTA_IBIT__ 64\000"
 14335      415F4942 
 14335      49545F5F 
 14335      20363400 
 14336              	.LASF259:
 14337 6d21 5F5F554C 		.ascii	"__ULLACCUM_IBIT__ 32\000"
 14337      4C414343 
 14337      554D5F49 
 14337      4249545F 
 14337      5F203332 
 14338              	.LASF471:
 14339 6d36 5F5F4650 		.ascii	"__FPU_USED 0\000"
 14339      555F5553 
 14339      45442030 
 14339      00
 14340              	.LASF203:
 14341 6d43 5F5F4C46 		.ascii	"__LFRACT_FBIT__ 31\000"
 14341      52414354 
 14341      5F464249 
 14341      545F5F20 
 14341      333100
 14342              	.LASF1129:
 14343 6d56 5353505F 		.ascii	"SSP_RTIC\000"
 14343      52544943 
 14343      00
 14344              	.LASF1046:
 14345 6d5f 57445443 		.ascii	"WDTCLKDIV\000"
 14345      4C4B4449 
ARM GAS  /var/folders/f9/8bk2lnw15zn4cbgn6wrnb4lm0000gn/T//ccCGlkPS.s 			page 352


 14345      5600
 14346              	.LASF465:
 14347 6d69 5F5F434D 		.ascii	"__CM0_CMSIS_VERSION_SUB (0x01)\000"
 14347      305F434D 
 14347      5349535F 
 14347      56455253 
 14347      494F4E5F 
 14348              	.LASF317:
 14349 6d88 5F5F5349 		.ascii	"__SIZEOF_WINT_T__ 4\000"
 14349      5A454F46 
 14349      5F57494E 
 14349      545F545F 
 14349      5F203400 
 14350              	.LASF602:
 14351 6d9c 504D555F 		.ascii	"PMU_PCON_DPDFLAG (1 << 11)\000"
 14351      50434F4E 
 14351      5F445044 
 14351      464C4147 
 14351      20283120 
 14352              	.LASF529:
 14353 6db7 53797354 		.ascii	"SysTick_CTRL_COUNTFLAG_Msk (1UL << SysTick_CTRL_COU"
 14353      69636B5F 
 14353      4354524C 
 14353      5F434F55 
 14353      4E54464C 
 14354 6dea 4E54464C 		.ascii	"NTFLAG_Pos)\000"
 14354      41475F50 
 14354      6F732900 
 14355              	.LASF215:
 14356 6df6 5F5F4C4C 		.ascii	"__LLFRACT_MIN__ (-0.5LLR-0.5LLR)\000"
 14356      46524143 
 14356      545F4D49 
 14356      4E5F5F20 
 14356      282D302E 
 14357              	.LASF1016:
 14358 6e17 55534250 		.ascii	"USBPLLCTRL\000"
 14358      4C4C4354 
 14358      524C00
 14359              	.LASF1065:
 14360 6e22 53544152 		.ascii	"STARTRSRP0CLR\000"
 14360      54525352 
 14360      5030434C 
 14360      5200
 14361              	.LASF1015:
 14362 6e30 53595350 		.ascii	"SYSPLLSTAT\000"
 14362      4C4C5354 
 14362      415400
 14363              	.LASF245:
 14364 6e3b 5F5F4C41 		.ascii	"__LACCUM_MIN__ (-0X1P31LK-0X1P31LK)\000"
 14364      4343554D 
 14364      5F4D494E 
 14364      5F5F2028 
 14364      2D305831 
 14365              	.LASF578:
 14366 6e5f 4941505F 		.ascii	"IAP_ENTRY_LOCATION 0X1FFF1FF1\000"
 14366      454E5452 
 14366      595F4C4F 
ARM GAS  /var/folders/f9/8bk2lnw15zn4cbgn6wrnb4lm0000gn/T//ccCGlkPS.s 			page 353


 14366      43415449 
 14366      4F4E2030 
 14367              	.LASF336:
 14368 6e7d 5F5F4152 		.ascii	"__ARM_EABI__ 1\000"
 14368      4D5F4541 
 14368      42495F5F 
 14368      203100
 14369              	.LASF1005:
 14370 6e8c 496E7453 		.ascii	"IntStatus\000"
 14370      74617475 
 14370      7300
 14371              	.LASF144:
 14372 6e96 5F5F4442 		.ascii	"__DBL_DENORM_MIN__ ((double)4.9406564584124654e-324"
 14372      4C5F4445 
 14372      4E4F524D 
 14372      5F4D494E 
 14372      5F5F2028 
 14373 6ec9 4C2900   		.ascii	"L)\000"
 14374              	.LASF1036:
 14375 6ecc 53535030 		.ascii	"SSP0CLKDIV\000"
 14375      434C4B44 
 14375      495600
 14376              	.LASF1189:
 14377 6ed7 43686970 		.ascii	"Chip_SSP_Set_Mode\000"
 14377      5F535350 
 14377      5F536574 
 14377      5F4D6F64 
 14377      6500
 14378              	.LASF564:
 14379 6ee9 4C50435F 		.ascii	"LPC_DAC_BASE 0x40024000\000"
 14379      4441435F 
 14379      42415345 
 14379      20307834 
 14379      30303234 
 14380              	.LASF828:
 14381 6f01 5353505F 		.ascii	"SSP_CR1_SO_DISABLE ((uint32_t) (1 << 3))\000"
 14381      4352315F 
 14381      534F5F44 
 14381      49534142 
 14381      4C452028 
 14382              	.LASF820:
 14383 6f2a 5353505F 		.ascii	"SSP_CR0_CPHA_FIRST ((uint32_t) (0))\000"
 14383      4352305F 
 14383      43504841 
 14383      5F464952 
 14383      53542028 
 14384              	.LASF447:
 14385 6f4e 5F424954 		.ascii	"_BITMASK(field_width) ( _BIT(field_width) - 1)\000"
 14385      4D41534B 
 14385      28666965 
 14385      6C645F77 
 14385      69647468 
 14386              	.LASF608:
 14387 6f7d 53595343 		.ascii	"SYSCTL_RST_BOD (1 << 3)\000"
 14387      544C5F52 
 14387      53545F42 
 14387      4F442028 
ARM GAS  /var/folders/f9/8bk2lnw15zn4cbgn6wrnb4lm0000gn/T//ccCGlkPS.s 			page 354


 14387      31203C3C 
 14388              	.LASF1177:
 14389 6f95 43686970 		.ascii	"Chip_SSP_GetStatus\000"
 14389      5F535350 
 14389      5F476574 
 14389      53746174 
 14389      757300
 14390              	.LASF45:
 14391 6fa8 5F5F5549 		.ascii	"__UINT32_TYPE__ long unsigned int\000"
 14391      4E543332 
 14391      5F545950 
 14391      455F5F20 
 14391      6C6F6E67 
 14392              	.LASF374:
 14393 6fca 494E5450 		.ascii	"INTPTR_MAX __INTPTR_MAX__\000"
 14393      54525F4D 
 14393      4158205F 
 14393      5F494E54 
 14393      5054525F 
 14394              	.LASF604:
 14395 6fe4 5F5F5359 		.ascii	"__SYSCTL_11XX_H_ \000"
 14395      5343544C 
 14395      5F313158 
 14395      585F485F 
 14395      2000
 14396              	.LASF340:
 14397 6ff6 434F5245 		.ascii	"CORE_M0 1\000"
 14397      5F4D3020 
 14397      3100
 14398              	.LASF866:
 14399 7000 5245545F 		.ascii	"RET_SLAVE_RX 5\000"
 14399      534C4156 
 14399      455F5258 
 14399      203500
 14400              	.LASF675:
 14401 700f 5F5F5449 		.ascii	"__TIMER_11XX_H_ \000"
 14401      4D45525F 
 14401      31315858 
 14401      5F485F20 
 14401      00
 14402              	.LASF563:
 14403 7020 4C50435F 		.ascii	"LPC_ADC_BASE 0x4001C000\000"
 14403      4144435F 
 14403      42415345 
 14403      20307834 
 14403      30303143 
 14404              	.LASF147:
 14405 7038 5F5F4442 		.ascii	"__DBL_HAS_QUIET_NAN__ 1\000"
 14405      4C5F4841 
 14405      535F5155 
 14405      4945545F 
 14405      4E414E5F 
 14406              	.LASF667:
 14407 7050 46554E43 		.ascii	"FUNC0 0x0\000"
 14407      30203078 
 14407      3000
 14408              	.LASF960:
ARM GAS  /var/folders/f9/8bk2lnw15zn4cbgn6wrnb4lm0000gn/T//ccCGlkPS.s 			page 355


 14409 705a 53444F5F 		.ascii	"SDO_ABORT_SDOTIMEOUT 0x05040000UL\000"
 14409      41424F52 
 14409      545F5344 
 14409      4F54494D 
 14409      454F5554 
 14410              	.LASF762:
 14411 707c 55415254 		.ascii	"UART_MSR_DELTA_DSR (1 << 1)\000"
 14411      5F4D5352 
 14411      5F44454C 
 14411      54415F44 
 14411      53522028 
 14412              	.LASF220:
 14413 7098 5F5F554C 		.ascii	"__ULLFRACT_MIN__ 0.0ULLR\000"
 14413      4C465241 
 14413      43545F4D 
 14413      494E5F5F 
 14413      20302E30 
 14414              	.LASF1202:
 14415 70b1 72657365 		.ascii	"resetSSP\000"
 14415      74535350 
 14415      00
 14416              	.LASF609:
 14417 70ba 53595343 		.ascii	"SYSCTL_RST_SYSRST (1 << 4)\000"
 14417      544C5F52 
 14417      53545F53 
 14417      59535253 
 14417      54202831 
 14418              	.LASF613:
 14419 70d5 53595343 		.ascii	"SYSCTL_SLPWAKE_IRCOUT_PD (1 << 0)\000"
 14419      544C5F53 
 14419      4C505741 
 14419      4B455F49 
 14419      52434F55 
 14420              	.LASF582:
 14421 70f7 4C50435F 		.ascii	"LPC_USART ((LPC_USART_T *) LPC_USART_BASE)\000"
 14421      55534152 
 14421      54202828 
 14421      4C50435F 
 14421      55534152 
 14422              	.LASF280:
 14423 7122 5F5F5544 		.ascii	"__UDQ_IBIT__ 0\000"
 14423      515F4942 
 14423      49545F5F 
 14423      203000
 14424              	.LASF14:
 14425 7131 5F5F5349 		.ascii	"__SIZEOF_INT__ 4\000"
 14425      5A454F46 
 14425      5F494E54 
 14425      5F5F2034 
 14425      00
 14426              	.LASF214:
 14427 7142 5F5F4C4C 		.ascii	"__LLFRACT_IBIT__ 0\000"
 14427      46524143 
 14427      545F4942 
 14427      49545F5F 
 14427      203000
 14428              	.LASF427:
ARM GAS  /var/folders/f9/8bk2lnw15zn4cbgn6wrnb4lm0000gn/T//ccCGlkPS.s 			page 356


 14429 7155 55494E54 		.ascii	"UINT16_C(x) __UINT16_C(x)\000"
 14429      31365F43 
 14429      28782920 
 14429      5F5F5549 
 14429      4E543136 
 14430              	.LASF916:
 14431 716f 4932435F 		.ascii	"I2C_I2STAT_S_TX_LAST_DAT_ACK ((0xC8))\000"
 14431      49325354 
 14431      41545F53 
 14431      5F54585F 
 14431      4C415354 
 14432              	.LASF1096:
 14433 7195 53595343 		.ascii	"SYSCTL_CLOCK_CT16B0\000"
 14433      544C5F43 
 14433      4C4F434B 
 14433      5F435431 
 14433      36423000 
 14434              	.LASF1002:
 14435 71a9 75696E74 		.ascii	"uint32_t\000"
 14435      33325F74 
 14435      00
 14436              	.LASF1081:
 14437 71b2 52455345 		.ascii	"RESET_TIMER0_16\000"
 14437      545F5449 
 14437      4D455230 
 14437      5F313600 
 14438              	.LASF790:
 14439 71c2 55415254 		.ascii	"UART_SCICTRL_NACKDIS (1 << 1)\000"
 14439      5F534349 
 14439      4354524C 
 14439      5F4E4143 
 14439      4B444953 
 14440              	.LASF735:
 14441 71e0 55415254 		.ascii	"UART_LCR_PARITY_EN (1 << 3)\000"
 14441      5F4C4352 
 14441      5F504152 
 14441      4954595F 
 14441      454E2028 
 14442              	.LASF1066:
 14443 71fc 53544152 		.ascii	"STARTSRP0\000"
 14443      54535250 
 14443      3000
 14444              	.LASF227:
 14445 7206 5F5F5341 		.ascii	"__SACCUM_EPSILON__ 0x1P-7HK\000"
 14445      4343554D 
 14445      5F455053 
 14445      494C4F4E 
 14445      5F5F2030 
 14446              	.LASF601:
 14447 7222 504D555F 		.ascii	"PMU_PCON_SLEEPFLAG (1 << 8)\000"
 14447      50434F4E 
 14447      5F534C45 
 14447      4550464C 
 14447      41472028 
 14448              	.LASF356:
 14449 723e 5F5F5F69 		.ascii	"___int_least64_t_defined 1\000"
 14449      6E745F6C 
ARM GAS  /var/folders/f9/8bk2lnw15zn4cbgn6wrnb4lm0000gn/T//ccCGlkPS.s 			page 357


 14449      65617374 
 14449      36345F74 
 14449      5F646566 
 14450              	.LASF595:
 14451 7259 4C50435F 		.ascii	"LPC_USB ((LPC_USB_T *) LPC_USB0_BASE)\000"
 14451      55534220 
 14451      28284C50 
 14451      435F5553 
 14451      425F5420 
 14452              	.LASF1210:
 14453 727f 43686970 		.ascii	"Chip_SSP_RWFrames_Blocking\000"
 14453      5F535350 
 14453      5F525746 
 14453      72616D65 
 14453      735F426C 
 14454              	.LASF693:
 14455 729a 55415254 		.ascii	"UART_DLL_MASKBIT (0xFF)\000"
 14455      5F444C4C 
 14455      5F4D4153 
 14455      4B424954 
 14455      20283078 
 14456              	.LASF1192:
 14457 72b2 72446174 		.ascii	"rDat\000"
 14457      00
 14458              	.LASF461:
 14459 72b7 5F5F4E56 		.ascii	"__NVIC_PRIO_BITS 2\000"
 14459      49435F50 
 14459      52494F5F 
 14459      42495453 
 14459      203200
 14460              	.LASF1193:
 14461 72ca 73737043 		.ascii	"sspCLK\000"
 14461      4C4B00
 14462              	.LASF1201:
 14463 72d1 43686970 		.ascii	"Chip_SSP_GetResetIndex\000"
 14463      5F535350 
 14463      5F476574 
 14463      52657365 
 14463      74496E64 
 14464              	.LASF543:
 14465 72e8 53797354 		.ascii	"SysTick_CALIB_SKEW_Msk (1UL << SysTick_CALIB_SKEW_P"
 14465      69636B5F 
 14465      43414C49 
 14465      425F534B 
 14465      45575F4D 
 14466 731b 6F732900 		.ascii	"os)\000"
 14467              	.LASF292:
 14468 731f 5F5F5548 		.ascii	"__UHA_IBIT__ 8\000"
 14468      415F4942 
 14468      49545F5F 
 14468      203800
 14469              	.LASF928:
 14470 732e 4932435F 		.ascii	"I2C_I2SCLH_BITMASK ((0xFFFF))\000"
 14470      49325343 
 14470      4C485F42 
 14470      49544D41 
 14470      534B2028 
ARM GAS  /var/folders/f9/8bk2lnw15zn4cbgn6wrnb4lm0000gn/T//ccCGlkPS.s 			page 358


 14471              	.LASF237:
 14472 734c 5F5F4143 		.ascii	"__ACCUM_EPSILON__ 0x1P-15K\000"
 14472      43554D5F 
 14472      45505349 
 14472      4C4F4E5F 
 14472      5F203078 
 14473              	.LASF252:
 14474 7367 5F5F554C 		.ascii	"__ULACCUM_EPSILON__ 0x1P-32ULK\000"
 14474      41434355 
 14474      4D5F4550 
 14474      53494C4F 
 14474      4E5F5F20 
 14475              	.LASF149:
 14476 7386 5F5F4C44 		.ascii	"__LDBL_DIG__ 15\000"
 14476      424C5F44 
 14476      49475F5F 
 14476      20313500 
 14477              	.LASF1020:
 14478 7396 5744544F 		.ascii	"WDTOSCCTRL\000"
 14478      53434354 
 14478      524C00
 14479              	.LASF751:
 14480 73a1 55415254 		.ascii	"UART_LSR_OE (1 << 1)\000"
 14480      5F4C5352 
 14480      5F4F4520 
 14480      2831203C 
 14480      3C203129 
 14481              	.LASF921:
 14482 73b6 4932435F 		.ascii	"I2C_I2MMCTRL_ENA_SCL ((1 << 1))\000"
 14482      49324D4D 
 14482      4354524C 
 14482      5F454E41 
 14482      5F53434C 
 14483              	.LASF1050:
 14484 73d6 434C4B4F 		.ascii	"CLKOUTDIV\000"
 14484      55544449 
 14484      5600
 14485              	.LASF74:
 14486 73e0 5F5F5749 		.ascii	"__WINT_MIN__ 0U\000"
 14486      4E545F4D 
 14486      494E5F5F 
 14486      20305500 
 14487              	.LASF1131:
 14488 73f0 5353505F 		.ascii	"SSP_INTCLEAR_T\000"
 14488      494E5443 
 14488      4C454152 
 14488      5F5400
 14489              	.LASF174:
 14490 73ff 5F5F4445 		.ascii	"__DEC64_EPSILON__ 1E-15DD\000"
 14490      4336345F 
 14490      45505349 
 14490      4C4F4E5F 
 14490      5F203145 
 14491              	.LASF953:
 14492 7419 43414E5F 		.ascii	"CAN_ERROR_BIT0 0x00000080UL\000"
 14492      4552524F 
 14492      525F4249 
ARM GAS  /var/folders/f9/8bk2lnw15zn4cbgn6wrnb4lm0000gn/T//ccCGlkPS.s 			page 359


 14492      54302030 
 14492      78303030 
 14493              	.LASF405:
 14494 7435 55494E54 		.ascii	"UINT_FAST16_MAX __UINT_FAST16_MAX__\000"
 14494      5F464153 
 14494      5431365F 
 14494      4D415820 
 14494      5F5F5549 
 14495              	.LASF48:
 14496 7459 5F5F494E 		.ascii	"__INT_LEAST16_TYPE__ short int\000"
 14496      545F4C45 
 14496      41535431 
 14496      365F5459 
 14496      50455F5F 
 14497              	.LASF1038:
 14498 7478 53535031 		.ascii	"SSP1CLKDIV\000"
 14498      434C4B44 
 14498      495600
 14499              	.LASF614:
 14500 7483 53595343 		.ascii	"SYSCTL_SLPWAKE_IRC_PD (1 << 1)\000"
 14500      544C5F53 
 14500      4C505741 
 14500      4B455F49 
 14500      52435F50 
 14501              	.LASF141:
 14502 74a2 5F5F4442 		.ascii	"__DBL_MAX__ ((double)1.7976931348623157e+308L)\000"
 14502      4C5F4D41 
 14502      585F5F20 
 14502      2828646F 
 14502      75626C65 
 14503              	.LASF994:
 14504 74d1 73686F72 		.ascii	"short unsigned int\000"
 14504      7420756E 
 14504      7369676E 
 14504      65642069 
 14504      6E7400
 14505              	.LASF213:
 14506 74e4 5F5F4C4C 		.ascii	"__LLFRACT_FBIT__ 63\000"
 14506      46524143 
 14506      545F4642 
 14506      49545F5F 
 14506      20363300 
 14507              	.LASF479:
 14508 74f8 5343425F 		.ascii	"SCB_CPUID_IMPLEMENTER_Msk (0xFFUL << SCB_CPUID_IMPL"
 14508      43505549 
 14508      445F494D 
 14508      504C454D 
 14508      454E5445 
 14509 752b 454D454E 		.ascii	"EMENTER_Pos)\000"
 14509      5445525F 
 14509      506F7329 
 14509      00
 14510              	.LASF325:
 14511 7538 5F5F7468 		.ascii	"__thumb__ 1\000"
 14511      756D625F 
 14511      5F203100 
 14512              	.LASF852:
ARM GAS  /var/folders/f9/8bk2lnw15zn4cbgn6wrnb4lm0000gn/T//ccCGlkPS.s 			page 360


 14513 7544 4144435F 		.ascii	"ADC_CR_PDN ((1UL << 21))\000"
 14513      43525F50 
 14513      444E2028 
 14513      2831554C 
 14513      203C3C20 
 14514              	.LASF404:
 14515 755d 494E545F 		.ascii	"INT_FAST16_MAX __INT_FAST16_MAX__\000"
 14515      46415354 
 14515      31365F4D 
 14515      4158205F 
 14515      5F494E54 
 14516              	.LASF112:
 14517 757f 5F5F5549 		.ascii	"__UINT_FAST16_MAX__ 4294967295U\000"
 14517      4E545F46 
 14517      41535431 
 14517      365F4D41 
 14517      585F5F20 
 14518              	.LASF805:
 14519 759f 55415254 		.ascii	"UART_SYNCCTRL_CCCLR (1 << 6)\000"
 14519      5F53594E 
 14519      43435452 
 14519      4C5F4343 
 14519      434C5220 
 14520              	.LASF265:
 14521 75bc 5F5F4851 		.ascii	"__HQ_FBIT__ 15\000"
 14521      5F464249 
 14521      545F5F20 
 14521      313500
 14522              	.LASF439:
 14523 75cb 5F5F626F 		.ascii	"__bool_true_false_are_defined 1\000"
 14523      6F6C5F74 
 14523      7275655F 
 14523      66616C73 
 14523      655F6172 
 14524              	.LASF918:
 14525 75eb 4932435F 		.ascii	"I2C_I2DAT_BITMASK ((0xFF))\000"
 14525      49324441 
 14525      545F4249 
 14525      544D4153 
 14525      4B202828 
 14526              	.LASF904:
 14527 7606 4932435F 		.ascii	"I2C_I2STAT_S_RX_ARB_LOST_M_SLA ((0x68))\000"
 14527      49325354 
 14527      41545F53 
 14527      5F52585F 
 14527      4152425F 
 14528              	.LASF514:
 14529 762e 5343425F 		.ascii	"SCB_AIRCR_VECTCLRACTIVE_Pos 1\000"
 14529      41495243 
 14529      525F5645 
 14529      4354434C 
 14529      52414354 
 14530              	.LASF924:
 14531 764c 49324441 		.ascii	"I2DATA_BUFFER_BITMASK ((0xFF))\000"
 14531      54415F42 
 14531      55464645 
 14531      525F4249 
ARM GAS  /var/folders/f9/8bk2lnw15zn4cbgn6wrnb4lm0000gn/T//ccCGlkPS.s 			page 361


 14531      544D4153 
 14532              	.LASF1228:
 14533 766b 636D705F 		.ascii	"cmp_clk\000"
 14533      636C6B00 
 14534              	.LASF459:
 14535 7673 5F5F434D 		.ascii	"__CMSIS_11CXX_H_ \000"
 14535      5349535F 
 14535      31314358 
 14535      585F485F 
 14535      2000
 14536              	.LASF965:
 14537 7685 53444F5F 		.ascii	"SDO_ABORT_NOT_EXISTS 0x06020000UL\000"
 14537      41424F52 
 14537      545F4E4F 
 14537      545F4558 
 14537      49535453 
 14538              	.LASF1211:
 14539 76a7 43686970 		.ascii	"Chip_SSP_WriteFrames_Blocking\000"
 14539      5F535350 
 14539      5F577269 
 14539      74654672 
 14539      616D6573 
 14540              	.LASF785:
 14541 76c5 55415254 		.ascii	"UART_ICR_FIXPULSE_EN (1 << 2)\000"
 14541      5F494352 
 14541      5F464958 
 14541      50554C53 
 14541      455F454E 
 14542              	.LASF184:
 14543 76e3 5F5F5346 		.ascii	"__SFRACT_IBIT__ 0\000"
 14543      52414354 
 14543      5F494249 
 14543      545F5F20 
 14543      3000
 14544              	.LASF474:
 14545 76f5 5F5F434F 		.ascii	"__CORE_CM0_H_DEPENDANT \000"
 14545      52455F43 
 14545      4D305F48 
 14545      5F444550 
 14545      454E4441 
 14546              	.LASF362:
 14547 770d 5F5F696E 		.ascii	"__int_least8_t_defined 1\000"
 14547      745F6C65 
 14547      61737438 
 14547      5F745F64 
 14547      6566696E 
 14548              	.LASF1145:
 14549 7726 43484950 		.ascii	"CHIP_SSP_BITS\000"
 14549      5F535350 
 14549      5F424954 
 14549      5300
 14550              	.LASF875:
 14551 7734 4932435F 		.ascii	"I2C_I2CONCLR_AAC ((1 << 2))\000"
 14551      4932434F 
 14551      4E434C52 
 14551      5F414143 
 14551      20282831 
ARM GAS  /var/folders/f9/8bk2lnw15zn4cbgn6wrnb4lm0000gn/T//ccCGlkPS.s 			page 362


 14552              	.LASF1124:
 14553 7750 5353505F 		.ascii	"SSP_TXRIS\000"
 14553      54585249 
 14553      5300
 14554              	.LASF524:
 14555 775a 5343425F 		.ascii	"SCB_CCR_UNALIGN_TRP_Pos 3\000"
 14555      4343525F 
 14555      554E414C 
 14555      49474E5F 
 14555      5452505F 
 14556              	.LASF1195:
 14557 7774 70726573 		.ascii	"prescale\000"
 14557      63616C65 
 14557      00
 14558              	.LASF690:
 14559 777d 52425F56 		.ascii	"RB_VTAIL(rb) (*(volatile uint32_t *) &(rb)->tail)\000"
 14559      5441494C 
 14559      28726229 
 14559      20282A28 
 14559      766F6C61 
 14560              	.LASF1055:
 14561 77af 53595354 		.ascii	"SYSTCKCAL\000"
 14561      434B4341 
 14561      4C00
 14562              	.LASF830:
 14563 77b9 5353505F 		.ascii	"SSP_CPSR_BITMASK ((uint32_t) (0xFF))\000"
 14563      43505352 
 14563      5F424954 
 14563      4D41534B 
 14563      20282875 
 14564              	.LASF30:
 14565 77de 5F5F5349 		.ascii	"__SIZE_TYPE__ unsigned int\000"
 14565      5A455F54 
 14565      5950455F 
 14565      5F20756E 
 14565      7369676E 
 14566              	.LASF34:
 14567 77f9 5F5F494E 		.ascii	"__INTMAX_TYPE__ long long int\000"
 14567      544D4158 
 14567      5F545950 
 14567      455F5F20 
 14567      6C6F6E67 
 14568              	.LASF804:
 14569 7817 55415254 		.ascii	"UART_SYNCCTRL_STARTSTOPDISABLE (1 << 5)\000"
 14569      5F53594E 
 14569      43435452 
 14569      4C5F5354 
 14569      41525453 
 14570              	.LASF1040:
 14571 783f 55534243 		.ascii	"USBCLKSEL\000"
 14571      4C4B5345 
 14571      4C00
 14572              	.LASF971:
 14573 7849 53444F5F 		.ascii	"SDO_ABORT_TRANSFER 0x08000020UL\000"
 14573      41424F52 
 14573      545F5452 
 14573      414E5346 
ARM GAS  /var/folders/f9/8bk2lnw15zn4cbgn6wrnb4lm0000gn/T//ccCGlkPS.s 			page 363


 14573      45522030 
 14574              	.LASF186:
 14575 7869 5F5F5346 		.ascii	"__SFRACT_MAX__ 0X7FP-7HR\000"
 14575      52414354 
 14575      5F4D4158 
 14575      5F5F2030 
 14575      58374650 
 14576              	.LASF686:
 14577 7882 54494D45 		.ascii	"TIMER_INT_ON_CAP(n) (_BIT((((n) * 3) + 2)))\000"
 14577      525F494E 
 14577      545F4F4E 
 14577      5F434150 
 14577      286E2920 
 14578              	.LASF948:
 14579 78ae 43414E5F 		.ascii	"CAN_ERROR_BOFF 0x00000004UL\000"
 14579      4552524F 
 14579      525F424F 
 14579      46462030 
 14579      78303030 
 14580              	.LASF1196:
 14581 78ca 74656D70 		.ascii	"temp\000"
 14581      00
 14582              	.LASF829:
 14583 78cf 5353505F 		.ascii	"SSP_CR1_BITMASK ((uint32_t) (0x0F))\000"
 14583      4352315F 
 14583      4249544D 
 14583      41534B20 
 14583      28287569 
 14584              	.LASF778:
 14585 78f3 55415254 		.ascii	"UART_RS485CTRL_AADEN (1 << 2)\000"
 14585      5F525334 
 14585      38354354 
 14585      524C5F41 
 14585      4144454E 
 14586              	.LASF94:
 14587 7911 5F5F494E 		.ascii	"__INT16_C(c) c\000"
 14587      5431365F 
 14587      43286329 
 14587      206300
 14588              	.LASF1083:
 14589 7920 52455345 		.ascii	"RESET_TIMER0_32\000"
 14589      545F5449 
 14589      4D455230 
 14589      5F333200 
 14590              	.LASF288:
 14591 7930 5F5F4441 		.ascii	"__DA_IBIT__ 32\000"
 14591      5F494249 
 14591      545F5F20 
 14591      333200
 14592              	.LASF951:
 14593 793f 43414E5F 		.ascii	"CAN_ERROR_ACK 0x00000020UL\000"
 14593      4552524F 
 14593      525F4143 
 14593      4B203078 
 14593      30303030 
 14594              	.LASF1207:
 14595 795a 636C6F63 		.ascii	"clockMode\000"
ARM GAS  /var/folders/f9/8bk2lnw15zn4cbgn6wrnb4lm0000gn/T//ccCGlkPS.s 			page 364


 14595      6B4D6F64 
 14595      6500
 14596              	.LASF170:
 14597 7964 5F5F4445 		.ascii	"__DEC64_MIN_EXP__ (-382)\000"
 14597      4336345F 
 14597      4D494E5F 
 14597      4558505F 
 14597      5F20282D 
 14598              	.LASF517:
 14599 797d 5343425F 		.ascii	"SCB_SCR_SEVONPEND_Msk (1UL << SCB_SCR_SEVONPEND_Pos"
 14599      5343525F 
 14599      5345564F 
 14599      4E50454E 
 14599      445F4D73 
 14600 79b0 2900     		.ascii	")\000"
 14601              	.LASF711:
 14602 79b2 55415254 		.ascii	"UART_IIR_INTID_MASK (7 << 1)\000"
 14602      5F494952 
 14602      5F494E54 
 14602      49445F4D 
 14602      41534B20 
 14603              	.LASF10:
 14604 79cf 5F5F4154 		.ascii	"__ATOMIC_ACQ_REL 4\000"
 14604      4F4D4943 
 14604      5F414351 
 14604      5F52454C 
 14604      203400
 14605              	.LASF41:
 14606 79e2 5F5F494E 		.ascii	"__INT32_TYPE__ long int\000"
 14606      5433325F 
 14606      54595045 
 14606      5F5F206C 
 14606      6F6E6720 
 14607              	.LASF341:
 14608 79fa 5F5F4348 		.ascii	"__CHIP_H_ \000"
 14608      49505F48 
 14608      5F2000
 14609              	.LASF137:
 14610 7a05 5F5F4442 		.ascii	"__DBL_MIN_10_EXP__ (-307)\000"
 14610      4C5F4D49 
 14610      4E5F3130 
 14610      5F455850 
 14610      5F5F2028 
 14611              	.LASF838:
 14612 7a1f 5353505F 		.ascii	"SSP_SLAVE_MODE SSP_CR1_SLAVE_EN\000"
 14612      534C4156 
 14612      455F4D4F 
 14612      44452053 
 14612      53505F43 
 14613              	.LASF509:
 14614 7a3f 5343425F 		.ascii	"SCB_AIRCR_VECTKEYSTAT_Msk (0xFFFFUL << SCB_AIRCR_VE"
 14614      41495243 
 14614      525F5645 
 14614      43544B45 
 14614      59535441 
 14615 7a72 43544B45 		.ascii	"CTKEYSTAT_Pos)\000"
 14615      59535441 
ARM GAS  /var/folders/f9/8bk2lnw15zn4cbgn6wrnb4lm0000gn/T//ccCGlkPS.s 			page 365


 14615      545F506F 
 14615      732900
 14616              	.LASF605:
 14617 7a81 53595343 		.ascii	"SYSCTL_RST_POR (1 << 0)\000"
 14617      544C5F52 
 14617      53545F50 
 14617      4F522028 
 14617      31203C3C 
 14618              	.LASF674:
 14619 7a99 46554E43 		.ascii	"FUNC7 0x7\000"
 14619      37203078 
 14619      3700
 14620              	.LASF1076:
 14621 7aa3 52455345 		.ascii	"RESET_SSP0\000"
 14621      545F5353 
 14621      503000
 14622              	.LASF1078:
 14623 7aae 52455345 		.ascii	"RESET_SSP1\000"
 14623      545F5353 
 14623      503100
 14624              	.LASF87:
 14625 7ab9 5F5F5549 		.ascii	"__UINT8_MAX__ 255\000"
 14625      4E54385F 
 14625      4D41585F 
 14625      5F203235 
 14625      3500
 14626              	.LASF768:
 14627 7acb 55415254 		.ascii	"UART_MSR_DCD (1 << 7)\000"
 14627      5F4D5352 
 14627      5F444344 
 14627      20283120 
 14627      3C3C2037 
 14628              	.LASF113:
 14629 7ae1 5F5F5549 		.ascii	"__UINT_FAST32_MAX__ 4294967295U\000"
 14629      4E545F46 
 14629      41535433 
 14629      325F4D41 
 14629      585F5F20 
 14630              	.LASF99:
 14631 7b01 5F5F5549 		.ascii	"__UINT_LEAST8_MAX__ 255\000"
 14631      4E545F4C 
 14631      45415354 
 14631      385F4D41 
 14631      585F5F20 
 14632              	.LASF1106:
 14633 7b19 53595343 		.ascii	"SYSCTL_CLOCK_CAN\000"
 14633      544C5F43 
 14633      4C4F434B 
 14633      5F43414E 
 14633      00
 14634              	.LASF134:
 14635 7b2a 5F5F4442 		.ascii	"__DBL_MANT_DIG__ 53\000"
 14635      4C5F4D41 
 14635      4E545F44 
 14635      49475F5F 
 14635      20353300 
 14636              	.LASF209:
ARM GAS  /var/folders/f9/8bk2lnw15zn4cbgn6wrnb4lm0000gn/T//ccCGlkPS.s 			page 366


 14637 7b3e 5F5F554C 		.ascii	"__ULFRACT_IBIT__ 0\000"
 14637      46524143 
 14637      545F4942 
 14637      49545F5F 
 14637      203000
 14638              	.LASF1161:
 14639 7b51 5353505F 		.ascii	"SSP_MODE_SLAVE\000"
 14639      4D4F4445 
 14639      5F534C41 
 14639      564500
 14640              	.LASF850:
 14641 7b60 4144435F 		.ascii	"ADC_CR_CLKDIV(n) ((((n) & 0xFF) << 8))\000"
 14641      43525F43 
 14641      4C4B4449 
 14641      56286E29 
 14641      20282828 
 14642              	.LASF680:
 14643 7b87 54494D45 		.ascii	"TIMER_RESET ((uint32_t) (1 << 1))\000"
 14643      525F5245 
 14643      53455420 
 14643      28287569 
 14643      6E743332 
 14644              	.LASF733:
 14645 7ba9 55415254 		.ascii	"UART_LCR_SBS_1BIT (0 << 2)\000"
 14645      5F4C4352 
 14645      5F534253 
 14645      5F314249 
 14645      54202830 
 14646              	.LASF200:
 14647 7bc4 5F5F5546 		.ascii	"__UFRACT_MIN__ 0.0UR\000"
 14647      52414354 
 14647      5F4D494E 
 14647      5F5F2030 
 14647      2E305552 
 14648              	.LASF50:
 14649 7bd9 5F5F494E 		.ascii	"__INT_LEAST64_TYPE__ long long int\000"
 14649      545F4C45 
 14649      41535436 
 14649      345F5459 
 14649      50455F5F 
 14650              	.LASF709:
 14651 7bfc 55415254 		.ascii	"UART_IIR_ABTO_INT (1 << 9)\000"
 14651      5F494952 
 14651      5F414254 
 14651      4F5F494E 
 14651      54202831 
 14652              	.LASF1146:
 14653 7c17 5353505F 		.ascii	"SSP_BITS_4\000"
 14653      42495453 
 14653      5F3400
 14654              	.LASF1120:
 14655 7c22 5F535350 		.ascii	"_SSP_RAWINTSTATUS\000"
 14655      5F524157 
 14655      494E5453 
 14655      54415455 
 14655      5300
 14656              	.LASF1148:
ARM GAS  /var/folders/f9/8bk2lnw15zn4cbgn6wrnb4lm0000gn/T//ccCGlkPS.s 			page 367


 14657 7c34 5353505F 		.ascii	"SSP_BITS_6\000"
 14657      42495453 
 14657      5F3600
 14658              	.LASF1149:
 14659 7c3f 5353505F 		.ascii	"SSP_BITS_7\000"
 14659      42495453 
 14659      5F3700
 14660              	.LASF1150:
 14661 7c4a 5353505F 		.ascii	"SSP_BITS_8\000"
 14661      42495453 
 14661      5F3800
 14662              	.LASF1151:
 14663 7c55 5353505F 		.ascii	"SSP_BITS_9\000"
 14663      42495453 
 14663      5F3900
 14664              	.LASF90:
 14665 7c60 5F5F5549 		.ascii	"__UINT64_MAX__ 18446744073709551615ULL\000"
 14665      4E543634 
 14665      5F4D4158 
 14665      5F5F2031 
 14665      38343436 
 14666              	.LASF765:
 14667 7c87 55415254 		.ascii	"UART_MSR_CTS (1 << 4)\000"
 14667      5F4D5352 
 14667      5F435453 
 14667      20283120 
 14667      3C3C2034 
 14668              	.LASF931:
 14669 7c9d 4932435F 		.ascii	"I2C_SETUP_STATUS_NOACKF (1 << 9)\000"
 14669      53455455 
 14669      505F5354 
 14669      41545553 
 14669      5F4E4F41 
 14670              		.ident	"GCC: (GNU Tools for ARM Embedded Processors) 4.8.4 20140725 (release) [ARM/embedded-4_8-br
ARM GAS  /var/folders/f9/8bk2lnw15zn4cbgn6wrnb4lm0000gn/T//ccCGlkPS.s 			page 368


DEFINED SYMBOLS
                            *ABS*:0000000000000000 ssp_11xx.c
/var/folders/f9/8bk2lnw15zn4cbgn6wrnb4lm0000gn/T//ccCGlkPS.s:67     .text.SSP_Read1BFifo:0000000000000000 $t
/var/folders/f9/8bk2lnw15zn4cbgn6wrnb4lm0000gn/T//ccCGlkPS.s:71     .text.SSP_Read1BFifo:0000000000000000 SSP_Read1BFifo
/var/folders/f9/8bk2lnw15zn4cbgn6wrnb4lm0000gn/T//ccCGlkPS.s:157    .text.Chip_SSP_SetClockRate:0000000000000000 $t
/var/folders/f9/8bk2lnw15zn4cbgn6wrnb4lm0000gn/T//ccCGlkPS.s:162    .text.Chip_SSP_SetClockRate:0000000000000000 Chip_SSP_SetClockRate
/var/folders/f9/8bk2lnw15zn4cbgn6wrnb4lm0000gn/T//ccCGlkPS.s:198    .text.Chip_SSP_SetClockRate:0000000000000014 $d
/var/folders/f9/8bk2lnw15zn4cbgn6wrnb4lm0000gn/T//ccCGlkPS.s:203    .text.Chip_SSP_RWFrames_Blocking:0000000000000000 $t
/var/folders/f9/8bk2lnw15zn4cbgn6wrnb4lm0000gn/T//ccCGlkPS.s:208    .text.Chip_SSP_RWFrames_Blocking:0000000000000000 Chip_SSP_RWFrames_Blocking
/var/folders/f9/8bk2lnw15zn4cbgn6wrnb4lm0000gn/T//ccCGlkPS.s:562    .text.Chip_SSP_RWFrames_Blocking:00000000000000ec $d
/var/folders/f9/8bk2lnw15zn4cbgn6wrnb4lm0000gn/T//ccCGlkPS.s:571    .text.Chip_SSP_WriteFrames_Blocking:0000000000000000 $t
/var/folders/f9/8bk2lnw15zn4cbgn6wrnb4lm0000gn/T//ccCGlkPS.s:576    .text.Chip_SSP_WriteFrames_Blocking:0000000000000000 Chip_SSP_WriteFrames_Blocking
/var/folders/f9/8bk2lnw15zn4cbgn6wrnb4lm0000gn/T//ccCGlkPS.s:894    .text.Chip_SSP_ReadFrames_Blocking:0000000000000000 $t
/var/folders/f9/8bk2lnw15zn4cbgn6wrnb4lm0000gn/T//ccCGlkPS.s:899    .text.Chip_SSP_ReadFrames_Blocking:0000000000000000 Chip_SSP_ReadFrames_Blocking
/var/folders/f9/8bk2lnw15zn4cbgn6wrnb4lm0000gn/T//ccCGlkPS.s:1242   .text.Chip_SSP_ReadFrames_Blocking:00000000000000c0 $d
/var/folders/f9/8bk2lnw15zn4cbgn6wrnb4lm0000gn/T//ccCGlkPS.s:1248   .text.Chip_SSP_Int_FlushData:0000000000000000 $t
/var/folders/f9/8bk2lnw15zn4cbgn6wrnb4lm0000gn/T//ccCGlkPS.s:1253   .text.Chip_SSP_Int_FlushData:0000000000000000 Chip_SSP_Int_FlushData
/var/folders/f9/8bk2lnw15zn4cbgn6wrnb4lm0000gn/T//ccCGlkPS.s:1326   .text.Chip_SSP_Int_RWFrames8Bits:0000000000000000 $t
/var/folders/f9/8bk2lnw15zn4cbgn6wrnb4lm0000gn/T//ccCGlkPS.s:1331   .text.Chip_SSP_Int_RWFrames8Bits:0000000000000000 Chip_SSP_Int_RWFrames8Bits
/var/folders/f9/8bk2lnw15zn4cbgn6wrnb4lm0000gn/T//ccCGlkPS.s:1509   .text.Chip_SSP_Int_RWFrames16Bits:0000000000000000 $t
/var/folders/f9/8bk2lnw15zn4cbgn6wrnb4lm0000gn/T//ccCGlkPS.s:1514   .text.Chip_SSP_Int_RWFrames16Bits:0000000000000000 Chip_SSP_Int_RWFrames16Bits
/var/folders/f9/8bk2lnw15zn4cbgn6wrnb4lm0000gn/T//ccCGlkPS.s:1798   .text.Chip_SSP_Int_RWFrames16Bits:00000000000000b8 $d
/var/folders/f9/8bk2lnw15zn4cbgn6wrnb4lm0000gn/T//ccCGlkPS.s:1803   .text.Chip_SSP_SetMaster:0000000000000000 $t
/var/folders/f9/8bk2lnw15zn4cbgn6wrnb4lm0000gn/T//ccCGlkPS.s:1808   .text.Chip_SSP_SetMaster:0000000000000000 Chip_SSP_SetMaster
/var/folders/f9/8bk2lnw15zn4cbgn6wrnb4lm0000gn/T//ccCGlkPS.s:1848   .text.Chip_SSP_SetBitRate:0000000000000000 $t
/var/folders/f9/8bk2lnw15zn4cbgn6wrnb4lm0000gn/T//ccCGlkPS.s:1853   .text.Chip_SSP_SetBitRate:0000000000000000 Chip_SSP_SetBitRate
/var/folders/f9/8bk2lnw15zn4cbgn6wrnb4lm0000gn/T//ccCGlkPS.s:2007   .text.Chip_SSP_SetBitRate:0000000000000078 $d
/var/folders/f9/8bk2lnw15zn4cbgn6wrnb4lm0000gn/T//ccCGlkPS.s:2014   .text.Chip_SSP_Init:0000000000000000 $t
/var/folders/f9/8bk2lnw15zn4cbgn6wrnb4lm0000gn/T//ccCGlkPS.s:2019   .text.Chip_SSP_Init:0000000000000000 Chip_SSP_Init
/var/folders/f9/8bk2lnw15zn4cbgn6wrnb4lm0000gn/T//ccCGlkPS.s:2158   .text.Chip_SSP_Init:0000000000000068 $d
/var/folders/f9/8bk2lnw15zn4cbgn6wrnb4lm0000gn/T//ccCGlkPS.s:2168   .text.Chip_SSP_DeInit:0000000000000000 $t
/var/folders/f9/8bk2lnw15zn4cbgn6wrnb4lm0000gn/T//ccCGlkPS.s:2173   .text.Chip_SSP_DeInit:0000000000000000 Chip_SSP_DeInit
/var/folders/f9/8bk2lnw15zn4cbgn6wrnb4lm0000gn/T//ccCGlkPS.s:2251   .text.Chip_SSP_DeInit:0000000000000038 $d
                     .debug_frame:0000000000000010 $d
                           .group:0000000000000000 wm4.0.121fbee677f1a8a7d8c40a6e8762ca43
                           .group:0000000000000000 wm4.features.h.22.6a4ca7cd053637cc1d0db6c16f39b2d7
                           .group:0000000000000000 wm4._default_types.h.15.8b2cb27e528498f8ff711db085d6e489
                           .group:0000000000000000 wm4.stdint.h.20.796e373797e732130a803d4c0338fa1b
                           .group:0000000000000000 wm4.stdbool.h.29.1c9ee6859ce8145f7838a4f2549ccec2
                           .group:0000000000000000 wm4.lpc_types.h.63.860ba57581a002825766a7c2ac00d549
                           .group:0000000000000000 wm4.sys_config.h.31.9f234e9c90333d233c7e647ebe63e928
                           .group:0000000000000000 wm4.cmsis_11cxx.h.33.407e9bbb5d170cd1552d3f7dc3fd5c42
                           .group:0000000000000000 wm4.core_cm0.h.32.192d13cfa8b31e63c86621de62eb153f
                           .group:0000000000000000 wm4.core_cm0.h.120.f4257ea7d0bce0cbabffe223e23b2fd4
                           .group:0000000000000000 wm4.chip.h.116.857da603c399e979152c31968de4baae
                           .group:0000000000000000 wm4.pmu_11xx.h.33.1d6b708881441cb98d19b8bab3caa180
                           .group:0000000000000000 wm4.sysctl_11xx.h.33.ae61a1181e608f8409883008e291930c
                           .group:0000000000000000 wm4.clock_11xx.h.33.23290a9e2ed919e3a6958d25130bc848
                           .group:0000000000000000 wm4.iocon_11xx.h.33.25e2b3cde122df23fb07b984cb4f3a93
                           .group:0000000000000000 wm4.timer_11xx.h.33.c92f50a9325789ee6a8ffd6248980d70
                           .group:0000000000000000 wm4.ring_buffer.h.33.ffd8153954783612f9c626df1ed9e770
                           .group:0000000000000000 wm4.uart_11xx.h.98.fe68b709973730a4fba3f3ce60c5c312
                           .group:0000000000000000 wm4.wwdt_11xx.h.33.5768344983cb842df69cc91ea86cabb0
                           .group:0000000000000000 wm4.ssp_11xx.h.33.af054d3d65f4cb0c078be40bb872ec37
                           .group:0000000000000000 wm4.error.h.38.ae74fe1dd9d19c80c505f1fda144fce8
                           .group:0000000000000000 wm4.adc_11xx.h.33.6ce7433ac6b30df70a6993d01dbd513f
                           .group:0000000000000000 wm4.i2c_11xx.h.33.2b506d1350e00a8c26e8bf006a5f9390
ARM GAS  /var/folders/f9/8bk2lnw15zn4cbgn6wrnb4lm0000gn/T//ccCGlkPS.s 			page 369


                           .group:0000000000000000 wm4.ccand_11xx.h.33.99627f4b529fecdc77b0877ab6fe5266

UNDEFINED SYMBOLS
__aeabi_uidiv
Chip_Clock_GetMainClockRate
