ARM GAS  /var/folders/f9/8bk2lnw15zn4cbgn6wrnb4lm0000gn/T//ccCGlkPS.s 			page 1


   1              		.cpu cortex-m0
   2              		.fpu softvfp
   3              		.eabi_attribute 20, 1	@ Tag_ABI_FP_denormal
   4              		.eabi_attribute 21, 1	@ Tag_ABI_FP_exceptions
   5              		.eabi_attribute 23, 3	@ Tag_ABI_FP_number_model
   6              		.eabi_attribute 24, 1	@ Tag_ABI_align8_needed
   7              		.eabi_attribute 25, 1	@ Tag_ABI_align8_preserved
   8              		.eabi_attribute 26, 1	@ Tag_ABI_enum_size
   9              		.eabi_attribute 30, 2	@ Tag_ABI_optimization_goals
  10              		.eabi_attribute 34, 0	@ Tag_CPU_unaligned_access
  11              		.eabi_attribute 18, 4	@ Tag_ABI_PCS_wchar_t
  12              		.file	"ssp_11xx.c"
  13              	@ GNU C (GNU Tools for ARM Embedded Processors) version 4.8.4 20140725 (release) [ARM/embedded-4_8-
  14              	@	compiled by GNU C version 4.2.1 (Based on Apple Inc. build 5658) (LLVM build 2336.9.00), GMP vers
  15              	@ GGC heuristics: --param ggc-min-expand=100 --param ggc-min-heapsize=131072
  16              	@ options passed:  -I . -I ../../lpc_chip_11cxx_lib/inc
  17              	@ -I ../../evt_lib/inc -imultilib armv6-m
  18              	@ -iprefix /usr/local/Cellar/gcc-arm-none-eabi/20140805/bin/../lib/gcc/arm-none-eabi/4.8.4/
  19              	@ -isysroot /usr/local/Cellar/gcc-arm-none-eabi/20140805/bin/../arm-none-eabi
  20              	@ -MD bin/ssp_11xx.d -MF bin/ssp_11xx.d -MP -MQ bin/ssp_11xx.o
  21              	@ -D__USES_INITFINI__ -D CORE_M0 ../../lpc_chip_11cxx_lib/src/ssp_11xx.c
  22              	@ -mcpu=cortex-m0 -mthumb -auxbase-strip bin/ssp_11xx.o -g -ggdb3 -O2 -Wall
  23              	@ -Wstrict-prototypes -Wextra -std=gnu90 -ffunction-sections
  24              	@ -fdata-sections -fverbose-asm
  25              	@ options enabled:  -faggressive-loop-optimizations -fauto-inc-dec
  26              	@ -fbranch-count-reg -fcaller-saves -fcombine-stack-adjustments -fcommon
  27              	@ -fcompare-elim -fcprop-registers -fcrossjumping -fcse-follow-jumps
  28              	@ -fdata-sections -fdefer-pop -fdelete-null-pointer-checks -fdevirtualize
  29              	@ -fdwarf2-cfi-asm -fearly-inlining -feliminate-unused-debug-types
  30              	@ -fexpensive-optimizations -fforward-propagate -ffunction-cse
  31              	@ -ffunction-sections -fgcse -fgcse-lm -fgnu-runtime -fgnu-unique
  32              	@ -fguess-branch-probability -fhoist-adjacent-loads -fident -fif-conversion
  33              	@ -fif-conversion2 -findirect-inlining -finline -finline-atomics
  34              	@ -finline-functions-called-once -finline-small-functions -fipa-cp
  35              	@ -fipa-profile -fipa-pure-const -fipa-reference -fipa-sra
  36              	@ -fira-hoist-pressure -fira-share-save-slots -fira-share-spill-slots
  37              	@ -fivopts -fkeep-static-consts -fleading-underscore -fmath-errno
  38              	@ -fmerge-constants -fmerge-debug-strings -fmove-loop-invariants
  39              	@ -fomit-frame-pointer -foptimize-register-move -foptimize-sibling-calls
  40              	@ -foptimize-strlen -fpartial-inlining -fpeephole -fpeephole2
  41              	@ -fprefetch-loop-arrays -freg-struct-return -fregmove -freorder-blocks
  42              	@ -freorder-functions -frerun-cse-after-loop
  43              	@ -fsched-critical-path-heuristic -fsched-dep-count-heuristic
  44              	@ -fsched-group-heuristic -fsched-interblock -fsched-last-insn-heuristic
  45              	@ -fsched-pressure -fsched-rank-heuristic -fsched-spec
  46              	@ -fsched-spec-insn-heuristic -fsched-stalled-insns-dep -fschedule-insns2
  47              	@ -fsection-anchors -fshow-column -fshrink-wrap -fsigned-zeros
  48              	@ -fsplit-ivs-in-unroller -fsplit-wide-types -fstrict-aliasing
  49              	@ -fstrict-overflow -fstrict-volatile-bitfields -fsync-libcalls
  50              	@ -fthread-jumps -ftoplevel-reorder -ftrapping-math -ftree-bit-ccp
  51              	@ -ftree-builtin-call-dce -ftree-ccp -ftree-ch -ftree-coalesce-vars
  52              	@ -ftree-copy-prop -ftree-copyrename -ftree-cselim -ftree-dce
  53              	@ -ftree-dominator-opts -ftree-dse -ftree-forwprop -ftree-fre
  54              	@ -ftree-loop-if-convert -ftree-loop-im -ftree-loop-ivcanon
  55              	@ -ftree-loop-optimize -ftree-parallelize-loops= -ftree-phiprop -ftree-pre
  56              	@ -ftree-pta -ftree-reassoc -ftree-scev-cprop -ftree-sink
  57              	@ -ftree-slp-vectorize -ftree-slsr -ftree-sra -ftree-switch-conversion
ARM GAS  /var/folders/f9/8bk2lnw15zn4cbgn6wrnb4lm0000gn/T//ccCGlkPS.s 			page 2


  58              	@ -ftree-tail-merge -ftree-ter -ftree-vect-loop-version -ftree-vrp
  59              	@ -funit-at-a-time -fvar-tracking -fvar-tracking-assignments -fverbose-asm
  60              	@ -fzero-initialized-in-bss -mlittle-endian -mpic-data-is-text-relative
  61              	@ -msched-prolog -mthumb -mvectorize-with-neon-quad
  62              	
  63              		.text
  64              	.Ltext0:
  65              		.cfi_sections	.debug_frame
  66              		.section	.text.SSP_Read1BFifo,"ax",%progbits
  67              		.align	2
  68              		.code	16
  69              		.thumb_func
  70              		.type	SSP_Read1BFifo, %function
  71              	SSP_Read1BFifo:
  72              	.LFB201:
  73              		.file 1 "../../lpc_chip_11cxx_lib/src/ssp_11xx.c"
   1:../../lpc_chip_11cxx_lib/src/ssp_11xx.c **** /*
   2:../../lpc_chip_11cxx_lib/src/ssp_11xx.c ****  * @brief LPC11xx SSP Registers and control functions
   3:../../lpc_chip_11cxx_lib/src/ssp_11xx.c ****  *
   4:../../lpc_chip_11cxx_lib/src/ssp_11xx.c ****  * @note
   5:../../lpc_chip_11cxx_lib/src/ssp_11xx.c ****  * Copyright(C) NXP Semiconductors, 2012
   6:../../lpc_chip_11cxx_lib/src/ssp_11xx.c ****  * All rights reserved.
   7:../../lpc_chip_11cxx_lib/src/ssp_11xx.c ****  *
   8:../../lpc_chip_11cxx_lib/src/ssp_11xx.c ****  * @par
   9:../../lpc_chip_11cxx_lib/src/ssp_11xx.c ****  * Software that is described herein is for illustrative purposes only
  10:../../lpc_chip_11cxx_lib/src/ssp_11xx.c ****  * which provides customers with programming information regarding the
  11:../../lpc_chip_11cxx_lib/src/ssp_11xx.c ****  * LPC products.  This software is supplied "AS IS" without any warranties of
  12:../../lpc_chip_11cxx_lib/src/ssp_11xx.c ****  * any kind, and NXP Semiconductors and its licensor disclaim any and
  13:../../lpc_chip_11cxx_lib/src/ssp_11xx.c ****  * all warranties, express or implied, including all implied warranties of
  14:../../lpc_chip_11cxx_lib/src/ssp_11xx.c ****  * merchantability, fitness for a particular purpose and non-infringement of
  15:../../lpc_chip_11cxx_lib/src/ssp_11xx.c ****  * intellectual property rights.  NXP Semiconductors assumes no responsibility
  16:../../lpc_chip_11cxx_lib/src/ssp_11xx.c ****  * or liability for the use of the software, conveys no license or rights under any
  17:../../lpc_chip_11cxx_lib/src/ssp_11xx.c ****  * patent, copyright, mask work right, or any other intellectual property rights in
  18:../../lpc_chip_11cxx_lib/src/ssp_11xx.c ****  * or to any products. NXP Semiconductors reserves the right to make changes
  19:../../lpc_chip_11cxx_lib/src/ssp_11xx.c ****  * in the software without notification. NXP Semiconductors also makes no
  20:../../lpc_chip_11cxx_lib/src/ssp_11xx.c ****  * representation or warranty that such application will be suitable for the
  21:../../lpc_chip_11cxx_lib/src/ssp_11xx.c ****  * specified use without further testing or modification.
  22:../../lpc_chip_11cxx_lib/src/ssp_11xx.c ****  *
  23:../../lpc_chip_11cxx_lib/src/ssp_11xx.c ****  * @par
  24:../../lpc_chip_11cxx_lib/src/ssp_11xx.c ****  * Permission to use, copy, modify, and distribute this software and its
  25:../../lpc_chip_11cxx_lib/src/ssp_11xx.c ****  * documentation is hereby granted, under NXP Semiconductors' and its
  26:../../lpc_chip_11cxx_lib/src/ssp_11xx.c ****  * licensor's relevant copyrights in the software, without fee, provided that it
  27:../../lpc_chip_11cxx_lib/src/ssp_11xx.c ****  * is used in conjunction with NXP Semiconductors microcontrollers.  This
  28:../../lpc_chip_11cxx_lib/src/ssp_11xx.c ****  * copyright, permission, and disclaimer notice must appear in all copies of
  29:../../lpc_chip_11cxx_lib/src/ssp_11xx.c ****  * this code.
  30:../../lpc_chip_11cxx_lib/src/ssp_11xx.c ****  */
  31:../../lpc_chip_11cxx_lib/src/ssp_11xx.c **** 
  32:../../lpc_chip_11cxx_lib/src/ssp_11xx.c **** #include "chip.h"
  33:../../lpc_chip_11cxx_lib/src/ssp_11xx.c **** 
  34:../../lpc_chip_11cxx_lib/src/ssp_11xx.c **** /*****************************************************************************
  35:../../lpc_chip_11cxx_lib/src/ssp_11xx.c ****  * Private types/enumerations/variables
  36:../../lpc_chip_11cxx_lib/src/ssp_11xx.c ****  ****************************************************************************/
  37:../../lpc_chip_11cxx_lib/src/ssp_11xx.c **** 
  38:../../lpc_chip_11cxx_lib/src/ssp_11xx.c **** /*****************************************************************************
  39:../../lpc_chip_11cxx_lib/src/ssp_11xx.c ****  * Public types/enumerations/variables
  40:../../lpc_chip_11cxx_lib/src/ssp_11xx.c ****  ****************************************************************************/
  41:../../lpc_chip_11cxx_lib/src/ssp_11xx.c **** 
ARM GAS  /var/folders/f9/8bk2lnw15zn4cbgn6wrnb4lm0000gn/T//ccCGlkPS.s 			page 3


  42:../../lpc_chip_11cxx_lib/src/ssp_11xx.c **** /*****************************************************************************
  43:../../lpc_chip_11cxx_lib/src/ssp_11xx.c ****  * Private functions
  44:../../lpc_chip_11cxx_lib/src/ssp_11xx.c ****  ****************************************************************************/
  45:../../lpc_chip_11cxx_lib/src/ssp_11xx.c **** 
  46:../../lpc_chip_11cxx_lib/src/ssp_11xx.c **** STATIC void SSP_Write2BFifo(LPC_SSP_T *pSSP, Chip_SSP_DATA_SETUP_T *xf_setup)
  47:../../lpc_chip_11cxx_lib/src/ssp_11xx.c **** {
  48:../../lpc_chip_11cxx_lib/src/ssp_11xx.c **** 	if (xf_setup->tx_data) {
  49:../../lpc_chip_11cxx_lib/src/ssp_11xx.c **** 		Chip_SSP_SendFrame(pSSP, (*(uint16_t *) ((uint32_t) xf_setup->tx_data +
  50:../../lpc_chip_11cxx_lib/src/ssp_11xx.c **** 												 xf_setup->tx_cnt)));
  51:../../lpc_chip_11cxx_lib/src/ssp_11xx.c **** 	}
  52:../../lpc_chip_11cxx_lib/src/ssp_11xx.c **** 	else {
  53:../../lpc_chip_11cxx_lib/src/ssp_11xx.c **** 		Chip_SSP_SendFrame(pSSP, 0xFFFF);
  54:../../lpc_chip_11cxx_lib/src/ssp_11xx.c **** 	}
  55:../../lpc_chip_11cxx_lib/src/ssp_11xx.c **** 
  56:../../lpc_chip_11cxx_lib/src/ssp_11xx.c **** 	xf_setup->tx_cnt += 2;
  57:../../lpc_chip_11cxx_lib/src/ssp_11xx.c **** }
  58:../../lpc_chip_11cxx_lib/src/ssp_11xx.c **** 
  59:../../lpc_chip_11cxx_lib/src/ssp_11xx.c **** /** SSP macro: write 1 bytes to FIFO buffer */
  60:../../lpc_chip_11cxx_lib/src/ssp_11xx.c **** STATIC void SSP_Write1BFifo(LPC_SSP_T *pSSP, Chip_SSP_DATA_SETUP_T *xf_setup)
  61:../../lpc_chip_11cxx_lib/src/ssp_11xx.c **** {
  62:../../lpc_chip_11cxx_lib/src/ssp_11xx.c **** 	if (xf_setup->tx_data) {
  63:../../lpc_chip_11cxx_lib/src/ssp_11xx.c **** 		Chip_SSP_SendFrame(pSSP, (*(uint8_t *) ((uint32_t) xf_setup->tx_data + xf_setup->tx_cnt)));
  64:../../lpc_chip_11cxx_lib/src/ssp_11xx.c **** 	}
  65:../../lpc_chip_11cxx_lib/src/ssp_11xx.c **** 	else {
  66:../../lpc_chip_11cxx_lib/src/ssp_11xx.c **** 		Chip_SSP_SendFrame(pSSP, 0xFF);
  67:../../lpc_chip_11cxx_lib/src/ssp_11xx.c **** 	}
  68:../../lpc_chip_11cxx_lib/src/ssp_11xx.c **** 
  69:../../lpc_chip_11cxx_lib/src/ssp_11xx.c **** 	xf_setup->tx_cnt++;
  70:../../lpc_chip_11cxx_lib/src/ssp_11xx.c **** }
  71:../../lpc_chip_11cxx_lib/src/ssp_11xx.c **** 
  72:../../lpc_chip_11cxx_lib/src/ssp_11xx.c **** /** SSP macro: read 1 bytes from FIFO buffer */
  73:../../lpc_chip_11cxx_lib/src/ssp_11xx.c **** STATIC void SSP_Read2BFifo(LPC_SSP_T *pSSP, Chip_SSP_DATA_SETUP_T *xf_setup)
  74:../../lpc_chip_11cxx_lib/src/ssp_11xx.c **** {
  75:../../lpc_chip_11cxx_lib/src/ssp_11xx.c **** 	uint16_t rDat;
  76:../../lpc_chip_11cxx_lib/src/ssp_11xx.c **** 
  77:../../lpc_chip_11cxx_lib/src/ssp_11xx.c **** 	while ((Chip_SSP_GetStatus(pSSP, SSP_STAT_RNE) == SET) &&
  78:../../lpc_chip_11cxx_lib/src/ssp_11xx.c **** 		   (xf_setup->rx_cnt < xf_setup->length)) {
  79:../../lpc_chip_11cxx_lib/src/ssp_11xx.c **** 		rDat = Chip_SSP_ReceiveFrame(pSSP);
  80:../../lpc_chip_11cxx_lib/src/ssp_11xx.c **** 		if (xf_setup->rx_data) {
  81:../../lpc_chip_11cxx_lib/src/ssp_11xx.c **** 			*(uint16_t *) ((uint32_t) xf_setup->rx_data + xf_setup->rx_cnt) = rDat;
  82:../../lpc_chip_11cxx_lib/src/ssp_11xx.c **** 		}
  83:../../lpc_chip_11cxx_lib/src/ssp_11xx.c **** 
  84:../../lpc_chip_11cxx_lib/src/ssp_11xx.c **** 		xf_setup->rx_cnt += 2;
  85:../../lpc_chip_11cxx_lib/src/ssp_11xx.c **** 	}
  86:../../lpc_chip_11cxx_lib/src/ssp_11xx.c **** }
  87:../../lpc_chip_11cxx_lib/src/ssp_11xx.c **** 
  88:../../lpc_chip_11cxx_lib/src/ssp_11xx.c **** /** SSP macro: read 2 bytes from FIFO buffer */
  89:../../lpc_chip_11cxx_lib/src/ssp_11xx.c **** STATIC void SSP_Read1BFifo(LPC_SSP_T *pSSP, Chip_SSP_DATA_SETUP_T *xf_setup)
  90:../../lpc_chip_11cxx_lib/src/ssp_11xx.c **** {
  74              		.loc 1 90 0
  75              		.cfi_startproc
  76              	.LVL0:
  77              	.LBB224:
  78              	.LBB225:
  79              		.file 2 "../../lpc_chip_11cxx_lib/inc/ssp_11xx.h"
   1:../../lpc_chip_11cxx_lib/inc/ssp_11xx.h **** /*
   2:../../lpc_chip_11cxx_lib/inc/ssp_11xx.h ****  * @brief LPC11xx SSP Registers and control functions
ARM GAS  /var/folders/f9/8bk2lnw15zn4cbgn6wrnb4lm0000gn/T//ccCGlkPS.s 			page 4


   3:../../lpc_chip_11cxx_lib/inc/ssp_11xx.h ****  *
   4:../../lpc_chip_11cxx_lib/inc/ssp_11xx.h ****  * @note
   5:../../lpc_chip_11cxx_lib/inc/ssp_11xx.h ****  * Copyright(C) NXP Semiconductors, 2012
   6:../../lpc_chip_11cxx_lib/inc/ssp_11xx.h ****  * All rights reserved.
   7:../../lpc_chip_11cxx_lib/inc/ssp_11xx.h ****  *
   8:../../lpc_chip_11cxx_lib/inc/ssp_11xx.h ****  * @par
   9:../../lpc_chip_11cxx_lib/inc/ssp_11xx.h ****  * Software that is described herein is for illustrative purposes only
  10:../../lpc_chip_11cxx_lib/inc/ssp_11xx.h ****  * which provides customers with programming information regarding the
  11:../../lpc_chip_11cxx_lib/inc/ssp_11xx.h ****  * LPC products.  This software is supplied "AS IS" without any warranties of
  12:../../lpc_chip_11cxx_lib/inc/ssp_11xx.h ****  * any kind, and NXP Semiconductors and its licensor disclaim any and
  13:../../lpc_chip_11cxx_lib/inc/ssp_11xx.h ****  * all warranties, express or implied, including all implied warranties of
  14:../../lpc_chip_11cxx_lib/inc/ssp_11xx.h ****  * merchantability, fitness for a particular purpose and non-infringement of
  15:../../lpc_chip_11cxx_lib/inc/ssp_11xx.h ****  * intellectual property rights.  NXP Semiconductors assumes no responsibility
  16:../../lpc_chip_11cxx_lib/inc/ssp_11xx.h ****  * or liability for the use of the software, conveys no license or rights under any
  17:../../lpc_chip_11cxx_lib/inc/ssp_11xx.h ****  * patent, copyright, mask work right, or any other intellectual property rights in
  18:../../lpc_chip_11cxx_lib/inc/ssp_11xx.h ****  * or to any products. NXP Semiconductors reserves the right to make changes
  19:../../lpc_chip_11cxx_lib/inc/ssp_11xx.h ****  * in the software without notification. NXP Semiconductors also makes no
  20:../../lpc_chip_11cxx_lib/inc/ssp_11xx.h ****  * representation or warranty that such application will be suitable for the
  21:../../lpc_chip_11cxx_lib/inc/ssp_11xx.h ****  * specified use without further testing or modification.
  22:../../lpc_chip_11cxx_lib/inc/ssp_11xx.h ****  *
  23:../../lpc_chip_11cxx_lib/inc/ssp_11xx.h ****  * @par
  24:../../lpc_chip_11cxx_lib/inc/ssp_11xx.h ****  * Permission to use, copy, modify, and distribute this software and its
  25:../../lpc_chip_11cxx_lib/inc/ssp_11xx.h ****  * documentation is hereby granted, under NXP Semiconductors' and its
  26:../../lpc_chip_11cxx_lib/inc/ssp_11xx.h ****  * licensor's relevant copyrights in the software, without fee, provided that it
  27:../../lpc_chip_11cxx_lib/inc/ssp_11xx.h ****  * is used in conjunction with NXP Semiconductors microcontrollers.  This
  28:../../lpc_chip_11cxx_lib/inc/ssp_11xx.h ****  * copyright, permission, and disclaimer notice must appear in all copies of
  29:../../lpc_chip_11cxx_lib/inc/ssp_11xx.h ****  * this code.
  30:../../lpc_chip_11cxx_lib/inc/ssp_11xx.h ****  */
  31:../../lpc_chip_11cxx_lib/inc/ssp_11xx.h **** 
  32:../../lpc_chip_11cxx_lib/inc/ssp_11xx.h **** #ifndef __SSP_11XX_H_
  33:../../lpc_chip_11cxx_lib/inc/ssp_11xx.h **** #define __SSP_11XX_H_
  34:../../lpc_chip_11cxx_lib/inc/ssp_11xx.h **** 
  35:../../lpc_chip_11cxx_lib/inc/ssp_11xx.h **** #ifdef __cplusplus
  36:../../lpc_chip_11cxx_lib/inc/ssp_11xx.h **** extern "C" {
  37:../../lpc_chip_11cxx_lib/inc/ssp_11xx.h **** #endif
  38:../../lpc_chip_11cxx_lib/inc/ssp_11xx.h **** 
  39:../../lpc_chip_11cxx_lib/inc/ssp_11xx.h **** /** @defgroup SSP_11XX CHIP: LPC11xx SSP register block and driver
  40:../../lpc_chip_11cxx_lib/inc/ssp_11xx.h ****  * @ingroup CHIP_11XX_Drivers
  41:../../lpc_chip_11cxx_lib/inc/ssp_11xx.h ****  * @{
  42:../../lpc_chip_11cxx_lib/inc/ssp_11xx.h ****  */
  43:../../lpc_chip_11cxx_lib/inc/ssp_11xx.h **** 
  44:../../lpc_chip_11cxx_lib/inc/ssp_11xx.h **** /**
  45:../../lpc_chip_11cxx_lib/inc/ssp_11xx.h ****  * @brief SSP register block structure
  46:../../lpc_chip_11cxx_lib/inc/ssp_11xx.h ****  */
  47:../../lpc_chip_11cxx_lib/inc/ssp_11xx.h **** typedef struct {			/*!< SSPn Structure         */
  48:../../lpc_chip_11cxx_lib/inc/ssp_11xx.h **** 	__IO uint32_t CR0;		/*!< Control Register 0. Selects the serial clock rate, bus type, and data siz
  49:../../lpc_chip_11cxx_lib/inc/ssp_11xx.h **** 	__IO uint32_t CR1;		/*!< Control Register 1. Selects master/slave and other modes. */
  50:../../lpc_chip_11cxx_lib/inc/ssp_11xx.h **** 	__IO uint32_t DR;		/*!< Data Register. Writes fill the transmit FIFO, and reads empty the receive 
  51:../../lpc_chip_11cxx_lib/inc/ssp_11xx.h **** 	__I  uint32_t SR;		/*!< Status Register        */
  52:../../lpc_chip_11cxx_lib/inc/ssp_11xx.h **** 	__IO uint32_t CPSR;		/*!< Clock Prescale Register */
  53:../../lpc_chip_11cxx_lib/inc/ssp_11xx.h **** 	__IO uint32_t IMSC;		/*!< Interrupt Mask Set and Clear Register */
  54:../../lpc_chip_11cxx_lib/inc/ssp_11xx.h **** 	__I  uint32_t RIS;		/*!< Raw Interrupt Status Register */
  55:../../lpc_chip_11cxx_lib/inc/ssp_11xx.h **** 	__I  uint32_t MIS;		/*!< Masked Interrupt Status Register */
  56:../../lpc_chip_11cxx_lib/inc/ssp_11xx.h **** 	__O  uint32_t ICR;		/*!< SSPICR Interrupt Clear Register */
  57:../../lpc_chip_11cxx_lib/inc/ssp_11xx.h **** } LPC_SSP_T;
  58:../../lpc_chip_11cxx_lib/inc/ssp_11xx.h **** 
  59:../../lpc_chip_11cxx_lib/inc/ssp_11xx.h **** /**
ARM GAS  /var/folders/f9/8bk2lnw15zn4cbgn6wrnb4lm0000gn/T//ccCGlkPS.s 			page 5


  60:../../lpc_chip_11cxx_lib/inc/ssp_11xx.h ****  * Macro defines for CR0 register
  61:../../lpc_chip_11cxx_lib/inc/ssp_11xx.h ****  */
  62:../../lpc_chip_11cxx_lib/inc/ssp_11xx.h **** 
  63:../../lpc_chip_11cxx_lib/inc/ssp_11xx.h **** /** SSP data size select, must be 4 bits to 16 bits */
  64:../../lpc_chip_11cxx_lib/inc/ssp_11xx.h **** #define SSP_CR0_DSS(n)          ((uint32_t) ((n) & 0xF))
  65:../../lpc_chip_11cxx_lib/inc/ssp_11xx.h **** /** SSP control 0 Motorola SPI mode */
  66:../../lpc_chip_11cxx_lib/inc/ssp_11xx.h **** #define SSP_CR0_FRF_SPI         ((uint32_t) (0 << 4))
  67:../../lpc_chip_11cxx_lib/inc/ssp_11xx.h **** /** SSP control 0 TI synchronous serial mode */
  68:../../lpc_chip_11cxx_lib/inc/ssp_11xx.h **** #define SSP_CR0_FRF_TI          ((uint32_t) (1 << 4))
  69:../../lpc_chip_11cxx_lib/inc/ssp_11xx.h **** /** SSP control 0 National Micro-wire mode */
  70:../../lpc_chip_11cxx_lib/inc/ssp_11xx.h **** #define SSP_CR0_FRF_MICROWIRE   ((uint32_t) (2 << 4))
  71:../../lpc_chip_11cxx_lib/inc/ssp_11xx.h **** /** SPI clock polarity bit (used in SPI mode only), (1) = maintains the
  72:../../lpc_chip_11cxx_lib/inc/ssp_11xx.h ****    bus clock high between frames, (0) = low */
  73:../../lpc_chip_11cxx_lib/inc/ssp_11xx.h **** #define SSP_CR0_CPOL_LO     ((uint32_t) (0))
  74:../../lpc_chip_11cxx_lib/inc/ssp_11xx.h **** #define SSP_CR0_CPOL_HI     ((uint32_t) (1 << 6))
  75:../../lpc_chip_11cxx_lib/inc/ssp_11xx.h **** /** SPI clock out phase bit (used in SPI mode only), (1) = captures data
  76:../../lpc_chip_11cxx_lib/inc/ssp_11xx.h ****    on the second clock transition of the frame, (0) = first */
  77:../../lpc_chip_11cxx_lib/inc/ssp_11xx.h **** #define SSP_CR0_CPHA_FIRST  ((uint32_t) (0))
  78:../../lpc_chip_11cxx_lib/inc/ssp_11xx.h **** #define SSP_CR0_CPHA_SECOND ((uint32_t) (1 << 7))
  79:../../lpc_chip_11cxx_lib/inc/ssp_11xx.h **** /** SSP serial clock rate value load macro, divider rate is
  80:../../lpc_chip_11cxx_lib/inc/ssp_11xx.h ****    PERIPH_CLK / (cpsr * (SCR + 1)) */
  81:../../lpc_chip_11cxx_lib/inc/ssp_11xx.h **** #define SSP_CR0_SCR(n)      ((uint32_t) ((n & 0xFF) << 8))
  82:../../lpc_chip_11cxx_lib/inc/ssp_11xx.h **** /** SSP CR0 bit mask */
  83:../../lpc_chip_11cxx_lib/inc/ssp_11xx.h **** #define SSP_CR0_BITMASK     ((uint32_t) (0xFFFF))
  84:../../lpc_chip_11cxx_lib/inc/ssp_11xx.h **** /** SSP CR0 bit mask */
  85:../../lpc_chip_11cxx_lib/inc/ssp_11xx.h **** #define SSP_CR0_BITMASK     ((uint32_t) (0xFFFF))
  86:../../lpc_chip_11cxx_lib/inc/ssp_11xx.h **** /** SSP serial clock rate value load macro, divider rate is
  87:../../lpc_chip_11cxx_lib/inc/ssp_11xx.h ****    PERIPH_CLK / (cpsr * (SCR + 1)) */
  88:../../lpc_chip_11cxx_lib/inc/ssp_11xx.h **** #define SSP_CR0_SCR(n)      ((uint32_t) ((n & 0xFF) << 8))
  89:../../lpc_chip_11cxx_lib/inc/ssp_11xx.h **** 
  90:../../lpc_chip_11cxx_lib/inc/ssp_11xx.h **** /**
  91:../../lpc_chip_11cxx_lib/inc/ssp_11xx.h ****  * Macro defines for CR1 register
  92:../../lpc_chip_11cxx_lib/inc/ssp_11xx.h ****  */
  93:../../lpc_chip_11cxx_lib/inc/ssp_11xx.h **** 
  94:../../lpc_chip_11cxx_lib/inc/ssp_11xx.h **** /** SSP control 1 loopback mode enable bit */
  95:../../lpc_chip_11cxx_lib/inc/ssp_11xx.h **** #define SSP_CR1_LBM_EN      ((uint32_t) (1 << 0))
  96:../../lpc_chip_11cxx_lib/inc/ssp_11xx.h **** /** SSP control 1 enable bit */
  97:../../lpc_chip_11cxx_lib/inc/ssp_11xx.h **** #define SSP_CR1_SSP_EN      ((uint32_t) (1 << 1))
  98:../../lpc_chip_11cxx_lib/inc/ssp_11xx.h **** /** SSP control 1 slave enable */
  99:../../lpc_chip_11cxx_lib/inc/ssp_11xx.h **** #define SSP_CR1_SLAVE_EN    ((uint32_t) (1 << 2))
 100:../../lpc_chip_11cxx_lib/inc/ssp_11xx.h **** #define SSP_CR1_MASTER_EN   ((uint32_t) (0))
 101:../../lpc_chip_11cxx_lib/inc/ssp_11xx.h **** /** SSP control 1 slave out disable bit, disables transmit line in slave
 102:../../lpc_chip_11cxx_lib/inc/ssp_11xx.h ****    mode */
 103:../../lpc_chip_11cxx_lib/inc/ssp_11xx.h **** #define SSP_CR1_SO_DISABLE  ((uint32_t) (1 << 3))
 104:../../lpc_chip_11cxx_lib/inc/ssp_11xx.h **** /** SSP CR1 bit mask */
 105:../../lpc_chip_11cxx_lib/inc/ssp_11xx.h **** #define SSP_CR1_BITMASK     ((uint32_t) (0x0F))
 106:../../lpc_chip_11cxx_lib/inc/ssp_11xx.h **** 
 107:../../lpc_chip_11cxx_lib/inc/ssp_11xx.h **** /** SSP CPSR bit mask */
 108:../../lpc_chip_11cxx_lib/inc/ssp_11xx.h **** #define SSP_CPSR_BITMASK    ((uint32_t) (0xFF))
 109:../../lpc_chip_11cxx_lib/inc/ssp_11xx.h **** /**
 110:../../lpc_chip_11cxx_lib/inc/ssp_11xx.h ****  * Macro defines for DR register
 111:../../lpc_chip_11cxx_lib/inc/ssp_11xx.h ****  */
 112:../../lpc_chip_11cxx_lib/inc/ssp_11xx.h **** 
 113:../../lpc_chip_11cxx_lib/inc/ssp_11xx.h **** /** SSP data bit mask */
 114:../../lpc_chip_11cxx_lib/inc/ssp_11xx.h **** #define SSP_DR_BITMASK(n)   ((n) & 0xFFFF)
 115:../../lpc_chip_11cxx_lib/inc/ssp_11xx.h **** 
 116:../../lpc_chip_11cxx_lib/inc/ssp_11xx.h **** /**
ARM GAS  /var/folders/f9/8bk2lnw15zn4cbgn6wrnb4lm0000gn/T//ccCGlkPS.s 			page 6


 117:../../lpc_chip_11cxx_lib/inc/ssp_11xx.h ****  * Macro defines for SR register
 118:../../lpc_chip_11cxx_lib/inc/ssp_11xx.h ****  */
 119:../../lpc_chip_11cxx_lib/inc/ssp_11xx.h **** 
 120:../../lpc_chip_11cxx_lib/inc/ssp_11xx.h **** /** SSP SR bit mask */
 121:../../lpc_chip_11cxx_lib/inc/ssp_11xx.h **** #define SSP_SR_BITMASK  ((uint32_t) (0x1F))
 122:../../lpc_chip_11cxx_lib/inc/ssp_11xx.h **** 
 123:../../lpc_chip_11cxx_lib/inc/ssp_11xx.h **** /** ICR bit mask */
 124:../../lpc_chip_11cxx_lib/inc/ssp_11xx.h **** #define SSP_ICR_BITMASK ((uint32_t) (0x03))
 125:../../lpc_chip_11cxx_lib/inc/ssp_11xx.h **** 
 126:../../lpc_chip_11cxx_lib/inc/ssp_11xx.h **** /**
 127:../../lpc_chip_11cxx_lib/inc/ssp_11xx.h ****  * @brief SSP Type of Status
 128:../../lpc_chip_11cxx_lib/inc/ssp_11xx.h ****  */
 129:../../lpc_chip_11cxx_lib/inc/ssp_11xx.h **** typedef enum _SSP_STATUS {
 130:../../lpc_chip_11cxx_lib/inc/ssp_11xx.h **** 	SSP_STAT_TFE = ((uint32_t)(1 << 0)),/**< TX FIFO Empty */
 131:../../lpc_chip_11cxx_lib/inc/ssp_11xx.h **** 	SSP_STAT_TNF = ((uint32_t)(1 << 1)),/**< TX FIFO not full */
 132:../../lpc_chip_11cxx_lib/inc/ssp_11xx.h **** 	SSP_STAT_RNE = ((uint32_t)(1 << 2)),/**< RX FIFO not empty */
 133:../../lpc_chip_11cxx_lib/inc/ssp_11xx.h **** 	SSP_STAT_RFF = ((uint32_t)(1 << 3)),/**< RX FIFO full */
 134:../../lpc_chip_11cxx_lib/inc/ssp_11xx.h **** 	SSP_STAT_BSY = ((uint32_t)(1 << 4)),/**< SSP Busy */
 135:../../lpc_chip_11cxx_lib/inc/ssp_11xx.h **** } SSP_STATUS_T;
 136:../../lpc_chip_11cxx_lib/inc/ssp_11xx.h **** 
 137:../../lpc_chip_11cxx_lib/inc/ssp_11xx.h **** /**
 138:../../lpc_chip_11cxx_lib/inc/ssp_11xx.h ****  * @brief SSP Type of Interrupt Mask
 139:../../lpc_chip_11cxx_lib/inc/ssp_11xx.h ****  */
 140:../../lpc_chip_11cxx_lib/inc/ssp_11xx.h **** typedef enum _SSP_INTMASK {
 141:../../lpc_chip_11cxx_lib/inc/ssp_11xx.h **** 	SSP_RORIM = ((uint32_t)(1 << 0)),	/**< Overun */
 142:../../lpc_chip_11cxx_lib/inc/ssp_11xx.h **** 	SSP_RTIM = ((uint32_t)(1 << 1)),/**< TimeOut */
 143:../../lpc_chip_11cxx_lib/inc/ssp_11xx.h **** 	SSP_RXIM = ((uint32_t)(1 << 2)),/**< Rx FIFO is at least half full */
 144:../../lpc_chip_11cxx_lib/inc/ssp_11xx.h **** 	SSP_TXIM = ((uint32_t)(1 << 3)),/**< Tx FIFO is at least half empty */
 145:../../lpc_chip_11cxx_lib/inc/ssp_11xx.h **** 	SSP_INT_MASK_BITMASK = ((uint32_t)(0xF)),
 146:../../lpc_chip_11cxx_lib/inc/ssp_11xx.h **** } SSP_INTMASK_T;
 147:../../lpc_chip_11cxx_lib/inc/ssp_11xx.h **** 
 148:../../lpc_chip_11cxx_lib/inc/ssp_11xx.h **** /**
 149:../../lpc_chip_11cxx_lib/inc/ssp_11xx.h ****  * @brief SSP Type of Mask Interrupt Status
 150:../../lpc_chip_11cxx_lib/inc/ssp_11xx.h ****  */
 151:../../lpc_chip_11cxx_lib/inc/ssp_11xx.h **** typedef enum _SSP_MASKINTSTATUS {
 152:../../lpc_chip_11cxx_lib/inc/ssp_11xx.h **** 	SSP_RORMIS = ((uint32_t)(1 << 0)),	/**< Overun */
 153:../../lpc_chip_11cxx_lib/inc/ssp_11xx.h **** 	SSP_RTMIS = ((uint32_t)(1 << 1)),	/**< TimeOut */
 154:../../lpc_chip_11cxx_lib/inc/ssp_11xx.h **** 	SSP_RXMIS = ((uint32_t)(1 << 2)),	/**< Rx FIFO is at least half full */
 155:../../lpc_chip_11cxx_lib/inc/ssp_11xx.h **** 	SSP_TXMIS = ((uint32_t)(1 << 3)),	/**< Tx FIFO is at least half empty */
 156:../../lpc_chip_11cxx_lib/inc/ssp_11xx.h **** 	SSP_MASK_INT_STAT_BITMASK = ((uint32_t)(0xF)),
 157:../../lpc_chip_11cxx_lib/inc/ssp_11xx.h **** } SSP_MASKINTSTATUS_T;
 158:../../lpc_chip_11cxx_lib/inc/ssp_11xx.h **** 
 159:../../lpc_chip_11cxx_lib/inc/ssp_11xx.h **** /**
 160:../../lpc_chip_11cxx_lib/inc/ssp_11xx.h ****  * @brief SSP Type of Raw Interrupt Status
 161:../../lpc_chip_11cxx_lib/inc/ssp_11xx.h ****  */
 162:../../lpc_chip_11cxx_lib/inc/ssp_11xx.h **** typedef enum _SSP_RAWINTSTATUS {
 163:../../lpc_chip_11cxx_lib/inc/ssp_11xx.h **** 	SSP_RORRIS = ((uint32_t)(1 << 0)),	/**< Overun */
 164:../../lpc_chip_11cxx_lib/inc/ssp_11xx.h **** 	SSP_RTRIS = ((uint32_t)(1 << 1)),	/**< TimeOut */
 165:../../lpc_chip_11cxx_lib/inc/ssp_11xx.h **** 	SSP_RXRIS = ((uint32_t)(1 << 2)),	/**< Rx FIFO is at least half full */
 166:../../lpc_chip_11cxx_lib/inc/ssp_11xx.h **** 	SSP_TXRIS = ((uint32_t)(1 << 3)),	/**< Tx FIFO is at least half empty */
 167:../../lpc_chip_11cxx_lib/inc/ssp_11xx.h **** 	SSP_RAW_INT_STAT_BITMASK = ((uint32_t)(0xF)),
 168:../../lpc_chip_11cxx_lib/inc/ssp_11xx.h **** } SSP_RAWINTSTATUS_T;
 169:../../lpc_chip_11cxx_lib/inc/ssp_11xx.h **** 
 170:../../lpc_chip_11cxx_lib/inc/ssp_11xx.h **** typedef enum _SSP_INTCLEAR {
 171:../../lpc_chip_11cxx_lib/inc/ssp_11xx.h **** 	SSP_RORIC = 0x0,
 172:../../lpc_chip_11cxx_lib/inc/ssp_11xx.h **** 	SSP_RTIC = 0x1,
 173:../../lpc_chip_11cxx_lib/inc/ssp_11xx.h **** 	SSP_INT_CLEAR_BITMASK = 0x3,
ARM GAS  /var/folders/f9/8bk2lnw15zn4cbgn6wrnb4lm0000gn/T//ccCGlkPS.s 			page 7


 174:../../lpc_chip_11cxx_lib/inc/ssp_11xx.h **** } SSP_INTCLEAR_T;
 175:../../lpc_chip_11cxx_lib/inc/ssp_11xx.h **** 
 176:../../lpc_chip_11cxx_lib/inc/ssp_11xx.h **** /*
 177:../../lpc_chip_11cxx_lib/inc/ssp_11xx.h ****  * @brief SSP clock format
 178:../../lpc_chip_11cxx_lib/inc/ssp_11xx.h ****  */
 179:../../lpc_chip_11cxx_lib/inc/ssp_11xx.h **** typedef enum CHIP_SSP_CLOCK_FORMAT {
 180:../../lpc_chip_11cxx_lib/inc/ssp_11xx.h **** 	SSP_CLOCK_CPHA0_CPOL0 = (0 << 6),		/**< CPHA = 0, CPOL = 0 */
 181:../../lpc_chip_11cxx_lib/inc/ssp_11xx.h **** 	SSP_CLOCK_CPHA0_CPOL1 = (1u << 6),		/**< CPHA = 0, CPOL = 1 */
 182:../../lpc_chip_11cxx_lib/inc/ssp_11xx.h **** 	SSP_CLOCK_CPHA1_CPOL0 = (2u << 6),		/**< CPHA = 1, CPOL = 0 */
 183:../../lpc_chip_11cxx_lib/inc/ssp_11xx.h **** 	SSP_CLOCK_CPHA1_CPOL1 = (3u << 6),		/**< CPHA = 1, CPOL = 1 */
 184:../../lpc_chip_11cxx_lib/inc/ssp_11xx.h **** 	SSP_CLOCK_MODE0 = SSP_CLOCK_CPHA0_CPOL0,/**< alias */
 185:../../lpc_chip_11cxx_lib/inc/ssp_11xx.h **** 	SSP_CLOCK_MODE1 = SSP_CLOCK_CPHA1_CPOL0,/**< alias */
 186:../../lpc_chip_11cxx_lib/inc/ssp_11xx.h **** 	SSP_CLOCK_MODE2 = SSP_CLOCK_CPHA0_CPOL1,/**< alias */
 187:../../lpc_chip_11cxx_lib/inc/ssp_11xx.h **** 	SSP_CLOCK_MODE3 = SSP_CLOCK_CPHA1_CPOL1,/**< alias */
 188:../../lpc_chip_11cxx_lib/inc/ssp_11xx.h **** } CHIP_SSP_CLOCK_MODE_T;
 189:../../lpc_chip_11cxx_lib/inc/ssp_11xx.h **** 
 190:../../lpc_chip_11cxx_lib/inc/ssp_11xx.h **** /*
 191:../../lpc_chip_11cxx_lib/inc/ssp_11xx.h ****  * @brief SSP frame format
 192:../../lpc_chip_11cxx_lib/inc/ssp_11xx.h ****  */
 193:../../lpc_chip_11cxx_lib/inc/ssp_11xx.h **** typedef enum CHIP_SSP_FRAME_FORMAT {
 194:../../lpc_chip_11cxx_lib/inc/ssp_11xx.h **** 	SSP_FRAMEFORMAT_SPI = (0 << 4),			/**< Frame format: SPI */
 195:../../lpc_chip_11cxx_lib/inc/ssp_11xx.h **** 	CHIP_SSP_FRAME_FORMAT_TI = (1u << 4),			/**< Frame format: TI SSI */
 196:../../lpc_chip_11cxx_lib/inc/ssp_11xx.h **** 	SSP_FRAMEFORMAT_MICROWIRE = (2u << 4),	/**< Frame format: Microwire */
 197:../../lpc_chip_11cxx_lib/inc/ssp_11xx.h **** } CHIP_SSP_FRAME_FORMAT_T;
 198:../../lpc_chip_11cxx_lib/inc/ssp_11xx.h **** 
 199:../../lpc_chip_11cxx_lib/inc/ssp_11xx.h **** /*
 200:../../lpc_chip_11cxx_lib/inc/ssp_11xx.h ****  * @brief Number of bits per frame
 201:../../lpc_chip_11cxx_lib/inc/ssp_11xx.h ****  */
 202:../../lpc_chip_11cxx_lib/inc/ssp_11xx.h **** typedef enum CHIP_SSP_BITS {
 203:../../lpc_chip_11cxx_lib/inc/ssp_11xx.h **** 	SSP_BITS_4 = (3u << 0),		/*!< 4 bits/frame */
 204:../../lpc_chip_11cxx_lib/inc/ssp_11xx.h **** 	SSP_BITS_5 = (4u << 0),		/*!< 5 bits/frame */
 205:../../lpc_chip_11cxx_lib/inc/ssp_11xx.h **** 	SSP_BITS_6 = (5u << 0),		/*!< 6 bits/frame */
 206:../../lpc_chip_11cxx_lib/inc/ssp_11xx.h **** 	SSP_BITS_7 = (6u << 0),		/*!< 7 bits/frame */
 207:../../lpc_chip_11cxx_lib/inc/ssp_11xx.h **** 	SSP_BITS_8 = (7u << 0),		/*!< 8 bits/frame */
 208:../../lpc_chip_11cxx_lib/inc/ssp_11xx.h **** 	SSP_BITS_9 = (8u << 0),		/*!< 9 bits/frame */
 209:../../lpc_chip_11cxx_lib/inc/ssp_11xx.h **** 	SSP_BITS_10 = (9u << 0),	/*!< 10 bits/frame */
 210:../../lpc_chip_11cxx_lib/inc/ssp_11xx.h **** 	SSP_BITS_11 = (10u << 0),	/*!< 11 bits/frame */
 211:../../lpc_chip_11cxx_lib/inc/ssp_11xx.h **** 	SSP_BITS_12 = (11u << 0),	/*!< 12 bits/frame */
 212:../../lpc_chip_11cxx_lib/inc/ssp_11xx.h **** 	SSP_BITS_13 = (12u << 0),	/*!< 13 bits/frame */
 213:../../lpc_chip_11cxx_lib/inc/ssp_11xx.h **** 	SSP_BITS_14 = (13u << 0),	/*!< 14 bits/frame */
 214:../../lpc_chip_11cxx_lib/inc/ssp_11xx.h **** 	SSP_BITS_15 = (14u << 0),	/*!< 15 bits/frame */
 215:../../lpc_chip_11cxx_lib/inc/ssp_11xx.h **** 	SSP_BITS_16 = (15u << 0),	/*!< 16 bits/frame */
 216:../../lpc_chip_11cxx_lib/inc/ssp_11xx.h **** } CHIP_SSP_BITS_T;
 217:../../lpc_chip_11cxx_lib/inc/ssp_11xx.h **** 
 218:../../lpc_chip_11cxx_lib/inc/ssp_11xx.h **** /*
 219:../../lpc_chip_11cxx_lib/inc/ssp_11xx.h ****  * @brief SSP config format
 220:../../lpc_chip_11cxx_lib/inc/ssp_11xx.h ****  */
 221:../../lpc_chip_11cxx_lib/inc/ssp_11xx.h **** typedef struct SSP_ConfigFormat {
 222:../../lpc_chip_11cxx_lib/inc/ssp_11xx.h **** 	CHIP_SSP_BITS_T bits;					/*!< Format config: bits/frame */
 223:../../lpc_chip_11cxx_lib/inc/ssp_11xx.h **** 	CHIP_SSP_CLOCK_MODE_T clockMode;	/*!< Format config: clock phase/polarity */
 224:../../lpc_chip_11cxx_lib/inc/ssp_11xx.h **** 	CHIP_SSP_FRAME_FORMAT_T frameFormat;	/*!< Format config: SPI/TI/Microwire */
 225:../../lpc_chip_11cxx_lib/inc/ssp_11xx.h **** } SSP_ConfigFormat;
 226:../../lpc_chip_11cxx_lib/inc/ssp_11xx.h **** 
 227:../../lpc_chip_11cxx_lib/inc/ssp_11xx.h **** /**
 228:../../lpc_chip_11cxx_lib/inc/ssp_11xx.h ****  * @brief	Enable SSP operation
 229:../../lpc_chip_11cxx_lib/inc/ssp_11xx.h ****  * @param	pSSP		: The base of SSP peripheral on the chip
 230:../../lpc_chip_11cxx_lib/inc/ssp_11xx.h ****  * @return	 Nothing
ARM GAS  /var/folders/f9/8bk2lnw15zn4cbgn6wrnb4lm0000gn/T//ccCGlkPS.s 			page 8


 231:../../lpc_chip_11cxx_lib/inc/ssp_11xx.h ****  */
 232:../../lpc_chip_11cxx_lib/inc/ssp_11xx.h **** STATIC INLINE void Chip_SSP_Enable(LPC_SSP_T *pSSP)
 233:../../lpc_chip_11cxx_lib/inc/ssp_11xx.h **** {
 234:../../lpc_chip_11cxx_lib/inc/ssp_11xx.h **** 	pSSP->CR1 |= SSP_CR1_SSP_EN;
 235:../../lpc_chip_11cxx_lib/inc/ssp_11xx.h **** }
 236:../../lpc_chip_11cxx_lib/inc/ssp_11xx.h **** 
 237:../../lpc_chip_11cxx_lib/inc/ssp_11xx.h **** /**
 238:../../lpc_chip_11cxx_lib/inc/ssp_11xx.h ****  * @brief	Disable SSP operation
 239:../../lpc_chip_11cxx_lib/inc/ssp_11xx.h ****  * @param	pSSP		: The base of SSP peripheral on the chip
 240:../../lpc_chip_11cxx_lib/inc/ssp_11xx.h ****  * @return	 Nothing
 241:../../lpc_chip_11cxx_lib/inc/ssp_11xx.h ****  */
 242:../../lpc_chip_11cxx_lib/inc/ssp_11xx.h **** STATIC INLINE void Chip_SSP_Disable(LPC_SSP_T *pSSP)
 243:../../lpc_chip_11cxx_lib/inc/ssp_11xx.h **** {
 244:../../lpc_chip_11cxx_lib/inc/ssp_11xx.h **** 	pSSP->CR1 &= (~SSP_CR1_SSP_EN) & SSP_CR1_BITMASK;
 245:../../lpc_chip_11cxx_lib/inc/ssp_11xx.h **** }
 246:../../lpc_chip_11cxx_lib/inc/ssp_11xx.h **** 
 247:../../lpc_chip_11cxx_lib/inc/ssp_11xx.h **** /**
 248:../../lpc_chip_11cxx_lib/inc/ssp_11xx.h ****  * @brief	Enable loopback mode
 249:../../lpc_chip_11cxx_lib/inc/ssp_11xx.h ****  * @param	pSSP		: The base of SSP peripheral on the chip
 250:../../lpc_chip_11cxx_lib/inc/ssp_11xx.h ****  * @return	 Nothing
 251:../../lpc_chip_11cxx_lib/inc/ssp_11xx.h ****  * @note	Serial input is taken from the serial output (MOSI or MISO) rather
 252:../../lpc_chip_11cxx_lib/inc/ssp_11xx.h ****  * than the serial input pin
 253:../../lpc_chip_11cxx_lib/inc/ssp_11xx.h ****  */
 254:../../lpc_chip_11cxx_lib/inc/ssp_11xx.h **** STATIC INLINE void Chip_SSP_EnableLoopBack(LPC_SSP_T *pSSP)
 255:../../lpc_chip_11cxx_lib/inc/ssp_11xx.h **** {
 256:../../lpc_chip_11cxx_lib/inc/ssp_11xx.h **** 	pSSP->CR1 |= SSP_CR1_LBM_EN;
 257:../../lpc_chip_11cxx_lib/inc/ssp_11xx.h **** }
 258:../../lpc_chip_11cxx_lib/inc/ssp_11xx.h **** 
 259:../../lpc_chip_11cxx_lib/inc/ssp_11xx.h **** /**
 260:../../lpc_chip_11cxx_lib/inc/ssp_11xx.h ****  * @brief	Disable loopback mode
 261:../../lpc_chip_11cxx_lib/inc/ssp_11xx.h ****  * @param	pSSP		: The base of SSP peripheral on the chip
 262:../../lpc_chip_11cxx_lib/inc/ssp_11xx.h ****  * @return	 Nothing
 263:../../lpc_chip_11cxx_lib/inc/ssp_11xx.h ****  * @note	Serial input is taken from the serial output (MOSI or MISO) rather
 264:../../lpc_chip_11cxx_lib/inc/ssp_11xx.h ****  * than the serial input pin
 265:../../lpc_chip_11cxx_lib/inc/ssp_11xx.h ****  */
 266:../../lpc_chip_11cxx_lib/inc/ssp_11xx.h **** STATIC INLINE void Chip_SSP_DisableLoopBack(LPC_SSP_T *pSSP)
 267:../../lpc_chip_11cxx_lib/inc/ssp_11xx.h **** {
 268:../../lpc_chip_11cxx_lib/inc/ssp_11xx.h **** 	pSSP->CR1 &= (~SSP_CR1_LBM_EN) & SSP_CR1_BITMASK;
 269:../../lpc_chip_11cxx_lib/inc/ssp_11xx.h **** }
 270:../../lpc_chip_11cxx_lib/inc/ssp_11xx.h **** 
 271:../../lpc_chip_11cxx_lib/inc/ssp_11xx.h **** /**
 272:../../lpc_chip_11cxx_lib/inc/ssp_11xx.h ****  * @brief	Get the current status of SSP controller
 273:../../lpc_chip_11cxx_lib/inc/ssp_11xx.h ****  * @param	pSSP	: The base of SSP peripheral on the chip
 274:../../lpc_chip_11cxx_lib/inc/ssp_11xx.h ****  * @param	Stat	: Type of status, should be :
 275:../../lpc_chip_11cxx_lib/inc/ssp_11xx.h ****  *						- SSP_STAT_TFE
 276:../../lpc_chip_11cxx_lib/inc/ssp_11xx.h ****  *						- SSP_STAT_TNF
 277:../../lpc_chip_11cxx_lib/inc/ssp_11xx.h ****  *						- SSP_STAT_RNE
 278:../../lpc_chip_11cxx_lib/inc/ssp_11xx.h ****  *						- SSP_STAT_RFF
 279:../../lpc_chip_11cxx_lib/inc/ssp_11xx.h ****  *						- SSP_STAT_BSY
 280:../../lpc_chip_11cxx_lib/inc/ssp_11xx.h ****  * @return	 SSP controller status, SET or RESET
 281:../../lpc_chip_11cxx_lib/inc/ssp_11xx.h ****  */
 282:../../lpc_chip_11cxx_lib/inc/ssp_11xx.h **** STATIC INLINE FlagStatus Chip_SSP_GetStatus(LPC_SSP_T *pSSP, SSP_STATUS_T Stat)
 283:../../lpc_chip_11cxx_lib/inc/ssp_11xx.h **** {
 284:../../lpc_chip_11cxx_lib/inc/ssp_11xx.h **** 	return (pSSP->SR & Stat) ? SET : RESET;
  80              		.loc 2 284 0
  81 0000 C368     		ldr	r3, [r0, #12]	@ D.6825, pSSP_4(D)->SR
  82              	.LBE225:
ARM GAS  /var/folders/f9/8bk2lnw15zn4cbgn6wrnb4lm0000gn/T//ccCGlkPS.s 			page 9


  83              	.LBE224:
  84              		.loc 1 90 0
  85 0002 30B5     		push	{r4, r5, lr}	@
  86              		.cfi_def_cfa_offset 12
  87              		.cfi_offset 4, -12
  88              		.cfi_offset 5, -8
  89              		.cfi_offset 14, -4
  91:../../lpc_chip_11cxx_lib/src/ssp_11xx.c **** 	uint16_t rDat;
  92:../../lpc_chip_11cxx_lib/src/ssp_11xx.c **** 
  93:../../lpc_chip_11cxx_lib/src/ssp_11xx.c **** 	while ((Chip_SSP_GetStatus(pSSP, SSP_STAT_RNE) == SET) &&
  90              		.loc 1 93 0
  91 0004 5A07     		lsl	r2, r3, #29	@, D.6825,
  92 0006 14D5     		bpl	.L1	@,
  94:../../lpc_chip_11cxx_lib/src/ssp_11xx.c **** 		   (xf_setup->rx_cnt < xf_setup->length)) {
  93              		.loc 1 94 0
  94 0008 CB68     		ldr	r3, [r1, #12]	@ xf_setup_6(D)->rx_cnt, xf_setup_6(D)->rx_cnt
  93:../../lpc_chip_11cxx_lib/src/ssp_11xx.c **** 	while ((Chip_SSP_GetStatus(pSSP, SSP_STAT_RNE) == SET) &&
  95              		.loc 1 93 0
  96 000a 0A69     		ldr	r2, [r1, #16]	@, xf_setup_6(D)->length
  97 000c 9342     		cmp	r3, r2	@ xf_setup_6(D)->rx_cnt,
  98 000e 10D2     		bcs	.L1	@,
  99              	.LBB229:
 100              	.LBB226:
 101              		.loc 2 284 0
 102 0010 0125     		mov	r5, #1	@ tmp149,
 103 0012 02E0     		b	.L5	@
 104              	.LVL1:
 105              	.L10:
 106              	.LBE226:
 107              	.LBE229:
  93:../../lpc_chip_11cxx_lib/src/ssp_11xx.c **** 	while ((Chip_SSP_GetStatus(pSSP, SSP_STAT_RNE) == SET) &&
 108              		.loc 1 93 0 discriminator 2
 109 0014 0A69     		ldr	r2, [r1, #16]	@, xf_setup_6(D)->length
 110 0016 9A42     		cmp	r2, r3	@, xf_setup_6(D)->rx_cnt
 111 0018 0BD9     		bls	.L1	@,
 112              	.LVL2:
 113              	.L5:
  95:../../lpc_chip_11cxx_lib/src/ssp_11xx.c **** 		rDat = Chip_SSP_ReceiveFrame(pSSP);
  96:../../lpc_chip_11cxx_lib/src/ssp_11xx.c **** 		if (xf_setup->rx_data) {
 114              		.loc 1 96 0
 115 001a 8A68     		ldr	r2, [r1, #8]	@ D.6826, xf_setup_6(D)->rx_data
 116              	.LBB230:
 117              	.LBB231:
 285:../../lpc_chip_11cxx_lib/inc/ssp_11xx.h **** }
 286:../../lpc_chip_11cxx_lib/inc/ssp_11xx.h **** 
 287:../../lpc_chip_11cxx_lib/inc/ssp_11xx.h **** /**
 288:../../lpc_chip_11cxx_lib/inc/ssp_11xx.h ****  * @brief	Get the masked interrupt status
 289:../../lpc_chip_11cxx_lib/inc/ssp_11xx.h ****  * @param	pSSP	: The base of SSP peripheral on the chip
 290:../../lpc_chip_11cxx_lib/inc/ssp_11xx.h ****  * @return	 SSP Masked Interrupt Status Register value
 291:../../lpc_chip_11cxx_lib/inc/ssp_11xx.h ****  * @note	The return value contains a 1 for each interrupt condition that is asserted and enabled (m
 292:../../lpc_chip_11cxx_lib/inc/ssp_11xx.h ****  */
 293:../../lpc_chip_11cxx_lib/inc/ssp_11xx.h **** STATIC INLINE uint32_t Chip_SSP_GetIntStatus(LPC_SSP_T *pSSP)
 294:../../lpc_chip_11cxx_lib/inc/ssp_11xx.h **** {
 295:../../lpc_chip_11cxx_lib/inc/ssp_11xx.h **** 	return pSSP->MIS;
 296:../../lpc_chip_11cxx_lib/inc/ssp_11xx.h **** }
 297:../../lpc_chip_11cxx_lib/inc/ssp_11xx.h **** 
 298:../../lpc_chip_11cxx_lib/inc/ssp_11xx.h **** /**
ARM GAS  /var/folders/f9/8bk2lnw15zn4cbgn6wrnb4lm0000gn/T//ccCGlkPS.s 			page 10


 299:../../lpc_chip_11cxx_lib/inc/ssp_11xx.h ****  * @brief	Get the raw interrupt status
 300:../../lpc_chip_11cxx_lib/inc/ssp_11xx.h ****  * @param	pSSP	: The base of SSP peripheral on the chip
 301:../../lpc_chip_11cxx_lib/inc/ssp_11xx.h ****  * @param	RawInt	: Interrupt condition to be get status, shoud be :
 302:../../lpc_chip_11cxx_lib/inc/ssp_11xx.h ****  *						- SSP_RORRIS
 303:../../lpc_chip_11cxx_lib/inc/ssp_11xx.h ****  *						- SSP_RTRIS
 304:../../lpc_chip_11cxx_lib/inc/ssp_11xx.h ****  *						- SSP_RXRIS
 305:../../lpc_chip_11cxx_lib/inc/ssp_11xx.h ****  *						- SSP_TXRIS
 306:../../lpc_chip_11cxx_lib/inc/ssp_11xx.h ****  * @return	 Raw interrupt status corresponding to interrupt condition , SET or RESET
 307:../../lpc_chip_11cxx_lib/inc/ssp_11xx.h ****  * @note	Get the status of each interrupt condition ,regardless of whether or not the interrupt is 
 308:../../lpc_chip_11cxx_lib/inc/ssp_11xx.h ****  */
 309:../../lpc_chip_11cxx_lib/inc/ssp_11xx.h **** STATIC INLINE IntStatus Chip_SSP_GetRawIntStatus(LPC_SSP_T *pSSP, SSP_RAWINTSTATUS_T RawInt)
 310:../../lpc_chip_11cxx_lib/inc/ssp_11xx.h **** {
 311:../../lpc_chip_11cxx_lib/inc/ssp_11xx.h **** 	return (pSSP->RIS & RawInt) ? SET : RESET;
 312:../../lpc_chip_11cxx_lib/inc/ssp_11xx.h **** }
 313:../../lpc_chip_11cxx_lib/inc/ssp_11xx.h **** 
 314:../../lpc_chip_11cxx_lib/inc/ssp_11xx.h **** /**
 315:../../lpc_chip_11cxx_lib/inc/ssp_11xx.h ****  * @brief	Get the number of bits transferred in each frame
 316:../../lpc_chip_11cxx_lib/inc/ssp_11xx.h ****  * @param	pSSP	: The base of SSP peripheral on the chip
 317:../../lpc_chip_11cxx_lib/inc/ssp_11xx.h ****  * @return	 the number of bits transferred in each frame minus one
 318:../../lpc_chip_11cxx_lib/inc/ssp_11xx.h ****  * @note	The return value is 0x03 -> 0xF corresponding to 4bit -> 16bit transfer
 319:../../lpc_chip_11cxx_lib/inc/ssp_11xx.h ****  */
 320:../../lpc_chip_11cxx_lib/inc/ssp_11xx.h **** STATIC INLINE uint8_t Chip_SSP_GetDataSize(LPC_SSP_T *pSSP)
 321:../../lpc_chip_11cxx_lib/inc/ssp_11xx.h **** {
 322:../../lpc_chip_11cxx_lib/inc/ssp_11xx.h **** 	return SSP_CR0_DSS(pSSP->CR0);
 323:../../lpc_chip_11cxx_lib/inc/ssp_11xx.h **** }
 324:../../lpc_chip_11cxx_lib/inc/ssp_11xx.h **** 
 325:../../lpc_chip_11cxx_lib/inc/ssp_11xx.h **** /**
 326:../../lpc_chip_11cxx_lib/inc/ssp_11xx.h ****  * @brief	Clear the corresponding interrupt condition(s) in the SSP controller
 327:../../lpc_chip_11cxx_lib/inc/ssp_11xx.h ****  * @param	pSSP	: The base of SSP peripheral on the chip
 328:../../lpc_chip_11cxx_lib/inc/ssp_11xx.h ****  * @param	IntClear: Type of cleared interrupt, should be :
 329:../../lpc_chip_11cxx_lib/inc/ssp_11xx.h ****  *						- SSP_RORIC
 330:../../lpc_chip_11cxx_lib/inc/ssp_11xx.h ****  *						- SSP_RTIC
 331:../../lpc_chip_11cxx_lib/inc/ssp_11xx.h ****  * @return	 Nothing
 332:../../lpc_chip_11cxx_lib/inc/ssp_11xx.h ****  * @note	Software can clear one or more interrupt condition(s) in the SSP controller
 333:../../lpc_chip_11cxx_lib/inc/ssp_11xx.h ****  */
 334:../../lpc_chip_11cxx_lib/inc/ssp_11xx.h **** STATIC INLINE void Chip_SSP_ClearIntPending(LPC_SSP_T *pSSP, SSP_INTCLEAR_T IntClear)
 335:../../lpc_chip_11cxx_lib/inc/ssp_11xx.h **** {
 336:../../lpc_chip_11cxx_lib/inc/ssp_11xx.h **** 	pSSP->ICR = IntClear;
 337:../../lpc_chip_11cxx_lib/inc/ssp_11xx.h **** }
 338:../../lpc_chip_11cxx_lib/inc/ssp_11xx.h **** 
 339:../../lpc_chip_11cxx_lib/inc/ssp_11xx.h **** /**
 340:../../lpc_chip_11cxx_lib/inc/ssp_11xx.h ****  * @brief	Enable interrupt for the SSP
 341:../../lpc_chip_11cxx_lib/inc/ssp_11xx.h ****  * @param	pSSP		: The base of SSP peripheral on the chip
 342:../../lpc_chip_11cxx_lib/inc/ssp_11xx.h ****  * @return	 Nothing
 343:../../lpc_chip_11cxx_lib/inc/ssp_11xx.h ****  */
 344:../../lpc_chip_11cxx_lib/inc/ssp_11xx.h **** STATIC INLINE void Chip_SSP_Int_Enable(LPC_SSP_T *pSSP)
 345:../../lpc_chip_11cxx_lib/inc/ssp_11xx.h **** {
 346:../../lpc_chip_11cxx_lib/inc/ssp_11xx.h **** 	pSSP->IMSC |= SSP_TXIM;
 347:../../lpc_chip_11cxx_lib/inc/ssp_11xx.h **** }
 348:../../lpc_chip_11cxx_lib/inc/ssp_11xx.h **** 
 349:../../lpc_chip_11cxx_lib/inc/ssp_11xx.h **** /**
 350:../../lpc_chip_11cxx_lib/inc/ssp_11xx.h ****  * @brief	Disable interrupt for the SSP
 351:../../lpc_chip_11cxx_lib/inc/ssp_11xx.h ****  * @param	pSSP		: The base of SSP peripheral on the chip
 352:../../lpc_chip_11cxx_lib/inc/ssp_11xx.h ****  * @return	 Nothing
 353:../../lpc_chip_11cxx_lib/inc/ssp_11xx.h ****  */
 354:../../lpc_chip_11cxx_lib/inc/ssp_11xx.h **** STATIC INLINE void Chip_SSP_Int_Disable(LPC_SSP_T *pSSP)
 355:../../lpc_chip_11cxx_lib/inc/ssp_11xx.h **** {
ARM GAS  /var/folders/f9/8bk2lnw15zn4cbgn6wrnb4lm0000gn/T//ccCGlkPS.s 			page 11


 356:../../lpc_chip_11cxx_lib/inc/ssp_11xx.h **** 	pSSP->IMSC &= (~SSP_TXIM);
 357:../../lpc_chip_11cxx_lib/inc/ssp_11xx.h **** }
 358:../../lpc_chip_11cxx_lib/inc/ssp_11xx.h **** 
 359:../../lpc_chip_11cxx_lib/inc/ssp_11xx.h **** /**
 360:../../lpc_chip_11cxx_lib/inc/ssp_11xx.h ****  * @brief	Get received SSP data
 361:../../lpc_chip_11cxx_lib/inc/ssp_11xx.h ****  * @param	pSSP	: The base of SSP peripheral on the chip
 362:../../lpc_chip_11cxx_lib/inc/ssp_11xx.h ****  * @return	 SSP 16-bit data received
 363:../../lpc_chip_11cxx_lib/inc/ssp_11xx.h ****  */
 364:../../lpc_chip_11cxx_lib/inc/ssp_11xx.h **** STATIC INLINE uint16_t Chip_SSP_ReceiveFrame(LPC_SSP_T *pSSP)
 365:../../lpc_chip_11cxx_lib/inc/ssp_11xx.h **** {
 366:../../lpc_chip_11cxx_lib/inc/ssp_11xx.h **** 	return (uint16_t) (SSP_DR_BITMASK(pSSP->DR));
 118              		.loc 2 366 0
 119 001c 8468     		ldr	r4, [r0, #8]	@ D.6825, pSSP_4(D)->DR
 120              	.LBE231:
 121              	.LBE230:
 122              		.loc 1 96 0
 123 001e 002A     		cmp	r2, #0	@ D.6826,
 124 0020 01D0     		beq	.L4	@,
  97:../../lpc_chip_11cxx_lib/src/ssp_11xx.c **** 			*(uint8_t *) ((uint32_t) xf_setup->rx_data + xf_setup->rx_cnt) = rDat;
 125              		.loc 1 97 0
 126 0022 D454     		strb	r4, [r2, r3]	@ D.6825, *_13
 127 0024 CB68     		ldr	r3, [r1, #12]	@ xf_setup_6(D)->rx_cnt, xf_setup_6(D)->rx_cnt
 128              	.L4:
 129              	.LBB232:
 130              	.LBB227:
 284:../../lpc_chip_11cxx_lib/inc/ssp_11xx.h **** 	return (pSSP->SR & Stat) ? SET : RESET;
 131              		.loc 2 284 0
 132 0026 C268     		ldr	r2, [r0, #12]	@ D.6825, pSSP_4(D)->SR
 133              	.LBE227:
 134              	.LBE232:
  98:../../lpc_chip_11cxx_lib/src/ssp_11xx.c **** 		}
  99:../../lpc_chip_11cxx_lib/src/ssp_11xx.c **** 
 100:../../lpc_chip_11cxx_lib/src/ssp_11xx.c **** 		xf_setup->rx_cnt++;
 135              		.loc 1 100 0
 136 0028 0133     		add	r3, r3, #1	@ xf_setup_6(D)->rx_cnt,
 137              	.LBB233:
 138              	.LBB228:
 284:../../lpc_chip_11cxx_lib/inc/ssp_11xx.h **** 	return (pSSP->SR & Stat) ? SET : RESET;
 139              		.loc 2 284 0
 140 002a 9208     		lsr	r2, r2, #2	@ tmp140, D.6825,
 141              	.LBE228:
 142              	.LBE233:
 143              		.loc 1 100 0
 144 002c CB60     		str	r3, [r1, #12]	@ xf_setup_6(D)->rx_cnt, xf_setup_6(D)->rx_cnt
  93:../../lpc_chip_11cxx_lib/src/ssp_11xx.c **** 	while ((Chip_SSP_GetStatus(pSSP, SSP_STAT_RNE) == SET) &&
 145              		.loc 1 93 0
 146 002e 1542     		tst	r5, r2	@ tmp149, tmp140
 147 0030 F0D1     		bne	.L10	@,
 148              	.LVL3:
 149              	.L1:
 101:../../lpc_chip_11cxx_lib/src/ssp_11xx.c **** 	}
 102:../../lpc_chip_11cxx_lib/src/ssp_11xx.c **** }
 150              		.loc 1 102 0
 151              		@ sp needed	@
 152 0032 30BD     		pop	{r4, r5, pc}
 153              		.cfi_endproc
 154              	.LFE201:
ARM GAS  /var/folders/f9/8bk2lnw15zn4cbgn6wrnb4lm0000gn/T//ccCGlkPS.s 			page 12


 155              		.size	SSP_Read1BFifo, .-SSP_Read1BFifo
 156              		.section	.text.Chip_SSP_SetClockRate,"ax",%progbits
 157              		.align	2
 158              		.global	Chip_SSP_SetClockRate
 159              		.code	16
 160              		.thumb_func
 161              		.type	Chip_SSP_SetClockRate, %function
 162              	Chip_SSP_SetClockRate:
 163              	.LFB206:
 103:../../lpc_chip_11cxx_lib/src/ssp_11xx.c **** 
 104:../../lpc_chip_11cxx_lib/src/ssp_11xx.c **** /* Returns clock for the peripheral block */
 105:../../lpc_chip_11cxx_lib/src/ssp_11xx.c **** STATIC CHIP_SYSCTL_CLOCK_T Chip_SSP_GetClockIndex(LPC_SSP_T *pSSP)
 106:../../lpc_chip_11cxx_lib/src/ssp_11xx.c **** {
 107:../../lpc_chip_11cxx_lib/src/ssp_11xx.c **** 	CHIP_SYSCTL_CLOCK_T clkSSP;
 108:../../lpc_chip_11cxx_lib/src/ssp_11xx.c **** 
 109:../../lpc_chip_11cxx_lib/src/ssp_11xx.c **** 	if (pSSP == LPC_SSP0) {
 110:../../lpc_chip_11cxx_lib/src/ssp_11xx.c **** 		clkSSP = SYSCTL_CLOCK_SSP0;
 111:../../lpc_chip_11cxx_lib/src/ssp_11xx.c **** 	}
 112:../../lpc_chip_11cxx_lib/src/ssp_11xx.c **** #if defined(CHIP_LPC11CXX) || defined(CHIP_LPC11EXX) || defined(CHIP_LPC11AXX) || defined(CHIP_LPC1
 113:../../lpc_chip_11cxx_lib/src/ssp_11xx.c **** 	else {
 114:../../lpc_chip_11cxx_lib/src/ssp_11xx.c **** 		clkSSP = SYSCTL_CLOCK_SSP1;
 115:../../lpc_chip_11cxx_lib/src/ssp_11xx.c **** 	}
 116:../../lpc_chip_11cxx_lib/src/ssp_11xx.c **** #endif
 117:../../lpc_chip_11cxx_lib/src/ssp_11xx.c **** 		
 118:../../lpc_chip_11cxx_lib/src/ssp_11xx.c **** 	return clkSSP;
 119:../../lpc_chip_11cxx_lib/src/ssp_11xx.c **** }
 120:../../lpc_chip_11cxx_lib/src/ssp_11xx.c **** 
 121:../../lpc_chip_11cxx_lib/src/ssp_11xx.c **** /* Returns reset ID for the peripheral block */
 122:../../lpc_chip_11cxx_lib/src/ssp_11xx.c **** STATIC CHIP_SYSCTL_PERIPH_RESET_T Chip_SSP_GetResetIndex(LPC_SSP_T *pSSP)
 123:../../lpc_chip_11cxx_lib/src/ssp_11xx.c **** {
 124:../../lpc_chip_11cxx_lib/src/ssp_11xx.c **** 	CHIP_SYSCTL_PERIPH_RESET_T resetSSP;
 125:../../lpc_chip_11cxx_lib/src/ssp_11xx.c **** 
 126:../../lpc_chip_11cxx_lib/src/ssp_11xx.c **** 	if (pSSP == LPC_SSP0) {
 127:../../lpc_chip_11cxx_lib/src/ssp_11xx.c **** 		resetSSP = RESET_SSP0;
 128:../../lpc_chip_11cxx_lib/src/ssp_11xx.c **** 	}
 129:../../lpc_chip_11cxx_lib/src/ssp_11xx.c **** 	else {
 130:../../lpc_chip_11cxx_lib/src/ssp_11xx.c **** 		resetSSP = RESET_SSP1;
 131:../../lpc_chip_11cxx_lib/src/ssp_11xx.c **** 	}
 132:../../lpc_chip_11cxx_lib/src/ssp_11xx.c **** 
 133:../../lpc_chip_11cxx_lib/src/ssp_11xx.c **** 	return resetSSP;
 134:../../lpc_chip_11cxx_lib/src/ssp_11xx.c **** }
 135:../../lpc_chip_11cxx_lib/src/ssp_11xx.c **** 
 136:../../lpc_chip_11cxx_lib/src/ssp_11xx.c **** /* Returns reset ID for the peripheral block */
 137:../../lpc_chip_11cxx_lib/src/ssp_11xx.c **** STATIC void Chip_SSP_SetSSPClkDivider(LPC_SSP_T *pSSP, uint32_t div)
 138:../../lpc_chip_11cxx_lib/src/ssp_11xx.c **** {
 139:../../lpc_chip_11cxx_lib/src/ssp_11xx.c **** 	if (pSSP == LPC_SSP0) {
 140:../../lpc_chip_11cxx_lib/src/ssp_11xx.c **** 		Chip_Clock_SetSSP0ClockDiv(div);
 141:../../lpc_chip_11cxx_lib/src/ssp_11xx.c **** 	}
 142:../../lpc_chip_11cxx_lib/src/ssp_11xx.c **** #if defined(CHIP_LPC11CXX) || defined(CHIP_LPC11EXX) || defined(CHIP_LPC11AXX) || defined(CHIP_LPC1
 143:../../lpc_chip_11cxx_lib/src/ssp_11xx.c **** 	else {
 144:../../lpc_chip_11cxx_lib/src/ssp_11xx.c **** 		Chip_Clock_SetSSP1ClockDiv(div);
 145:../../lpc_chip_11cxx_lib/src/ssp_11xx.c **** 	}
 146:../../lpc_chip_11cxx_lib/src/ssp_11xx.c **** #endif
 147:../../lpc_chip_11cxx_lib/src/ssp_11xx.c **** }
 148:../../lpc_chip_11cxx_lib/src/ssp_11xx.c **** 
 149:../../lpc_chip_11cxx_lib/src/ssp_11xx.c **** /* Returns SSP peripheral clock for the peripheral block */
 150:../../lpc_chip_11cxx_lib/src/ssp_11xx.c **** STATIC uint32_t Chip_SSP_GetPCLKkRate(LPC_SSP_T *pSSP)
ARM GAS  /var/folders/f9/8bk2lnw15zn4cbgn6wrnb4lm0000gn/T//ccCGlkPS.s 			page 13


 151:../../lpc_chip_11cxx_lib/src/ssp_11xx.c **** {
 152:../../lpc_chip_11cxx_lib/src/ssp_11xx.c **** 	uint32_t sspCLK = Chip_Clock_GetMainClockRate();
 153:../../lpc_chip_11cxx_lib/src/ssp_11xx.c **** 
 154:../../lpc_chip_11cxx_lib/src/ssp_11xx.c **** 	if (pSSP == LPC_SSP0) {
 155:../../lpc_chip_11cxx_lib/src/ssp_11xx.c **** 		sspCLK /= Chip_Clock_GetSSP0ClockDiv();
 156:../../lpc_chip_11cxx_lib/src/ssp_11xx.c **** 	}
 157:../../lpc_chip_11cxx_lib/src/ssp_11xx.c **** #if defined(CHIP_LPC11CXX) || defined(CHIP_LPC11EXX) || defined(CHIP_LPC11AXX) || defined(CHIP_LPC1
 158:../../lpc_chip_11cxx_lib/src/ssp_11xx.c **** 	else {
 159:../../lpc_chip_11cxx_lib/src/ssp_11xx.c **** 		sspCLK /= Chip_Clock_GetSSP1ClockDiv();
 160:../../lpc_chip_11cxx_lib/src/ssp_11xx.c **** 	}
 161:../../lpc_chip_11cxx_lib/src/ssp_11xx.c **** #endif
 162:../../lpc_chip_11cxx_lib/src/ssp_11xx.c **** 	
 163:../../lpc_chip_11cxx_lib/src/ssp_11xx.c ****     return sspCLK;
 164:../../lpc_chip_11cxx_lib/src/ssp_11xx.c **** }
 165:../../lpc_chip_11cxx_lib/src/ssp_11xx.c **** 
 166:../../lpc_chip_11cxx_lib/src/ssp_11xx.c **** /*****************************************************************************
 167:../../lpc_chip_11cxx_lib/src/ssp_11xx.c ****  * Public functions
 168:../../lpc_chip_11cxx_lib/src/ssp_11xx.c ****  ****************************************************************************/
 169:../../lpc_chip_11cxx_lib/src/ssp_11xx.c **** 
 170:../../lpc_chip_11cxx_lib/src/ssp_11xx.c **** /*Set up output clocks per bit for SSP bus*/
 171:../../lpc_chip_11cxx_lib/src/ssp_11xx.c **** void Chip_SSP_SetClockRate(LPC_SSP_T *pSSP, uint32_t clk_rate, uint32_t prescale)
 172:../../lpc_chip_11cxx_lib/src/ssp_11xx.c **** {
 164              		.loc 1 172 0
 165              		.cfi_startproc
 166              	.LVL4:
 167 0000 10B5     		push	{r4, lr}	@
 168              		.cfi_def_cfa_offset 8
 169              		.cfi_offset 4, -8
 170              		.cfi_offset 14, -4
 173:../../lpc_chip_11cxx_lib/src/ssp_11xx.c **** 	uint32_t temp;
 174:../../lpc_chip_11cxx_lib/src/ssp_11xx.c **** 	temp = pSSP->CR0 & (~(SSP_CR0_SCR(0xFF)));
 175:../../lpc_chip_11cxx_lib/src/ssp_11xx.c **** 	pSSP->CR0 = temp | (SSP_CR0_SCR(clk_rate));
 171              		.loc 1 175 0
 172 0002 0906     		lsl	r1, r1, #24	@ tmp120, clk_rate,
 173              	.LVL5:
 174:../../lpc_chip_11cxx_lib/src/ssp_11xx.c **** 	temp = pSSP->CR0 & (~(SSP_CR0_SCR(0xFF)));
 174              		.loc 1 174 0
 175 0004 0468     		ldr	r4, [r0]	@ D.6833, pSSP_2(D)->CR0
 176              	.LVL6:
 177              		.loc 1 175 0
 178 0006 0B0C     		lsr	r3, r1, #16	@ D.6833, tmp120,
 174:../../lpc_chip_11cxx_lib/src/ssp_11xx.c **** 	temp = pSSP->CR0 & (~(SSP_CR0_SCR(0xFF)));
 179              		.loc 1 174 0
 180 0008 0249     		ldr	r1, .L12	@ tmp122,
 176:../../lpc_chip_11cxx_lib/src/ssp_11xx.c **** 	pSSP->CPSR = prescale;
 177:../../lpc_chip_11cxx_lib/src/ssp_11xx.c **** }
 181              		.loc 1 177 0
 182              		@ sp needed	@
 174:../../lpc_chip_11cxx_lib/src/ssp_11xx.c **** 	temp = pSSP->CR0 & (~(SSP_CR0_SCR(0xFF)));
 183              		.loc 1 174 0
 184 000a 2140     		and	r1, r4	@ temp, D.6833
 185              	.LVL7:
 175:../../lpc_chip_11cxx_lib/src/ssp_11xx.c **** 	pSSP->CR0 = temp | (SSP_CR0_SCR(clk_rate));
 186              		.loc 1 175 0
 187 000c 1943     		orr	r1, r3	@ D.6833, D.6833
 188              	.LVL8:
 189 000e 0160     		str	r1, [r0]	@ D.6833, pSSP_2(D)->CR0
ARM GAS  /var/folders/f9/8bk2lnw15zn4cbgn6wrnb4lm0000gn/T//ccCGlkPS.s 			page 14


 176:../../lpc_chip_11cxx_lib/src/ssp_11xx.c **** 	pSSP->CPSR = prescale;
 190              		.loc 1 176 0
 191 0010 0261     		str	r2, [r0, #16]	@ prescale, pSSP_2(D)->CPSR
 192              	.LVL9:
 193              		.loc 1 177 0
 194 0012 10BD     		pop	{r4, pc}
 195              	.L13:
 196              		.align	2
 197              	.L12:
 198 0014 FF00FFFF 		.word	-65281
 199              		.cfi_endproc
 200              	.LFE206:
 201              		.size	Chip_SSP_SetClockRate, .-Chip_SSP_SetClockRate
 202              		.section	.text.Chip_SSP_RWFrames_Blocking,"ax",%progbits
 203              		.align	2
 204              		.global	Chip_SSP_RWFrames_Blocking
 205              		.code	16
 206              		.thumb_func
 207              		.type	Chip_SSP_RWFrames_Blocking, %function
 208              	Chip_SSP_RWFrames_Blocking:
 209              	.LFB207:
 178:../../lpc_chip_11cxx_lib/src/ssp_11xx.c **** 
 179:../../lpc_chip_11cxx_lib/src/ssp_11xx.c **** /* SSP Polling Read/Write in blocking mode */
 180:../../lpc_chip_11cxx_lib/src/ssp_11xx.c **** uint32_t Chip_SSP_RWFrames_Blocking(LPC_SSP_T *pSSP, Chip_SSP_DATA_SETUP_T *xf_setup)
 181:../../lpc_chip_11cxx_lib/src/ssp_11xx.c **** {
 210              		.loc 1 181 0
 211              		.cfi_startproc
 212              	.LVL10:
 213 0000 F8B5     		push	{r3, r4, r5, r6, r7, lr}	@
 214              		.cfi_def_cfa_offset 24
 215              		.cfi_offset 3, -24
 216              		.cfi_offset 4, -20
 217              		.cfi_offset 5, -16
 218              		.cfi_offset 6, -12
 219              		.cfi_offset 7, -8
 220              		.cfi_offset 14, -4
 221              	.LBB234:
 222              	.LBB235:
 284:../../lpc_chip_11cxx_lib/inc/ssp_11xx.h **** 	return (pSSP->SR & Stat) ? SET : RESET;
 223              		.loc 2 284 0
 224 0002 C368     		ldr	r3, [r0, #12]	@ D.6846, pSSP_10(D)->SR
 225              	.LBE235:
 226              	.LBE234:
 227              		.loc 1 181 0
 228 0004 041C     		mov	r4, r0	@ pSSP, pSSP
 229 0006 0D1C     		mov	r5, r1	@ xf_setup, xf_setup
 182:../../lpc_chip_11cxx_lib/src/ssp_11xx.c **** 	/* Clear all remaining frames in RX FIFO */
 183:../../lpc_chip_11cxx_lib/src/ssp_11xx.c **** 	while (Chip_SSP_GetStatus(pSSP, SSP_STAT_RNE)) {
 230              		.loc 1 183 0
 231 0008 5A07     		lsl	r2, r3, #29	@, D.6846,
 232 000a 05D5     		bpl	.L15	@,
 233              	.LBB238:
 234              	.LBB236:
 284:../../lpc_chip_11cxx_lib/inc/ssp_11xx.h **** 	return (pSSP->SR & Stat) ? SET : RESET;
 235              		.loc 2 284 0
 236 000c 0122     		mov	r2, #1	@ tmp282,
 237              	.L16:
ARM GAS  /var/folders/f9/8bk2lnw15zn4cbgn6wrnb4lm0000gn/T//ccCGlkPS.s 			page 15


 238              	.LVL11:
 239              	.LBE236:
 240              	.LBE238:
 241              	.LBB239:
 242              	.LBB240:
 243              		.loc 2 366 0
 244 000e A368     		ldr	r3, [r4, #8]	@ D.6846, pSSP_10(D)->DR
 245              	.LBE240:
 246              	.LBE239:
 247              	.LBB241:
 248              	.LBB237:
 284:../../lpc_chip_11cxx_lib/inc/ssp_11xx.h **** 	return (pSSP->SR & Stat) ? SET : RESET;
 249              		.loc 2 284 0
 250 0010 E368     		ldr	r3, [r4, #12]	@ D.6846, pSSP_10(D)->SR
 251 0012 9B08     		lsr	r3, r3, #2	@ tmp212, D.6846,
 252              	.LBE237:
 253              	.LBE241:
 254              		.loc 1 183 0
 255 0014 1A42     		tst	r2, r3	@ tmp282, tmp212
 256 0016 FAD1     		bne	.L16	@,
 257              	.LVL12:
 258              	.L15:
 259              	.LBB242:
 260              	.LBB243:
 336:../../lpc_chip_11cxx_lib/inc/ssp_11xx.h **** 	pSSP->ICR = IntClear;
 261              		.loc 2 336 0
 262 0018 0323     		mov	r3, #3	@ tmp220,
 263 001a 2362     		str	r3, [r4, #32]	@ tmp220, pSSP_10(D)->ICR
 264              	.LVL13:
 265              	.LBE243:
 266              	.LBE242:
 267              	.LBB244:
 268              	.LBB245:
 322:../../lpc_chip_11cxx_lib/inc/ssp_11xx.h **** 	return SSP_CR0_DSS(pSSP->CR0);
 269              		.loc 2 322 0
 270 001c 2368     		ldr	r3, [r4]	@ D.6846, pSSP_10(D)->CR0
 271              	.LBE245:
 272              	.LBE244:
 184:../../lpc_chip_11cxx_lib/src/ssp_11xx.c **** 		Chip_SSP_ReceiveFrame(pSSP);
 185:../../lpc_chip_11cxx_lib/src/ssp_11xx.c **** 	}
 186:../../lpc_chip_11cxx_lib/src/ssp_11xx.c **** 
 187:../../lpc_chip_11cxx_lib/src/ssp_11xx.c **** 	/* Clear status */
 188:../../lpc_chip_11cxx_lib/src/ssp_11xx.c **** 	Chip_SSP_ClearIntPending(pSSP, SSP_INT_CLEAR_BITMASK);
 189:../../lpc_chip_11cxx_lib/src/ssp_11xx.c **** 
 190:../../lpc_chip_11cxx_lib/src/ssp_11xx.c **** 	if (Chip_SSP_GetDataSize(pSSP) > SSP_BITS_8) {
 273              		.loc 1 190 0
 274 001e 0F22     		mov	r2, #15	@ tmp225,
 275 0020 1340     		and	r3, r2	@ tmp226, tmp225
 276 0022 072B     		cmp	r3, #7	@ tmp226,
 277 0024 24D8     		bhi	.L17	@,
 278              	.LBB246:
 279              	.LBB247:
 284:../../lpc_chip_11cxx_lib/inc/ssp_11xx.h **** 	return (pSSP->SR & Stat) ? SET : RESET;
 280              		.loc 2 284 0
 281 0026 0126     		mov	r6, #1	@ tmp280,
 282              	.LBE247:
 283              	.LBE246:
ARM GAS  /var/folders/f9/8bk2lnw15zn4cbgn6wrnb4lm0000gn/T//ccCGlkPS.s 			page 16


 284              	.LBB249:
 285              	.LBB250:
 286              	.LBB251:
 287              	.LBB252:
 367:../../lpc_chip_11cxx_lib/inc/ssp_11xx.h **** }
 368:../../lpc_chip_11cxx_lib/inc/ssp_11xx.h **** 
 369:../../lpc_chip_11cxx_lib/inc/ssp_11xx.h **** /**
 370:../../lpc_chip_11cxx_lib/inc/ssp_11xx.h ****  * @brief	Send SSP 16-bit data
 371:../../lpc_chip_11cxx_lib/inc/ssp_11xx.h ****  * @param	pSSP	: The base of SSP peripheral on the chip
 372:../../lpc_chip_11cxx_lib/inc/ssp_11xx.h ****  * @param	tx_data	: SSP 16-bit data to be transmited
 373:../../lpc_chip_11cxx_lib/inc/ssp_11xx.h ****  * @return	 Nothing
 374:../../lpc_chip_11cxx_lib/inc/ssp_11xx.h ****  */
 375:../../lpc_chip_11cxx_lib/inc/ssp_11xx.h **** STATIC INLINE void Chip_SSP_SendFrame(LPC_SSP_T *pSSP, uint16_t tx_data)
 376:../../lpc_chip_11cxx_lib/inc/ssp_11xx.h **** {
 377:../../lpc_chip_11cxx_lib/inc/ssp_11xx.h **** 	pSSP->DR = SSP_DR_BITMASK(tx_data);
 288              		.loc 2 377 0
 289 0028 FF27     		mov	r7, #255	@ tmp281,
 290 002a 06E0     		b	.L18	@
 291              	.LVL14:
 292              	.L33:
 293              	.LBE252:
 294              	.LBE251:
 295              	.LBE250:
 296              	.LBE249:
 297              	.LBB259:
 298              	.LBB260:
 311:../../lpc_chip_11cxx_lib/inc/ssp_11xx.h **** 	return (pSSP->RIS & RawInt) ? SET : RESET;
 299              		.loc 2 311 0
 300 002c A369     		ldr	r3, [r4, #24]	@ D.6846, pSSP_10(D)->RIS
 301              	.LBE260:
 302              	.LBE259:
 191:../../lpc_chip_11cxx_lib/src/ssp_11xx.c **** 		while (xf_setup->rx_cnt < xf_setup->length || xf_setup->tx_cnt < xf_setup->length) {
 192:../../lpc_chip_11cxx_lib/src/ssp_11xx.c **** 			/* write data to buffer */
 193:../../lpc_chip_11cxx_lib/src/ssp_11xx.c **** 			if (( Chip_SSP_GetStatus(pSSP, SSP_STAT_TNF) == SET) && ( xf_setup->tx_cnt < xf_setup->length) )
 194:../../lpc_chip_11cxx_lib/src/ssp_11xx.c **** 				SSP_Write2BFifo(pSSP, xf_setup);
 195:../../lpc_chip_11cxx_lib/src/ssp_11xx.c **** 			}
 196:../../lpc_chip_11cxx_lib/src/ssp_11xx.c **** 
 197:../../lpc_chip_11cxx_lib/src/ssp_11xx.c **** 			/* Check overrun error */
 198:../../lpc_chip_11cxx_lib/src/ssp_11xx.c **** 			if (Chip_SSP_GetRawIntStatus(pSSP, SSP_RORRIS) == SET) {
 199:../../lpc_chip_11cxx_lib/src/ssp_11xx.c **** 				return ERROR;
 200:../../lpc_chip_11cxx_lib/src/ssp_11xx.c **** 			}
 201:../../lpc_chip_11cxx_lib/src/ssp_11xx.c **** 
 202:../../lpc_chip_11cxx_lib/src/ssp_11xx.c **** 			/* Check for any data available in RX FIFO */
 203:../../lpc_chip_11cxx_lib/src/ssp_11xx.c **** 			SSP_Read2BFifo(pSSP, xf_setup);
 204:../../lpc_chip_11cxx_lib/src/ssp_11xx.c **** 		}
 205:../../lpc_chip_11cxx_lib/src/ssp_11xx.c **** 	}
 206:../../lpc_chip_11cxx_lib/src/ssp_11xx.c **** 	else {
 207:../../lpc_chip_11cxx_lib/src/ssp_11xx.c **** 		while (xf_setup->rx_cnt < xf_setup->length || xf_setup->tx_cnt < xf_setup->length) {
 208:../../lpc_chip_11cxx_lib/src/ssp_11xx.c **** 			/* write data to buffer */
 209:../../lpc_chip_11cxx_lib/src/ssp_11xx.c **** 			if (( Chip_SSP_GetStatus(pSSP, SSP_STAT_TNF) == SET) && ( xf_setup->tx_cnt < xf_setup->length) )
 210:../../lpc_chip_11cxx_lib/src/ssp_11xx.c **** 				SSP_Write1BFifo(pSSP, xf_setup);
 211:../../lpc_chip_11cxx_lib/src/ssp_11xx.c **** 			}
 212:../../lpc_chip_11cxx_lib/src/ssp_11xx.c **** 
 213:../../lpc_chip_11cxx_lib/src/ssp_11xx.c **** 			/* Check overrun error */
 214:../../lpc_chip_11cxx_lib/src/ssp_11xx.c **** 			if (Chip_SSP_GetRawIntStatus(pSSP, SSP_RORRIS) == SET) {
 303              		.loc 1 214 0
 304 002e 1E42     		tst	r6, r3	@ tmp280, D.6846
ARM GAS  /var/folders/f9/8bk2lnw15zn4cbgn6wrnb4lm0000gn/T//ccCGlkPS.s 			page 17


 305 0030 1CD1     		bne	.L36	@,
 306              	.L56:
 215:../../lpc_chip_11cxx_lib/src/ssp_11xx.c **** 				return ERROR;
 216:../../lpc_chip_11cxx_lib/src/ssp_11xx.c **** 			}
 217:../../lpc_chip_11cxx_lib/src/ssp_11xx.c **** 
 218:../../lpc_chip_11cxx_lib/src/ssp_11xx.c **** 			/* Check for any data available in RX FIFO */
 219:../../lpc_chip_11cxx_lib/src/ssp_11xx.c **** 			SSP_Read1BFifo(pSSP, xf_setup);
 307              		.loc 1 219 0
 308 0032 201C     		mov	r0, r4	@, pSSP
 309 0034 291C     		mov	r1, r5	@, xf_setup
 310 0036 FFF7FEFF 		bl	SSP_Read1BFifo	@
 311              	.LVL15:
 312              	.L18:
 207:../../lpc_chip_11cxx_lib/src/ssp_11xx.c **** 		while (xf_setup->rx_cnt < xf_setup->length || xf_setup->tx_cnt < xf_setup->length) {
 313              		.loc 1 207 0 discriminator 1
 314 003a 2B69     		ldr	r3, [r5, #16]	@ D.6846, xf_setup_15(D)->length
 315 003c EA68     		ldr	r2, [r5, #12]	@, xf_setup_15(D)->rx_cnt
 316 003e 9A42     		cmp	r2, r3	@, D.6846
 317 0040 02D3     		bcc	.L37	@,
 207:../../lpc_chip_11cxx_lib/src/ssp_11xx.c **** 		while (xf_setup->rx_cnt < xf_setup->length || xf_setup->tx_cnt < xf_setup->length) {
 318              		.loc 1 207 0 is_stmt 0 discriminator 2
 319 0042 6868     		ldr	r0, [r5, #4]	@ D.6845, xf_setup_15(D)->tx_cnt
 320 0044 8342     		cmp	r3, r0	@ D.6846, D.6845
 321 0046 45D9     		bls	.L38	@,
 322              	.L37:
 323              	.LVL16:
 324              	.LBB262:
 325              	.LBB248:
 284:../../lpc_chip_11cxx_lib/inc/ssp_11xx.h **** 	return (pSSP->SR & Stat) ? SET : RESET;
 326              		.loc 2 284 0 is_stmt 1
 327 0048 E268     		ldr	r2, [r4, #12]	@ D.6846, pSSP_10(D)->SR
 328 004a 5208     		lsr	r2, r2, #1	@ tmp257, D.6846,
 329              	.LBE248:
 330              	.LBE262:
 209:../../lpc_chip_11cxx_lib/src/ssp_11xx.c **** 			if (( Chip_SSP_GetStatus(pSSP, SSP_STAT_TNF) == SET) && ( xf_setup->tx_cnt < xf_setup->length) )
 331              		.loc 1 209 0
 332 004c 1642     		tst	r6, r2	@ tmp280, tmp257
 333 004e EDD0     		beq	.L33	@,
 209:../../lpc_chip_11cxx_lib/src/ssp_11xx.c **** 			if (( Chip_SSP_GetStatus(pSSP, SSP_STAT_TNF) == SET) && ( xf_setup->tx_cnt < xf_setup->length) )
 334              		.loc 1 209 0 is_stmt 0 discriminator 1
 335 0050 6A68     		ldr	r2, [r5, #4]	@ D.6846, xf_setup_15(D)->tx_cnt
 336 0052 9342     		cmp	r3, r2	@ D.6846, D.6846
 337 0054 EAD9     		bls	.L33	@,
 180:../../lpc_chip_11cxx_lib/src/ssp_11xx.c **** uint32_t Chip_SSP_RWFrames_Blocking(LPC_SSP_T *pSSP, Chip_SSP_DATA_SETUP_T *xf_setup)
 338              		.loc 1 180 0 is_stmt 1
 339 0056 2B68     		ldr	r3, [r5]	@ D.6847, MEM[(struct Chip_SSP_DATA_SETUP_T *)xf_setup_15(D)]
 340              	.LVL17:
 341              	.LBB263:
 342              	.LBB257:
  62:../../lpc_chip_11cxx_lib/src/ssp_11xx.c **** 	if (xf_setup->tx_data) {
 343              		.loc 1 62 0
 344 0058 002B     		cmp	r3, #0	@ D.6847,
 345 005a 43D0     		beq	.L34	@,
 346              	.LVL18:
 347              	.LBB254:
 348              	.LBB255:
 349              		.loc 2 377 0
ARM GAS  /var/folders/f9/8bk2lnw15zn4cbgn6wrnb4lm0000gn/T//ccCGlkPS.s 			page 18


 350 005c 9B5C     		ldrb	r3, [r3, r2]	@ D.6846, *_82
 351              	.LVL19:
 352 005e A360     		str	r3, [r4, #8]	@ D.6846, pSSP_10(D)->DR
 353              	.LVL20:
 354              	.L35:
 355              	.LBE255:
 356              	.LBE254:
  69:../../lpc_chip_11cxx_lib/src/ssp_11xx.c **** 	xf_setup->tx_cnt++;
 357              		.loc 1 69 0
 358 0060 6B68     		ldr	r3, [r5, #4]	@ D.6846, MEM[(uint32_t *)xf_setup_15(D) + 4B]
 359 0062 0133     		add	r3, r3, #1	@ D.6846,
 360 0064 6B60     		str	r3, [r5, #4]	@ D.6846, MEM[(uint32_t *)xf_setup_15(D) + 4B]
 361              	.LVL21:
 362              	.LBE257:
 363              	.LBE263:
 364              	.LBB264:
 365              	.LBB261:
 311:../../lpc_chip_11cxx_lib/inc/ssp_11xx.h **** 	return (pSSP->RIS & RawInt) ? SET : RESET;
 366              		.loc 2 311 0
 367 0066 A369     		ldr	r3, [r4, #24]	@ D.6846, pSSP_10(D)->RIS
 368              	.LBE261:
 369              	.LBE264:
 214:../../lpc_chip_11cxx_lib/src/ssp_11xx.c **** 			if (Chip_SSP_GetRawIntStatus(pSSP, SSP_RORRIS) == SET) {
 370              		.loc 1 214 0
 371 0068 1E42     		tst	r6, r3	@ tmp280, D.6846
 372 006a E2D0     		beq	.L56	@,
 373              	.LVL22:
 374              	.L36:
 199:../../lpc_chip_11cxx_lib/src/ssp_11xx.c **** 				return ERROR;
 375              		.loc 1 199 0
 376 006c 0020     		mov	r0, #0	@ D.6845,
 377              	.L24:
 220:../../lpc_chip_11cxx_lib/src/ssp_11xx.c **** 		}
 221:../../lpc_chip_11cxx_lib/src/ssp_11xx.c **** 	}
 222:../../lpc_chip_11cxx_lib/src/ssp_11xx.c **** 	if (xf_setup->tx_data) {
 223:../../lpc_chip_11cxx_lib/src/ssp_11xx.c **** 		return xf_setup->tx_cnt;
 224:../../lpc_chip_11cxx_lib/src/ssp_11xx.c **** 	}
 225:../../lpc_chip_11cxx_lib/src/ssp_11xx.c **** 	else if (xf_setup->rx_data) {
 226:../../lpc_chip_11cxx_lib/src/ssp_11xx.c **** 		return xf_setup->rx_cnt;
 227:../../lpc_chip_11cxx_lib/src/ssp_11xx.c **** 	}
 228:../../lpc_chip_11cxx_lib/src/ssp_11xx.c **** 
 229:../../lpc_chip_11cxx_lib/src/ssp_11xx.c **** 	return 0;
 230:../../lpc_chip_11cxx_lib/src/ssp_11xx.c **** }
 378              		.loc 1 230 0
 379              		@ sp needed	@
 380              	.LVL23:
 381              	.LVL24:
 382 006e F8BD     		pop	{r3, r4, r5, r6, r7, pc}
 383              	.LVL25:
 384              	.L17:
 385 0070 2E69     		ldr	r6, [r5, #16]	@ D.6845, xf_setup_15(D)->length
 386 0072 EB68     		ldr	r3, [r5, #12]	@ D.6846, xf_setup_15(D)->rx_cnt
 387              	.LBB265:
 388              	.LBB266:
 389              	.LBB267:
 390              	.LBB268:
 391              		.loc 2 377 0
ARM GAS  /var/folders/f9/8bk2lnw15zn4cbgn6wrnb4lm0000gn/T//ccCGlkPS.s 			page 19


 392 0074 1D4F     		ldr	r7, .L58	@ tmp279,
 393              	.LBE268:
 394              	.LBE267:
 395              	.LBE266:
 396              	.LBE265:
 397              	.LBB275:
 398              	.LBB276:
 284:../../lpc_chip_11cxx_lib/inc/ssp_11xx.h **** 	return (pSSP->SR & Stat) ? SET : RESET;
 399              		.loc 2 284 0
 400 0076 0121     		mov	r1, #1	@ tmp278,
 401              	.LVL26:
 402              	.L19:
 403              	.LBE276:
 404              	.LBE275:
 191:../../lpc_chip_11cxx_lib/src/ssp_11xx.c **** 		while (xf_setup->rx_cnt < xf_setup->length || xf_setup->tx_cnt < xf_setup->length) {
 405              		.loc 1 191 0 discriminator 1
 406 0078 B342     		cmp	r3, r6	@ D.6846, D.6845
 407 007a 02D3     		bcc	.L30	@,
 191:../../lpc_chip_11cxx_lib/src/ssp_11xx.c **** 		while (xf_setup->rx_cnt < xf_setup->length || xf_setup->tx_cnt < xf_setup->length) {
 408              		.loc 1 191 0 is_stmt 0 discriminator 2
 409 007c 6868     		ldr	r0, [r5, #4]	@ D.6845, xf_setup_15(D)->tx_cnt
 410 007e B042     		cmp	r0, r6	@ D.6845, D.6845
 411 0080 28D2     		bcs	.L38	@,
 412              	.L30:
 413              	.LVL27:
 414              	.LBB278:
 415              	.LBB277:
 284:../../lpc_chip_11cxx_lib/inc/ssp_11xx.h **** 	return (pSSP->SR & Stat) ? SET : RESET;
 416              		.loc 2 284 0 is_stmt 1
 417 0082 E268     		ldr	r2, [r4, #12]	@ D.6846, pSSP_10(D)->SR
 418 0084 5208     		lsr	r2, r2, #1	@ tmp227, D.6846,
 419              	.LBE277:
 420              	.LBE278:
 193:../../lpc_chip_11cxx_lib/src/ssp_11xx.c **** 			if (( Chip_SSP_GetStatus(pSSP, SSP_STAT_TNF) == SET) && ( xf_setup->tx_cnt < xf_setup->length) )
 421              		.loc 1 193 0
 422 0086 1142     		tst	r1, r2	@ tmp278, tmp227
 423 0088 18D1     		bne	.L57	@,
 424              	.L20:
 425              	.LVL28:
 426              	.LBB279:
 427              	.LBB280:
 311:../../lpc_chip_11cxx_lib/inc/ssp_11xx.h **** 	return (pSSP->RIS & RawInt) ? SET : RESET;
 428              		.loc 2 311 0
 429 008a A269     		ldr	r2, [r4, #24]	@ D.6846, pSSP_10(D)->RIS
 430              	.LBE280:
 431              	.LBE279:
 198:../../lpc_chip_11cxx_lib/src/ssp_11xx.c **** 			if (Chip_SSP_GetRawIntStatus(pSSP, SSP_RORRIS) == SET) {
 432              		.loc 1 198 0
 433 008c 1142     		tst	r1, r2	@ tmp278, D.6846
 434 008e EDD1     		bne	.L36	@,
 435              	.LVL29:
 436              	.LBB281:
 437              	.LBB282:
 438              	.LBB283:
 439              	.LBB284:
 284:../../lpc_chip_11cxx_lib/inc/ssp_11xx.h **** 	return (pSSP->SR & Stat) ? SET : RESET;
 440              		.loc 2 284 0
ARM GAS  /var/folders/f9/8bk2lnw15zn4cbgn6wrnb4lm0000gn/T//ccCGlkPS.s 			page 20


 441 0090 E268     		ldr	r2, [r4, #12]	@ D.6846, pSSP_10(D)->SR
 442 0092 9208     		lsr	r2, r2, #2	@ tmp240, D.6846,
 443              	.LBE284:
 444              	.LBE283:
  77:../../lpc_chip_11cxx_lib/src/ssp_11xx.c **** 	while ((Chip_SSP_GetStatus(pSSP, SSP_STAT_RNE) == SET) &&
 445              		.loc 1 77 0
 446 0094 1142     		tst	r1, r2	@ tmp278, tmp240
 447 0096 EFD0     		beq	.L19	@,
 448 0098 B342     		cmp	r3, r6	@ D.6846, D.6845
 449 009a EDD2     		bcs	.L19	@,
 450 009c A868     		ldr	r0, [r5, #8]	@ D.6847, xf_setup_15(D)->rx_data
 451 009e 01E0     		b	.L29	@
 452              	.LVL30:
 453              	.L27:
 454 00a0 B342     		cmp	r3, r6	@ D.6846, D.6845
 455 00a2 09D2     		bcs	.L55	@,
 456              	.LVL31:
 457              	.L29:
 458              	.LBB287:
 459              	.LBB288:
 366:../../lpc_chip_11cxx_lib/inc/ssp_11xx.h **** 	return (uint16_t) (SSP_DR_BITMASK(pSSP->DR));
 460              		.loc 2 366 0
 461 00a4 A268     		ldr	r2, [r4, #8]	@ D.6846, pSSP_10(D)->DR
 462 00a6 92B2     		uxth	r2, r2	@ D.6855, D.6846
 463              	.LBE288:
 464              	.LBE287:
  80:../../lpc_chip_11cxx_lib/src/ssp_11xx.c **** 		if (xf_setup->rx_data) {
 465              		.loc 1 80 0
 466 00a8 0028     		cmp	r0, #0	@ D.6847,
 467 00aa 00D0     		beq	.L26	@,
  81:../../lpc_chip_11cxx_lib/src/ssp_11xx.c **** 			*(uint16_t *) ((uint32_t) xf_setup->rx_data + xf_setup->rx_cnt) = rDat;
 468              		.loc 1 81 0
 469 00ac C252     		strh	r2, [r0, r3]	@ D.6855, MEM[base: _93, index: _119, offset: 0B]
 470              	.L26:
 471              	.LBB289:
 472              	.LBB285:
 284:../../lpc_chip_11cxx_lib/inc/ssp_11xx.h **** 	return (pSSP->SR & Stat) ? SET : RESET;
 473              		.loc 2 284 0
 474 00ae E268     		ldr	r2, [r4, #12]	@ D.6846, pSSP_10(D)->SR
 475              	.LBE285:
 476              	.LBE289:
  84:../../lpc_chip_11cxx_lib/src/ssp_11xx.c **** 		xf_setup->rx_cnt += 2;
 477              		.loc 1 84 0
 478 00b0 0233     		add	r3, r3, #2	@ D.6846,
 479              	.LBB290:
 480              	.LBB286:
 284:../../lpc_chip_11cxx_lib/inc/ssp_11xx.h **** 	return (pSSP->SR & Stat) ? SET : RESET;
 481              		.loc 2 284 0
 482 00b2 9208     		lsr	r2, r2, #2	@ tmp248, D.6846,
 483              	.LBE286:
 484              	.LBE290:
  77:../../lpc_chip_11cxx_lib/src/ssp_11xx.c **** 	while ((Chip_SSP_GetStatus(pSSP, SSP_STAT_RNE) == SET) &&
 485              		.loc 1 77 0
 486 00b4 1142     		tst	r1, r2	@ tmp278, tmp248
 487 00b6 F3D1     		bne	.L27	@,
 488              	.L55:
 489 00b8 EB60     		str	r3, [r5, #12]	@ D.6846, xf_setup_15(D)->rx_cnt
ARM GAS  /var/folders/f9/8bk2lnw15zn4cbgn6wrnb4lm0000gn/T//ccCGlkPS.s 			page 21


 490 00ba DDE7     		b	.L19	@
 491              	.LVL32:
 492              	.L57:
 493              	.LBE282:
 494              	.LBE281:
 193:../../lpc_chip_11cxx_lib/src/ssp_11xx.c **** 			if (( Chip_SSP_GetStatus(pSSP, SSP_STAT_TNF) == SET) && ( xf_setup->tx_cnt < xf_setup->length) )
 495              		.loc 1 193 0 discriminator 1
 496 00bc 6A68     		ldr	r2, [r5, #4]	@ D.6846, xf_setup_15(D)->tx_cnt
 497 00be B242     		cmp	r2, r6	@ D.6846, D.6845
 498 00c0 E3D2     		bcs	.L20	@,
 180:../../lpc_chip_11cxx_lib/src/ssp_11xx.c **** uint32_t Chip_SSP_RWFrames_Blocking(LPC_SSP_T *pSSP, Chip_SSP_DATA_SETUP_T *xf_setup)
 499              		.loc 1 180 0
 500 00c2 2868     		ldr	r0, [r5]	@ D.6847, MEM[(struct Chip_SSP_DATA_SETUP_T *)xf_setup_15(D)]
 501              	.LVL33:
 502              	.LBB291:
 503              	.LBB273:
  48:../../lpc_chip_11cxx_lib/src/ssp_11xx.c **** 	if (xf_setup->tx_data) {
 504              		.loc 1 48 0
 505 00c4 0028     		cmp	r0, #0	@ D.6847,
 506 00c6 0FD0     		beq	.L21	@,
 507              	.LVL34:
 508              	.LBB270:
 509              	.LBB271:
 510              		.loc 2 377 0
 511 00c8 825A     		ldrh	r2, [r0, r2]	@ D.6846, *_55
 512              	.LVL35:
 513 00ca A260     		str	r2, [r4, #8]	@ D.6846, pSSP_10(D)->DR
 514              	.LVL36:
 515              	.L22:
 516              	.LBE271:
 517              	.LBE270:
  56:../../lpc_chip_11cxx_lib/src/ssp_11xx.c **** 	xf_setup->tx_cnt += 2;
 518              		.loc 1 56 0
 519 00cc 6A68     		ldr	r2, [r5, #4]	@ D.6846, MEM[(uint32_t *)xf_setup_15(D) + 4B]
 520 00ce 0232     		add	r2, r2, #2	@ D.6846,
 521 00d0 6A60     		str	r2, [r5, #4]	@ D.6846, MEM[(uint32_t *)xf_setup_15(D) + 4B]
 522 00d2 DAE7     		b	.L20	@
 523              	.LVL37:
 524              	.L38:
 525              	.LBE273:
 526              	.LBE291:
 222:../../lpc_chip_11cxx_lib/src/ssp_11xx.c **** 	if (xf_setup->tx_data) {
 527              		.loc 1 222 0
 528 00d4 2B68     		ldr	r3, [r5]	@, xf_setup_15(D)->tx_data
 529 00d6 002B     		cmp	r3, #0	@,
 530 00d8 C9D1     		bne	.L24	@,
 225:../../lpc_chip_11cxx_lib/src/ssp_11xx.c **** 	else if (xf_setup->rx_data) {
 531              		.loc 1 225 0
 532 00da AB68     		ldr	r3, [r5, #8]	@, xf_setup_15(D)->rx_data
 533 00dc 002B     		cmp	r3, #0	@,
 534 00de C5D0     		beq	.L36	@,
 226:../../lpc_chip_11cxx_lib/src/ssp_11xx.c **** 		return xf_setup->rx_cnt;
 535              		.loc 1 226 0
 536 00e0 E868     		ldr	r0, [r5, #12]	@ D.6845, xf_setup_15(D)->rx_cnt
 537 00e2 C4E7     		b	.L24	@
 538              	.LVL38:
 539              	.L34:
ARM GAS  /var/folders/f9/8bk2lnw15zn4cbgn6wrnb4lm0000gn/T//ccCGlkPS.s 			page 22


 540              	.LBB292:
 541              	.LBB258:
 542              	.LBB256:
 543              	.LBB253:
 544              		.loc 2 377 0
 545 00e4 A760     		str	r7, [r4, #8]	@ tmp281, pSSP_10(D)->DR
 546 00e6 BBE7     		b	.L35	@
 547              	.LVL39:
 548              	.L21:
 549              	.LBE253:
 550              	.LBE256:
 551              	.LBE258:
 552              	.LBE292:
 553              	.LBB293:
 554              	.LBB274:
 555              	.LBB272:
 556              	.LBB269:
 557 00e8 A760     		str	r7, [r4, #8]	@ tmp279, pSSP_10(D)->DR
 558 00ea EFE7     		b	.L22	@
 559              	.L59:
 560              		.align	2
 561              	.L58:
 562 00ec FFFF0000 		.word	65535
 563              	.LBE269:
 564              	.LBE272:
 565              	.LBE274:
 566              	.LBE293:
 567              		.cfi_endproc
 568              	.LFE207:
 569              		.size	Chip_SSP_RWFrames_Blocking, .-Chip_SSP_RWFrames_Blocking
 570              		.section	.text.Chip_SSP_WriteFrames_Blocking,"ax",%progbits
 571              		.align	2
 572              		.global	Chip_SSP_WriteFrames_Blocking
 573              		.code	16
 574              		.thumb_func
 575              		.type	Chip_SSP_WriteFrames_Blocking, %function
 576              	Chip_SSP_WriteFrames_Blocking:
 577              	.LFB208:
 231:../../lpc_chip_11cxx_lib/src/ssp_11xx.c **** 
 232:../../lpc_chip_11cxx_lib/src/ssp_11xx.c **** /* SSP Polling Write in blocking mode */
 233:../../lpc_chip_11cxx_lib/src/ssp_11xx.c **** uint32_t Chip_SSP_WriteFrames_Blocking(LPC_SSP_T *pSSP, uint8_t *buffer, uint32_t buffer_len)
 234:../../lpc_chip_11cxx_lib/src/ssp_11xx.c **** {
 578              		.loc 1 234 0
 579              		.cfi_startproc
 580              	.LVL40:
 581              	.LBB294:
 582              	.LBB295:
 284:../../lpc_chip_11cxx_lib/inc/ssp_11xx.h **** 	return (pSSP->SR & Stat) ? SET : RESET;
 583              		.loc 2 284 0
 584 0000 C368     		ldr	r3, [r0, #12]	@ D.6868, pSSP_25(D)->SR
 585              	.LBE295:
 586              	.LBE294:
 587              		.loc 1 234 0
 588 0002 70B5     		push	{r4, r5, r6, lr}	@
 589              		.cfi_def_cfa_offset 16
 590              		.cfi_offset 4, -16
 591              		.cfi_offset 5, -12
ARM GAS  /var/folders/f9/8bk2lnw15zn4cbgn6wrnb4lm0000gn/T//ccCGlkPS.s 			page 23


 592              		.cfi_offset 6, -8
 593              		.cfi_offset 14, -4
 235:../../lpc_chip_11cxx_lib/src/ssp_11xx.c **** 	uint32_t tx_cnt = 0, rx_cnt = 0;
 236:../../lpc_chip_11cxx_lib/src/ssp_11xx.c **** 
 237:../../lpc_chip_11cxx_lib/src/ssp_11xx.c **** 	/* Clear all remaining frames in RX FIFO */
 238:../../lpc_chip_11cxx_lib/src/ssp_11xx.c **** 	while (Chip_SSP_GetStatus(pSSP, SSP_STAT_RNE)) {
 594              		.loc 1 238 0
 595 0004 5C07     		lsl	r4, r3, #29	@, D.6868,
 596 0006 05D5     		bpl	.L61	@,
 597              	.LBB298:
 598              	.LBB296:
 284:../../lpc_chip_11cxx_lib/inc/ssp_11xx.h **** 	return (pSSP->SR & Stat) ? SET : RESET;
 599              		.loc 2 284 0
 600 0008 0124     		mov	r4, #1	@ tmp245,
 601              	.L62:
 602              	.LVL41:
 603              	.LBE296:
 604              	.LBE298:
 605              	.LBB299:
 606              	.LBB300:
 366:../../lpc_chip_11cxx_lib/inc/ssp_11xx.h **** 	return (uint16_t) (SSP_DR_BITMASK(pSSP->DR));
 607              		.loc 2 366 0
 608 000a 8368     		ldr	r3, [r0, #8]	@ D.6868, pSSP_25(D)->DR
 609              	.LBE300:
 610              	.LBE299:
 611              	.LBB301:
 612              	.LBB297:
 284:../../lpc_chip_11cxx_lib/inc/ssp_11xx.h **** 	return (pSSP->SR & Stat) ? SET : RESET;
 613              		.loc 2 284 0
 614 000c C368     		ldr	r3, [r0, #12]	@ D.6868, pSSP_25(D)->SR
 615 000e 9B08     		lsr	r3, r3, #2	@ tmp177, D.6868,
 616              	.LBE297:
 617              	.LBE301:
 618              		.loc 1 238 0
 619 0010 1C42     		tst	r4, r3	@ tmp245, tmp177
 620 0012 FAD1     		bne	.L62	@,
 621              	.LVL42:
 622              	.L61:
 623              	.LBB302:
 624              	.LBB303:
 336:../../lpc_chip_11cxx_lib/inc/ssp_11xx.h **** 	pSSP->ICR = IntClear;
 625              		.loc 2 336 0
 626 0014 0323     		mov	r3, #3	@ tmp185,
 627 0016 0362     		str	r3, [r0, #32]	@ tmp185, pSSP_25(D)->ICR
 628              	.LVL43:
 629              	.LBE303:
 630              	.LBE302:
 631              	.LBB304:
 632              	.LBB305:
 322:../../lpc_chip_11cxx_lib/inc/ssp_11xx.h **** 	return SSP_CR0_DSS(pSSP->CR0);
 633              		.loc 2 322 0
 634 0018 0368     		ldr	r3, [r0]	@ D.6868, pSSP_25(D)->CR0
 635              	.LBE305:
 636              	.LBE304:
 239:../../lpc_chip_11cxx_lib/src/ssp_11xx.c **** 		Chip_SSP_ReceiveFrame(pSSP);
 240:../../lpc_chip_11cxx_lib/src/ssp_11xx.c **** 	}
 241:../../lpc_chip_11cxx_lib/src/ssp_11xx.c **** 
ARM GAS  /var/folders/f9/8bk2lnw15zn4cbgn6wrnb4lm0000gn/T//ccCGlkPS.s 			page 24


 242:../../lpc_chip_11cxx_lib/src/ssp_11xx.c **** 	/* Clear status */
 243:../../lpc_chip_11cxx_lib/src/ssp_11xx.c **** 	Chip_SSP_ClearIntPending(pSSP, SSP_INT_CLEAR_BITMASK);
 244:../../lpc_chip_11cxx_lib/src/ssp_11xx.c **** 
 245:../../lpc_chip_11cxx_lib/src/ssp_11xx.c **** 	if (Chip_SSP_GetDataSize(pSSP) > SSP_BITS_8) {
 637              		.loc 1 245 0
 638 001a 0F24     		mov	r4, #15	@ tmp190,
 639 001c 2340     		and	r3, r4	@ tmp191, tmp190
 640 001e 072B     		cmp	r3, #7	@ tmp191,
 641 0020 27D8     		bhi	.L63	@,
 642 0022 0023     		mov	r3, #0	@ rx_cnt,
 643 0024 0026     		mov	r6, #0	@ tx_cnt,
 644              	.LBB306:
 645              	.LBB307:
 646              	.LBB308:
 284:../../lpc_chip_11cxx_lib/inc/ssp_11xx.h **** 	return (pSSP->SR & Stat) ? SET : RESET;
 647              		.loc 2 284 0
 648 0026 0125     		mov	r5, #1	@ tmp244,
 649              	.LVL44:
 650              	.L64:
 651              	.LBE308:
 652              	.LBE307:
 246:../../lpc_chip_11cxx_lib/src/ssp_11xx.c **** 		uint16_t *wdata16;
 247:../../lpc_chip_11cxx_lib/src/ssp_11xx.c **** 
 248:../../lpc_chip_11cxx_lib/src/ssp_11xx.c **** 		wdata16 = (uint16_t *) buffer;
 249:../../lpc_chip_11cxx_lib/src/ssp_11xx.c **** 
 250:../../lpc_chip_11cxx_lib/src/ssp_11xx.c **** 		while (tx_cnt < buffer_len || rx_cnt < buffer_len) {
 251:../../lpc_chip_11cxx_lib/src/ssp_11xx.c **** 			/* write data to buffer */
 252:../../lpc_chip_11cxx_lib/src/ssp_11xx.c **** 			if ((Chip_SSP_GetStatus(pSSP, SSP_STAT_TNF) == SET) && (tx_cnt < buffer_len)) {
 253:../../lpc_chip_11cxx_lib/src/ssp_11xx.c **** 				Chip_SSP_SendFrame(pSSP, *wdata16);
 254:../../lpc_chip_11cxx_lib/src/ssp_11xx.c **** 				wdata16++;
 255:../../lpc_chip_11cxx_lib/src/ssp_11xx.c **** 				tx_cnt += 2;
 256:../../lpc_chip_11cxx_lib/src/ssp_11xx.c **** 			}
 257:../../lpc_chip_11cxx_lib/src/ssp_11xx.c **** 
 258:../../lpc_chip_11cxx_lib/src/ssp_11xx.c **** 			/* Check overrun error */
 259:../../lpc_chip_11cxx_lib/src/ssp_11xx.c **** 			if (Chip_SSP_GetRawIntStatus(pSSP, SSP_RORRIS) == SET) {
 260:../../lpc_chip_11cxx_lib/src/ssp_11xx.c **** 				return ERROR;
 261:../../lpc_chip_11cxx_lib/src/ssp_11xx.c **** 			}
 262:../../lpc_chip_11cxx_lib/src/ssp_11xx.c **** 
 263:../../lpc_chip_11cxx_lib/src/ssp_11xx.c **** 			/* Check for any data available in RX FIFO */
 264:../../lpc_chip_11cxx_lib/src/ssp_11xx.c **** 			while (Chip_SSP_GetStatus(pSSP, SSP_STAT_RNE) == SET) {
 265:../../lpc_chip_11cxx_lib/src/ssp_11xx.c **** 				Chip_SSP_ReceiveFrame(pSSP);	/* read dummy data */
 266:../../lpc_chip_11cxx_lib/src/ssp_11xx.c **** 				rx_cnt += 2;
 267:../../lpc_chip_11cxx_lib/src/ssp_11xx.c **** 			}
 268:../../lpc_chip_11cxx_lib/src/ssp_11xx.c **** 		}
 269:../../lpc_chip_11cxx_lib/src/ssp_11xx.c **** 	}
 270:../../lpc_chip_11cxx_lib/src/ssp_11xx.c **** 	else {
 271:../../lpc_chip_11cxx_lib/src/ssp_11xx.c **** 		uint8_t *wdata8;
 272:../../lpc_chip_11cxx_lib/src/ssp_11xx.c **** 
 273:../../lpc_chip_11cxx_lib/src/ssp_11xx.c **** 		wdata8 = buffer;
 274:../../lpc_chip_11cxx_lib/src/ssp_11xx.c **** 
 275:../../lpc_chip_11cxx_lib/src/ssp_11xx.c **** 		while (tx_cnt < buffer_len || rx_cnt < buffer_len) {
 653              		.loc 1 275 0 discriminator 1
 654 0028 9642     		cmp	r6, r2	@ tx_cnt, buffer_len
 655 002a 15D2     		bcs	.L95	@,
 656              	.L75:
 657              	.LVL45:
 658              	.LBB311:
ARM GAS  /var/folders/f9/8bk2lnw15zn4cbgn6wrnb4lm0000gn/T//ccCGlkPS.s 			page 25


 659              	.LBB309:
 284:../../lpc_chip_11cxx_lib/inc/ssp_11xx.h **** 	return (pSSP->SR & Stat) ? SET : RESET;
 660              		.loc 2 284 0
 661 002c C468     		ldr	r4, [r0, #12]	@ D.6868, pSSP_25(D)->SR
 662 002e 6408     		lsr	r4, r4, #1	@ tmp234, D.6868,
 663              	.LBE309:
 664              	.LBE311:
 276:../../lpc_chip_11cxx_lib/src/ssp_11xx.c **** 			/* write data to buffer */
 277:../../lpc_chip_11cxx_lib/src/ssp_11xx.c **** 			if ((Chip_SSP_GetStatus(pSSP, SSP_STAT_TNF) == SET) && (tx_cnt < buffer_len)) {
 665              		.loc 1 277 0
 666 0030 2542     		tst	r5, r4	@ tmp244, tmp234
 667 0032 15D1     		bne	.L96	@,
 668              	.L80:
 669              	.LVL46:
 670              	.LBB312:
 671              	.LBB313:
 311:../../lpc_chip_11cxx_lib/inc/ssp_11xx.h **** 	return (pSSP->RIS & RawInt) ? SET : RESET;
 672              		.loc 2 311 0
 673 0034 8469     		ldr	r4, [r0, #24]	@ D.6868, pSSP_25(D)->RIS
 674              	.LBE313:
 675              	.LBE312:
 278:../../lpc_chip_11cxx_lib/src/ssp_11xx.c **** 				Chip_SSP_SendFrame(pSSP, *wdata8);
 279:../../lpc_chip_11cxx_lib/src/ssp_11xx.c **** 				wdata8++;
 280:../../lpc_chip_11cxx_lib/src/ssp_11xx.c **** 				tx_cnt++;
 281:../../lpc_chip_11cxx_lib/src/ssp_11xx.c **** 			}
 282:../../lpc_chip_11cxx_lib/src/ssp_11xx.c **** 
 283:../../lpc_chip_11cxx_lib/src/ssp_11xx.c **** 			/* Check overrun error */
 284:../../lpc_chip_11cxx_lib/src/ssp_11xx.c **** 			if (Chip_SSP_GetRawIntStatus(pSSP, SSP_RORRIS) == SET) {
 676              		.loc 1 284 0
 677 0036 2542     		tst	r5, r4	@ tmp244, D.6868
 678 0038 19D1     		bne	.L72	@,
 679              	.L98:
 680              	.LVL47:
 681              	.LBB315:
 682              	.LBB316:
 284:../../lpc_chip_11cxx_lib/inc/ssp_11xx.h **** 	return (pSSP->SR & Stat) ? SET : RESET;
 683              		.loc 2 284 0 discriminator 1
 684 003a C468     		ldr	r4, [r0, #12]	@ D.6868,
 685 003c A408     		lsr	r4, r4, #2	@ tmp212, D.6868,
 686              	.LBE316:
 687              	.LBE315:
 285:../../lpc_chip_11cxx_lib/src/ssp_11xx.c **** 				return ERROR;
 286:../../lpc_chip_11cxx_lib/src/ssp_11xx.c **** 			}
 287:../../lpc_chip_11cxx_lib/src/ssp_11xx.c **** 
 288:../../lpc_chip_11cxx_lib/src/ssp_11xx.c **** 			/* Check for any data available in RX FIFO */
 289:../../lpc_chip_11cxx_lib/src/ssp_11xx.c **** 			while (Chip_SSP_GetStatus(pSSP, SSP_STAT_RNE) == SET && rx_cnt < buffer_len) {
 688              		.loc 1 289 0 discriminator 1
 689 003e 2542     		tst	r5, r4	@ tmp244, tmp212
 690 0040 06D1     		bne	.L92	@,
 691 0042 F1E7     		b	.L64	@
 692              	.L97:
 693              	.LVL48:
 694              	.LBB319:
 695              	.LBB320:
 366:../../lpc_chip_11cxx_lib/inc/ssp_11xx.h **** 	return (uint16_t) (SSP_DR_BITMASK(pSSP->DR));
 696              		.loc 2 366 0
 697 0044 8468     		ldr	r4, [r0, #8]	@ D.6868, pSSP_25(D)->DR
ARM GAS  /var/folders/f9/8bk2lnw15zn4cbgn6wrnb4lm0000gn/T//ccCGlkPS.s 			page 26


 698              	.LBE320:
 699              	.LBE319:
 700              	.LBB321:
 701              	.LBB317:
 284:../../lpc_chip_11cxx_lib/inc/ssp_11xx.h **** 	return (pSSP->SR & Stat) ? SET : RESET;
 702              		.loc 2 284 0
 703 0046 C468     		ldr	r4, [r0, #12]	@ D.6868,
 704              	.LBE317:
 705              	.LBE321:
 290:../../lpc_chip_11cxx_lib/src/ssp_11xx.c **** 				Chip_SSP_ReceiveFrame(pSSP);	/* read dummy data */
 291:../../lpc_chip_11cxx_lib/src/ssp_11xx.c **** 				rx_cnt++;
 706              		.loc 1 291 0
 707 0048 0133     		add	r3, r3, #1	@ rx_cnt,
 708              	.LVL49:
 709              	.LBB322:
 710              	.LBB318:
 284:../../lpc_chip_11cxx_lib/inc/ssp_11xx.h **** 	return (pSSP->SR & Stat) ? SET : RESET;
 711              		.loc 2 284 0
 712 004a A408     		lsr	r4, r4, #2	@ tmp219, D.6868,
 713              	.LBE318:
 714              	.LBE322:
 289:../../lpc_chip_11cxx_lib/src/ssp_11xx.c **** 			while (Chip_SSP_GetStatus(pSSP, SSP_STAT_RNE) == SET && rx_cnt < buffer_len) {
 715              		.loc 1 289 0
 716 004c 2542     		tst	r5, r4	@ tmp244, tmp219
 717 004e EBD0     		beq	.L64	@,
 718              	.LVL50:
 719              	.L92:
 720 0050 9342     		cmp	r3, r2	@ rx_cnt, buffer_len
 721 0052 F7D3     		bcc	.L97	@,
 275:../../lpc_chip_11cxx_lib/src/ssp_11xx.c **** 		while (tx_cnt < buffer_len || rx_cnt < buffer_len) {
 722              		.loc 1 275 0
 723 0054 9642     		cmp	r6, r2	@ tx_cnt, buffer_len
 724 0056 E9D3     		bcc	.L75	@,
 725              	.LVL51:
 726              	.L95:
 275:../../lpc_chip_11cxx_lib/src/ssp_11xx.c **** 		while (tx_cnt < buffer_len || rx_cnt < buffer_len) {
 727              		.loc 1 275 0 is_stmt 0 discriminator 2
 728 0058 9342     		cmp	r3, r2	@ rx_cnt, buffer_len
 729 005a 28D2     		bcs	.L93	@,
 730              	.LVL52:
 731              	.LBB323:
 732              	.LBB310:
 284:../../lpc_chip_11cxx_lib/inc/ssp_11xx.h **** 	return (pSSP->SR & Stat) ? SET : RESET;
 733              		.loc 2 284 0 is_stmt 1
 734 005c C468     		ldr	r4, [r0, #12]	@ D.6868, pSSP_25(D)->SR
 735 005e E9E7     		b	.L80	@
 736              	.L96:
 737              	.LVL53:
 738              	.LBE310:
 739              	.LBE323:
 740              	.LBB324:
 741              	.LBB325:
 742              		.loc 2 377 0
 743 0060 0C78     		ldrb	r4, [r1]	@ D.6868, *buffer_13
 744              	.LBE325:
 745              	.LBE324:
 280:../../lpc_chip_11cxx_lib/src/ssp_11xx.c **** 				tx_cnt++;
ARM GAS  /var/folders/f9/8bk2lnw15zn4cbgn6wrnb4lm0000gn/T//ccCGlkPS.s 			page 27


 746              		.loc 1 280 0
 747 0062 0136     		add	r6, r6, #1	@ tx_cnt,
 748              	.LVL54:
 749              	.LBB327:
 750              	.LBB326:
 751              		.loc 2 377 0
 752 0064 8460     		str	r4, [r0, #8]	@ D.6868, pSSP_25(D)->DR
 753              	.LVL55:
 754              	.LBE326:
 755              	.LBE327:
 756              	.LBB328:
 757              	.LBB314:
 311:../../lpc_chip_11cxx_lib/inc/ssp_11xx.h **** 	return (pSSP->RIS & RawInt) ? SET : RESET;
 758              		.loc 2 311 0
 759 0066 8469     		ldr	r4, [r0, #24]	@ D.6868, pSSP_25(D)->RIS
 760              	.LVL56:
 761              	.LBE314:
 762              	.LBE328:
 279:../../lpc_chip_11cxx_lib/src/ssp_11xx.c **** 				wdata8++;
 763              		.loc 1 279 0
 764 0068 0131     		add	r1, r1, #1	@ buffer,
 765              	.LVL57:
 284:../../lpc_chip_11cxx_lib/src/ssp_11xx.c **** 			if (Chip_SSP_GetRawIntStatus(pSSP, SSP_RORRIS) == SET) {
 766              		.loc 1 284 0
 767 006a 2542     		tst	r5, r4	@ tmp244, D.6868
 768 006c E5D0     		beq	.L98	@,
 769              	.LVL58:
 770              	.L72:
 771              	.LBE306:
 772              	.LBB329:
 260:../../lpc_chip_11cxx_lib/src/ssp_11xx.c **** 				return ERROR;
 773              		.loc 1 260 0
 774 006e 0020     		mov	r0, #0	@ D.6867,
 775              	.LVL59:
 776              	.L90:
 777              	.LBE329:
 292:../../lpc_chip_11cxx_lib/src/ssp_11xx.c **** 			}
 293:../../lpc_chip_11cxx_lib/src/ssp_11xx.c **** 		}
 294:../../lpc_chip_11cxx_lib/src/ssp_11xx.c **** 	}
 295:../../lpc_chip_11cxx_lib/src/ssp_11xx.c **** 
 296:../../lpc_chip_11cxx_lib/src/ssp_11xx.c **** 	return tx_cnt;
 297:../../lpc_chip_11cxx_lib/src/ssp_11xx.c **** 
 298:../../lpc_chip_11cxx_lib/src/ssp_11xx.c **** }
 778              		.loc 1 298 0
 779              		@ sp needed	@
 780              	.LVL60:
 781 0070 70BD     		pop	{r4, r5, r6, pc}
 782              	.LVL61:
 783              	.L63:
 245:../../lpc_chip_11cxx_lib/src/ssp_11xx.c **** 	if (Chip_SSP_GetDataSize(pSSP) > SSP_BITS_8) {
 784              		.loc 1 245 0
 785 0072 0026     		mov	r6, #0	@ tx_cnt,
 786 0074 0023     		mov	r3, #0	@ rx_cnt,
 787              	.LBB346:
 788              	.LBB330:
 789              	.LBB331:
 284:../../lpc_chip_11cxx_lib/inc/ssp_11xx.h **** 	return (pSSP->SR & Stat) ? SET : RESET;
ARM GAS  /var/folders/f9/8bk2lnw15zn4cbgn6wrnb4lm0000gn/T//ccCGlkPS.s 			page 28


 790              		.loc 2 284 0
 791 0076 0125     		mov	r5, #1	@ tmp242,
 792              	.LVL62:
 793              	.LBE331:
 794              	.LBE330:
 250:../../lpc_chip_11cxx_lib/src/ssp_11xx.c **** 		while (tx_cnt < buffer_len || rx_cnt < buffer_len) {
 795              		.loc 1 250 0
 796 0078 9642     		cmp	r6, r2	@ tx_cnt, buffer_len
 797 007a 0FD2     		bcs	.L99	@,
 798              	.LVL63:
 799              	.L70:
 800              	.LBB334:
 801              	.LBB332:
 284:../../lpc_chip_11cxx_lib/inc/ssp_11xx.h **** 	return (pSSP->SR & Stat) ? SET : RESET;
 802              		.loc 2 284 0
 803 007c C468     		ldr	r4, [r0, #12]	@ D.6868, pSSP_25(D)->SR
 804 007e 6408     		lsr	r4, r4, #1	@ tmp227, D.6868,
 805              	.LBE332:
 806              	.LBE334:
 252:../../lpc_chip_11cxx_lib/src/ssp_11xx.c **** 			if ((Chip_SSP_GetStatus(pSSP, SSP_STAT_TNF) == SET) && (tx_cnt < buffer_len)) {
 807              		.loc 1 252 0
 808 0080 2542     		tst	r5, r4	@ tmp242, tmp227
 809 0082 0FD1     		bne	.L100	@,
 810              	.L78:
 811              	.LVL64:
 812              	.LBB335:
 813              	.LBB336:
 311:../../lpc_chip_11cxx_lib/inc/ssp_11xx.h **** 	return (pSSP->RIS & RawInt) ? SET : RESET;
 814              		.loc 2 311 0
 815 0084 8469     		ldr	r4, [r0, #24]	@ D.6868, pSSP_25(D)->RIS
 816              	.LBE336:
 817              	.LBE335:
 259:../../lpc_chip_11cxx_lib/src/ssp_11xx.c **** 			if (Chip_SSP_GetRawIntStatus(pSSP, SSP_RORRIS) == SET) {
 818              		.loc 1 259 0
 819 0086 2542     		tst	r5, r4	@ tmp242, D.6868
 820 0088 02D0     		beq	.L91	@,
 821 008a F0E7     		b	.L72	@
 822              	.LVL65:
 823              	.L69:
 824              	.LBB337:
 825              	.LBB338:
 366:../../lpc_chip_11cxx_lib/inc/ssp_11xx.h **** 	return (uint16_t) (SSP_DR_BITMASK(pSSP->DR));
 826              		.loc 2 366 0
 827 008c 8468     		ldr	r4, [r0, #8]	@ D.6868, pSSP_25(D)->DR
 828              	.LBE338:
 829              	.LBE337:
 266:../../lpc_chip_11cxx_lib/src/ssp_11xx.c **** 				rx_cnt += 2;
 830              		.loc 1 266 0
 831 008e 0233     		add	r3, r3, #2	@ rx_cnt,
 832              	.LVL66:
 833              	.L91:
 834              	.LBB339:
 835              	.LBB340:
 284:../../lpc_chip_11cxx_lib/inc/ssp_11xx.h **** 	return (pSSP->SR & Stat) ? SET : RESET;
 836              		.loc 2 284 0
 837 0090 C468     		ldr	r4, [r0, #12]	@ D.6868,
 838 0092 A408     		lsr	r4, r4, #2	@ tmp202, D.6868,
ARM GAS  /var/folders/f9/8bk2lnw15zn4cbgn6wrnb4lm0000gn/T//ccCGlkPS.s 			page 29


 839              	.LBE340:
 840              	.LBE339:
 264:../../lpc_chip_11cxx_lib/src/ssp_11xx.c **** 			while (Chip_SSP_GetStatus(pSSP, SSP_STAT_RNE) == SET) {
 841              		.loc 1 264 0
 842 0094 2542     		tst	r5, r4	@ tmp242, tmp202
 843 0096 F9D1     		bne	.L69	@,
 250:../../lpc_chip_11cxx_lib/src/ssp_11xx.c **** 		while (tx_cnt < buffer_len || rx_cnt < buffer_len) {
 844              		.loc 1 250 0
 845 0098 9642     		cmp	r6, r2	@ tx_cnt, buffer_len
 846 009a EFD3     		bcc	.L70	@,
 847              	.LVL67:
 848              	.L99:
 250:../../lpc_chip_11cxx_lib/src/ssp_11xx.c **** 		while (tx_cnt < buffer_len || rx_cnt < buffer_len) {
 849              		.loc 1 250 0 is_stmt 0 discriminator 2
 850 009c 9342     		cmp	r3, r2	@ rx_cnt, buffer_len
 851 009e 06D2     		bcs	.L93	@,
 852              	.LVL68:
 853              	.LBB341:
 854              	.LBB333:
 284:../../lpc_chip_11cxx_lib/inc/ssp_11xx.h **** 	return (pSSP->SR & Stat) ? SET : RESET;
 855              		.loc 2 284 0 is_stmt 1
 856 00a0 C468     		ldr	r4, [r0, #12]	@ D.6868, pSSP_25(D)->SR
 857 00a2 EFE7     		b	.L78	@
 858              	.L100:
 859              	.LVL69:
 860              	.LBE333:
 861              	.LBE341:
 862              	.LBB342:
 863              	.LBB343:
 864              		.loc 2 377 0
 865 00a4 0C88     		ldrh	r4, [r1]	@ D.6868, MEM[(uint16_t *)buffer_11]
 866              	.LBE343:
 867              	.LBE342:
 255:../../lpc_chip_11cxx_lib/src/ssp_11xx.c **** 				tx_cnt += 2;
 868              		.loc 1 255 0
 869 00a6 0236     		add	r6, r6, #2	@ tx_cnt,
 870              	.LVL70:
 871              	.LBB345:
 872              	.LBB344:
 873              		.loc 2 377 0
 874 00a8 8460     		str	r4, [r0, #8]	@ D.6868, pSSP_25(D)->DR
 875              	.LVL71:
 876              	.LBE344:
 877              	.LBE345:
 254:../../lpc_chip_11cxx_lib/src/ssp_11xx.c **** 				wdata16++;
 878              		.loc 1 254 0
 879 00aa 0231     		add	r1, r1, #2	@ buffer,
 880              	.LVL72:
 881 00ac EAE7     		b	.L78	@
 882              	.LVL73:
 883              	.L93:
 884              	.LBE346:
 885              	.LBB347:
 886 00ae 301C     		mov	r0, r6	@ D.6867, tx_cnt
 887              	.LVL74:
 888 00b0 DEE7     		b	.L90	@
 889              	.LBE347:
ARM GAS  /var/folders/f9/8bk2lnw15zn4cbgn6wrnb4lm0000gn/T//ccCGlkPS.s 			page 30


 890              		.cfi_endproc
 891              	.LFE208:
 892              		.size	Chip_SSP_WriteFrames_Blocking, .-Chip_SSP_WriteFrames_Blocking
 893 00b2 C046     		.section	.text.Chip_SSP_ReadFrames_Blocking,"ax",%progbits
 894              		.align	2
 895              		.global	Chip_SSP_ReadFrames_Blocking
 896              		.code	16
 897              		.thumb_func
 898              		.type	Chip_SSP_ReadFrames_Blocking, %function
 899              	Chip_SSP_ReadFrames_Blocking:
 900              	.LFB209:
 299:../../lpc_chip_11cxx_lib/src/ssp_11xx.c **** 
 300:../../lpc_chip_11cxx_lib/src/ssp_11xx.c **** /* SSP Polling Read in blocking mode */
 301:../../lpc_chip_11cxx_lib/src/ssp_11xx.c **** uint32_t Chip_SSP_ReadFrames_Blocking(LPC_SSP_T *pSSP, uint8_t *buffer, uint32_t buffer_len)
 302:../../lpc_chip_11cxx_lib/src/ssp_11xx.c **** {
 901              		.loc 1 302 0
 902              		.cfi_startproc
 903              	.LVL75:
 904              	.LBB348:
 905              	.LBB349:
 284:../../lpc_chip_11cxx_lib/inc/ssp_11xx.h **** 	return (pSSP->SR & Stat) ? SET : RESET;
 906              		.loc 2 284 0
 907 0000 C368     		ldr	r3, [r0, #12]	@ D.6889, pSSP_25(D)->SR
 908              	.LBE349:
 909              	.LBE348:
 910              		.loc 1 302 0
 911 0002 F0B5     		push	{r4, r5, r6, r7, lr}	@
 912              		.cfi_def_cfa_offset 20
 913              		.cfi_offset 4, -20
 914              		.cfi_offset 5, -16
 915              		.cfi_offset 6, -12
 916              		.cfi_offset 7, -8
 917              		.cfi_offset 14, -4
 303:../../lpc_chip_11cxx_lib/src/ssp_11xx.c **** 	uint32_t rx_cnt = 0, tx_cnt = 0;
 304:../../lpc_chip_11cxx_lib/src/ssp_11xx.c **** 
 305:../../lpc_chip_11cxx_lib/src/ssp_11xx.c **** 	/* Clear all remaining frames in RX FIFO */
 306:../../lpc_chip_11cxx_lib/src/ssp_11xx.c **** 	while (Chip_SSP_GetStatus(pSSP, SSP_STAT_RNE)) {
 918              		.loc 1 306 0
 919 0004 5C07     		lsl	r4, r3, #29	@, D.6889,
 920 0006 05D5     		bpl	.L102	@,
 921              	.LBB352:
 922              	.LBB350:
 284:../../lpc_chip_11cxx_lib/inc/ssp_11xx.h **** 	return (pSSP->SR & Stat) ? SET : RESET;
 923              		.loc 2 284 0
 924 0008 0124     		mov	r4, #1	@ tmp273,
 925              	.L103:
 926              	.LVL76:
 927              	.LBE350:
 928              	.LBE352:
 929              	.LBB353:
 930              	.LBB354:
 366:../../lpc_chip_11cxx_lib/inc/ssp_11xx.h **** 	return (uint16_t) (SSP_DR_BITMASK(pSSP->DR));
 931              		.loc 2 366 0
 932 000a 8368     		ldr	r3, [r0, #8]	@ D.6889, pSSP_25(D)->DR
 933              	.LBE354:
 934              	.LBE353:
 935              	.LBB355:
ARM GAS  /var/folders/f9/8bk2lnw15zn4cbgn6wrnb4lm0000gn/T//ccCGlkPS.s 			page 31


 936              	.LBB351:
 284:../../lpc_chip_11cxx_lib/inc/ssp_11xx.h **** 	return (pSSP->SR & Stat) ? SET : RESET;
 937              		.loc 2 284 0
 938 000c C368     		ldr	r3, [r0, #12]	@ D.6889, pSSP_25(D)->SR
 939 000e 9B08     		lsr	r3, r3, #2	@ tmp199, D.6889,
 940              	.LBE351:
 941              	.LBE355:
 942              		.loc 1 306 0
 943 0010 1C42     		tst	r4, r3	@ tmp273, tmp199
 944 0012 FAD1     		bne	.L103	@,
 945              	.LVL77:
 946              	.L102:
 947              	.LBB356:
 948              	.LBB357:
 336:../../lpc_chip_11cxx_lib/inc/ssp_11xx.h **** 	pSSP->ICR = IntClear;
 949              		.loc 2 336 0
 950 0014 0323     		mov	r3, #3	@ tmp207,
 951 0016 0362     		str	r3, [r0, #32]	@ tmp207, pSSP_25(D)->ICR
 952              	.LVL78:
 953              	.LBE357:
 954              	.LBE356:
 955              	.LBB358:
 956              	.LBB359:
 322:../../lpc_chip_11cxx_lib/inc/ssp_11xx.h **** 	return SSP_CR0_DSS(pSSP->CR0);
 957              		.loc 2 322 0
 958 0018 0368     		ldr	r3, [r0]	@ D.6889, pSSP_25(D)->CR0
 959              	.LBE359:
 960              	.LBE358:
 307:../../lpc_chip_11cxx_lib/src/ssp_11xx.c **** 		Chip_SSP_ReceiveFrame(pSSP);
 308:../../lpc_chip_11cxx_lib/src/ssp_11xx.c **** 	}
 309:../../lpc_chip_11cxx_lib/src/ssp_11xx.c **** 
 310:../../lpc_chip_11cxx_lib/src/ssp_11xx.c **** 	/* Clear status */
 311:../../lpc_chip_11cxx_lib/src/ssp_11xx.c **** 	Chip_SSP_ClearIntPending(pSSP, SSP_INT_CLEAR_BITMASK);
 312:../../lpc_chip_11cxx_lib/src/ssp_11xx.c **** 
 313:../../lpc_chip_11cxx_lib/src/ssp_11xx.c **** 	if (Chip_SSP_GetDataSize(pSSP) > SSP_BITS_8) {
 961              		.loc 1 313 0
 962 001a 0F24     		mov	r4, #15	@ tmp212,
 963 001c 2340     		and	r3, r4	@ tmp213, tmp212
 964 001e 0026     		mov	r6, #0	@ tx_cnt,
 965 0020 072B     		cmp	r3, #7	@ tmp213,
 966 0022 27D8     		bhi	.L104	@,
 967 0024 0023     		mov	r3, #0	@ rx_cnt,
 968              	.LBB360:
 969              	.LBB361:
 970              	.LBB362:
 284:../../lpc_chip_11cxx_lib/inc/ssp_11xx.h **** 	return (pSSP->SR & Stat) ? SET : RESET;
 971              		.loc 2 284 0
 972 0026 0125     		mov	r5, #1	@ tmp271,
 973              	.LBE362:
 974              	.LBE361:
 975              	.LBB365:
 976              	.LBB366:
 977              		.loc 2 377 0
 978 0028 FF27     		mov	r7, #255	@ tmp272,
 979              	.LVL79:
 980              	.L105:
 981              	.LBE366:
ARM GAS  /var/folders/f9/8bk2lnw15zn4cbgn6wrnb4lm0000gn/T//ccCGlkPS.s 			page 32


 982              	.LBE365:
 314:../../lpc_chip_11cxx_lib/src/ssp_11xx.c **** 		uint16_t *rdata16;
 315:../../lpc_chip_11cxx_lib/src/ssp_11xx.c **** 
 316:../../lpc_chip_11cxx_lib/src/ssp_11xx.c **** 		rdata16 = (uint16_t *) buffer;
 317:../../lpc_chip_11cxx_lib/src/ssp_11xx.c **** 
 318:../../lpc_chip_11cxx_lib/src/ssp_11xx.c **** 		while (tx_cnt < buffer_len || rx_cnt < buffer_len) {
 319:../../lpc_chip_11cxx_lib/src/ssp_11xx.c **** 			/* write data to buffer */
 320:../../lpc_chip_11cxx_lib/src/ssp_11xx.c **** 			if ((Chip_SSP_GetStatus(pSSP, SSP_STAT_TNF) == SET) && (tx_cnt < buffer_len)) {
 321:../../lpc_chip_11cxx_lib/src/ssp_11xx.c **** 				Chip_SSP_SendFrame(pSSP, 0xFFFF);	/* just send dummy data */
 322:../../lpc_chip_11cxx_lib/src/ssp_11xx.c **** 				tx_cnt += 2;
 323:../../lpc_chip_11cxx_lib/src/ssp_11xx.c **** 			}
 324:../../lpc_chip_11cxx_lib/src/ssp_11xx.c **** 
 325:../../lpc_chip_11cxx_lib/src/ssp_11xx.c **** 			/* Check overrun error */
 326:../../lpc_chip_11cxx_lib/src/ssp_11xx.c **** 			if (Chip_SSP_GetRawIntStatus(pSSP, SSP_RORRIS) == SET) {
 327:../../lpc_chip_11cxx_lib/src/ssp_11xx.c **** 				return ERROR;
 328:../../lpc_chip_11cxx_lib/src/ssp_11xx.c **** 			}
 329:../../lpc_chip_11cxx_lib/src/ssp_11xx.c **** 
 330:../../lpc_chip_11cxx_lib/src/ssp_11xx.c **** 			/* Check for any data available in RX FIFO */
 331:../../lpc_chip_11cxx_lib/src/ssp_11xx.c **** 			while (Chip_SSP_GetStatus(pSSP, SSP_STAT_RNE) == SET && rx_cnt < buffer_len) {
 332:../../lpc_chip_11cxx_lib/src/ssp_11xx.c **** 				*rdata16 = Chip_SSP_ReceiveFrame(pSSP);
 333:../../lpc_chip_11cxx_lib/src/ssp_11xx.c **** 				rdata16++;
 334:../../lpc_chip_11cxx_lib/src/ssp_11xx.c **** 				rx_cnt += 2;
 335:../../lpc_chip_11cxx_lib/src/ssp_11xx.c **** 			}
 336:../../lpc_chip_11cxx_lib/src/ssp_11xx.c **** 		}
 337:../../lpc_chip_11cxx_lib/src/ssp_11xx.c **** 	}
 338:../../lpc_chip_11cxx_lib/src/ssp_11xx.c **** 	else {
 339:../../lpc_chip_11cxx_lib/src/ssp_11xx.c **** 		uint8_t *rdata8;
 340:../../lpc_chip_11cxx_lib/src/ssp_11xx.c **** 
 341:../../lpc_chip_11cxx_lib/src/ssp_11xx.c **** 		rdata8 = buffer;
 342:../../lpc_chip_11cxx_lib/src/ssp_11xx.c **** 
 343:../../lpc_chip_11cxx_lib/src/ssp_11xx.c **** 		while (tx_cnt < buffer_len || rx_cnt < buffer_len) {
 983              		.loc 1 343 0 discriminator 1
 984 002a 9642     		cmp	r6, r2	@ tx_cnt, buffer_len
 985 002c 17D2     		bcs	.L137	@,
 986              	.L116:
 987              	.LVL80:
 988              	.LBB368:
 989              	.LBB363:
 284:../../lpc_chip_11cxx_lib/inc/ssp_11xx.h **** 	return (pSSP->SR & Stat) ? SET : RESET;
 990              		.loc 2 284 0
 991 002e C468     		ldr	r4, [r0, #12]	@ D.6889, pSSP_25(D)->SR
 992 0030 6408     		lsr	r4, r4, #1	@ tmp260, D.6889,
 993              	.LBE363:
 994              	.LBE368:
 344:../../lpc_chip_11cxx_lib/src/ssp_11xx.c **** 			/* write data to buffer */
 345:../../lpc_chip_11cxx_lib/src/ssp_11xx.c **** 			if ((Chip_SSP_GetStatus(pSSP, SSP_STAT_TNF) == SET) && (tx_cnt < buffer_len)) {
 995              		.loc 1 345 0
 996 0032 2542     		tst	r5, r4	@ tmp271, tmp260
 997 0034 17D1     		bne	.L138	@,
 998              	.L120:
 999              	.LVL81:
 1000              	.LBB369:
 1001              	.LBB370:
 311:../../lpc_chip_11cxx_lib/inc/ssp_11xx.h **** 	return (pSSP->RIS & RawInt) ? SET : RESET;
 1002              		.loc 2 311 0
 1003 0036 8469     		ldr	r4, [r0, #24]	@ D.6889, pSSP_25(D)->RIS
 1004              	.LBE370:
ARM GAS  /var/folders/f9/8bk2lnw15zn4cbgn6wrnb4lm0000gn/T//ccCGlkPS.s 			page 33


 1005              	.LBE369:
 346:../../lpc_chip_11cxx_lib/src/ssp_11xx.c **** 				Chip_SSP_SendFrame(pSSP, 0xFF);	/* just send dummy data		 */
 347:../../lpc_chip_11cxx_lib/src/ssp_11xx.c **** 				tx_cnt++;
 348:../../lpc_chip_11cxx_lib/src/ssp_11xx.c **** 			}
 349:../../lpc_chip_11cxx_lib/src/ssp_11xx.c **** 
 350:../../lpc_chip_11cxx_lib/src/ssp_11xx.c **** 			/* Check overrun error */
 351:../../lpc_chip_11cxx_lib/src/ssp_11xx.c **** 			if (Chip_SSP_GetRawIntStatus(pSSP, SSP_RORRIS) == SET) {
 1006              		.loc 1 351 0
 1007 0038 2542     		tst	r5, r4	@ tmp271, D.6889
 1008 003a 19D1     		bne	.L113	@,
 1009              	.L140:
 1010              	.LVL82:
 1011              	.LBB372:
 1012              	.LBB373:
 284:../../lpc_chip_11cxx_lib/inc/ssp_11xx.h **** 	return (pSSP->SR & Stat) ? SET : RESET;
 1013              		.loc 2 284 0 discriminator 1
 1014 003c C468     		ldr	r4, [r0, #12]	@ D.6889,
 1015 003e A408     		lsr	r4, r4, #2	@ tmp237, D.6889,
 1016              	.LBE373:
 1017              	.LBE372:
 352:../../lpc_chip_11cxx_lib/src/ssp_11xx.c **** 				return ERROR;
 353:../../lpc_chip_11cxx_lib/src/ssp_11xx.c **** 			}
 354:../../lpc_chip_11cxx_lib/src/ssp_11xx.c **** 
 355:../../lpc_chip_11cxx_lib/src/ssp_11xx.c **** 			/* Check for any data available in RX FIFO */
 356:../../lpc_chip_11cxx_lib/src/ssp_11xx.c **** 			while (Chip_SSP_GetStatus(pSSP, SSP_STAT_RNE) == SET && rx_cnt < buffer_len) {
 1018              		.loc 1 356 0 discriminator 1
 1019 0040 2542     		tst	r5, r4	@ tmp271, tmp237
 1020 0042 08D1     		bne	.L133	@,
 1021 0044 F1E7     		b	.L105	@
 1022              	.L139:
 1023              	.LVL83:
 1024              	.LBB376:
 1025              	.LBB377:
 366:../../lpc_chip_11cxx_lib/inc/ssp_11xx.h **** 	return (uint16_t) (SSP_DR_BITMASK(pSSP->DR));
 1026              		.loc 2 366 0
 1027 0046 8468     		ldr	r4, [r0, #8]	@ D.6889, pSSP_25(D)->DR
 1028              	.LBE377:
 1029              	.LBE376:
 357:../../lpc_chip_11cxx_lib/src/ssp_11xx.c **** 				*rdata8 = Chip_SSP_ReceiveFrame(pSSP);
 358:../../lpc_chip_11cxx_lib/src/ssp_11xx.c **** 				rdata8++;
 359:../../lpc_chip_11cxx_lib/src/ssp_11xx.c **** 				rx_cnt++;
 1030              		.loc 1 359 0
 1031 0048 0133     		add	r3, r3, #1	@ rx_cnt,
 1032              	.LVL84:
 357:../../lpc_chip_11cxx_lib/src/ssp_11xx.c **** 				*rdata8 = Chip_SSP_ReceiveFrame(pSSP);
 1033              		.loc 1 357 0
 1034 004a 0C70     		strb	r4, [r1]	@ D.6889, MEM[base: buffer_122, offset: 0B]
 1035              	.LBB378:
 1036              	.LBB374:
 284:../../lpc_chip_11cxx_lib/inc/ssp_11xx.h **** 	return (pSSP->SR & Stat) ? SET : RESET;
 1037              		.loc 2 284 0
 1038 004c C468     		ldr	r4, [r0, #12]	@ D.6889,
 1039              	.LBE374:
 1040              	.LBE378:
 358:../../lpc_chip_11cxx_lib/src/ssp_11xx.c **** 				rdata8++;
 1041              		.loc 1 358 0
 1042 004e 0131     		add	r1, r1, #1	@ buffer,
ARM GAS  /var/folders/f9/8bk2lnw15zn4cbgn6wrnb4lm0000gn/T//ccCGlkPS.s 			page 34


 1043              	.LVL85:
 1044              	.LBB379:
 1045              	.LBB375:
 284:../../lpc_chip_11cxx_lib/inc/ssp_11xx.h **** 	return (pSSP->SR & Stat) ? SET : RESET;
 1046              		.loc 2 284 0
 1047 0050 A408     		lsr	r4, r4, #2	@ tmp245, D.6889,
 1048              	.LBE375:
 1049              	.LBE379:
 356:../../lpc_chip_11cxx_lib/src/ssp_11xx.c **** 			while (Chip_SSP_GetStatus(pSSP, SSP_STAT_RNE) == SET && rx_cnt < buffer_len) {
 1050              		.loc 1 356 0
 1051 0052 2542     		tst	r5, r4	@ tmp271, tmp245
 1052 0054 E9D0     		beq	.L105	@,
 1053              	.LVL86:
 1054              	.L133:
 1055 0056 9342     		cmp	r3, r2	@ rx_cnt, buffer_len
 1056 0058 F5D3     		bcc	.L139	@,
 343:../../lpc_chip_11cxx_lib/src/ssp_11xx.c **** 		while (tx_cnt < buffer_len || rx_cnt < buffer_len) {
 1057              		.loc 1 343 0
 1058 005a 9642     		cmp	r6, r2	@ tx_cnt, buffer_len
 1059 005c E7D3     		bcc	.L116	@,
 1060              	.LVL87:
 1061              	.L137:
 343:../../lpc_chip_11cxx_lib/src/ssp_11xx.c **** 		while (tx_cnt < buffer_len || rx_cnt < buffer_len) {
 1062              		.loc 1 343 0 is_stmt 0 discriminator 2
 1063 005e 9342     		cmp	r3, r2	@ rx_cnt, buffer_len
 1064 0060 2CD2     		bcs	.L134	@,
 1065              	.LVL88:
 1066              	.LBB380:
 1067              	.LBB364:
 284:../../lpc_chip_11cxx_lib/inc/ssp_11xx.h **** 	return (pSSP->SR & Stat) ? SET : RESET;
 1068              		.loc 2 284 0 is_stmt 1
 1069 0062 C468     		ldr	r4, [r0, #12]	@ D.6889, pSSP_25(D)->SR
 1070 0064 E7E7     		b	.L120	@
 1071              	.L138:
 1072              	.LVL89:
 1073              	.LBE364:
 1074              	.LBE380:
 1075              	.LBB381:
 1076              	.LBB367:
 1077              		.loc 2 377 0
 1078 0066 8760     		str	r7, [r0, #8]	@ tmp272, pSSP_25(D)->DR
 1079              	.LBE367:
 1080              	.LBE381:
 1081              	.LBB382:
 1082              	.LBB371:
 311:../../lpc_chip_11cxx_lib/inc/ssp_11xx.h **** 	return (pSSP->RIS & RawInt) ? SET : RESET;
 1083              		.loc 2 311 0
 1084 0068 8469     		ldr	r4, [r0, #24]	@ D.6889, pSSP_25(D)->RIS
 1085              	.LBE371:
 1086              	.LBE382:
 347:../../lpc_chip_11cxx_lib/src/ssp_11xx.c **** 				tx_cnt++;
 1087              		.loc 1 347 0
 1088 006a 0136     		add	r6, r6, #1	@ tx_cnt,
 1089              	.LVL90:
 351:../../lpc_chip_11cxx_lib/src/ssp_11xx.c **** 			if (Chip_SSP_GetRawIntStatus(pSSP, SSP_RORRIS) == SET) {
 1090              		.loc 1 351 0
 1091 006c 2542     		tst	r5, r4	@ tmp271, D.6889
ARM GAS  /var/folders/f9/8bk2lnw15zn4cbgn6wrnb4lm0000gn/T//ccCGlkPS.s 			page 35


 1092 006e E5D0     		beq	.L140	@,
 1093              	.LVL91:
 1094              	.L113:
 1095              	.LBE360:
 1096              	.LBB383:
 327:../../lpc_chip_11cxx_lib/src/ssp_11xx.c **** 				return ERROR;
 1097              		.loc 1 327 0
 1098 0070 0020     		mov	r0, #0	@ D.6890,
 1099              	.LVL92:
 1100              	.L131:
 1101              	.LBE383:
 360:../../lpc_chip_11cxx_lib/src/ssp_11xx.c **** 			}
 361:../../lpc_chip_11cxx_lib/src/ssp_11xx.c **** 		}
 362:../../lpc_chip_11cxx_lib/src/ssp_11xx.c **** 	}
 363:../../lpc_chip_11cxx_lib/src/ssp_11xx.c **** 
 364:../../lpc_chip_11cxx_lib/src/ssp_11xx.c **** 	return rx_cnt;
 365:../../lpc_chip_11cxx_lib/src/ssp_11xx.c **** 
 366:../../lpc_chip_11cxx_lib/src/ssp_11xx.c **** }
 1102              		.loc 1 366 0
 1103              		@ sp needed	@
 1104              	.LVL93:
 1105 0072 F0BD     		pop	{r4, r5, r6, r7, pc}
 1106              	.LVL94:
 1107              	.L104:
 1108              	.LBB406:
 1109              	.LBB384:
 1110              	.LBB385:
 1111              		.loc 2 377 0
 1112 0074 124F     		ldr	r7, .L144	@ tmp269,
 1113              	.LBE385:
 1114              	.LBE384:
 1115              	.LBE406:
 313:../../lpc_chip_11cxx_lib/src/ssp_11xx.c **** 	if (Chip_SSP_GetDataSize(pSSP) > SSP_BITS_8) {
 1116              		.loc 1 313 0
 1117 0076 0023     		mov	r3, #0	@ rx_cnt,
 1118              	.LBB407:
 1119              	.LBB387:
 1120              	.LBB388:
 284:../../lpc_chip_11cxx_lib/inc/ssp_11xx.h **** 	return (pSSP->SR & Stat) ? SET : RESET;
 1121              		.loc 2 284 0
 1122 0078 0125     		mov	r5, #1	@ tmp268,
 1123              	.LVL95:
 1124              	.L106:
 1125              	.LBE388:
 1126              	.LBE387:
 318:../../lpc_chip_11cxx_lib/src/ssp_11xx.c **** 		while (tx_cnt < buffer_len || rx_cnt < buffer_len) {
 1127              		.loc 1 318 0 discriminator 1
 1128 007a 9642     		cmp	r6, r2	@ tx_cnt, buffer_len
 1129 007c 17D2     		bcs	.L141	@,
 1130              	.L111:
 1131              	.LVL96:
 1132              	.LBB391:
 1133              	.LBB389:
 284:../../lpc_chip_11cxx_lib/inc/ssp_11xx.h **** 	return (pSSP->SR & Stat) ? SET : RESET;
 1134              		.loc 2 284 0
 1135 007e C468     		ldr	r4, [r0, #12]	@ D.6889, pSSP_25(D)->SR
 1136 0080 6408     		lsr	r4, r4, #1	@ tmp253, D.6889,
ARM GAS  /var/folders/f9/8bk2lnw15zn4cbgn6wrnb4lm0000gn/T//ccCGlkPS.s 			page 36


 1137              	.LBE389:
 1138              	.LBE391:
 320:../../lpc_chip_11cxx_lib/src/ssp_11xx.c **** 			if ((Chip_SSP_GetStatus(pSSP, SSP_STAT_TNF) == SET) && (tx_cnt < buffer_len)) {
 1139              		.loc 1 320 0
 1140 0082 2542     		tst	r5, r4	@ tmp268, tmp253
 1141 0084 17D1     		bne	.L142	@,
 1142              	.L119:
 1143              	.LVL97:
 1144              	.LBB392:
 1145              	.LBB393:
 311:../../lpc_chip_11cxx_lib/inc/ssp_11xx.h **** 	return (pSSP->RIS & RawInt) ? SET : RESET;
 1146              		.loc 2 311 0
 1147 0086 8469     		ldr	r4, [r0, #24]	@ D.6889, pSSP_25(D)->RIS
 1148              	.LBE393:
 1149              	.LBE392:
 326:../../lpc_chip_11cxx_lib/src/ssp_11xx.c **** 			if (Chip_SSP_GetRawIntStatus(pSSP, SSP_RORRIS) == SET) {
 1150              		.loc 1 326 0
 1151 0088 2542     		tst	r5, r4	@ tmp268, D.6889
 1152 008a F1D1     		bne	.L113	@,
 1153              	.LVL98:
 1154              	.LBB394:
 1155              	.LBB395:
 284:../../lpc_chip_11cxx_lib/inc/ssp_11xx.h **** 	return (pSSP->SR & Stat) ? SET : RESET;
 1156              		.loc 2 284 0 discriminator 1
 1157 008c C468     		ldr	r4, [r0, #12]	@ D.6889,
 1158 008e A408     		lsr	r4, r4, #2	@ tmp218, D.6889,
 1159              	.LBE395:
 1160              	.LBE394:
 331:../../lpc_chip_11cxx_lib/src/ssp_11xx.c **** 			while (Chip_SSP_GetStatus(pSSP, SSP_STAT_RNE) == SET && rx_cnt < buffer_len) {
 1161              		.loc 1 331 0 discriminator 1
 1162 0090 2542     		tst	r5, r4	@ tmp268, tmp218
 1163 0092 08D1     		bne	.L132	@,
 1164 0094 F1E7     		b	.L106	@
 1165              	.L143:
 1166              	.LVL99:
 1167              	.LBB398:
 1168              	.LBB399:
 366:../../lpc_chip_11cxx_lib/inc/ssp_11xx.h **** 	return (uint16_t) (SSP_DR_BITMASK(pSSP->DR));
 1169              		.loc 2 366 0
 1170 0096 8468     		ldr	r4, [r0, #8]	@ D.6889, pSSP_25(D)->DR
 1171              	.LBE399:
 1172              	.LBE398:
 334:../../lpc_chip_11cxx_lib/src/ssp_11xx.c **** 				rx_cnt += 2;
 1173              		.loc 1 334 0
 1174 0098 0233     		add	r3, r3, #2	@ rx_cnt,
 1175              	.LVL100:
 1176              	.LBB401:
 1177              	.LBB400:
 366:../../lpc_chip_11cxx_lib/inc/ssp_11xx.h **** 	return (uint16_t) (SSP_DR_BITMASK(pSSP->DR));
 1178              		.loc 2 366 0
 1179 009a 0C80     		strh	r4, [r1]	@ D.6889, MEM[base: buffer_102, offset: 0B]
 1180              	.LBE400:
 1181              	.LBE401:
 1182              	.LBB402:
 1183              	.LBB396:
 284:../../lpc_chip_11cxx_lib/inc/ssp_11xx.h **** 	return (pSSP->SR & Stat) ? SET : RESET;
 1184              		.loc 2 284 0
ARM GAS  /var/folders/f9/8bk2lnw15zn4cbgn6wrnb4lm0000gn/T//ccCGlkPS.s 			page 37


 1185 009c C468     		ldr	r4, [r0, #12]	@ D.6889,
 1186              	.LBE396:
 1187              	.LBE402:
 333:../../lpc_chip_11cxx_lib/src/ssp_11xx.c **** 				rdata16++;
 1188              		.loc 1 333 0
 1189 009e 0231     		add	r1, r1, #2	@ buffer,
 1190              	.LVL101:
 1191              	.LBB403:
 1192              	.LBB397:
 284:../../lpc_chip_11cxx_lib/inc/ssp_11xx.h **** 	return (pSSP->SR & Stat) ? SET : RESET;
 1193              		.loc 2 284 0
 1194 00a0 A408     		lsr	r4, r4, #2	@ tmp226, D.6889,
 1195              	.LBE397:
 1196              	.LBE403:
 331:../../lpc_chip_11cxx_lib/src/ssp_11xx.c **** 			while (Chip_SSP_GetStatus(pSSP, SSP_STAT_RNE) == SET && rx_cnt < buffer_len) {
 1197              		.loc 1 331 0
 1198 00a2 2542     		tst	r5, r4	@ tmp268, tmp226
 1199 00a4 E9D0     		beq	.L106	@,
 1200              	.LVL102:
 1201              	.L132:
 1202 00a6 9342     		cmp	r3, r2	@ rx_cnt, buffer_len
 1203 00a8 F5D3     		bcc	.L143	@,
 318:../../lpc_chip_11cxx_lib/src/ssp_11xx.c **** 		while (tx_cnt < buffer_len || rx_cnt < buffer_len) {
 1204              		.loc 1 318 0
 1205 00aa 9642     		cmp	r6, r2	@ tx_cnt, buffer_len
 1206 00ac E7D3     		bcc	.L111	@,
 1207              	.LVL103:
 1208              	.L141:
 318:../../lpc_chip_11cxx_lib/src/ssp_11xx.c **** 		while (tx_cnt < buffer_len || rx_cnt < buffer_len) {
 1209              		.loc 1 318 0 is_stmt 0 discriminator 2
 1210 00ae 9342     		cmp	r3, r2	@ rx_cnt, buffer_len
 1211 00b0 04D2     		bcs	.L134	@,
 1212              	.LVL104:
 1213              	.LBB404:
 1214              	.LBB390:
 284:../../lpc_chip_11cxx_lib/inc/ssp_11xx.h **** 	return (pSSP->SR & Stat) ? SET : RESET;
 1215              		.loc 2 284 0 is_stmt 1
 1216 00b2 C468     		ldr	r4, [r0, #12]	@ D.6889, pSSP_25(D)->SR
 1217 00b4 E7E7     		b	.L119	@
 1218              	.L142:
 1219              	.LVL105:
 1220              	.LBE390:
 1221              	.LBE404:
 1222              	.LBB405:
 1223              	.LBB386:
 1224              		.loc 2 377 0
 1225 00b6 8760     		str	r7, [r0, #8]	@ tmp269, pSSP_25(D)->DR
 1226              	.LBE386:
 1227              	.LBE405:
 322:../../lpc_chip_11cxx_lib/src/ssp_11xx.c **** 				tx_cnt += 2;
 1228              		.loc 1 322 0
 1229 00b8 0236     		add	r6, r6, #2	@ tx_cnt,
 1230              	.LVL106:
 1231 00ba E4E7     		b	.L119	@
 1232              	.LVL107:
 1233              	.L134:
 1234              	.LBE407:
ARM GAS  /var/folders/f9/8bk2lnw15zn4cbgn6wrnb4lm0000gn/T//ccCGlkPS.s 			page 38


 1235              	.LBB408:
 1236 00bc 181C     		mov	r0, r3	@ D.6890, rx_cnt
 1237              	.LVL108:
 1238 00be D8E7     		b	.L131	@
 1239              	.L145:
 1240              		.align	2
 1241              	.L144:
 1242 00c0 FFFF0000 		.word	65535
 1243              	.LBE408:
 1244              		.cfi_endproc
 1245              	.LFE209:
 1246              		.size	Chip_SSP_ReadFrames_Blocking, .-Chip_SSP_ReadFrames_Blocking
 1247              		.section	.text.Chip_SSP_Int_FlushData,"ax",%progbits
 1248              		.align	2
 1249              		.global	Chip_SSP_Int_FlushData
 1250              		.code	16
 1251              		.thumb_func
 1252              		.type	Chip_SSP_Int_FlushData, %function
 1253              	Chip_SSP_Int_FlushData:
 1254              	.LFB210:
 367:../../lpc_chip_11cxx_lib/src/ssp_11xx.c **** 
 368:../../lpc_chip_11cxx_lib/src/ssp_11xx.c **** /* Clean all data in RX FIFO of SSP */
 369:../../lpc_chip_11cxx_lib/src/ssp_11xx.c **** void Chip_SSP_Int_FlushData(LPC_SSP_T *pSSP)
 370:../../lpc_chip_11cxx_lib/src/ssp_11xx.c **** {
 1255              		.loc 1 370 0
 1256              		.cfi_startproc
 1257              	.LVL109:
 1258              	.LBB409:
 1259              	.LBB410:
 284:../../lpc_chip_11cxx_lib/inc/ssp_11xx.h **** 	return (pSSP->SR & Stat) ? SET : RESET;
 1260              		.loc 2 284 0
 1261 0000 C368     		ldr	r3, [r0, #12]	@ D.6899, pSSP_4(D)->SR
 1262              	.LBE410:
 1263              	.LBE409:
 371:../../lpc_chip_11cxx_lib/src/ssp_11xx.c **** 	if (Chip_SSP_GetStatus(pSSP, SSP_STAT_BSY)) {
 1264              		.loc 1 371 0
 1265 0002 D906     		lsl	r1, r3, #27	@, D.6899,
 1266 0004 04D5     		bpl	.L150	@,
 1267              	.LBB411:
 1268              	.LBB412:
 284:../../lpc_chip_11cxx_lib/inc/ssp_11xx.h **** 	return (pSSP->SR & Stat) ? SET : RESET;
 1269              		.loc 2 284 0
 1270 0006 0122     		mov	r2, #1	@ tmp162,
 1271              	.L151:
 1272              	.LVL110:
 1273 0008 C368     		ldr	r3, [r0, #12]	@ D.6899, pSSP_4(D)->SR
 1274 000a 1B09     		lsr	r3, r3, #4	@ tmp144, D.6899,
 1275              	.LBE412:
 1276              	.LBE411:
 372:../../lpc_chip_11cxx_lib/src/ssp_11xx.c **** 		while (Chip_SSP_GetStatus(pSSP, SSP_STAT_BSY)) {}
 1277              		.loc 1 372 0
 1278 000c 1A42     		tst	r2, r3	@ tmp162, tmp144
 1279 000e FBD1     		bne	.L151	@,
 1280              	.LVL111:
 1281              	.L150:
 1282              	.LBB413:
 1283              	.LBB414:
ARM GAS  /var/folders/f9/8bk2lnw15zn4cbgn6wrnb4lm0000gn/T//ccCGlkPS.s 			page 39


 284:../../lpc_chip_11cxx_lib/inc/ssp_11xx.h **** 	return (pSSP->SR & Stat) ? SET : RESET;
 1284              		.loc 2 284 0 discriminator 1
 1285 0010 C368     		ldr	r3, [r0, #12]	@ D.6899, pSSP_4(D)->SR
 1286 0012 0122     		mov	r2, #1	@ tmp161,
 1287              	.LBE414:
 1288              	.LBE413:
 373:../../lpc_chip_11cxx_lib/src/ssp_11xx.c **** 	}
 374:../../lpc_chip_11cxx_lib/src/ssp_11xx.c **** 
 375:../../lpc_chip_11cxx_lib/src/ssp_11xx.c **** 	/* Clear all remaining frames in RX FIFO */
 376:../../lpc_chip_11cxx_lib/src/ssp_11xx.c **** 	while (Chip_SSP_GetStatus(pSSP, SSP_STAT_RNE)) {
 1289              		.loc 1 376 0 discriminator 1
 1290 0014 5907     		lsl	r1, r3, #29	@, D.6899,
 1291 0016 04D5     		bpl	.L149	@,
 1292              	.L159:
 1293              	.LVL112:
 1294              	.LBB416:
 1295              	.LBB417:
 366:../../lpc_chip_11cxx_lib/inc/ssp_11xx.h **** 	return (uint16_t) (SSP_DR_BITMASK(pSSP->DR));
 1296              		.loc 2 366 0
 1297 0018 8368     		ldr	r3, [r0, #8]	@ D.6899, pSSP_4(D)->DR
 1298              	.LBE417:
 1299              	.LBE416:
 1300              	.LBB418:
 1301              	.LBB415:
 284:../../lpc_chip_11cxx_lib/inc/ssp_11xx.h **** 	return (pSSP->SR & Stat) ? SET : RESET;
 1302              		.loc 2 284 0
 1303 001a C368     		ldr	r3, [r0, #12]	@ D.6899, pSSP_4(D)->SR
 1304 001c 9B08     		lsr	r3, r3, #2	@ tmp152, D.6899,
 1305              	.LBE415:
 1306              	.LBE418:
 1307              		.loc 1 376 0
 1308 001e 1A42     		tst	r2, r3	@ tmp161, tmp152
 1309 0020 FAD1     		bne	.L159	@,
 1310              	.LVL113:
 1311              	.L149:
 1312              	.LBB419:
 1313              	.LBB420:
 336:../../lpc_chip_11cxx_lib/inc/ssp_11xx.h **** 	pSSP->ICR = IntClear;
 1314              		.loc 2 336 0
 1315 0022 0323     		mov	r3, #3	@ tmp160,
 1316 0024 0362     		str	r3, [r0, #32]	@ tmp160, pSSP_4(D)->ICR
 1317              	.LBE420:
 1318              	.LBE419:
 377:../../lpc_chip_11cxx_lib/src/ssp_11xx.c **** 		Chip_SSP_ReceiveFrame(pSSP);
 378:../../lpc_chip_11cxx_lib/src/ssp_11xx.c **** 	}
 379:../../lpc_chip_11cxx_lib/src/ssp_11xx.c **** 
 380:../../lpc_chip_11cxx_lib/src/ssp_11xx.c **** 	/* Clear status */
 381:../../lpc_chip_11cxx_lib/src/ssp_11xx.c **** 	Chip_SSP_ClearIntPending(pSSP, SSP_INT_CLEAR_BITMASK);
 382:../../lpc_chip_11cxx_lib/src/ssp_11xx.c **** }
 1319              		.loc 1 382 0
 1320              		@ sp needed	@
 1321 0026 7047     		bx	lr
 1322              		.cfi_endproc
 1323              	.LFE210:
 1324              		.size	Chip_SSP_Int_FlushData, .-Chip_SSP_Int_FlushData
 1325              		.section	.text.Chip_SSP_Int_RWFrames8Bits,"ax",%progbits
 1326              		.align	2
ARM GAS  /var/folders/f9/8bk2lnw15zn4cbgn6wrnb4lm0000gn/T//ccCGlkPS.s 			page 40


 1327              		.global	Chip_SSP_Int_RWFrames8Bits
 1328              		.code	16
 1329              		.thumb_func
 1330              		.type	Chip_SSP_Int_RWFrames8Bits, %function
 1331              	Chip_SSP_Int_RWFrames8Bits:
 1332              	.LFB211:
 383:../../lpc_chip_11cxx_lib/src/ssp_11xx.c **** 
 384:../../lpc_chip_11cxx_lib/src/ssp_11xx.c **** /* SSP Interrupt Read/Write with 8-bit frame width */
 385:../../lpc_chip_11cxx_lib/src/ssp_11xx.c **** Status Chip_SSP_Int_RWFrames8Bits(LPC_SSP_T *pSSP, Chip_SSP_DATA_SETUP_T *xf_setup)
 386:../../lpc_chip_11cxx_lib/src/ssp_11xx.c **** {
 1333              		.loc 1 386 0
 1334              		.cfi_startproc
 1335              	.LVL114:
 1336 0000 F8B5     		push	{r3, r4, r5, r6, r7, lr}	@
 1337              		.cfi_def_cfa_offset 24
 1338              		.cfi_offset 3, -24
 1339              		.cfi_offset 4, -20
 1340              		.cfi_offset 5, -16
 1341              		.cfi_offset 6, -12
 1342              		.cfi_offset 7, -8
 1343              		.cfi_offset 14, -4
 1344              	.LBB421:
 1345              	.LBB422:
 311:../../lpc_chip_11cxx_lib/inc/ssp_11xx.h **** 	return (pSSP->RIS & RawInt) ? SET : RESET;
 1346              		.loc 2 311 0
 1347 0002 8369     		ldr	r3, [r0, #24]	@ D.6905, pSSP_5(D)->RIS
 1348              	.LBE422:
 1349              	.LBE421:
 1350              		.loc 1 386 0
 1351 0004 051C     		mov	r5, r0	@ pSSP, pSSP
 1352 0006 0C1C     		mov	r4, r1	@ xf_setup, xf_setup
 387:../../lpc_chip_11cxx_lib/src/ssp_11xx.c **** 	/* Check overrun error in RIS register */
 388:../../lpc_chip_11cxx_lib/src/ssp_11xx.c **** 	if (Chip_SSP_GetRawIntStatus(pSSP, SSP_RORRIS) == SET) {
 1353              		.loc 1 388 0
 1354 0008 DA07     		lsl	r2, r3, #31	@, D.6905,
 1355 000a 2FD4     		bmi	.L164	@,
 389:../../lpc_chip_11cxx_lib/src/ssp_11xx.c **** 		return ERROR;
 390:../../lpc_chip_11cxx_lib/src/ssp_11xx.c **** 	}
 391:../../lpc_chip_11cxx_lib/src/ssp_11xx.c **** 
 392:../../lpc_chip_11cxx_lib/src/ssp_11xx.c **** 	if ((xf_setup->tx_cnt != xf_setup->length) || (xf_setup->rx_cnt != xf_setup->length)) {
 1356              		.loc 1 392 0
 1357 000c 4B68     		ldr	r3, [r1, #4]	@ D.6905, xf_setup_7(D)->tx_cnt
 1358 000e 0A69     		ldr	r2, [r1, #16]	@, xf_setup_7(D)->length
 1359 0010 9342     		cmp	r3, r2	@ D.6905,
 1360 0012 2DD0     		beq	.L176	@,
 1361              	.L163:
 393:../../lpc_chip_11cxx_lib/src/ssp_11xx.c **** 		/* check if RX FIFO contains data */
 394:../../lpc_chip_11cxx_lib/src/ssp_11xx.c **** 		SSP_Read1BFifo(pSSP, xf_setup);
 1362              		.loc 1 394 0
 1363 0014 281C     		mov	r0, r5	@, pSSP
 1364              	.LVL115:
 1365 0016 211C     		mov	r1, r4	@, xf_setup
 1366              	.LVL116:
 1367 0018 FFF7FEFF 		bl	SSP_Read1BFifo	@
 1368              	.LVL117:
 1369              	.LBB423:
 1370              	.LBB424:
ARM GAS  /var/folders/f9/8bk2lnw15zn4cbgn6wrnb4lm0000gn/T//ccCGlkPS.s 			page 41


 284:../../lpc_chip_11cxx_lib/inc/ssp_11xx.h **** 	return (pSSP->SR & Stat) ? SET : RESET;
 1371              		.loc 2 284 0
 1372 001c EB68     		ldr	r3, [r5, #12]	@ D.6905, pSSP_5(D)->SR
 1373              	.LBE424:
 1374              	.LBE423:
 395:../../lpc_chip_11cxx_lib/src/ssp_11xx.c **** 
 396:../../lpc_chip_11cxx_lib/src/ssp_11xx.c **** 		while ((Chip_SSP_GetStatus(pSSP, SSP_STAT_TNF)) && (xf_setup->tx_cnt != xf_setup->length)) {
 1375              		.loc 1 396 0
 1376 001e 9A07     		lsl	r2, r3, #30	@, D.6905,
 1377 0020 2AD5     		bpl	.L166	@,
 1378 0022 6368     		ldr	r3, [r4, #4]	@ D.6905, xf_setup_7(D)->tx_cnt
 1379 0024 2269     		ldr	r2, [r4, #16]	@, xf_setup_7(D)->length
 1380 0026 9342     		cmp	r3, r2	@ D.6905,
 1381 0028 26D0     		beq	.L166	@,
 1382              	.LBB426:
 1383              	.LBB427:
 1384              	.LBB428:
 1385              	.LBB429:
 1386              		.loc 2 377 0
 1387 002a FF27     		mov	r7, #255	@ tmp172,
 1388              	.LBE429:
 1389              	.LBE428:
 1390              	.LBE427:
 1391              	.LBE426:
 1392              	.LBB436:
 1393              	.LBB437:
 311:../../lpc_chip_11cxx_lib/inc/ssp_11xx.h **** 	return (pSSP->RIS & RawInt) ? SET : RESET;
 1394              		.loc 2 311 0
 1395 002c 0126     		mov	r6, #1	@ tmp173,
 1396 002e 13E0     		b	.L169	@
 1397              	.LVL118:
 1398              	.L177:
 1399              	.LBE437:
 1400              	.LBE436:
 1401              	.LBB440:
 1402              	.LBB434:
 1403              	.LBB431:
 1404              	.LBB432:
 1405              		.loc 2 377 0
 1406 0030 D35C     		ldrb	r3, [r2, r3]	@ D.6905, *_25
 1407              	.LVL119:
 1408 0032 AB60     		str	r3, [r5, #8]	@ D.6905, pSSP_5(D)->DR
 1409              	.LBE432:
 1410              	.LBE431:
  69:../../lpc_chip_11cxx_lib/src/ssp_11xx.c **** 	xf_setup->tx_cnt++;
 1411              		.loc 1 69 0
 1412 0034 6368     		ldr	r3, [r4, #4]	@ D.6905, MEM[(uint32_t *)xf_setup_7(D) + 4B]
 1413              	.LVL120:
 1414 0036 0133     		add	r3, r3, #1	@ D.6905,
 1415 0038 6360     		str	r3, [r4, #4]	@ D.6905, MEM[(uint32_t *)xf_setup_7(D) + 4B]
 1416              	.LVL121:
 1417              	.LBE434:
 1418              	.LBE440:
 1419              	.LBB441:
 1420              	.LBB438:
 311:../../lpc_chip_11cxx_lib/inc/ssp_11xx.h **** 	return (pSSP->RIS & RawInt) ? SET : RESET;
 1421              		.loc 2 311 0
ARM GAS  /var/folders/f9/8bk2lnw15zn4cbgn6wrnb4lm0000gn/T//ccCGlkPS.s 			page 42


 1422 003a AB69     		ldr	r3, [r5, #24]	@ D.6905, pSSP_5(D)->RIS
 1423              	.LBE438:
 1424              	.LBE441:
 397:../../lpc_chip_11cxx_lib/src/ssp_11xx.c **** 			/* Write data to buffer */
 398:../../lpc_chip_11cxx_lib/src/ssp_11xx.c **** 			SSP_Write1BFifo(pSSP, xf_setup);
 399:../../lpc_chip_11cxx_lib/src/ssp_11xx.c **** 
 400:../../lpc_chip_11cxx_lib/src/ssp_11xx.c **** 			/* Check overrun error in RIS register */
 401:../../lpc_chip_11cxx_lib/src/ssp_11xx.c **** 			if (Chip_SSP_GetRawIntStatus(pSSP, SSP_RORRIS) == SET) {
 1425              		.loc 1 401 0
 1426 003c 1E42     		tst	r6, r3	@ tmp173, D.6905
 1427 003e 15D1     		bne	.L164	@,
 1428              	.LVL122:
 1429              	.L178:
 402:../../lpc_chip_11cxx_lib/src/ssp_11xx.c **** 				return ERROR;
 403:../../lpc_chip_11cxx_lib/src/ssp_11xx.c **** 			}
 404:../../lpc_chip_11cxx_lib/src/ssp_11xx.c **** 
 405:../../lpc_chip_11cxx_lib/src/ssp_11xx.c **** 			/*  Check for any data available in RX FIFO */
 406:../../lpc_chip_11cxx_lib/src/ssp_11xx.c **** 			SSP_Read1BFifo(pSSP, xf_setup);
 1430              		.loc 1 406 0
 1431 0040 281C     		mov	r0, r5	@, pSSP
 1432 0042 211C     		mov	r1, r4	@, xf_setup
 1433 0044 FFF7FEFF 		bl	SSP_Read1BFifo	@
 1434              	.LVL123:
 1435              	.LBB442:
 1436              	.LBB425:
 284:../../lpc_chip_11cxx_lib/inc/ssp_11xx.h **** 	return (pSSP->SR & Stat) ? SET : RESET;
 1437              		.loc 2 284 0
 1438 0048 EB68     		ldr	r3, [r5, #12]	@ D.6905, pSSP_5(D)->SR
 1439 004a 5B08     		lsr	r3, r3, #1	@ tmp162, D.6905,
 1440              	.LBE425:
 1441              	.LBE442:
 396:../../lpc_chip_11cxx_lib/src/ssp_11xx.c **** 		while ((Chip_SSP_GetStatus(pSSP, SSP_STAT_TNF)) && (xf_setup->tx_cnt != xf_setup->length)) {
 1442              		.loc 1 396 0
 1443 004c 1E42     		tst	r6, r3	@ tmp173, tmp162
 1444 004e 13D0     		beq	.L166	@,
 396:../../lpc_chip_11cxx_lib/src/ssp_11xx.c **** 		while ((Chip_SSP_GetStatus(pSSP, SSP_STAT_TNF)) && (xf_setup->tx_cnt != xf_setup->length)) {
 1445              		.loc 1 396 0 is_stmt 0 discriminator 2
 1446 0050 6368     		ldr	r3, [r4, #4]	@ D.6905, xf_setup_7(D)->tx_cnt
 1447 0052 2269     		ldr	r2, [r4, #16]	@, xf_setup_7(D)->length
 1448 0054 9342     		cmp	r3, r2	@ D.6905,
 1449 0056 0FD0     		beq	.L166	@,
 1450              	.LVL124:
 1451              	.L169:
 385:../../lpc_chip_11cxx_lib/src/ssp_11xx.c **** Status Chip_SSP_Int_RWFrames8Bits(LPC_SSP_T *pSSP, Chip_SSP_DATA_SETUP_T *xf_setup)
 1452              		.loc 1 385 0 is_stmt 1
 1453 0058 2268     		ldr	r2, [r4]	@ D.6906, MEM[(struct Chip_SSP_DATA_SETUP_T *)xf_setup_7(D)]
 1454              	.LVL125:
 1455              	.LBB443:
 1456              	.LBB435:
  62:../../lpc_chip_11cxx_lib/src/ssp_11xx.c **** 	if (xf_setup->tx_data) {
 1457              		.loc 1 62 0
 1458 005a 002A     		cmp	r2, #0	@ D.6906,
 1459 005c E8D1     		bne	.L177	@,
 1460              	.LVL126:
 1461              	.LBB433:
 1462              	.LBB430:
 1463              		.loc 2 377 0
ARM GAS  /var/folders/f9/8bk2lnw15zn4cbgn6wrnb4lm0000gn/T//ccCGlkPS.s 			page 43


 1464 005e AF60     		str	r7, [r5, #8]	@ tmp172, pSSP_5(D)->DR
 1465              	.LBE430:
 1466              	.LBE433:
  69:../../lpc_chip_11cxx_lib/src/ssp_11xx.c **** 	xf_setup->tx_cnt++;
 1467              		.loc 1 69 0
 1468 0060 6368     		ldr	r3, [r4, #4]	@ D.6905, MEM[(uint32_t *)xf_setup_7(D) + 4B]
 1469 0062 0133     		add	r3, r3, #1	@ D.6905,
 1470 0064 6360     		str	r3, [r4, #4]	@ D.6905, MEM[(uint32_t *)xf_setup_7(D) + 4B]
 1471              	.LVL127:
 1472              	.LBE435:
 1473              	.LBE443:
 1474              	.LBB444:
 1475              	.LBB439:
 311:../../lpc_chip_11cxx_lib/inc/ssp_11xx.h **** 	return (pSSP->RIS & RawInt) ? SET : RESET;
 1476              		.loc 2 311 0
 1477 0066 AB69     		ldr	r3, [r5, #24]	@ D.6905, pSSP_5(D)->RIS
 1478              	.LBE439:
 1479              	.LBE444:
 401:../../lpc_chip_11cxx_lib/src/ssp_11xx.c **** 			if (Chip_SSP_GetRawIntStatus(pSSP, SSP_RORRIS) == SET) {
 1480              		.loc 1 401 0
 1481 0068 1E42     		tst	r6, r3	@ tmp173, D.6905
 1482 006a E9D0     		beq	.L178	@,
 1483              	.LVL128:
 1484              	.L164:
 389:../../lpc_chip_11cxx_lib/src/ssp_11xx.c **** 		return ERROR;
 1485              		.loc 1 389 0
 1486 006c 0020     		mov	r0, #0	@ D.6904,
 1487              	.L162:
 407:../../lpc_chip_11cxx_lib/src/ssp_11xx.c **** 		}
 408:../../lpc_chip_11cxx_lib/src/ssp_11xx.c **** 
 409:../../lpc_chip_11cxx_lib/src/ssp_11xx.c **** 		return SUCCESS;
 410:../../lpc_chip_11cxx_lib/src/ssp_11xx.c **** 	}
 411:../../lpc_chip_11cxx_lib/src/ssp_11xx.c **** 
 412:../../lpc_chip_11cxx_lib/src/ssp_11xx.c **** 	return ERROR;
 413:../../lpc_chip_11cxx_lib/src/ssp_11xx.c **** }
 1488              		.loc 1 413 0
 1489              		@ sp needed	@
 1490              	.LVL129:
 1491              	.LVL130:
 1492 006e F8BD     		pop	{r3, r4, r5, r6, r7, pc}
 1493              	.LVL131:
 1494              	.L176:
 392:../../lpc_chip_11cxx_lib/src/ssp_11xx.c **** 	if ((xf_setup->tx_cnt != xf_setup->length) || (xf_setup->rx_cnt != xf_setup->length)) {
 1495              		.loc 1 392 0 discriminator 1
 1496 0070 CA68     		ldr	r2, [r1, #12]	@, xf_setup_7(D)->rx_cnt
 1497 0072 9342     		cmp	r3, r2	@ D.6905,
 1498 0074 CED1     		bne	.L163	@,
 1499 0076 F9E7     		b	.L164	@
 1500              	.LVL132:
 1501              	.L166:
 409:../../lpc_chip_11cxx_lib/src/ssp_11xx.c **** 		return SUCCESS;
 1502              		.loc 1 409 0
 1503 0078 0120     		mov	r0, #1	@ D.6904,
 1504 007a F8E7     		b	.L162	@
 1505              		.cfi_endproc
 1506              	.LFE211:
 1507              		.size	Chip_SSP_Int_RWFrames8Bits, .-Chip_SSP_Int_RWFrames8Bits
ARM GAS  /var/folders/f9/8bk2lnw15zn4cbgn6wrnb4lm0000gn/T//ccCGlkPS.s 			page 44


 1508              		.section	.text.Chip_SSP_Int_RWFrames16Bits,"ax",%progbits
 1509              		.align	2
 1510              		.global	Chip_SSP_Int_RWFrames16Bits
 1511              		.code	16
 1512              		.thumb_func
 1513              		.type	Chip_SSP_Int_RWFrames16Bits, %function
 1514              	Chip_SSP_Int_RWFrames16Bits:
 1515              	.LFB212:
 414:../../lpc_chip_11cxx_lib/src/ssp_11xx.c **** 
 415:../../lpc_chip_11cxx_lib/src/ssp_11xx.c **** /* SSP Interrupt Read/Write with 16-bit frame width */
 416:../../lpc_chip_11cxx_lib/src/ssp_11xx.c **** Status Chip_SSP_Int_RWFrames16Bits(LPC_SSP_T *pSSP, Chip_SSP_DATA_SETUP_T *xf_setup)
 417:../../lpc_chip_11cxx_lib/src/ssp_11xx.c **** {
 1516              		.loc 1 417 0
 1517              		.cfi_startproc
 1518              	.LVL133:
 1519              	.LBB445:
 1520              	.LBB446:
 311:../../lpc_chip_11cxx_lib/inc/ssp_11xx.h **** 	return (pSSP->RIS & RawInt) ? SET : RESET;
 1521              		.loc 2 311 0
 1522 0000 8369     		ldr	r3, [r0, #24]	@ D.6927, pSSP_5(D)->RIS
 1523              	.LBE446:
 1524              	.LBE445:
 1525              		.loc 1 417 0
 1526 0002 F0B5     		push	{r4, r5, r6, r7, lr}	@
 1527              		.cfi_def_cfa_offset 20
 1528              		.cfi_offset 4, -20
 1529              		.cfi_offset 5, -16
 1530              		.cfi_offset 6, -12
 1531              		.cfi_offset 7, -8
 1532              		.cfi_offset 14, -4
 418:../../lpc_chip_11cxx_lib/src/ssp_11xx.c **** 	/* Check overrun error in RIS register */
 419:../../lpc_chip_11cxx_lib/src/ssp_11xx.c **** 	if (Chip_SSP_GetRawIntStatus(pSSP, SSP_RORRIS) == SET) {
 1533              		.loc 1 419 0
 1534 0004 DA07     		lsl	r2, r3, #31	@, D.6927,
 1535 0006 50D4     		bmi	.L183	@,
 420:../../lpc_chip_11cxx_lib/src/ssp_11xx.c **** 		return ERROR;
 421:../../lpc_chip_11cxx_lib/src/ssp_11xx.c **** 	}
 422:../../lpc_chip_11cxx_lib/src/ssp_11xx.c **** 
 423:../../lpc_chip_11cxx_lib/src/ssp_11xx.c **** 	if ((xf_setup->tx_cnt != xf_setup->length) || (xf_setup->rx_cnt != xf_setup->length)) {
 1536              		.loc 1 423 0
 1537 0008 0E69     		ldr	r6, [r1, #16]	@ D.6927, xf_setup_7(D)->length
 1538 000a 4B68     		ldr	r3, [r1, #4]	@, xf_setup_7(D)->tx_cnt
 1539 000c B342     		cmp	r3, r6	@, D.6927
 1540 000e 4ED0     		beq	.L213	@,
 1541              	.L182:
 1542              	.LVL134:
 1543              	.LBB447:
 1544              	.LBB448:
 1545              	.LBB449:
 1546              	.LBB450:
 284:../../lpc_chip_11cxx_lib/inc/ssp_11xx.h **** 	return (pSSP->SR & Stat) ? SET : RESET;
 1547              		.loc 2 284 0
 1548 0010 C368     		ldr	r3, [r0, #12]	@ D.6927, pSSP_5(D)->SR
 1549              	.LBE450:
 1550              	.LBE449:
  77:../../lpc_chip_11cxx_lib/src/ssp_11xx.c **** 	while ((Chip_SSP_GetStatus(pSSP, SSP_STAT_RNE) == SET) &&
 1551              		.loc 1 77 0
ARM GAS  /var/folders/f9/8bk2lnw15zn4cbgn6wrnb4lm0000gn/T//ccCGlkPS.s 			page 45


 1552 0012 5A07     		lsl	r2, r3, #29	@, D.6927,
 1553 0014 12D5     		bpl	.L185	@,
  78:../../lpc_chip_11cxx_lib/src/ssp_11xx.c **** 		   (xf_setup->rx_cnt < xf_setup->length)) {
 1554              		.loc 1 78 0
 1555 0016 CB68     		ldr	r3, [r1, #12]	@ D.6927, xf_setup_7(D)->rx_cnt
  77:../../lpc_chip_11cxx_lib/src/ssp_11xx.c **** 	while ((Chip_SSP_GetStatus(pSSP, SSP_STAT_RNE) == SET) &&
 1556              		.loc 1 77 0
 1557 0018 9E42     		cmp	r6, r3	@ D.6927, D.6927
 1558 001a 0FD9     		bls	.L185	@,
 1559 001c 8C68     		ldr	r4, [r1, #8]	@ D.6928, xf_setup_7(D)->rx_data
 1560              	.LBB454:
 1561              	.LBB451:
 284:../../lpc_chip_11cxx_lib/inc/ssp_11xx.h **** 	return (pSSP->SR & Stat) ? SET : RESET;
 1562              		.loc 2 284 0
 1563 001e 0125     		mov	r5, #1	@ tmp218,
 1564 0020 01E0     		b	.L191	@
 1565              	.LVL135:
 1566              	.L188:
 1567              	.LBE451:
 1568              	.LBE454:
  77:../../lpc_chip_11cxx_lib/src/ssp_11xx.c **** 	while ((Chip_SSP_GetStatus(pSSP, SSP_STAT_RNE) == SET) &&
 1569              		.loc 1 77 0
 1570 0022 9E42     		cmp	r6, r3	@ D.6927, D.6927
 1571 0024 09D9     		bls	.L210	@,
 1572              	.LVL136:
 1573              	.L191:
 1574              	.LBB455:
 1575              	.LBB456:
 366:../../lpc_chip_11cxx_lib/inc/ssp_11xx.h **** 	return (uint16_t) (SSP_DR_BITMASK(pSSP->DR));
 1576              		.loc 2 366 0
 1577 0026 8268     		ldr	r2, [r0, #8]	@ D.6927, pSSP_5(D)->DR
 1578 0028 92B2     		uxth	r2, r2	@ D.6930, D.6927
 1579              	.LBE456:
 1580              	.LBE455:
  80:../../lpc_chip_11cxx_lib/src/ssp_11xx.c **** 		if (xf_setup->rx_data) {
 1581              		.loc 1 80 0
 1582 002a 002C     		cmp	r4, #0	@ D.6928,
 1583 002c 00D0     		beq	.L187	@,
  81:../../lpc_chip_11cxx_lib/src/ssp_11xx.c **** 			*(uint16_t *) ((uint32_t) xf_setup->rx_data + xf_setup->rx_cnt) = rDat;
 1584              		.loc 1 81 0
 1585 002e E252     		strh	r2, [r4, r3]	@ D.6930, MEM[base: _23, index: _91, offset: 0B]
 1586              	.L187:
 1587              	.LBB457:
 1588              	.LBB452:
 284:../../lpc_chip_11cxx_lib/inc/ssp_11xx.h **** 	return (pSSP->SR & Stat) ? SET : RESET;
 1589              		.loc 2 284 0
 1590 0030 C268     		ldr	r2, [r0, #12]	@ D.6927, pSSP_5(D)->SR
 1591              	.LBE452:
 1592              	.LBE457:
  84:../../lpc_chip_11cxx_lib/src/ssp_11xx.c **** 		xf_setup->rx_cnt += 2;
 1593              		.loc 1 84 0
 1594 0032 0233     		add	r3, r3, #2	@ D.6927,
 1595              	.LBB458:
 1596              	.LBB453:
 284:../../lpc_chip_11cxx_lib/inc/ssp_11xx.h **** 	return (pSSP->SR & Stat) ? SET : RESET;
 1597              		.loc 2 284 0
 1598 0034 9208     		lsr	r2, r2, #2	@ tmp184, D.6927,
ARM GAS  /var/folders/f9/8bk2lnw15zn4cbgn6wrnb4lm0000gn/T//ccCGlkPS.s 			page 46


 1599              	.LBE453:
 1600              	.LBE458:
  77:../../lpc_chip_11cxx_lib/src/ssp_11xx.c **** 	while ((Chip_SSP_GetStatus(pSSP, SSP_STAT_RNE) == SET) &&
 1601              		.loc 1 77 0
 1602 0036 1542     		tst	r5, r2	@ tmp218, tmp184
 1603 0038 F3D1     		bne	.L188	@,
 1604              	.L210:
 1605 003a CB60     		str	r3, [r1, #12]	@ D.6927, xf_setup_7(D)->rx_cnt
 1606              	.LVL137:
 1607              	.L185:
 1608              	.LBE448:
 1609              	.LBE447:
 1610              	.LBB459:
 1611              	.LBB460:
 1612              	.LBB461:
 1613              	.LBB462:
 1614              		.loc 2 377 0
 1615 003c 1E4F     		ldr	r7, .L215	@ tmp217,
 1616              	.LBE462:
 1617              	.LBE461:
 1618              	.LBE460:
 1619              	.LBE459:
 1620              	.LBB469:
 1621              	.LBB470:
 284:../../lpc_chip_11cxx_lib/inc/ssp_11xx.h **** 	return (pSSP->SR & Stat) ? SET : RESET;
 1622              		.loc 2 284 0
 1623 003e 0125     		mov	r5, #1	@ tmp216,
 1624              	.L190:
 1625              	.LVL138:
 1626 0040 C368     		ldr	r3, [r0, #12]	@ D.6927, pSSP_5(D)->SR
 1627 0042 5B08     		lsr	r3, r3, #1	@ tmp175, D.6927,
 1628              	.LBE470:
 1629              	.LBE469:
 424:../../lpc_chip_11cxx_lib/src/ssp_11xx.c **** 		/* check if RX FIFO contains data */
 425:../../lpc_chip_11cxx_lib/src/ssp_11xx.c **** 		SSP_Read2BFifo(pSSP, xf_setup);
 426:../../lpc_chip_11cxx_lib/src/ssp_11xx.c **** 
 427:../../lpc_chip_11cxx_lib/src/ssp_11xx.c **** 		while ((Chip_SSP_GetStatus(pSSP, SSP_STAT_TNF)) && (xf_setup->tx_cnt != xf_setup->length)) {
 1630              		.loc 1 427 0
 1631 0044 1D42     		tst	r5, r3	@ tmp216, tmp175
 1632 0046 27D0     		beq	.L211	@,
 1633              	.L186:
 1634              		.loc 1 427 0 is_stmt 0 discriminator 2
 1635 0048 4B68     		ldr	r3, [r1, #4]	@ D.6927, xf_setup_7(D)->tx_cnt
 1636 004a 9E42     		cmp	r6, r3	@ D.6927, D.6927
 1637 004c 24D0     		beq	.L211	@,
 416:../../lpc_chip_11cxx_lib/src/ssp_11xx.c **** Status Chip_SSP_Int_RWFrames16Bits(LPC_SSP_T *pSSP, Chip_SSP_DATA_SETUP_T *xf_setup)
 1638              		.loc 1 416 0 is_stmt 1
 1639 004e 0A68     		ldr	r2, [r1]	@ D.6928, MEM[(struct Chip_SSP_DATA_SETUP_T *)xf_setup_7(D)]
 1640              	.LVL139:
 1641              	.LBB472:
 1642              	.LBB467:
  48:../../lpc_chip_11cxx_lib/src/ssp_11xx.c **** 	if (xf_setup->tx_data) {
 1643              		.loc 1 48 0
 1644 0050 002A     		cmp	r2, #0	@ D.6928,
 1645 0052 23D0     		beq	.L192	@,
 1646              	.LVL140:
 1647              	.LBB464:
ARM GAS  /var/folders/f9/8bk2lnw15zn4cbgn6wrnb4lm0000gn/T//ccCGlkPS.s 			page 47


 1648              	.LBB465:
 1649              		.loc 2 377 0
 1650 0054 D35A     		ldrh	r3, [r2, r3]	@ D.6927, *_39
 1651              	.LVL141:
 1652 0056 8360     		str	r3, [r0, #8]	@ D.6927, pSSP_5(D)->DR
 1653              	.LVL142:
 1654              	.LBE465:
 1655              	.LBE464:
  56:../../lpc_chip_11cxx_lib/src/ssp_11xx.c **** 	xf_setup->tx_cnt += 2;
 1656              		.loc 1 56 0
 1657 0058 4B68     		ldr	r3, [r1, #4]	@ D.6927, MEM[(uint32_t *)xf_setup_7(D) + 4B]
 1658              	.LVL143:
 1659 005a 0233     		add	r3, r3, #2	@ D.6927,
 1660 005c 4B60     		str	r3, [r1, #4]	@ D.6927, MEM[(uint32_t *)xf_setup_7(D) + 4B]
 1661              	.LVL144:
 1662              	.LBE467:
 1663              	.LBE472:
 1664              	.LBB473:
 1665              	.LBB474:
 311:../../lpc_chip_11cxx_lib/inc/ssp_11xx.h **** 	return (pSSP->RIS & RawInt) ? SET : RESET;
 1666              		.loc 2 311 0
 1667 005e 8369     		ldr	r3, [r0, #24]	@ D.6927, pSSP_5(D)->RIS
 1668              	.LBE474:
 1669              	.LBE473:
 428:../../lpc_chip_11cxx_lib/src/ssp_11xx.c **** 			/* Write data to buffer */
 429:../../lpc_chip_11cxx_lib/src/ssp_11xx.c **** 			SSP_Write2BFifo(pSSP, xf_setup);
 430:../../lpc_chip_11cxx_lib/src/ssp_11xx.c **** 
 431:../../lpc_chip_11cxx_lib/src/ssp_11xx.c **** 			/* Check overrun error in RIS register */
 432:../../lpc_chip_11cxx_lib/src/ssp_11xx.c **** 			if (Chip_SSP_GetRawIntStatus(pSSP, SSP_RORRIS) == SET) {
 1670              		.loc 1 432 0
 1671 0060 1D42     		tst	r5, r3	@ tmp216, D.6927
 1672 0062 22D1     		bne	.L183	@,
 1673              	.LVL145:
 1674              	.L214:
 1675              	.LBB476:
 1676              	.LBB477:
 1677              	.LBB478:
 1678              	.LBB479:
 284:../../lpc_chip_11cxx_lib/inc/ssp_11xx.h **** 	return (pSSP->SR & Stat) ? SET : RESET;
 1679              		.loc 2 284 0
 1680 0064 C368     		ldr	r3, [r0, #12]	@ D.6927, pSSP_5(D)->SR
 1681 0066 9B08     		lsr	r3, r3, #2	@ tmp197, D.6927,
 1682              	.LBE479:
 1683              	.LBE478:
  77:../../lpc_chip_11cxx_lib/src/ssp_11xx.c **** 	while ((Chip_SSP_GetStatus(pSSP, SSP_STAT_RNE) == SET) &&
 1684              		.loc 1 77 0
 1685 0068 1D42     		tst	r5, r3	@ tmp216, tmp197
 1686 006a E9D0     		beq	.L190	@,
  78:../../lpc_chip_11cxx_lib/src/ssp_11xx.c **** 		   (xf_setup->rx_cnt < xf_setup->length)) {
 1687              		.loc 1 78 0
 1688 006c CB68     		ldr	r3, [r1, #12]	@ D.6927, xf_setup_7(D)->rx_cnt
  77:../../lpc_chip_11cxx_lib/src/ssp_11xx.c **** 	while ((Chip_SSP_GetStatus(pSSP, SSP_STAT_RNE) == SET) &&
 1689              		.loc 1 77 0
 1690 006e 9E42     		cmp	r6, r3	@ D.6927, D.6927
 1691 0070 E6D9     		bls	.L190	@,
 1692 0072 8C68     		ldr	r4, [r1, #8]	@ D.6928, xf_setup_7(D)->rx_data
 1693 0074 01E0     		b	.L198	@
ARM GAS  /var/folders/f9/8bk2lnw15zn4cbgn6wrnb4lm0000gn/T//ccCGlkPS.s 			page 48


 1694              	.LVL146:
 1695              	.L196:
 1696 0076 9E42     		cmp	r6, r3	@ D.6927, D.6927
 1697 0078 09D9     		bls	.L209	@,
 1698              	.LVL147:
 1699              	.L198:
 1700              	.LBB482:
 1701              	.LBB483:
 366:../../lpc_chip_11cxx_lib/inc/ssp_11xx.h **** 	return (uint16_t) (SSP_DR_BITMASK(pSSP->DR));
 1702              		.loc 2 366 0
 1703 007a 8268     		ldr	r2, [r0, #8]	@ D.6927, pSSP_5(D)->DR
 1704 007c 92B2     		uxth	r2, r2	@ D.6930, D.6927
 1705              	.LBE483:
 1706              	.LBE482:
  80:../../lpc_chip_11cxx_lib/src/ssp_11xx.c **** 		if (xf_setup->rx_data) {
 1707              		.loc 1 80 0
 1708 007e 002C     		cmp	r4, #0	@ D.6928,
 1709 0080 00D0     		beq	.L195	@,
  81:../../lpc_chip_11cxx_lib/src/ssp_11xx.c **** 			*(uint16_t *) ((uint32_t) xf_setup->rx_data + xf_setup->rx_cnt) = rDat;
 1710              		.loc 1 81 0
 1711 0082 E252     		strh	r2, [r4, r3]	@ D.6930, MEM[base: _15, index: _85, offset: 0B]
 1712              	.L195:
 1713              	.LBB484:
 1714              	.LBB480:
 284:../../lpc_chip_11cxx_lib/inc/ssp_11xx.h **** 	return (pSSP->SR & Stat) ? SET : RESET;
 1715              		.loc 2 284 0
 1716 0084 C268     		ldr	r2, [r0, #12]	@ D.6927, pSSP_5(D)->SR
 1717              	.LBE480:
 1718              	.LBE484:
  84:../../lpc_chip_11cxx_lib/src/ssp_11xx.c **** 		xf_setup->rx_cnt += 2;
 1719              		.loc 1 84 0
 1720 0086 0233     		add	r3, r3, #2	@ D.6927,
 1721              	.LBB485:
 1722              	.LBB481:
 284:../../lpc_chip_11cxx_lib/inc/ssp_11xx.h **** 	return (pSSP->SR & Stat) ? SET : RESET;
 1723              		.loc 2 284 0
 1724 0088 9208     		lsr	r2, r2, #2	@ tmp205, D.6927,
 1725              	.LBE481:
 1726              	.LBE485:
  77:../../lpc_chip_11cxx_lib/src/ssp_11xx.c **** 	while ((Chip_SSP_GetStatus(pSSP, SSP_STAT_RNE) == SET) &&
 1727              		.loc 1 77 0
 1728 008a 1542     		tst	r5, r2	@ tmp216, tmp205
 1729 008c F3D1     		bne	.L196	@,
 1730              	.L209:
 1731 008e CB60     		str	r3, [r1, #12]	@ D.6927, xf_setup_7(D)->rx_cnt
 1732              	.LBE477:
 1733              	.LBE476:
 1734              	.LBB486:
 1735              	.LBB471:
 284:../../lpc_chip_11cxx_lib/inc/ssp_11xx.h **** 	return (pSSP->SR & Stat) ? SET : RESET;
 1736              		.loc 2 284 0
 1737 0090 C368     		ldr	r3, [r0, #12]	@ D.6927, pSSP_5(D)->SR
 1738 0092 5B08     		lsr	r3, r3, #1	@ tmp175, D.6927,
 1739              	.LBE471:
 1740              	.LBE486:
 427:../../lpc_chip_11cxx_lib/src/ssp_11xx.c **** 		while ((Chip_SSP_GetStatus(pSSP, SSP_STAT_TNF)) && (xf_setup->tx_cnt != xf_setup->length)) {
 1741              		.loc 1 427 0
ARM GAS  /var/folders/f9/8bk2lnw15zn4cbgn6wrnb4lm0000gn/T//ccCGlkPS.s 			page 49


 1742 0094 1D42     		tst	r5, r3	@ tmp216, tmp175
 1743 0096 D7D1     		bne	.L186	@,
 1744              	.LVL148:
 1745              	.L211:
 433:../../lpc_chip_11cxx_lib/src/ssp_11xx.c **** 				return ERROR;
 434:../../lpc_chip_11cxx_lib/src/ssp_11xx.c **** 			}
 435:../../lpc_chip_11cxx_lib/src/ssp_11xx.c **** 
 436:../../lpc_chip_11cxx_lib/src/ssp_11xx.c **** 			/*  Check for any data available in RX FIFO			 */
 437:../../lpc_chip_11cxx_lib/src/ssp_11xx.c **** 			SSP_Read2BFifo(pSSP, xf_setup);
 438:../../lpc_chip_11cxx_lib/src/ssp_11xx.c **** 		}
 439:../../lpc_chip_11cxx_lib/src/ssp_11xx.c **** 
 440:../../lpc_chip_11cxx_lib/src/ssp_11xx.c **** 		return SUCCESS;
 1746              		.loc 1 440 0
 1747 0098 0120     		mov	r0, #1	@ D.6926,
 1748              	.LVL149:
 1749              	.L181:
 441:../../lpc_chip_11cxx_lib/src/ssp_11xx.c **** 	}
 442:../../lpc_chip_11cxx_lib/src/ssp_11xx.c **** 
 443:../../lpc_chip_11cxx_lib/src/ssp_11xx.c **** 	return ERROR;
 444:../../lpc_chip_11cxx_lib/src/ssp_11xx.c **** }
 1750              		.loc 1 444 0
 1751              		@ sp needed	@
 1752 009a F0BD     		pop	{r4, r5, r6, r7, pc}
 1753              	.LVL150:
 1754              	.L192:
 1755              	.LBB487:
 1756              	.LBB468:
 1757              	.LBB466:
 1758              	.LBB463:
 1759              		.loc 2 377 0
 1760 009c 8760     		str	r7, [r0, #8]	@ tmp217, pSSP_5(D)->DR
 1761              	.LBE463:
 1762              	.LBE466:
  56:../../lpc_chip_11cxx_lib/src/ssp_11xx.c **** 	xf_setup->tx_cnt += 2;
 1763              		.loc 1 56 0
 1764 009e 4B68     		ldr	r3, [r1, #4]	@ D.6927, MEM[(uint32_t *)xf_setup_7(D) + 4B]
 1765 00a0 0233     		add	r3, r3, #2	@ D.6927,
 1766 00a2 4B60     		str	r3, [r1, #4]	@ D.6927, MEM[(uint32_t *)xf_setup_7(D) + 4B]
 1767              	.LVL151:
 1768              	.LBE468:
 1769              	.LBE487:
 1770              	.LBB488:
 1771              	.LBB475:
 311:../../lpc_chip_11cxx_lib/inc/ssp_11xx.h **** 	return (pSSP->RIS & RawInt) ? SET : RESET;
 1772              		.loc 2 311 0
 1773 00a4 8369     		ldr	r3, [r0, #24]	@ D.6927, pSSP_5(D)->RIS
 1774              	.LBE475:
 1775              	.LBE488:
 432:../../lpc_chip_11cxx_lib/src/ssp_11xx.c **** 			if (Chip_SSP_GetRawIntStatus(pSSP, SSP_RORRIS) == SET) {
 1776              		.loc 1 432 0
 1777 00a6 1D42     		tst	r5, r3	@ tmp216, D.6927
 1778 00a8 DCD0     		beq	.L214	@,
 1779              	.LVL152:
 1780              	.L183:
 420:../../lpc_chip_11cxx_lib/src/ssp_11xx.c **** 		return ERROR;
 1781              		.loc 1 420 0
 1782 00aa 0020     		mov	r0, #0	@ D.6926,
ARM GAS  /var/folders/f9/8bk2lnw15zn4cbgn6wrnb4lm0000gn/T//ccCGlkPS.s 			page 50


 1783              	.LVL153:
 1784 00ac F5E7     		b	.L181	@
 1785              	.LVL154:
 1786              	.L213:
 423:../../lpc_chip_11cxx_lib/src/ssp_11xx.c **** 	if ((xf_setup->tx_cnt != xf_setup->length) || (xf_setup->rx_cnt != xf_setup->length)) {
 1787              		.loc 1 423 0 discriminator 1
 1788 00ae CA68     		ldr	r2, [r1, #12]	@, xf_setup_7(D)->rx_cnt
 1789 00b0 9642     		cmp	r6, r2	@ D.6927,
 1790 00b2 ADD1     		bne	.L182	@,
 420:../../lpc_chip_11cxx_lib/src/ssp_11xx.c **** 		return ERROR;
 1791              		.loc 1 420 0
 1792 00b4 0020     		mov	r0, #0	@ D.6926,
 1793              	.LVL155:
 1794 00b6 F0E7     		b	.L181	@
 1795              	.L216:
 1796              		.align	2
 1797              	.L215:
 1798 00b8 FFFF0000 		.word	65535
 1799              		.cfi_endproc
 1800              	.LFE212:
 1801              		.size	Chip_SSP_Int_RWFrames16Bits, .-Chip_SSP_Int_RWFrames16Bits
 1802              		.section	.text.Chip_SSP_SetMaster,"ax",%progbits
 1803              		.align	2
 1804              		.global	Chip_SSP_SetMaster
 1805              		.code	16
 1806              		.thumb_func
 1807              		.type	Chip_SSP_SetMaster, %function
 1808              	Chip_SSP_SetMaster:
 1809              	.LFB213:
 445:../../lpc_chip_11cxx_lib/src/ssp_11xx.c **** 
 446:../../lpc_chip_11cxx_lib/src/ssp_11xx.c **** /* Set the SSP operating modes, master or slave */
 447:../../lpc_chip_11cxx_lib/src/ssp_11xx.c **** void Chip_SSP_SetMaster(LPC_SSP_T *pSSP, bool master)
 448:../../lpc_chip_11cxx_lib/src/ssp_11xx.c **** {
 1810              		.loc 1 448 0
 1811              		.cfi_startproc
 1812              	.LVL156:
 449:../../lpc_chip_11cxx_lib/src/ssp_11xx.c **** 	if (master) {
 1813              		.loc 1 449 0
 1814 0000 0029     		cmp	r1, #0	@ master,
 1815 0002 04D1     		bne	.L220	@,
 1816              	.LVL157:
 1817              	.LBB489:
 1818              	.LBB490:
 378:../../lpc_chip_11cxx_lib/inc/ssp_11xx.h **** }
 379:../../lpc_chip_11cxx_lib/inc/ssp_11xx.h **** 
 380:../../lpc_chip_11cxx_lib/inc/ssp_11xx.h **** /**
 381:../../lpc_chip_11cxx_lib/inc/ssp_11xx.h ****  * @brief	Set up output clocks per bit for SSP bus
 382:../../lpc_chip_11cxx_lib/inc/ssp_11xx.h ****  * @param	pSSP		: The base of SSP peripheral on the chip
 383:../../lpc_chip_11cxx_lib/inc/ssp_11xx.h ****  * @param	clk_rate	fs: The number of prescaler-output clocks per bit on the bus, minus one
 384:../../lpc_chip_11cxx_lib/inc/ssp_11xx.h ****  * @param	prescale	: The factor by which the Prescaler divides the SSP peripheral clock PCLK
 385:../../lpc_chip_11cxx_lib/inc/ssp_11xx.h ****  * @return	 Nothing
 386:../../lpc_chip_11cxx_lib/inc/ssp_11xx.h ****  * @note	The bit frequency is PCLK / (prescale x[clk_rate+1])
 387:../../lpc_chip_11cxx_lib/inc/ssp_11xx.h ****  */
 388:../../lpc_chip_11cxx_lib/inc/ssp_11xx.h **** void Chip_SSP_SetClockRate(LPC_SSP_T *pSSP, uint32_t clk_rate, uint32_t prescale);
 389:../../lpc_chip_11cxx_lib/inc/ssp_11xx.h **** 
 390:../../lpc_chip_11cxx_lib/inc/ssp_11xx.h **** /**
 391:../../lpc_chip_11cxx_lib/inc/ssp_11xx.h ****  * @brief	Set up the SSP frame format
ARM GAS  /var/folders/f9/8bk2lnw15zn4cbgn6wrnb4lm0000gn/T//ccCGlkPS.s 			page 51


 392:../../lpc_chip_11cxx_lib/inc/ssp_11xx.h ****  * @param	pSSP		: The base of SSP peripheral on the chip
 393:../../lpc_chip_11cxx_lib/inc/ssp_11xx.h ****  * @param	bits		: The number of bits transferred in each frame, should be SSP_BITS_4 to SSP_BITS_16
 394:../../lpc_chip_11cxx_lib/inc/ssp_11xx.h ****  * @param	frameFormat	: Frame format, should be :
 395:../../lpc_chip_11cxx_lib/inc/ssp_11xx.h ****  *							- SSP_FRAMEFORMAT_SPI
 396:../../lpc_chip_11cxx_lib/inc/ssp_11xx.h ****  *							- SSP_FRAME_FORMAT_TI
 397:../../lpc_chip_11cxx_lib/inc/ssp_11xx.h ****  *							- SSP_FRAMEFORMAT_MICROWIRE
 398:../../lpc_chip_11cxx_lib/inc/ssp_11xx.h ****  * @param	clockMode	: Select Clock polarity and Clock phase, should be :
 399:../../lpc_chip_11cxx_lib/inc/ssp_11xx.h ****  *							- SSP_CLOCK_CPHA0_CPOL0
 400:../../lpc_chip_11cxx_lib/inc/ssp_11xx.h ****  *							- SSP_CLOCK_CPHA0_CPOL1
 401:../../lpc_chip_11cxx_lib/inc/ssp_11xx.h ****  *							- SSP_CLOCK_CPHA1_CPOL0
 402:../../lpc_chip_11cxx_lib/inc/ssp_11xx.h ****  *							- SSP_CLOCK_CPHA1_CPOL1
 403:../../lpc_chip_11cxx_lib/inc/ssp_11xx.h ****  * @return	 Nothing
 404:../../lpc_chip_11cxx_lib/inc/ssp_11xx.h ****  * @note	Note: The clockFormat is only used in SPI mode
 405:../../lpc_chip_11cxx_lib/inc/ssp_11xx.h ****  */
 406:../../lpc_chip_11cxx_lib/inc/ssp_11xx.h **** STATIC INLINE void Chip_SSP_SetFormat(LPC_SSP_T *pSSP, uint32_t bits, uint32_t frameFormat, uint32_
 407:../../lpc_chip_11cxx_lib/inc/ssp_11xx.h **** {
 408:../../lpc_chip_11cxx_lib/inc/ssp_11xx.h **** 	pSSP->CR0 = (pSSP->CR0 & ~0xFF) | bits | frameFormat | clockMode;
 409:../../lpc_chip_11cxx_lib/inc/ssp_11xx.h **** }
 410:../../lpc_chip_11cxx_lib/inc/ssp_11xx.h **** 
 411:../../lpc_chip_11cxx_lib/inc/ssp_11xx.h **** /**
 412:../../lpc_chip_11cxx_lib/inc/ssp_11xx.h ****  * @brief	Set the SSP working as master or slave mode
 413:../../lpc_chip_11cxx_lib/inc/ssp_11xx.h ****  * @param	pSSP	: The base of SSP peripheral on the chip
 414:../../lpc_chip_11cxx_lib/inc/ssp_11xx.h ****  * @param	mode	: Operating mode, should be
 415:../../lpc_chip_11cxx_lib/inc/ssp_11xx.h ****  *						- SSP_MODE_MASTER
 416:../../lpc_chip_11cxx_lib/inc/ssp_11xx.h ****  *						- SSP_MODE_SLAVE
 417:../../lpc_chip_11cxx_lib/inc/ssp_11xx.h ****  * @return	 Nothing
 418:../../lpc_chip_11cxx_lib/inc/ssp_11xx.h ****  */
 419:../../lpc_chip_11cxx_lib/inc/ssp_11xx.h **** STATIC INLINE void Chip_SSP_Set_Mode(LPC_SSP_T *pSSP, uint32_t mode)
 420:../../lpc_chip_11cxx_lib/inc/ssp_11xx.h **** {
 421:../../lpc_chip_11cxx_lib/inc/ssp_11xx.h **** 	pSSP->CR1 = (pSSP->CR1 & ~(1 << 2)) | mode;
 1819              		.loc 2 421 0
 1820 0004 4268     		ldr	r2, [r0, #4]	@ D.6937, pSSP_4(D)->CR1
 1821 0006 0423     		mov	r3, #4	@ D.6937,
 1822 0008 1343     		orr	r3, r2	@ D.6937, D.6937
 1823 000a 4360     		str	r3, [r0, #4]	@ D.6937,
 1824              	.LVL158:
 1825              	.L217:
 1826              	.LBE490:
 1827              	.LBE489:
 450:../../lpc_chip_11cxx_lib/src/ssp_11xx.c **** 		Chip_SSP_Set_Mode(pSSP, SSP_MODE_MASTER);
 451:../../lpc_chip_11cxx_lib/src/ssp_11xx.c **** 	}
 452:../../lpc_chip_11cxx_lib/src/ssp_11xx.c **** 	else {
 453:../../lpc_chip_11cxx_lib/src/ssp_11xx.c **** 		Chip_SSP_Set_Mode(pSSP, SSP_MODE_SLAVE);
 454:../../lpc_chip_11cxx_lib/src/ssp_11xx.c **** 	}
 455:../../lpc_chip_11cxx_lib/src/ssp_11xx.c **** }
 1828              		.loc 1 455 0
 1829              		@ sp needed	@
 1830 000c 7047     		bx	lr
 1831              	.L220:
 1832              	.LVL159:
 1833              	.LBB491:
 1834              	.LBB492:
 1835              		.loc 2 421 0
 1836 000e 4368     		ldr	r3, [r0, #4]	@ D.6937, pSSP_4(D)->CR1
 1837 0010 0422     		mov	r2, #4	@ tmp117,
 1838 0012 9343     		bic	r3, r2	@ D.6937, tmp117
 1839 0014 4360     		str	r3, [r0, #4]	@ D.6937,
ARM GAS  /var/folders/f9/8bk2lnw15zn4cbgn6wrnb4lm0000gn/T//ccCGlkPS.s 			page 52


 1840 0016 F9E7     		b	.L217	@
 1841              	.LBE492:
 1842              	.LBE491:
 1843              		.cfi_endproc
 1844              	.LFE213:
 1845              		.size	Chip_SSP_SetMaster, .-Chip_SSP_SetMaster
 1846              		.global	__aeabi_uidiv
 1847              		.section	.text.Chip_SSP_SetBitRate,"ax",%progbits
 1848              		.align	2
 1849              		.global	Chip_SSP_SetBitRate
 1850              		.code	16
 1851              		.thumb_func
 1852              		.type	Chip_SSP_SetBitRate, %function
 1853              	Chip_SSP_SetBitRate:
 1854              	.LFB214:
 456:../../lpc_chip_11cxx_lib/src/ssp_11xx.c **** 
 457:../../lpc_chip_11cxx_lib/src/ssp_11xx.c **** /* Set the clock frequency for SSP interface */
 458:../../lpc_chip_11cxx_lib/src/ssp_11xx.c **** void Chip_SSP_SetBitRate(LPC_SSP_T *pSSP, uint32_t bitRate)
 459:../../lpc_chip_11cxx_lib/src/ssp_11xx.c **** {
 1855              		.loc 1 459 0
 1856              		.cfi_startproc
 1857              	.LVL160:
 1858 0000 F8B5     		push	{r3, r4, r5, r6, r7, lr}	@
 1859              		.cfi_def_cfa_offset 24
 1860              		.cfi_offset 3, -24
 1861              		.cfi_offset 4, -20
 1862              		.cfi_offset 5, -16
 1863              		.cfi_offset 6, -12
 1864              		.cfi_offset 7, -8
 1865              		.cfi_offset 14, -4
 1866 0002 4F46     		mov	r7, r9	@,
 1867 0004 4646     		mov	r6, r8	@,
 1868 0006 C0B4     		push	{r6, r7}	@
 1869              		.cfi_def_cfa_offset 32
 1870              		.cfi_offset 8, -32
 1871              		.cfi_offset 9, -28
 1872              		.loc 1 459 0
 1873 0008 8146     		mov	r9, r0	@ pSSP, pSSP
 1874              	.LVL161:
 1875 000a 0F1C     		mov	r7, r1	@ bitRate, bitRate
 1876              	.LBB493:
 1877              	.LBB494:
 152:../../lpc_chip_11cxx_lib/src/ssp_11xx.c **** 	uint32_t sspCLK = Chip_Clock_GetMainClockRate();
 1878              		.loc 1 152 0
 1879 000c FFF7FEFF 		bl	Chip_Clock_GetMainClockRate	@
 1880              	.LVL162:
 154:../../lpc_chip_11cxx_lib/src/ssp_11xx.c **** 	if (pSSP == LPC_SSP0) {
 1881              		.loc 1 154 0
 1882 0010 194B     		ldr	r3, .L231	@ tmp126,
 1883 0012 9945     		cmp	r9, r3	@ pSSP, tmp126
 1884 0014 25D0     		beq	.L230	@,
 1885              	.LBB495:
 1886              	.LBB496:
 1887              		.file 3 "../../lpc_chip_11cxx_lib/inc/clock_11xx.h"
   1:../../lpc_chip_11cxx_lib/inc/clock_11xx.h **** /*
   2:../../lpc_chip_11cxx_lib/inc/clock_11xx.h ****  * @brief LPC11XX Clock control functions
   3:../../lpc_chip_11cxx_lib/inc/clock_11xx.h ****  *
ARM GAS  /var/folders/f9/8bk2lnw15zn4cbgn6wrnb4lm0000gn/T//ccCGlkPS.s 			page 53


   4:../../lpc_chip_11cxx_lib/inc/clock_11xx.h ****  * @note
   5:../../lpc_chip_11cxx_lib/inc/clock_11xx.h ****  * Copyright(C) NXP Semiconductors, 2012
   6:../../lpc_chip_11cxx_lib/inc/clock_11xx.h ****  * All rights reserved.
   7:../../lpc_chip_11cxx_lib/inc/clock_11xx.h ****  *
   8:../../lpc_chip_11cxx_lib/inc/clock_11xx.h ****  * @par
   9:../../lpc_chip_11cxx_lib/inc/clock_11xx.h ****  * Software that is described herein is for illustrative purposes only
  10:../../lpc_chip_11cxx_lib/inc/clock_11xx.h ****  * which provides customers with programming information regarding the
  11:../../lpc_chip_11cxx_lib/inc/clock_11xx.h ****  * LPC products.  This software is supplied "AS IS" without any warranties of
  12:../../lpc_chip_11cxx_lib/inc/clock_11xx.h ****  * any kind, and NXP Semiconductors and its licensor disclaim any and
  13:../../lpc_chip_11cxx_lib/inc/clock_11xx.h ****  * all warranties, express or implied, including all implied warranties of
  14:../../lpc_chip_11cxx_lib/inc/clock_11xx.h ****  * merchantability, fitness for a particular purpose and non-infringement of
  15:../../lpc_chip_11cxx_lib/inc/clock_11xx.h ****  * intellectual property rights.  NXP Semiconductors assumes no responsibility
  16:../../lpc_chip_11cxx_lib/inc/clock_11xx.h ****  * or liability for the use of the software, conveys no license or rights under any
  17:../../lpc_chip_11cxx_lib/inc/clock_11xx.h ****  * patent, copyright, mask work right, or any other intellectual property rights in
  18:../../lpc_chip_11cxx_lib/inc/clock_11xx.h ****  * or to any products. NXP Semiconductors reserves the right to make changes
  19:../../lpc_chip_11cxx_lib/inc/clock_11xx.h ****  * in the software without notification. NXP Semiconductors also makes no
  20:../../lpc_chip_11cxx_lib/inc/clock_11xx.h ****  * representation or warranty that such application will be suitable for the
  21:../../lpc_chip_11cxx_lib/inc/clock_11xx.h ****  * specified use without further testing or modification.
  22:../../lpc_chip_11cxx_lib/inc/clock_11xx.h ****  *
  23:../../lpc_chip_11cxx_lib/inc/clock_11xx.h ****  * @par
  24:../../lpc_chip_11cxx_lib/inc/clock_11xx.h ****  * Permission to use, copy, modify, and distribute this software and its
  25:../../lpc_chip_11cxx_lib/inc/clock_11xx.h ****  * documentation is hereby granted, under NXP Semiconductors' and its
  26:../../lpc_chip_11cxx_lib/inc/clock_11xx.h ****  * licensor's relevant copyrights in the software, without fee, provided that it
  27:../../lpc_chip_11cxx_lib/inc/clock_11xx.h ****  * is used in conjunction with NXP Semiconductors microcontrollers.  This
  28:../../lpc_chip_11cxx_lib/inc/clock_11xx.h ****  * copyright, permission, and disclaimer notice must appear in all copies of
  29:../../lpc_chip_11cxx_lib/inc/clock_11xx.h ****  * this code.
  30:../../lpc_chip_11cxx_lib/inc/clock_11xx.h ****  */
  31:../../lpc_chip_11cxx_lib/inc/clock_11xx.h **** 
  32:../../lpc_chip_11cxx_lib/inc/clock_11xx.h **** #ifndef __CLOCK_11XX_H_
  33:../../lpc_chip_11cxx_lib/inc/clock_11xx.h **** #define __CLOCK_11XX_H_
  34:../../lpc_chip_11cxx_lib/inc/clock_11xx.h **** 
  35:../../lpc_chip_11cxx_lib/inc/clock_11xx.h **** #ifdef __cplusplus
  36:../../lpc_chip_11cxx_lib/inc/clock_11xx.h **** extern "C" {
  37:../../lpc_chip_11cxx_lib/inc/clock_11xx.h **** #endif
  38:../../lpc_chip_11cxx_lib/inc/clock_11xx.h **** 
  39:../../lpc_chip_11cxx_lib/inc/clock_11xx.h **** /** @defgroup CLOCK_11XX CHIP: LPC11xx Clock Control block driver
  40:../../lpc_chip_11cxx_lib/inc/clock_11xx.h ****  * @ingroup CHIP_11XX_Drivers
  41:../../lpc_chip_11cxx_lib/inc/clock_11xx.h ****  * @{
  42:../../lpc_chip_11cxx_lib/inc/clock_11xx.h ****  */
  43:../../lpc_chip_11cxx_lib/inc/clock_11xx.h **** 
  44:../../lpc_chip_11cxx_lib/inc/clock_11xx.h **** /** Internal oscillator frequency */
  45:../../lpc_chip_11cxx_lib/inc/clock_11xx.h **** #define SYSCTL_IRC_FREQ (12000000)
  46:../../lpc_chip_11cxx_lib/inc/clock_11xx.h **** 
  47:../../lpc_chip_11cxx_lib/inc/clock_11xx.h **** /**
  48:../../lpc_chip_11cxx_lib/inc/clock_11xx.h ****  * @brief	Set System PLL divider values
  49:../../lpc_chip_11cxx_lib/inc/clock_11xx.h ****  * @param	msel    : PLL feedback divider value. M = msel + 1.
  50:../../lpc_chip_11cxx_lib/inc/clock_11xx.h ****  * @param	psel    : PLL post divider value. P =  (1<<psel).
  51:../../lpc_chip_11cxx_lib/inc/clock_11xx.h ****  * @return	Nothing
  52:../../lpc_chip_11cxx_lib/inc/clock_11xx.h ****  * @note	See the user manual for how to setup the PLL.
  53:../../lpc_chip_11cxx_lib/inc/clock_11xx.h ****  */
  54:../../lpc_chip_11cxx_lib/inc/clock_11xx.h **** STATIC INLINE void Chip_Clock_SetupSystemPLL(uint8_t msel, uint8_t psel)
  55:../../lpc_chip_11cxx_lib/inc/clock_11xx.h **** {
  56:../../lpc_chip_11cxx_lib/inc/clock_11xx.h **** 	LPC_SYSCTL->SYSPLLCTRL = (msel & 0x1F) | ((psel & 0x3) << 5);
  57:../../lpc_chip_11cxx_lib/inc/clock_11xx.h **** }
  58:../../lpc_chip_11cxx_lib/inc/clock_11xx.h **** 
  59:../../lpc_chip_11cxx_lib/inc/clock_11xx.h **** /**
  60:../../lpc_chip_11cxx_lib/inc/clock_11xx.h ****  * @brief	Read System PLL lock status
ARM GAS  /var/folders/f9/8bk2lnw15zn4cbgn6wrnb4lm0000gn/T//ccCGlkPS.s 			page 54


  61:../../lpc_chip_11cxx_lib/inc/clock_11xx.h ****  * @return	true of the PLL is locked. false if not locked
  62:../../lpc_chip_11cxx_lib/inc/clock_11xx.h ****  */
  63:../../lpc_chip_11cxx_lib/inc/clock_11xx.h **** STATIC INLINE bool Chip_Clock_IsSystemPLLLocked(void)
  64:../../lpc_chip_11cxx_lib/inc/clock_11xx.h **** {
  65:../../lpc_chip_11cxx_lib/inc/clock_11xx.h **** 	return (bool) ((LPC_SYSCTL->SYSPLLSTAT & 1) != 0);
  66:../../lpc_chip_11cxx_lib/inc/clock_11xx.h **** }
  67:../../lpc_chip_11cxx_lib/inc/clock_11xx.h **** 
  68:../../lpc_chip_11cxx_lib/inc/clock_11xx.h **** /**
  69:../../lpc_chip_11cxx_lib/inc/clock_11xx.h ****  * Clock sources for system and USB PLLs
  70:../../lpc_chip_11cxx_lib/inc/clock_11xx.h ****  */
  71:../../lpc_chip_11cxx_lib/inc/clock_11xx.h **** typedef enum CHIP_SYSCTL_PLLCLKSRC {
  72:../../lpc_chip_11cxx_lib/inc/clock_11xx.h **** 	SYSCTL_PLLCLKSRC_IRC = 0,		/*!< Internal oscillator in */
  73:../../lpc_chip_11cxx_lib/inc/clock_11xx.h **** 	SYSCTL_PLLCLKSRC_MAINOSC,		/*!< Crystal (main) oscillator in */
  74:../../lpc_chip_11cxx_lib/inc/clock_11xx.h **** #if defined(CHIP_LPC11AXX)
  75:../../lpc_chip_11cxx_lib/inc/clock_11xx.h **** 	SYSCTL_PLLCLKSRC_EXT_CLKIN,	/*!< External clock in (11Axx only) */
  76:../../lpc_chip_11cxx_lib/inc/clock_11xx.h **** #else
  77:../../lpc_chip_11cxx_lib/inc/clock_11xx.h **** 	SYSCTL_PLLCLKSRC_RESERVED1,	/*!< Reserved */
  78:../../lpc_chip_11cxx_lib/inc/clock_11xx.h **** #endif
  79:../../lpc_chip_11cxx_lib/inc/clock_11xx.h **** 	SYSCTL_PLLCLKSRC_RESERVED2,	/*!< Reserved */
  80:../../lpc_chip_11cxx_lib/inc/clock_11xx.h **** } CHIP_SYSCTL_PLLCLKSRC_T;
  81:../../lpc_chip_11cxx_lib/inc/clock_11xx.h **** 
  82:../../lpc_chip_11cxx_lib/inc/clock_11xx.h **** /**
  83:../../lpc_chip_11cxx_lib/inc/clock_11xx.h ****  * @brief	Set System PLL clock source
  84:../../lpc_chip_11cxx_lib/inc/clock_11xx.h ****  * @param	src	: Clock source for system PLL
  85:../../lpc_chip_11cxx_lib/inc/clock_11xx.h ****  * @return	Nothing
  86:../../lpc_chip_11cxx_lib/inc/clock_11xx.h ****  * @note	This function will also toggle the clock source update register
  87:../../lpc_chip_11cxx_lib/inc/clock_11xx.h ****  * to update the clock source.
  88:../../lpc_chip_11cxx_lib/inc/clock_11xx.h ****  */
  89:../../lpc_chip_11cxx_lib/inc/clock_11xx.h **** void Chip_Clock_SetSystemPLLSource(CHIP_SYSCTL_PLLCLKSRC_T src);
  90:../../lpc_chip_11cxx_lib/inc/clock_11xx.h **** 
  91:../../lpc_chip_11cxx_lib/inc/clock_11xx.h **** #if defined(CHIP_LPC11UXX)
  92:../../lpc_chip_11cxx_lib/inc/clock_11xx.h **** /**
  93:../../lpc_chip_11cxx_lib/inc/clock_11xx.h ****  * @brief	Set USB PLL divider values
  94:../../lpc_chip_11cxx_lib/inc/clock_11xx.h ****  * @param	msel    : PLL feedback divider value. M = msel + 1.
  95:../../lpc_chip_11cxx_lib/inc/clock_11xx.h ****  * @param	psel    : PLL post divider value. P = (1<<psel).
  96:../../lpc_chip_11cxx_lib/inc/clock_11xx.h ****  * @return	Nothing
  97:../../lpc_chip_11cxx_lib/inc/clock_11xx.h ****  * @note	See the user manual for how to setup the PLL.
  98:../../lpc_chip_11cxx_lib/inc/clock_11xx.h ****  */
  99:../../lpc_chip_11cxx_lib/inc/clock_11xx.h **** STATIC INLINE void Chip_Clock_SetupUSBPLL(uint8_t msel, uint8_t psel)
 100:../../lpc_chip_11cxx_lib/inc/clock_11xx.h **** {
 101:../../lpc_chip_11cxx_lib/inc/clock_11xx.h **** 	LPC_SYSCTL->USBPLLCTRL = (msel & 0x1F) | ((psel & 0x3) << 5);
 102:../../lpc_chip_11cxx_lib/inc/clock_11xx.h **** }
 103:../../lpc_chip_11cxx_lib/inc/clock_11xx.h **** 
 104:../../lpc_chip_11cxx_lib/inc/clock_11xx.h **** /**
 105:../../lpc_chip_11cxx_lib/inc/clock_11xx.h ****  * @brief	Read USB PLL lock status
 106:../../lpc_chip_11cxx_lib/inc/clock_11xx.h ****  * @return	true of the PLL is locked. false if not locked
 107:../../lpc_chip_11cxx_lib/inc/clock_11xx.h ****  */
 108:../../lpc_chip_11cxx_lib/inc/clock_11xx.h **** STATIC INLINE bool Chip_Clock_IsUSBPLLLocked(void)
 109:../../lpc_chip_11cxx_lib/inc/clock_11xx.h **** {
 110:../../lpc_chip_11cxx_lib/inc/clock_11xx.h **** 	return (bool) ((LPC_SYSCTL->USBPLLSTAT & 1) != 0);
 111:../../lpc_chip_11cxx_lib/inc/clock_11xx.h **** }
 112:../../lpc_chip_11cxx_lib/inc/clock_11xx.h **** 
 113:../../lpc_chip_11cxx_lib/inc/clock_11xx.h **** /**
 114:../../lpc_chip_11cxx_lib/inc/clock_11xx.h ****  * @brief	Set USB PLL clock source
 115:../../lpc_chip_11cxx_lib/inc/clock_11xx.h ****  * @param	src	: Clock source for USB PLL
 116:../../lpc_chip_11cxx_lib/inc/clock_11xx.h ****  * @return	Nothing
 117:../../lpc_chip_11cxx_lib/inc/clock_11xx.h ****  * @note	This function will also toggle the clock source update register
ARM GAS  /var/folders/f9/8bk2lnw15zn4cbgn6wrnb4lm0000gn/T//ccCGlkPS.s 			page 55


 118:../../lpc_chip_11cxx_lib/inc/clock_11xx.h ****  * to update the clock source.
 119:../../lpc_chip_11cxx_lib/inc/clock_11xx.h ****  */
 120:../../lpc_chip_11cxx_lib/inc/clock_11xx.h **** void Chip_Clock_SetUSBPLLSource(CHIP_SYSCTL_PLLCLKSRC_T src);
 121:../../lpc_chip_11cxx_lib/inc/clock_11xx.h **** 
 122:../../lpc_chip_11cxx_lib/inc/clock_11xx.h **** #endif /*defined(CHIP_LPC11UXX)*/
 123:../../lpc_chip_11cxx_lib/inc/clock_11xx.h **** 
 124:../../lpc_chip_11cxx_lib/inc/clock_11xx.h **** /**
 125:../../lpc_chip_11cxx_lib/inc/clock_11xx.h ****  * @brief	Bypass System Oscillator and set oscillator frequency range
 126:../../lpc_chip_11cxx_lib/inc/clock_11xx.h ****  * @param	bypass	: Flag to bypass oscillator
 127:../../lpc_chip_11cxx_lib/inc/clock_11xx.h ****  * @param	highfr	: Flag to set oscillator range from 15-25 MHz
 128:../../lpc_chip_11cxx_lib/inc/clock_11xx.h ****  * @return	Nothing
 129:../../lpc_chip_11cxx_lib/inc/clock_11xx.h ****  * @note	Sets the PLL input to bypass the oscillator. This would be
 130:../../lpc_chip_11cxx_lib/inc/clock_11xx.h ****  * used if an external clock that is not an oscillator is attached
 131:../../lpc_chip_11cxx_lib/inc/clock_11xx.h ****  * to the XTALIN pin.
 132:../../lpc_chip_11cxx_lib/inc/clock_11xx.h ****  */
 133:../../lpc_chip_11cxx_lib/inc/clock_11xx.h **** void Chip_Clock_SetPLLBypass(bool bypass, bool highfr);
 134:../../lpc_chip_11cxx_lib/inc/clock_11xx.h **** 
 135:../../lpc_chip_11cxx_lib/inc/clock_11xx.h **** /**
 136:../../lpc_chip_11cxx_lib/inc/clock_11xx.h ****  * Watchdog and low frequency oscillator frequencies plus or minus 40%
 137:../../lpc_chip_11cxx_lib/inc/clock_11xx.h ****  */
 138:../../lpc_chip_11cxx_lib/inc/clock_11xx.h **** typedef enum CHIP_WDTLFO_OSC {
 139:../../lpc_chip_11cxx_lib/inc/clock_11xx.h **** 	WDTLFO_OSC_ILLEGAL,
 140:../../lpc_chip_11cxx_lib/inc/clock_11xx.h **** 	WDTLFO_OSC_0_60,	/*!< 0.6 MHz watchdog/LFO rate */
 141:../../lpc_chip_11cxx_lib/inc/clock_11xx.h **** 	WDTLFO_OSC_1_05,	/*!< 1.05 MHz watchdog/LFO rate */
 142:../../lpc_chip_11cxx_lib/inc/clock_11xx.h **** 	WDTLFO_OSC_1_40,	/*!< 1.4 MHz watchdog/LFO rate */
 143:../../lpc_chip_11cxx_lib/inc/clock_11xx.h **** 	WDTLFO_OSC_1_75,	/*!< 1.75 MHz watchdog/LFO rate */
 144:../../lpc_chip_11cxx_lib/inc/clock_11xx.h **** 	WDTLFO_OSC_2_10,	/*!< 2.1 MHz watchdog/LFO rate */
 145:../../lpc_chip_11cxx_lib/inc/clock_11xx.h **** 	WDTLFO_OSC_2_40,	/*!< 2.4 MHz watchdog/LFO rate */
 146:../../lpc_chip_11cxx_lib/inc/clock_11xx.h **** 	WDTLFO_OSC_2_70,	/*!< 2.7 MHz watchdog/LFO rate */
 147:../../lpc_chip_11cxx_lib/inc/clock_11xx.h **** 	WDTLFO_OSC_3_00,	/*!< 3.0 MHz watchdog/LFO rate */
 148:../../lpc_chip_11cxx_lib/inc/clock_11xx.h **** 	WDTLFO_OSC_3_25,	/*!< 3.25 MHz watchdog/LFO rate */
 149:../../lpc_chip_11cxx_lib/inc/clock_11xx.h **** 	WDTLFO_OSC_3_50,	/*!< 3.5 MHz watchdog/LFO rate */
 150:../../lpc_chip_11cxx_lib/inc/clock_11xx.h **** 	WDTLFO_OSC_3_75,	/*!< 3.75 MHz watchdog/LFO rate */
 151:../../lpc_chip_11cxx_lib/inc/clock_11xx.h **** 	WDTLFO_OSC_4_00,	/*!< 4.0 MHz watchdog/LFO rate */
 152:../../lpc_chip_11cxx_lib/inc/clock_11xx.h **** 	WDTLFO_OSC_4_20,	/*!< 4.2 MHz watchdog/LFO rate */
 153:../../lpc_chip_11cxx_lib/inc/clock_11xx.h **** 	WDTLFO_OSC_4_40,	/*!< 4.4 MHz watchdog/LFO rate */
 154:../../lpc_chip_11cxx_lib/inc/clock_11xx.h **** 	WDTLFO_OSC_4_60		/*!< 4.6 MHz watchdog/LFO rate */
 155:../../lpc_chip_11cxx_lib/inc/clock_11xx.h **** } CHIP_WDTLFO_OSC_T;
 156:../../lpc_chip_11cxx_lib/inc/clock_11xx.h **** 
 157:../../lpc_chip_11cxx_lib/inc/clock_11xx.h **** /**
 158:../../lpc_chip_11cxx_lib/inc/clock_11xx.h ****  * @brief	Setup Watchdog oscillator rate and divider
 159:../../lpc_chip_11cxx_lib/inc/clock_11xx.h ****  * @param	wdtclk	: Selected watchdog clock rate
 160:../../lpc_chip_11cxx_lib/inc/clock_11xx.h ****  * @param	div		: Watchdog divider value, even value between 2 and 64
 161:../../lpc_chip_11cxx_lib/inc/clock_11xx.h ****  * @return	Nothing
 162:../../lpc_chip_11cxx_lib/inc/clock_11xx.h ****  * @note	Watchdog rate = selected rate divided by divider rate
 163:../../lpc_chip_11cxx_lib/inc/clock_11xx.h ****  */
 164:../../lpc_chip_11cxx_lib/inc/clock_11xx.h **** STATIC INLINE void Chip_Clock_SetWDTOSC(CHIP_WDTLFO_OSC_T wdtclk, uint8_t div)
 165:../../lpc_chip_11cxx_lib/inc/clock_11xx.h **** {
 166:../../lpc_chip_11cxx_lib/inc/clock_11xx.h **** 	LPC_SYSCTL->WDTOSCCTRL  = (((uint32_t) wdtclk) << 5) | ((div >> 1) - 1);
 167:../../lpc_chip_11cxx_lib/inc/clock_11xx.h **** }
 168:../../lpc_chip_11cxx_lib/inc/clock_11xx.h **** 
 169:../../lpc_chip_11cxx_lib/inc/clock_11xx.h **** #if defined(CHIP_LPC11AXX)
 170:../../lpc_chip_11cxx_lib/inc/clock_11xx.h **** /**
 171:../../lpc_chip_11cxx_lib/inc/clock_11xx.h ****  * @brief	Setup low frequency oscillator rate and divider
 172:../../lpc_chip_11cxx_lib/inc/clock_11xx.h ****  * @param	lfoclk	: Selected low frequency clock rate
 173:../../lpc_chip_11cxx_lib/inc/clock_11xx.h ****  * @param	div		: Low frequency divider value, even value between 2 and 64
 174:../../lpc_chip_11cxx_lib/inc/clock_11xx.h ****  * @return	Nothing
ARM GAS  /var/folders/f9/8bk2lnw15zn4cbgn6wrnb4lm0000gn/T//ccCGlkPS.s 			page 56


 175:../../lpc_chip_11cxx_lib/inc/clock_11xx.h ****  * @note	Low frequency oscillator rate = selected rate divided by divider rate
 176:../../lpc_chip_11cxx_lib/inc/clock_11xx.h ****  */
 177:../../lpc_chip_11cxx_lib/inc/clock_11xx.h **** STATIC INLINE void Chip_Clock_SetLFOSC(CHIP_WDTLFO_OSC_T lfoclk, uint8_t div)
 178:../../lpc_chip_11cxx_lib/inc/clock_11xx.h **** {
 179:../../lpc_chip_11cxx_lib/inc/clock_11xx.h **** 	LPC_SYSCTL->LFOSCCTRL  = (((uint32_t) lfoclk) << 5) | ((div >> 1) - 1);
 180:../../lpc_chip_11cxx_lib/inc/clock_11xx.h **** }
 181:../../lpc_chip_11cxx_lib/inc/clock_11xx.h **** 
 182:../../lpc_chip_11cxx_lib/inc/clock_11xx.h **** #endif /*CHIP_LPC11AXX*/
 183:../../lpc_chip_11cxx_lib/inc/clock_11xx.h **** 
 184:../../lpc_chip_11cxx_lib/inc/clock_11xx.h **** /**
 185:../../lpc_chip_11cxx_lib/inc/clock_11xx.h ****  * Clock sources for main system clock
 186:../../lpc_chip_11cxx_lib/inc/clock_11xx.h ****  */
 187:../../lpc_chip_11cxx_lib/inc/clock_11xx.h **** typedef enum CHIP_SYSCTL_MAINCLKSRC {
 188:../../lpc_chip_11cxx_lib/inc/clock_11xx.h **** 	SYSCTL_MAINCLKSRC_IRC = 0,		/*!< Internal oscillator */
 189:../../lpc_chip_11cxx_lib/inc/clock_11xx.h **** 	SYSCTL_MAINCLKSRC_PLLIN,		/*!< System PLL input */
 190:../../lpc_chip_11cxx_lib/inc/clock_11xx.h **** 	SYSCTL_MAINCLKSRC_LFOSC,		/*!< LF oscillator rate (11Axx only) */
 191:../../lpc_chip_11cxx_lib/inc/clock_11xx.h **** 	SYSCTL_MAINCLKSRC_WDTOSC = SYSCTL_MAINCLKSRC_LFOSC,	/*!< Watchdog oscillator rate */
 192:../../lpc_chip_11cxx_lib/inc/clock_11xx.h **** 	SYSCTL_MAINCLKSRC_PLLOUT,		/*!< System PLL output */
 193:../../lpc_chip_11cxx_lib/inc/clock_11xx.h **** } CHIP_SYSCTL_MAINCLKSRC_T;
 194:../../lpc_chip_11cxx_lib/inc/clock_11xx.h **** 
 195:../../lpc_chip_11cxx_lib/inc/clock_11xx.h **** /**
 196:../../lpc_chip_11cxx_lib/inc/clock_11xx.h ****  * @brief	Set main system clock source
 197:../../lpc_chip_11cxx_lib/inc/clock_11xx.h ****  * @param	src	: Clock source for main system
 198:../../lpc_chip_11cxx_lib/inc/clock_11xx.h ****  * @return	Nothing
 199:../../lpc_chip_11cxx_lib/inc/clock_11xx.h ****  * @note	This function will also toggle the clock source update register
 200:../../lpc_chip_11cxx_lib/inc/clock_11xx.h ****  * to update the clock source.
 201:../../lpc_chip_11cxx_lib/inc/clock_11xx.h ****  */
 202:../../lpc_chip_11cxx_lib/inc/clock_11xx.h **** void Chip_Clock_SetMainClockSource(CHIP_SYSCTL_MAINCLKSRC_T src);
 203:../../lpc_chip_11cxx_lib/inc/clock_11xx.h **** 
 204:../../lpc_chip_11cxx_lib/inc/clock_11xx.h **** /**
 205:../../lpc_chip_11cxx_lib/inc/clock_11xx.h ****  * @brief   Returns the main clock source
 206:../../lpc_chip_11cxx_lib/inc/clock_11xx.h ****  * @return	Which clock is used for the core clock source?
 207:../../lpc_chip_11cxx_lib/inc/clock_11xx.h ****  */
 208:../../lpc_chip_11cxx_lib/inc/clock_11xx.h **** STATIC INLINE CHIP_SYSCTL_MAINCLKSRC_T Chip_Clock_GetMainClockSource(void)
 209:../../lpc_chip_11cxx_lib/inc/clock_11xx.h **** {
 210:../../lpc_chip_11cxx_lib/inc/clock_11xx.h **** 	return (CHIP_SYSCTL_MAINCLKSRC_T) (LPC_SYSCTL->MAINCLKSEL);
 211:../../lpc_chip_11cxx_lib/inc/clock_11xx.h **** }
 212:../../lpc_chip_11cxx_lib/inc/clock_11xx.h **** 
 213:../../lpc_chip_11cxx_lib/inc/clock_11xx.h **** /**
 214:../../lpc_chip_11cxx_lib/inc/clock_11xx.h ****  * @brief	Set system clock divider
 215:../../lpc_chip_11cxx_lib/inc/clock_11xx.h ****  * @param	div	: divider for system clock
 216:../../lpc_chip_11cxx_lib/inc/clock_11xx.h ****  * @return	Nothing
 217:../../lpc_chip_11cxx_lib/inc/clock_11xx.h ****  * @note	Use 0 to disable, or a divider value of 1 to 255. The system clock
 218:../../lpc_chip_11cxx_lib/inc/clock_11xx.h ****  * rate is the main system clock divided by this value.
 219:../../lpc_chip_11cxx_lib/inc/clock_11xx.h ****  */
 220:../../lpc_chip_11cxx_lib/inc/clock_11xx.h **** STATIC INLINE void Chip_Clock_SetSysClockDiv(uint32_t div)
 221:../../lpc_chip_11cxx_lib/inc/clock_11xx.h **** {
 222:../../lpc_chip_11cxx_lib/inc/clock_11xx.h **** 	LPC_SYSCTL->SYSAHBCLKDIV  = div;
 223:../../lpc_chip_11cxx_lib/inc/clock_11xx.h **** }
 224:../../lpc_chip_11cxx_lib/inc/clock_11xx.h **** 
 225:../../lpc_chip_11cxx_lib/inc/clock_11xx.h **** /**
 226:../../lpc_chip_11cxx_lib/inc/clock_11xx.h ****  * System and peripheral clocks
 227:../../lpc_chip_11cxx_lib/inc/clock_11xx.h ****  */
 228:../../lpc_chip_11cxx_lib/inc/clock_11xx.h **** typedef enum CHIP_SYSCTL_CLOCK {
 229:../../lpc_chip_11cxx_lib/inc/clock_11xx.h **** 	SYSCTL_CLOCK_SYS = 0,				/*!< 0: System clock */
 230:../../lpc_chip_11cxx_lib/inc/clock_11xx.h **** 	SYSCTL_CLOCK_ROM,					/*!<1:  ROM clock */
 231:../../lpc_chip_11cxx_lib/inc/clock_11xx.h **** 	SYSCTL_CLOCK_RAM,					/*!< 2: RAM clock */
ARM GAS  /var/folders/f9/8bk2lnw15zn4cbgn6wrnb4lm0000gn/T//ccCGlkPS.s 			page 57


 232:../../lpc_chip_11cxx_lib/inc/clock_11xx.h **** 	SYSCTL_CLOCK_FLASHREG,				/*!< 3: FLASH register interface clock */
 233:../../lpc_chip_11cxx_lib/inc/clock_11xx.h **** 	SYSCTL_CLOCK_FLASHARRAY,			/*!< 4: FLASH array access clock */
 234:../../lpc_chip_11cxx_lib/inc/clock_11xx.h **** #if defined(CHIP_LPC110X)
 235:../../lpc_chip_11cxx_lib/inc/clock_11xx.h **** 	SYSCTL_CLOCK_RESERVED5,				/*!< 5: Reserved */
 236:../../lpc_chip_11cxx_lib/inc/clock_11xx.h **** #else
 237:../../lpc_chip_11cxx_lib/inc/clock_11xx.h **** 	SYSCTL_CLOCK_I2C,					/*!< 5: I2C clock, not on LPC110x */
 238:../../lpc_chip_11cxx_lib/inc/clock_11xx.h **** #endif
 239:../../lpc_chip_11cxx_lib/inc/clock_11xx.h **** 	SYSCTL_CLOCK_GPIO,					/*!< 6: GPIO clock */
 240:../../lpc_chip_11cxx_lib/inc/clock_11xx.h **** 	SYSCTL_CLOCK_CT16B0,				/*!< 7: 16-bit Counter/timer 0 clock */
 241:../../lpc_chip_11cxx_lib/inc/clock_11xx.h **** 	SYSCTL_CLOCK_CT16B1,				/*!< 8: 16-bit Counter/timer 1 clock */
 242:../../lpc_chip_11cxx_lib/inc/clock_11xx.h **** 	SYSCTL_CLOCK_CT32B0,				/*!< 9: 32-bit Counter/timer 0 clock */
 243:../../lpc_chip_11cxx_lib/inc/clock_11xx.h **** 	SYSCTL_CLOCK_CT32B1,				/*!< 10: 32-bit Counter/timer 1 clock */
 244:../../lpc_chip_11cxx_lib/inc/clock_11xx.h **** 	SYSCTL_CLOCK_SSP0,					/*!< 11: SSP0 clock */
 245:../../lpc_chip_11cxx_lib/inc/clock_11xx.h **** 	SYSCTL_CLOCK_UART0,					/*!< 12: UART0 clock */
 246:../../lpc_chip_11cxx_lib/inc/clock_11xx.h **** 	SYSCTL_CLOCK_ADC,					/*!< 13: ADC clock */
 247:../../lpc_chip_11cxx_lib/inc/clock_11xx.h **** #if defined(CHIP_LPC11UXX)
 248:../../lpc_chip_11cxx_lib/inc/clock_11xx.h **** 	SYSCTL_CLOCK_USB,					/*!< 14: USB clock, LPC11Uxx only */
 249:../../lpc_chip_11cxx_lib/inc/clock_11xx.h **** #else
 250:../../lpc_chip_11cxx_lib/inc/clock_11xx.h **** 	SYSCTL_CLOCK_RESERVED14,			/*!< 14: Reserved */
 251:../../lpc_chip_11cxx_lib/inc/clock_11xx.h **** #endif
 252:../../lpc_chip_11cxx_lib/inc/clock_11xx.h **** 	SYSCTL_CLOCK_WDT,					/*!< 15: Watchdog timer clock */
 253:../../lpc_chip_11cxx_lib/inc/clock_11xx.h **** 	SYSCTL_CLOCK_IOCON,					/*!< 16: IOCON block clock */
 254:../../lpc_chip_11cxx_lib/inc/clock_11xx.h **** #if defined(CHIP_LPC11CXX)
 255:../../lpc_chip_11cxx_lib/inc/clock_11xx.h **** 	SYSCTL_CLOCK_CAN,					/*!< 17: CAN clock, LPC11Cxx only */
 256:../../lpc_chip_11cxx_lib/inc/clock_11xx.h **** #else
 257:../../lpc_chip_11cxx_lib/inc/clock_11xx.h **** 	SYSCTL_CLOCK_RESERVED17,			/*!< 17: Reserved */
 258:../../lpc_chip_11cxx_lib/inc/clock_11xx.h **** #endif
 259:../../lpc_chip_11cxx_lib/inc/clock_11xx.h **** #if !(defined(CHIP_LPC110X) || defined(CHIP_LPC11XXLV))  
 260:../../lpc_chip_11cxx_lib/inc/clock_11xx.h **** 	SYSCTL_CLOCK_SSP1,					/*!< 18: SSP1 clock, LPC11A/C/E/Uxx//1125 only */
 261:../../lpc_chip_11cxx_lib/inc/clock_11xx.h **** #if !defined(CHIP_LPC11CXX)
 262:../../lpc_chip_11cxx_lib/inc/clock_11xx.h **** 	SYSCTL_CLOCK_PINT,					/*!< 19: GPIO Pin int register interface clock, LPC11A/E/Uxx only */
 263:../../lpc_chip_11cxx_lib/inc/clock_11xx.h **** #if defined(CHIP_LPC11AXX)
 264:../../lpc_chip_11cxx_lib/inc/clock_11xx.h **** 	SYSCTL_CLOCK_ACOMP,					/*!< 20: Analog comparator clock, LPC11Axx only */
 265:../../lpc_chip_11cxx_lib/inc/clock_11xx.h **** 	SYSCTL_CLOCK_DAC,					/*!< 21: DAC clock, LPC11Axx only */
 266:../../lpc_chip_11cxx_lib/inc/clock_11xx.h **** #else
 267:../../lpc_chip_11cxx_lib/inc/clock_11xx.h **** 	SYSCTL_CLOCK_RESERVED20,			/*!< 20: Reserved */
 268:../../lpc_chip_11cxx_lib/inc/clock_11xx.h **** 	SYSCTL_CLOCK_RESERVED21,			/*!< 21: Reserved */
 269:../../lpc_chip_11cxx_lib/inc/clock_11xx.h **** #endif
 270:../../lpc_chip_11cxx_lib/inc/clock_11xx.h **** 	SYSCTL_CLOCK_RESERVED22,			/*!< 22: Reserved */
 271:../../lpc_chip_11cxx_lib/inc/clock_11xx.h **** 	SYSCTL_CLOCK_P0INT,					/*!< 23: GPIO GROUP1 interrupt register clock, LPC11Axx only */
 272:../../lpc_chip_11cxx_lib/inc/clock_11xx.h **** 	SYSCTL_CLOCK_GROUP0INT = SYSCTL_CLOCK_P0INT,/*!< 23: GPIO GROUP0 interrupt register interface cloc
 273:../../lpc_chip_11cxx_lib/inc/clock_11xx.h **** 	SYSCTL_CLOCK_P1INT,					/*!< 24: GPIO GROUP1 interrupt register clock, LPC11Axx only */
 274:../../lpc_chip_11cxx_lib/inc/clock_11xx.h **** 	SYSCTL_CLOCK_GROUP1INT = SYSCTL_CLOCK_P1INT,/*!< 24: GPIO GROUP1 interrupt register interface cloc
 275:../../lpc_chip_11cxx_lib/inc/clock_11xx.h **** 	SYSCTL_CLOCK_RESERVED25,			/*!< 25: Reserved */
 276:../../lpc_chip_11cxx_lib/inc/clock_11xx.h **** #if defined(CHIP_LPC11EXX)  || defined(CHIP_LPC11UXX)
 277:../../lpc_chip_11cxx_lib/inc/clock_11xx.h **** 	SYSCTL_CLOCK_RAM1,					/*!< 26: SRAM block (0x20000000) clock, LPC11E/Uxx only */
 278:../../lpc_chip_11cxx_lib/inc/clock_11xx.h **** #else
 279:../../lpc_chip_11cxx_lib/inc/clock_11xx.h **** 	SYSCTL_CLOCK_RESERVED26,			/*!< 26: Reserved */
 280:../../lpc_chip_11cxx_lib/inc/clock_11xx.h **** #endif
 281:../../lpc_chip_11cxx_lib/inc/clock_11xx.h **** #if defined(CHIP_LPC11UXX)
 282:../../lpc_chip_11cxx_lib/inc/clock_11xx.h **** 	SYSCTL_CLOCK_USBRAM,				/*!< 27: USB SRAM block clock, LPC11Uxx only */
 283:../../lpc_chip_11cxx_lib/inc/clock_11xx.h **** #else
 284:../../lpc_chip_11cxx_lib/inc/clock_11xx.h **** 	SYSCTL_CLOCK_RESERVED27,			/*!< 27: Reserved */
 285:../../lpc_chip_11cxx_lib/inc/clock_11xx.h **** #endif
 286:../../lpc_chip_11cxx_lib/inc/clock_11xx.h **** #endif /* !defined(CHIP_LPC11CXX) */
 287:../../lpc_chip_11cxx_lib/inc/clock_11xx.h **** #endif /* !(defined(CHIP_LPC110X) || defined(CHIP_LPC11XXLV)) */
 288:../../lpc_chip_11cxx_lib/inc/clock_11xx.h **** } CHIP_SYSCTL_CLOCK_T;
ARM GAS  /var/folders/f9/8bk2lnw15zn4cbgn6wrnb4lm0000gn/T//ccCGlkPS.s 			page 58


 289:../../lpc_chip_11cxx_lib/inc/clock_11xx.h **** 
 290:../../lpc_chip_11cxx_lib/inc/clock_11xx.h **** /**
 291:../../lpc_chip_11cxx_lib/inc/clock_11xx.h ****  * @brief	Enable a system or peripheral clock
 292:../../lpc_chip_11cxx_lib/inc/clock_11xx.h ****  * @param	clk	: Clock to enable
 293:../../lpc_chip_11cxx_lib/inc/clock_11xx.h ****  * @return	Nothing
 294:../../lpc_chip_11cxx_lib/inc/clock_11xx.h ****  */
 295:../../lpc_chip_11cxx_lib/inc/clock_11xx.h **** STATIC INLINE void Chip_Clock_EnablePeriphClock(CHIP_SYSCTL_CLOCK_T clk)
 296:../../lpc_chip_11cxx_lib/inc/clock_11xx.h **** {
 297:../../lpc_chip_11cxx_lib/inc/clock_11xx.h **** 	LPC_SYSCTL->SYSAHBCLKCTRL |= (1 << clk);
 298:../../lpc_chip_11cxx_lib/inc/clock_11xx.h **** }
 299:../../lpc_chip_11cxx_lib/inc/clock_11xx.h **** 
 300:../../lpc_chip_11cxx_lib/inc/clock_11xx.h **** /**
 301:../../lpc_chip_11cxx_lib/inc/clock_11xx.h ****  * @brief	Disable a system or peripheral clock
 302:../../lpc_chip_11cxx_lib/inc/clock_11xx.h ****  * @param	clk	: Clock to disable
 303:../../lpc_chip_11cxx_lib/inc/clock_11xx.h ****  * @return	Nothing
 304:../../lpc_chip_11cxx_lib/inc/clock_11xx.h ****  */
 305:../../lpc_chip_11cxx_lib/inc/clock_11xx.h **** STATIC INLINE void Chip_Clock_DisablePeriphClock(CHIP_SYSCTL_CLOCK_T clk)
 306:../../lpc_chip_11cxx_lib/inc/clock_11xx.h **** {
 307:../../lpc_chip_11cxx_lib/inc/clock_11xx.h **** 	LPC_SYSCTL->SYSAHBCLKCTRL &= ~(1 << clk);
 308:../../lpc_chip_11cxx_lib/inc/clock_11xx.h **** }
 309:../../lpc_chip_11cxx_lib/inc/clock_11xx.h **** 
 310:../../lpc_chip_11cxx_lib/inc/clock_11xx.h **** /**
 311:../../lpc_chip_11cxx_lib/inc/clock_11xx.h ****  * @brief	Set SSP0 divider
 312:../../lpc_chip_11cxx_lib/inc/clock_11xx.h ****  * @param	div	: divider for SSP0 clock
 313:../../lpc_chip_11cxx_lib/inc/clock_11xx.h ****  * @return	Nothing
 314:../../lpc_chip_11cxx_lib/inc/clock_11xx.h ****  * @note	Use 0 to disable, or a divider value of 1 to 255. The SSP0 clock
 315:../../lpc_chip_11cxx_lib/inc/clock_11xx.h ****  * rate is the main system clock divided by this value.
 316:../../lpc_chip_11cxx_lib/inc/clock_11xx.h ****  */
 317:../../lpc_chip_11cxx_lib/inc/clock_11xx.h **** STATIC INLINE void Chip_Clock_SetSSP0ClockDiv(uint32_t div)
 318:../../lpc_chip_11cxx_lib/inc/clock_11xx.h **** {
 319:../../lpc_chip_11cxx_lib/inc/clock_11xx.h **** 	LPC_SYSCTL->SSP0CLKDIV  = div;
 320:../../lpc_chip_11cxx_lib/inc/clock_11xx.h **** }
 321:../../lpc_chip_11cxx_lib/inc/clock_11xx.h **** 
 322:../../lpc_chip_11cxx_lib/inc/clock_11xx.h **** /**
 323:../../lpc_chip_11cxx_lib/inc/clock_11xx.h ****  * @brief	Return SSP0 divider
 324:../../lpc_chip_11cxx_lib/inc/clock_11xx.h ****  * @return	divider for SSP0 clock
 325:../../lpc_chip_11cxx_lib/inc/clock_11xx.h ****  * @note	A value of 0 means the clock is disabled.
 326:../../lpc_chip_11cxx_lib/inc/clock_11xx.h ****  */
 327:../../lpc_chip_11cxx_lib/inc/clock_11xx.h **** STATIC INLINE uint32_t Chip_Clock_GetSSP0ClockDiv(void)
 328:../../lpc_chip_11cxx_lib/inc/clock_11xx.h **** {
 329:../../lpc_chip_11cxx_lib/inc/clock_11xx.h **** 	return LPC_SYSCTL->SSP0CLKDIV;
 330:../../lpc_chip_11cxx_lib/inc/clock_11xx.h **** }
 331:../../lpc_chip_11cxx_lib/inc/clock_11xx.h **** 
 332:../../lpc_chip_11cxx_lib/inc/clock_11xx.h **** /**
 333:../../lpc_chip_11cxx_lib/inc/clock_11xx.h ****  * @brief	Set UART divider clock
 334:../../lpc_chip_11cxx_lib/inc/clock_11xx.h ****  * @param	div	: divider for UART clock
 335:../../lpc_chip_11cxx_lib/inc/clock_11xx.h ****  * @return	Nothing
 336:../../lpc_chip_11cxx_lib/inc/clock_11xx.h ****  * @note	Use 0 to disable, or a divider value of 1 to 255. The UART clock
 337:../../lpc_chip_11cxx_lib/inc/clock_11xx.h ****  * rate is the main system clock divided by this value.
 338:../../lpc_chip_11cxx_lib/inc/clock_11xx.h ****  */
 339:../../lpc_chip_11cxx_lib/inc/clock_11xx.h **** STATIC INLINE void Chip_Clock_SetUARTClockDiv(uint32_t div)
 340:../../lpc_chip_11cxx_lib/inc/clock_11xx.h **** {
 341:../../lpc_chip_11cxx_lib/inc/clock_11xx.h **** 	LPC_SYSCTL->USARTCLKDIV  = div;
 342:../../lpc_chip_11cxx_lib/inc/clock_11xx.h **** }
 343:../../lpc_chip_11cxx_lib/inc/clock_11xx.h **** 
 344:../../lpc_chip_11cxx_lib/inc/clock_11xx.h **** /**
 345:../../lpc_chip_11cxx_lib/inc/clock_11xx.h ****  * @brief	Return UART divider
ARM GAS  /var/folders/f9/8bk2lnw15zn4cbgn6wrnb4lm0000gn/T//ccCGlkPS.s 			page 59


 346:../../lpc_chip_11cxx_lib/inc/clock_11xx.h ****  * @return	divider for UART clock
 347:../../lpc_chip_11cxx_lib/inc/clock_11xx.h ****  * @note	A value of 0 means the clock is disabled.
 348:../../lpc_chip_11cxx_lib/inc/clock_11xx.h ****  */
 349:../../lpc_chip_11cxx_lib/inc/clock_11xx.h **** STATIC INLINE uint32_t Chip_Clock_GetUARTClockDiv(void)
 350:../../lpc_chip_11cxx_lib/inc/clock_11xx.h **** {
 351:../../lpc_chip_11cxx_lib/inc/clock_11xx.h **** 	return LPC_SYSCTL->USARTCLKDIV;
 352:../../lpc_chip_11cxx_lib/inc/clock_11xx.h **** }
 353:../../lpc_chip_11cxx_lib/inc/clock_11xx.h **** 
 354:../../lpc_chip_11cxx_lib/inc/clock_11xx.h **** #if defined(CHIP_LPC11CXX) || defined(CHIP_LPC11EXX) || defined(CHIP_LPC11AXX) || defined(CHIP_LPC1
 355:../../lpc_chip_11cxx_lib/inc/clock_11xx.h **** /**
 356:../../lpc_chip_11cxx_lib/inc/clock_11xx.h ****  * @brief	Set SSP1 divider clock
 357:../../lpc_chip_11cxx_lib/inc/clock_11xx.h ****  * @param	div	: divider for SSP1 clock
 358:../../lpc_chip_11cxx_lib/inc/clock_11xx.h ****  * @return	Nothing
 359:../../lpc_chip_11cxx_lib/inc/clock_11xx.h ****  * @note	Use 0 to disable, or a divider value of 1 to 255. The SSP1 clock
 360:../../lpc_chip_11cxx_lib/inc/clock_11xx.h ****  * rate is the main system clock divided by this value.
 361:../../lpc_chip_11cxx_lib/inc/clock_11xx.h ****  */
 362:../../lpc_chip_11cxx_lib/inc/clock_11xx.h **** STATIC INLINE void Chip_Clock_SetSSP1ClockDiv(uint32_t div)
 363:../../lpc_chip_11cxx_lib/inc/clock_11xx.h **** {
 364:../../lpc_chip_11cxx_lib/inc/clock_11xx.h **** 	LPC_SYSCTL->SSP1CLKDIV  = div;
 365:../../lpc_chip_11cxx_lib/inc/clock_11xx.h **** }
 366:../../lpc_chip_11cxx_lib/inc/clock_11xx.h **** 
 367:../../lpc_chip_11cxx_lib/inc/clock_11xx.h **** /**
 368:../../lpc_chip_11cxx_lib/inc/clock_11xx.h ****  * @brief	Return SSP1 divider
 369:../../lpc_chip_11cxx_lib/inc/clock_11xx.h ****  * @return	divider for SSP1 clock
 370:../../lpc_chip_11cxx_lib/inc/clock_11xx.h ****  * @note	A value of 0 means the clock is disabled.
 371:../../lpc_chip_11cxx_lib/inc/clock_11xx.h ****  */
 372:../../lpc_chip_11cxx_lib/inc/clock_11xx.h **** STATIC INLINE uint32_t Chip_Clock_GetSSP1ClockDiv(void)
 373:../../lpc_chip_11cxx_lib/inc/clock_11xx.h **** {
 374:../../lpc_chip_11cxx_lib/inc/clock_11xx.h **** 	return LPC_SYSCTL->SSP1CLKDIV;
 1888              		.loc 3 374 0
 1889 0016 194A     		ldr	r2, .L231+4	@ tmp132,
 1890 0018 9C23     		mov	r3, #156	@ tmp133,
 1891 001a D158     		ldr	r1, [r2, r3]	@ D.6941,
 1892              	.LBE496:
 1893              	.LBE495:
 159:../../lpc_chip_11cxx_lib/src/ssp_11xx.c **** 		sspCLK /= Chip_Clock_GetSSP1ClockDiv();
 1894              		.loc 1 159 0
 1895 001c FFF7FEFF 		bl	__aeabi_uidiv	@
 1896              	.LVL163:
 1897 0020 8046     		mov	r8, r0	@ ssp_clk,
 1898              	.LVL164:
 1899              	.L223:
 1900              	.LBE494:
 1901              	.LBE493:
 460:../../lpc_chip_11cxx_lib/src/ssp_11xx.c **** 	uint32_t ssp_clk, cr0_div, cmp_clk, prescale;
 461:../../lpc_chip_11cxx_lib/src/ssp_11xx.c **** 
 462:../../lpc_chip_11cxx_lib/src/ssp_11xx.c **** 	ssp_clk = Chip_SSP_GetPCLKkRate(pSSP);
 463:../../lpc_chip_11cxx_lib/src/ssp_11xx.c **** 
 464:../../lpc_chip_11cxx_lib/src/ssp_11xx.c **** 	cr0_div = 0;
 465:../../lpc_chip_11cxx_lib/src/ssp_11xx.c **** 	cmp_clk = 0xFFFFFFFF;
 466:../../lpc_chip_11cxx_lib/src/ssp_11xx.c **** 	prescale = 2;
 467:../../lpc_chip_11cxx_lib/src/ssp_11xx.c **** 
 468:../../lpc_chip_11cxx_lib/src/ssp_11xx.c **** 	while (cmp_clk > bitRate) {
 1902              		.loc 1 468 0
 1903 0022 7B1C     		add	r3, r7, #1	@, bitRate,
 1904 0024 24D0     		beq	.L228	@,
 466:../../lpc_chip_11cxx_lib/src/ssp_11xx.c **** 	prescale = 2;
ARM GAS  /var/folders/f9/8bk2lnw15zn4cbgn6wrnb4lm0000gn/T//ccCGlkPS.s 			page 60


 1905              		.loc 1 466 0
 1906 0026 0226     		mov	r6, #2	@ prescale,
 464:../../lpc_chip_11cxx_lib/src/ssp_11xx.c **** 	cr0_div = 0;
 1907              		.loc 1 464 0
 1908 0028 0025     		mov	r5, #0	@ cr0_div,
 1909              	.LVL165:
 1910              	.L227:
 469:../../lpc_chip_11cxx_lib/src/ssp_11xx.c **** 		cmp_clk = ssp_clk / ((cr0_div + 1) * prescale);
 1911              		.loc 1 469 0
 1912 002a 6C1C     		add	r4, r5, #1	@ cr0_div, cr0_div,
 1913              	.LVL166:
 1914 002c 311C     		mov	r1, r6	@ D.6940, prescale
 1915 002e 6143     		mul	r1, r4	@ D.6940, cr0_div
 1916 0030 4046     		mov	r0, r8	@, ssp_clk
 1917 0032 FFF7FEFF 		bl	__aeabi_uidiv	@
 1918              	.LVL167:
 470:../../lpc_chip_11cxx_lib/src/ssp_11xx.c **** 		if (cmp_clk > bitRate) {
 1919              		.loc 1 470 0
 1920 0036 8742     		cmp	r7, r0	@ bitRate, cmp_clk
 1921 0038 0DD3     		bcc	.L225	@,
 1922 003a 2D06     		lsl	r5, r5, #24	@ tmp143, cr0_div,
 1923              	.LVL168:
 1924 003c 2D0C     		lsr	r5, r5, #16	@ D.6940, tmp143,
 1925              	.LVL169:
 1926              	.L224:
 1927              	.LBB500:
 1928              	.LBB501:
 174:../../lpc_chip_11cxx_lib/src/ssp_11xx.c **** 	temp = pSSP->CR0 & (~(SSP_CR0_SCR(0xFF)));
 1929              		.loc 1 174 0
 1930 003e 4B46     		mov	r3, r9	@, pSSP
 1931 0040 1A68     		ldr	r2, [r3]	@ D.6940, pSSP_5(D)->CR0
 1932              	.LVL170:
 1933 0042 0F4B     		ldr	r3, .L231+8	@ tmp145,
 1934              	.LBE501:
 1935              	.LBE500:
 471:../../lpc_chip_11cxx_lib/src/ssp_11xx.c **** 			cr0_div++;
 472:../../lpc_chip_11cxx_lib/src/ssp_11xx.c **** 			if (cr0_div > 0xFF) {
 473:../../lpc_chip_11cxx_lib/src/ssp_11xx.c **** 				cr0_div = 0;
 474:../../lpc_chip_11cxx_lib/src/ssp_11xx.c **** 				prescale += 2;
 475:../../lpc_chip_11cxx_lib/src/ssp_11xx.c **** 			}
 476:../../lpc_chip_11cxx_lib/src/ssp_11xx.c **** 		}
 477:../../lpc_chip_11cxx_lib/src/ssp_11xx.c **** 	}
 478:../../lpc_chip_11cxx_lib/src/ssp_11xx.c **** 
 479:../../lpc_chip_11cxx_lib/src/ssp_11xx.c **** 	Chip_SSP_SetClockRate(pSSP, cr0_div, prescale);
 480:../../lpc_chip_11cxx_lib/src/ssp_11xx.c **** }
 1936              		.loc 1 480 0
 1937              		@ sp needed	@
 1938              	.LBB503:
 1939              	.LBB502:
 174:../../lpc_chip_11cxx_lib/src/ssp_11xx.c **** 	temp = pSSP->CR0 & (~(SSP_CR0_SCR(0xFF)));
 1940              		.loc 1 174 0
 1941 0044 1340     		and	r3, r2	@ temp, D.6940
 1942              	.LVL171:
 175:../../lpc_chip_11cxx_lib/src/ssp_11xx.c **** 	pSSP->CR0 = temp | (SSP_CR0_SCR(clk_rate));
 1943              		.loc 1 175 0
 1944 0046 1D43     		orr	r5, r3	@ D.6940, temp
 1945 0048 4B46     		mov	r3, r9	@, pSSP
ARM GAS  /var/folders/f9/8bk2lnw15zn4cbgn6wrnb4lm0000gn/T//ccCGlkPS.s 			page 61


 1946              	.LVL172:
 1947 004a 1D60     		str	r5, [r3]	@ D.6940, pSSP_5(D)->CR0
 176:../../lpc_chip_11cxx_lib/src/ssp_11xx.c **** 	pSSP->CPSR = prescale;
 1948              		.loc 1 176 0
 1949 004c 1E61     		str	r6, [r3, #16]	@ prescale, pSSP_5(D)->CPSR
 1950              	.LVL173:
 1951              	.LVL174:
 1952              	.LVL175:
 1953              	.LVL176:
 1954              	.LBE502:
 1955              	.LBE503:
 1956              		.loc 1 480 0
 1957 004e 0CBC     		pop	{r2, r3}
 1958 0050 9046     		mov	r8, r2
 1959 0052 9946     		mov	r9, r3
 1960 0054 F8BD     		pop	{r3, r4, r5, r6, r7, pc}
 1961              	.LVL177:
 1962              	.L225:
 472:../../lpc_chip_11cxx_lib/src/ssp_11xx.c **** 			if (cr0_div > 0xFF) {
 1963              		.loc 1 472 0
 1964 0056 FF2C     		cmp	r4, #255	@ cr0_div,
 1965 0058 01D9     		bls	.L226	@,
 1966              	.LVL178:
 474:../../lpc_chip_11cxx_lib/src/ssp_11xx.c **** 				prescale += 2;
 1967              		.loc 1 474 0
 1968 005a 0236     		add	r6, r6, #2	@ prescale,
 1969              	.LVL179:
 473:../../lpc_chip_11cxx_lib/src/ssp_11xx.c **** 				cr0_div = 0;
 1970              		.loc 1 473 0
 1971 005c 0024     		mov	r4, #0	@ cr0_div,
 1972              	.LVL180:
 1973              	.L226:
 459:../../lpc_chip_11cxx_lib/src/ssp_11xx.c **** {
 1974              		.loc 1 459 0
 1975 005e 251C     		mov	r5, r4	@ cr0_div, cr0_div
 1976 0060 E3E7     		b	.L227	@
 1977              	.LVL181:
 1978              	.L230:
 1979              	.LBB504:
 1980              	.LBB499:
 1981              	.LBB497:
 1982              	.LBB498:
 329:../../lpc_chip_11cxx_lib/inc/clock_11xx.h **** 	return LPC_SYSCTL->SSP0CLKDIV;
 1983              		.loc 3 329 0
 1984 0062 064A     		ldr	r2, .L231+4	@ tmp127,
 1985 0064 9423     		mov	r3, #148	@ tmp128,
 1986 0066 D158     		ldr	r1, [r2, r3]	@ D.6941,
 1987              	.LBE498:
 1988              	.LBE497:
 155:../../lpc_chip_11cxx_lib/src/ssp_11xx.c **** 		sspCLK /= Chip_Clock_GetSSP0ClockDiv();
 1989              		.loc 1 155 0
 1990 0068 FFF7FEFF 		bl	__aeabi_uidiv	@
 1991              	.LVL182:
 1992 006c 8046     		mov	r8, r0	@ ssp_clk,
 1993              	.LVL183:
 1994 006e D8E7     		b	.L223	@
 1995              	.LVL184:
ARM GAS  /var/folders/f9/8bk2lnw15zn4cbgn6wrnb4lm0000gn/T//ccCGlkPS.s 			page 62


 1996              	.L228:
 1997              	.LBE499:
 1998              	.LBE504:
 468:../../lpc_chip_11cxx_lib/src/ssp_11xx.c **** 	while (cmp_clk > bitRate) {
 1999              		.loc 1 468 0
 2000 0070 0025     		mov	r5, #0	@ D.6940,
 466:../../lpc_chip_11cxx_lib/src/ssp_11xx.c **** 	prescale = 2;
 2001              		.loc 1 466 0
 2002 0072 0226     		mov	r6, #2	@ prescale,
 2003 0074 E3E7     		b	.L224	@
 2004              	.L232:
 2005 0076 C046     		.align	2
 2006              	.L231:
 2007 0078 00000440 		.word	1074003968
 2008 007c 00800440 		.word	1074036736
 2009 0080 FF00FFFF 		.word	-65281
 2010              		.cfi_endproc
 2011              	.LFE214:
 2012              		.size	Chip_SSP_SetBitRate, .-Chip_SSP_SetBitRate
 2013              		.section	.text.Chip_SSP_Init,"ax",%progbits
 2014              		.align	2
 2015              		.global	Chip_SSP_Init
 2016              		.code	16
 2017              		.thumb_func
 2018              		.type	Chip_SSP_Init, %function
 2019              	Chip_SSP_Init:
 2020              	.LFB215:
 481:../../lpc_chip_11cxx_lib/src/ssp_11xx.c **** 
 482:../../lpc_chip_11cxx_lib/src/ssp_11xx.c **** /* Initialize the SSP */
 483:../../lpc_chip_11cxx_lib/src/ssp_11xx.c **** void Chip_SSP_Init(LPC_SSP_T *pSSP)
 484:../../lpc_chip_11cxx_lib/src/ssp_11xx.c **** {
 2021              		.loc 1 484 0
 2022              		.cfi_startproc
 2023              	.LVL185:
 2024              	.LBB505:
 2025              	.LBB506:
 109:../../lpc_chip_11cxx_lib/src/ssp_11xx.c **** 	if (pSSP == LPC_SSP0) {
 2026              		.loc 1 109 0
 2027 0000 194B     		ldr	r3, .L240	@ tmp126,
 2028              	.LBE506:
 2029              	.LBE505:
 2030              		.loc 1 484 0
 2031 0002 10B5     		push	{r4, lr}	@
 2032              		.cfi_def_cfa_offset 8
 2033              		.cfi_offset 4, -8
 2034              		.cfi_offset 14, -4
 2035              	.LBB508:
 2036              	.LBB507:
 109:../../lpc_chip_11cxx_lib/src/ssp_11xx.c **** 	if (pSSP == LPC_SSP0) {
 2037              		.loc 1 109 0
 2038 0004 9842     		cmp	r0, r3	@ pSSP, tmp126
 2039 0006 21D0     		beq	.L239	@,
 2040              	.LVL186:
 2041              	.LBE507:
 2042              	.LBE508:
 2043              	.LBB509:
 2044              	.LBB510:
ARM GAS  /var/folders/f9/8bk2lnw15zn4cbgn6wrnb4lm0000gn/T//ccCGlkPS.s 			page 63


 297:../../lpc_chip_11cxx_lib/inc/clock_11xx.h **** 	LPC_SYSCTL->SYSAHBCLKCTRL |= (1 << clk);
 2045              		.loc 3 297 0
 2046 0008 184B     		ldr	r3, .L240+4	@ tmp144,
 2047 000a 8022     		mov	r2, #128	@ tmp145,
 2048 000c 9C58     		ldr	r4, [r3, r2]	@ D.6944, MEM[(struct LPC_SYSCTL_T *)1074036736B].SYSAHBCLKCTRL
 2049 000e 8021     		mov	r1, #128	@ tmp152,
 2050 0010 C902     		lsl	r1, r1, #11	@ tmp146, tmp152,
 2051 0012 2143     		orr	r1, r4	@ D.6944, D.6944
 2052 0014 9950     		str	r1, [r3, r2]	@ D.6944, MEM[(struct LPC_SYSCTL_T *)1074036736B].SYSAHBCLKCTRL
 2053              	.LVL187:
 2054              	.LBE510:
 2055              	.LBE509:
 2056              	.LBB512:
 2057              	.LBB513:
 2058              	.LBB514:
 364:../../lpc_chip_11cxx_lib/inc/clock_11xx.h **** 	LPC_SYSCTL->SSP1CLKDIV  = div;
 2059              		.loc 3 364 0
 2060 0016 0121     		mov	r1, #1	@ tmp151,
 2061 0018 9C22     		mov	r2, #156	@ tmp150,
 2062 001a 9950     		str	r1, [r3, r2]	@ tmp151, MEM[(struct LPC_SYSCTL_T *)1074036736B].SSP1CLKDIV
 2063              	.LVL188:
 2064 001c 0522     		mov	r2, #5	@ tmp153,
 2065 001e 0421     		mov	r1, #4	@ D.6944,
 2066 0020 5242     		neg	r2, r2	@ D.6944, tmp153
 2067              	.LVL189:
 2068              	.L236:
 2069              	.LBE514:
 2070              	.LBE513:
 2071              	.LBE512:
 2072              	.LBB517:
 2073              	.LBB518:
 2074              	.LBB519:
 2075              		.file 4 "../../lpc_chip_11cxx_lib/inc/sysctl_11xx.h"
   1:../../lpc_chip_11cxx_lib/inc/sysctl_11xx.h **** /*
   2:../../lpc_chip_11cxx_lib/inc/sysctl_11xx.h ****  * @brief LPC11XX System Control registers and control functions
   3:../../lpc_chip_11cxx_lib/inc/sysctl_11xx.h ****  *
   4:../../lpc_chip_11cxx_lib/inc/sysctl_11xx.h ****  * @note
   5:../../lpc_chip_11cxx_lib/inc/sysctl_11xx.h ****  * Copyright(C) NXP Semiconductors, 2012
   6:../../lpc_chip_11cxx_lib/inc/sysctl_11xx.h ****  * All rights reserved.
   7:../../lpc_chip_11cxx_lib/inc/sysctl_11xx.h ****  *
   8:../../lpc_chip_11cxx_lib/inc/sysctl_11xx.h ****  * @par
   9:../../lpc_chip_11cxx_lib/inc/sysctl_11xx.h ****  * Software that is described herein is for illustrative purposes only
  10:../../lpc_chip_11cxx_lib/inc/sysctl_11xx.h ****  * which provides customers with programming information regarding the
  11:../../lpc_chip_11cxx_lib/inc/sysctl_11xx.h ****  * LPC products.  This software is supplied "AS IS" without any warranties of
  12:../../lpc_chip_11cxx_lib/inc/sysctl_11xx.h ****  * any kind, and NXP Semiconductors and its licensor disclaim any and
  13:../../lpc_chip_11cxx_lib/inc/sysctl_11xx.h ****  * all warranties, express or implied, including all implied warranties of
  14:../../lpc_chip_11cxx_lib/inc/sysctl_11xx.h ****  * merchantability, fitness for a particular purpose and non-infringement of
  15:../../lpc_chip_11cxx_lib/inc/sysctl_11xx.h ****  * intellectual property rights.  NXP Semiconductors assumes no responsibility
  16:../../lpc_chip_11cxx_lib/inc/sysctl_11xx.h ****  * or liability for the use of the software, conveys no license or rights under any
  17:../../lpc_chip_11cxx_lib/inc/sysctl_11xx.h ****  * patent, copyright, mask work right, or any other intellectual property rights in
  18:../../lpc_chip_11cxx_lib/inc/sysctl_11xx.h ****  * or to any products. NXP Semiconductors reserves the right to make changes
  19:../../lpc_chip_11cxx_lib/inc/sysctl_11xx.h ****  * in the software without notification. NXP Semiconductors also makes no
  20:../../lpc_chip_11cxx_lib/inc/sysctl_11xx.h ****  * representation or warranty that such application will be suitable for the
  21:../../lpc_chip_11cxx_lib/inc/sysctl_11xx.h ****  * specified use without further testing or modification.
  22:../../lpc_chip_11cxx_lib/inc/sysctl_11xx.h ****  *
  23:../../lpc_chip_11cxx_lib/inc/sysctl_11xx.h ****  * @par
  24:../../lpc_chip_11cxx_lib/inc/sysctl_11xx.h ****  * Permission to use, copy, modify, and distribute this software and its
ARM GAS  /var/folders/f9/8bk2lnw15zn4cbgn6wrnb4lm0000gn/T//ccCGlkPS.s 			page 64


  25:../../lpc_chip_11cxx_lib/inc/sysctl_11xx.h ****  * documentation is hereby granted, under NXP Semiconductors' and its
  26:../../lpc_chip_11cxx_lib/inc/sysctl_11xx.h ****  * licensor's relevant copyrights in the software, without fee, provided that it
  27:../../lpc_chip_11cxx_lib/inc/sysctl_11xx.h ****  * is used in conjunction with NXP Semiconductors microcontrollers.  This
  28:../../lpc_chip_11cxx_lib/inc/sysctl_11xx.h ****  * copyright, permission, and disclaimer notice must appear in all copies of
  29:../../lpc_chip_11cxx_lib/inc/sysctl_11xx.h ****  * this code.
  30:../../lpc_chip_11cxx_lib/inc/sysctl_11xx.h ****  */
  31:../../lpc_chip_11cxx_lib/inc/sysctl_11xx.h **** 
  32:../../lpc_chip_11cxx_lib/inc/sysctl_11xx.h **** #ifndef __SYSCTL_11XX_H_
  33:../../lpc_chip_11cxx_lib/inc/sysctl_11xx.h **** #define __SYSCTL_11XX_H_
  34:../../lpc_chip_11cxx_lib/inc/sysctl_11xx.h **** 
  35:../../lpc_chip_11cxx_lib/inc/sysctl_11xx.h **** #ifdef __cplusplus
  36:../../lpc_chip_11cxx_lib/inc/sysctl_11xx.h **** extern "C" {
  37:../../lpc_chip_11cxx_lib/inc/sysctl_11xx.h **** #endif
  38:../../lpc_chip_11cxx_lib/inc/sysctl_11xx.h **** 
  39:../../lpc_chip_11cxx_lib/inc/sysctl_11xx.h **** /** @defgroup SYSCTL_11XX CHIP: LPC11xx System Control block driver
  40:../../lpc_chip_11cxx_lib/inc/sysctl_11xx.h ****  * @ingroup CHIP_11XX_Drivers
  41:../../lpc_chip_11cxx_lib/inc/sysctl_11xx.h ****  * @{
  42:../../lpc_chip_11cxx_lib/inc/sysctl_11xx.h ****  */
  43:../../lpc_chip_11cxx_lib/inc/sysctl_11xx.h **** 
  44:../../lpc_chip_11cxx_lib/inc/sysctl_11xx.h **** /**
  45:../../lpc_chip_11cxx_lib/inc/sysctl_11xx.h ****  * @brief LPC11XX System Control block structure
  46:../../lpc_chip_11cxx_lib/inc/sysctl_11xx.h ****  */
  47:../../lpc_chip_11cxx_lib/inc/sysctl_11xx.h **** typedef struct {			/*!< SYSCTL Structure */
  48:../../lpc_chip_11cxx_lib/inc/sysctl_11xx.h **** 	__IO uint32_t  SYSMEMREMAP;		/*!< System Memory remap register */
  49:../../lpc_chip_11cxx_lib/inc/sysctl_11xx.h **** 	__IO uint32_t  PRESETCTRL;		/*!< Peripheral reset Control register */
  50:../../lpc_chip_11cxx_lib/inc/sysctl_11xx.h **** 	__IO uint32_t  SYSPLLCTRL;		/*!< System PLL control register */
  51:../../lpc_chip_11cxx_lib/inc/sysctl_11xx.h **** 	__I  uint32_t  SYSPLLSTAT;		/*!< System PLL status register */
  52:../../lpc_chip_11cxx_lib/inc/sysctl_11xx.h **** 	__IO uint32_t  USBPLLCTRL;		/*!< USB PLL control register, LPC11UXX only*/
  53:../../lpc_chip_11cxx_lib/inc/sysctl_11xx.h **** 	__I  uint32_t  USBPLLSTAT;		/*!< USB PLL status register, LPC11UXX only */
  54:../../lpc_chip_11cxx_lib/inc/sysctl_11xx.h **** 	__I  uint32_t  RESERVED1[2];
  55:../../lpc_chip_11cxx_lib/inc/sysctl_11xx.h **** 	__IO uint32_t  SYSOSCCTRL;		/*!< System Oscillator control register */
  56:../../lpc_chip_11cxx_lib/inc/sysctl_11xx.h **** 	__IO uint32_t  WDTOSCCTRL;		/*!< Watchdog Oscillator control register */
  57:../../lpc_chip_11cxx_lib/inc/sysctl_11xx.h **** 	__IO uint32_t  IRCCTRL;			/*!< IRC control register, not on LPC11UXX and LPC11EXX */
  58:../../lpc_chip_11cxx_lib/inc/sysctl_11xx.h **** 	__IO uint32_t  LFOSCCTRL;		/*!< LF oscillator control, LPC11AXX only */
  59:../../lpc_chip_11cxx_lib/inc/sysctl_11xx.h **** 	__IO uint32_t  SYSRSTSTAT;		/*!< System Reset Status register           */
  60:../../lpc_chip_11cxx_lib/inc/sysctl_11xx.h **** 	__I  uint32_t  RESERVED2[3];
  61:../../lpc_chip_11cxx_lib/inc/sysctl_11xx.h **** 	__IO uint32_t  SYSPLLCLKSEL;	/*!< System PLL clock source select register */
  62:../../lpc_chip_11cxx_lib/inc/sysctl_11xx.h **** 	__IO uint32_t  SYSPLLCLKUEN;	/*!< System PLL clock source update enable register*/
  63:../../lpc_chip_11cxx_lib/inc/sysctl_11xx.h **** 	__IO uint32_t  USBPLLCLKSEL;	/*!< USB PLL clock source select register, LPC11UXX only */
  64:../../lpc_chip_11cxx_lib/inc/sysctl_11xx.h **** 	__IO uint32_t  USBPLLCLKUEN;	/*!< USB PLL clock source update enable register, LPC11UXX only */
  65:../../lpc_chip_11cxx_lib/inc/sysctl_11xx.h **** 	__I  uint32_t  RESERVED3[8];
  66:../../lpc_chip_11cxx_lib/inc/sysctl_11xx.h **** 	__IO uint32_t  MAINCLKSEL;	/*!< Main clock source select register		*/
  67:../../lpc_chip_11cxx_lib/inc/sysctl_11xx.h **** 	__IO uint32_t  MAINCLKUEN;	/*!< Main clock source update enable register	*/
  68:../../lpc_chip_11cxx_lib/inc/sysctl_11xx.h **** 	__IO uint32_t  SYSAHBCLKDIV;	/*!< System Clock divider register */
  69:../../lpc_chip_11cxx_lib/inc/sysctl_11xx.h **** 	__I  uint32_t  RESERVED4;
  70:../../lpc_chip_11cxx_lib/inc/sysctl_11xx.h **** 	__IO uint32_t  SYSAHBCLKCTRL;	/*!< System clock control register */
  71:../../lpc_chip_11cxx_lib/inc/sysctl_11xx.h **** 	__I  uint32_t  RESERVED5[4];
  72:../../lpc_chip_11cxx_lib/inc/sysctl_11xx.h **** 	__IO uint32_t  SSP0CLKDIV;	/*!< SSP0 clock divider register   */
  73:../../lpc_chip_11cxx_lib/inc/sysctl_11xx.h **** 	__IO uint32_t  USARTCLKDIV;	/*!< UART clock divider register   */
  74:../../lpc_chip_11cxx_lib/inc/sysctl_11xx.h **** 	__IO uint32_t  SSP1CLKDIV;	/*!< SSP1 clock divider register, not on CHIP_LPC110X, CHIP_LPC11XXLV *
  75:../../lpc_chip_11cxx_lib/inc/sysctl_11xx.h **** 	__I  uint32_t  RESERVED6[8];
  76:../../lpc_chip_11cxx_lib/inc/sysctl_11xx.h **** 	__IO uint32_t  USBCLKSEL;	/*!< USB clock source select register, LPC11UXX only */
  77:../../lpc_chip_11cxx_lib/inc/sysctl_11xx.h **** 	__IO uint32_t  USBCLKUEN;	/*!< USB clock source update enable register, LPC11UXX only */
  78:../../lpc_chip_11cxx_lib/inc/sysctl_11xx.h **** 	__IO uint32_t  USBCLKDIV;	/*!< USB clock source divider register, LPC11UXX only */
  79:../../lpc_chip_11cxx_lib/inc/sysctl_11xx.h **** 	__I  uint32_t  RESERVED7;
  80:../../lpc_chip_11cxx_lib/inc/sysctl_11xx.h **** 	__IO uint32_t  WDTCLKSEL;	/*!< WDT clock source select register, some parts only */
  81:../../lpc_chip_11cxx_lib/inc/sysctl_11xx.h **** 	__IO uint32_t  WDTCLKUEN;	/*!< WDT clock source update enable register, some parts only */
ARM GAS  /var/folders/f9/8bk2lnw15zn4cbgn6wrnb4lm0000gn/T//ccCGlkPS.s 			page 65


  82:../../lpc_chip_11cxx_lib/inc/sysctl_11xx.h **** 	__IO uint32_t  WDTCLKDIV;	/*!< WDT clock divider register, some parts only */
  83:../../lpc_chip_11cxx_lib/inc/sysctl_11xx.h **** 	__I  uint32_t  RESERVED8;
  84:../../lpc_chip_11cxx_lib/inc/sysctl_11xx.h **** 	__IO uint32_t  CLKOUTSEL;	/*!< Clock out source select register, not on LPC1102/04 */
  85:../../lpc_chip_11cxx_lib/inc/sysctl_11xx.h **** 	__IO uint32_t  CLKOUTUEN;	/*!< Clock out source update enable register, not on LPC1102/04 */
  86:../../lpc_chip_11cxx_lib/inc/sysctl_11xx.h **** 	__IO uint32_t  CLKOUTDIV;	/*!< Clock out divider register, not on LPC1102/04 */
  87:../../lpc_chip_11cxx_lib/inc/sysctl_11xx.h **** 	__I  uint32_t  RESERVED9[5];
  88:../../lpc_chip_11cxx_lib/inc/sysctl_11xx.h **** 	__I  uint32_t  PIOPORCAP[2];/*!< POR captured PIO status registers, index 1 on LPC1102/04 */
  89:../../lpc_chip_11cxx_lib/inc/sysctl_11xx.h **** 	__I  uint32_t  RESERVED10[18];
  90:../../lpc_chip_11cxx_lib/inc/sysctl_11xx.h **** 	__IO uint32_t  BODCTRL;		/*!< Brown Out Detect register */
  91:../../lpc_chip_11cxx_lib/inc/sysctl_11xx.h **** 	__IO uint32_t  SYSTCKCAL;	/*!< System tick counter calibration register */
  92:../../lpc_chip_11cxx_lib/inc/sysctl_11xx.h **** 	__I  uint32_t  RESERVED11[6];
  93:../../lpc_chip_11cxx_lib/inc/sysctl_11xx.h **** 	__IO uint32_t  IRQLATENCY;	/*!< IRQ delay register, on LPC11UXX and LPC11EXX only */
  94:../../lpc_chip_11cxx_lib/inc/sysctl_11xx.h **** 	__IO uint32_t  NMISRC;		/*!< NMI source control register,some parts only */
  95:../../lpc_chip_11cxx_lib/inc/sysctl_11xx.h **** 	__IO uint32_t  PINTSEL[8];	/*!< GPIO pin interrupt select register 0-7, not on CHIP_LPC110X, CHIP_
  96:../../lpc_chip_11cxx_lib/inc/sysctl_11xx.h **** 	__IO uint32_t  USBCLKCTRL;	/*!< USB clock control register, LPC11UXX only */
  97:../../lpc_chip_11cxx_lib/inc/sysctl_11xx.h **** 	__I  uint32_t  USBCLKST;	/*!< USB clock status register, LPC11UXX only */
  98:../../lpc_chip_11cxx_lib/inc/sysctl_11xx.h **** 	__I  uint32_t  RESERVED12[24];
  99:../../lpc_chip_11cxx_lib/inc/sysctl_11xx.h **** 	__IO uint32_t  STARTAPRP0;	/*!< Start loigc 0 interrupt wake up enable register 0, on CHIP_LPC110X
 100:../../lpc_chip_11cxx_lib/inc/sysctl_11xx.h **** 	__IO uint32_t  STARTERP0;	/*!< Start loigc signal enable register 0, not on LPC11AXX */
 101:../../lpc_chip_11cxx_lib/inc/sysctl_11xx.h **** 	__IO uint32_t  STARTRSRP0CLR;	/*!< Start loigc reset register 0, on CHIP_LPC110X, CHIP_LPC11XXLV, 
 102:../../lpc_chip_11cxx_lib/inc/sysctl_11xx.h **** 	__IO uint32_t  STARTSRP0;		/*!< Start loigc status register 0, on CHIP_LPC110X, CHIP_LPC11XXLV, CH
 103:../../lpc_chip_11cxx_lib/inc/sysctl_11xx.h **** 	__I  uint32_t  RESERVED13;
 104:../../lpc_chip_11cxx_lib/inc/sysctl_11xx.h **** 	__IO uint32_t  STARTERP1;	/*!< Start logic 1 interrupt wake up enable register 1, on LPC11UXX and 
 105:../../lpc_chip_11cxx_lib/inc/sysctl_11xx.h **** 	__I  uint32_t  RESERVED14[6];
 106:../../lpc_chip_11cxx_lib/inc/sysctl_11xx.h **** 	__IO uint32_t  PDSLEEPCFG;	/*!< Power down states in deep sleep mode register, not on LPC11AXX */
 107:../../lpc_chip_11cxx_lib/inc/sysctl_11xx.h **** 	__IO uint32_t  PDWAKECFG;	/*!< Power down states in wake up from deep sleep register, not on LPC11
 108:../../lpc_chip_11cxx_lib/inc/sysctl_11xx.h **** 	__IO uint32_t  PDRUNCFG;	/*!< Power configuration register*/
 109:../../lpc_chip_11cxx_lib/inc/sysctl_11xx.h **** 	__I  uint32_t  RESERVED15[110];
 110:../../lpc_chip_11cxx_lib/inc/sysctl_11xx.h **** 	__I  uint32_t  DEVICEID;	/*!< Device ID register */
 111:../../lpc_chip_11cxx_lib/inc/sysctl_11xx.h **** } LPC_SYSCTL_T;
 112:../../lpc_chip_11cxx_lib/inc/sysctl_11xx.h **** 
 113:../../lpc_chip_11cxx_lib/inc/sysctl_11xx.h **** /**
 114:../../lpc_chip_11cxx_lib/inc/sysctl_11xx.h ****  * System memory remap modes used to remap interrupt vectors
 115:../../lpc_chip_11cxx_lib/inc/sysctl_11xx.h ****  */
 116:../../lpc_chip_11cxx_lib/inc/sysctl_11xx.h **** typedef enum CHIP_SYSCTL_BOOT_MODE_REMAP {
 117:../../lpc_chip_11cxx_lib/inc/sysctl_11xx.h **** 	REMAP_BOOT_LOADER_MODE,	/*!< Interrupt vectors are re-mapped to Boot ROM */
 118:../../lpc_chip_11cxx_lib/inc/sysctl_11xx.h **** 	REMAP_USER_RAM_MODE,	/*!< Interrupt vectors are re-mapped to Static RAM */
 119:../../lpc_chip_11cxx_lib/inc/sysctl_11xx.h **** 	REMAP_USER_FLASH_MODE	/*!< Interrupt vectors are not re-mapped and reside in Flash */
 120:../../lpc_chip_11cxx_lib/inc/sysctl_11xx.h **** } CHIP_SYSCTL_BOOT_MODE_REMAP_T;
 121:../../lpc_chip_11cxx_lib/inc/sysctl_11xx.h **** 
 122:../../lpc_chip_11cxx_lib/inc/sysctl_11xx.h **** /**
 123:../../lpc_chip_11cxx_lib/inc/sysctl_11xx.h ****  * @brief	Re-map interrupt vectors
 124:../../lpc_chip_11cxx_lib/inc/sysctl_11xx.h ****  * @param	remap	: system memory map value
 125:../../lpc_chip_11cxx_lib/inc/sysctl_11xx.h ****  * @return	Nothing
 126:../../lpc_chip_11cxx_lib/inc/sysctl_11xx.h ****  */
 127:../../lpc_chip_11cxx_lib/inc/sysctl_11xx.h **** STATIC INLINE void Chip_SYSCTL_Map(CHIP_SYSCTL_BOOT_MODE_REMAP_T remap)
 128:../../lpc_chip_11cxx_lib/inc/sysctl_11xx.h **** {
 129:../../lpc_chip_11cxx_lib/inc/sysctl_11xx.h **** 	LPC_SYSCTL->SYSMEMREMAP = (uint32_t) remap;
 130:../../lpc_chip_11cxx_lib/inc/sysctl_11xx.h **** }
 131:../../lpc_chip_11cxx_lib/inc/sysctl_11xx.h **** 
 132:../../lpc_chip_11cxx_lib/inc/sysctl_11xx.h **** /**
 133:../../lpc_chip_11cxx_lib/inc/sysctl_11xx.h ****  * Peripheral reset identifiers, not available on all devices
 134:../../lpc_chip_11cxx_lib/inc/sysctl_11xx.h ****  */
 135:../../lpc_chip_11cxx_lib/inc/sysctl_11xx.h **** typedef enum {
 136:../../lpc_chip_11cxx_lib/inc/sysctl_11xx.h **** 	RESET_SSP0,			/*!< SSP0 reset control */
 137:../../lpc_chip_11cxx_lib/inc/sysctl_11xx.h **** 	RESET_I2C0,			/*!< I2C0 reset control */
 138:../../lpc_chip_11cxx_lib/inc/sysctl_11xx.h **** 	RESET_SSP1,			/*!< SSP1 reset control */
ARM GAS  /var/folders/f9/8bk2lnw15zn4cbgn6wrnb4lm0000gn/T//ccCGlkPS.s 			page 66


 139:../../lpc_chip_11cxx_lib/inc/sysctl_11xx.h **** #if !defined(CHIP_LPC1125)
 140:../../lpc_chip_11cxx_lib/inc/sysctl_11xx.h **** 	RESET_CAN0,			/*!< CAN0 reset control */
 141:../../lpc_chip_11cxx_lib/inc/sysctl_11xx.h **** 	RESET_UART0,		/*!< UART0 reset control */
 142:../../lpc_chip_11cxx_lib/inc/sysctl_11xx.h **** 	RESET_TIMER0_16,	/*!< 16-bit Timer 0 reset control */
 143:../../lpc_chip_11cxx_lib/inc/sysctl_11xx.h **** 	RESET_TIMER1_16,	/*!< 16-bit Timer 1 reset control */
 144:../../lpc_chip_11cxx_lib/inc/sysctl_11xx.h **** 	RESET_TIMER0_32,	/*!< 32-bit Timer 0 reset control */
 145:../../lpc_chip_11cxx_lib/inc/sysctl_11xx.h **** 	RESET_TIMER1_32,	/*!< 32-bit Timer 1 reset control */
 146:../../lpc_chip_11cxx_lib/inc/sysctl_11xx.h **** 	RESET_ACMP,			/*!< Analog comparator reset control */
 147:../../lpc_chip_11cxx_lib/inc/sysctl_11xx.h **** 	RESET_DAC0,			/*!< DAC reset control */
 148:../../lpc_chip_11cxx_lib/inc/sysctl_11xx.h **** 	RESET_ADC0			/*!< ADC reset control */
 149:../../lpc_chip_11cxx_lib/inc/sysctl_11xx.h **** #endif
 150:../../lpc_chip_11cxx_lib/inc/sysctl_11xx.h **** } CHIP_SYSCTL_PERIPH_RESET_T;
 151:../../lpc_chip_11cxx_lib/inc/sysctl_11xx.h **** 
 152:../../lpc_chip_11cxx_lib/inc/sysctl_11xx.h **** /**
 153:../../lpc_chip_11cxx_lib/inc/sysctl_11xx.h ****  * @brief	Assert reset for a peripheral
 154:../../lpc_chip_11cxx_lib/inc/sysctl_11xx.h ****  * @param	periph	: Peripheral to assert reset for
 155:../../lpc_chip_11cxx_lib/inc/sysctl_11xx.h ****  * @return	Nothing
 156:../../lpc_chip_11cxx_lib/inc/sysctl_11xx.h ****  * @note	The peripheral will stay in reset until reset is de-asserted. Call
 157:../../lpc_chip_11cxx_lib/inc/sysctl_11xx.h ****  * Chip_SYSCTL_DeassertPeriphReset() to de-assert the reset.
 158:../../lpc_chip_11cxx_lib/inc/sysctl_11xx.h ****  */
 159:../../lpc_chip_11cxx_lib/inc/sysctl_11xx.h **** STATIC INLINE void Chip_SYSCTL_AssertPeriphReset(CHIP_SYSCTL_PERIPH_RESET_T periph)
 160:../../lpc_chip_11cxx_lib/inc/sysctl_11xx.h **** {
 161:../../lpc_chip_11cxx_lib/inc/sysctl_11xx.h **** 	LPC_SYSCTL->PRESETCTRL &= ~(1 << (uint32_t) periph);
 2076              		.loc 4 161 0
 2077 0022 124B     		ldr	r3, .L240+4	@ tmp127,
 2078              	.LBE519:
 2079              	.LBE518:
 2080              	.LBE517:
 485:../../lpc_chip_11cxx_lib/src/ssp_11xx.c **** 	Chip_Clock_EnablePeriphClock(Chip_SSP_GetClockIndex(pSSP));
 486:../../lpc_chip_11cxx_lib/src/ssp_11xx.c **** 	Chip_SSP_SetSSPClkDivider(pSSP, 1);
 487:../../lpc_chip_11cxx_lib/src/ssp_11xx.c **** 	Chip_SYSCTL_PeriphReset(Chip_SSP_GetResetIndex(pSSP));
 488:../../lpc_chip_11cxx_lib/src/ssp_11xx.c **** 
 489:../../lpc_chip_11cxx_lib/src/ssp_11xx.c **** 	Chip_SSP_Set_Mode(pSSP, SSP_MODE_MASTER);
 490:../../lpc_chip_11cxx_lib/src/ssp_11xx.c **** 	Chip_SSP_SetFormat(pSSP, SSP_BITS_8, SSP_FRAMEFORMAT_SPI, SSP_CLOCK_CPHA0_CPOL0);
 491:../../lpc_chip_11cxx_lib/src/ssp_11xx.c **** 	Chip_SSP_SetBitRate(pSSP, 100000);
 492:../../lpc_chip_11cxx_lib/src/ssp_11xx.c **** }
 2081              		.loc 1 492 0
 2082              		@ sp needed	@
 2083              	.LBB524:
 2084              	.LBB521:
 2085              	.LBB520:
 2086              		.loc 4 161 0
 2087 0024 5C68     		ldr	r4, [r3, #4]	@ D.6944, MEM[(struct LPC_SYSCTL_T *)1074036736B].PRESETCTRL
 2088 0026 2240     		and	r2, r4	@ D.6944, D.6944
 2089 0028 5A60     		str	r2, [r3, #4]	@ D.6944, MEM[(struct LPC_SYSCTL_T *)1074036736B].PRESETCTRL
 2090              	.LBE520:
 2091              	.LBE521:
 2092              	.LBB522:
 2093              	.LBB523:
 162:../../lpc_chip_11cxx_lib/inc/sysctl_11xx.h **** }
 163:../../lpc_chip_11cxx_lib/inc/sysctl_11xx.h **** 
 164:../../lpc_chip_11cxx_lib/inc/sysctl_11xx.h **** /**
 165:../../lpc_chip_11cxx_lib/inc/sysctl_11xx.h ****  * @brief	De-assert reset for a peripheral
 166:../../lpc_chip_11cxx_lib/inc/sysctl_11xx.h ****  * @param	periph	: Peripheral to de-assert reset for
 167:../../lpc_chip_11cxx_lib/inc/sysctl_11xx.h ****  * @return	Nothing
 168:../../lpc_chip_11cxx_lib/inc/sysctl_11xx.h ****  */
 169:../../lpc_chip_11cxx_lib/inc/sysctl_11xx.h **** STATIC INLINE void Chip_SYSCTL_DeassertPeriphReset(CHIP_SYSCTL_PERIPH_RESET_T periph)
ARM GAS  /var/folders/f9/8bk2lnw15zn4cbgn6wrnb4lm0000gn/T//ccCGlkPS.s 			page 67


 170:../../lpc_chip_11cxx_lib/inc/sysctl_11xx.h **** {
 171:../../lpc_chip_11cxx_lib/inc/sysctl_11xx.h **** 	LPC_SYSCTL->PRESETCTRL |= (1 << (uint32_t) periph);
 2094              		.loc 4 171 0
 2095 002a 5A68     		ldr	r2, [r3, #4]	@ D.6944, MEM[(struct LPC_SYSCTL_T *)1074036736B].PRESETCTRL
 2096 002c 1143     		orr	r1, r2	@ D.6944, D.6944
 2097 002e 5960     		str	r1, [r3, #4]	@ D.6944, MEM[(struct LPC_SYSCTL_T *)1074036736B].PRESETCTRL
 2098              	.LVL190:
 2099              	.LBE523:
 2100              	.LBE522:
 2101              	.LBE524:
 2102              	.LBB525:
 2103              	.LBB526:
 2104              		.loc 2 421 0
 2105 0030 4368     		ldr	r3, [r0, #4]	@ D.6944, pSSP_1(D)->CR1
 2106 0032 0422     		mov	r2, #4	@ tmp131,
 2107 0034 9343     		bic	r3, r2	@ D.6944, tmp131
 2108 0036 4360     		str	r3, [r0, #4]	@ D.6944, pSSP_1(D)->CR1
 2109              	.LVL191:
 2110              	.LBE526:
 2111              	.LBE525:
 2112              	.LBB527:
 2113              	.LBB528:
 408:../../lpc_chip_11cxx_lib/inc/ssp_11xx.h **** 	pSSP->CR0 = (pSSP->CR0 & ~0xFF) | bits | frameFormat | clockMode;
 2114              		.loc 2 408 0
 2115 0038 0368     		ldr	r3, [r0]	@ D.6944, pSSP_1(D)->CR0
 2116 003a FF22     		mov	r2, #255	@ tmp133,
 2117 003c 9343     		bic	r3, r2	@ D.6944, tmp133
 2118 003e 0722     		mov	r2, #7	@ tmp134,
 2119 0040 1343     		orr	r3, r2	@ D.6944, tmp134
 2120 0042 0360     		str	r3, [r0]	@ D.6944, pSSP_1(D)->CR0
 2121              	.LBE528:
 2122              	.LBE527:
 491:../../lpc_chip_11cxx_lib/src/ssp_11xx.c **** 	Chip_SSP_SetBitRate(pSSP, 100000);
 2123              		.loc 1 491 0
 2124 0044 0A49     		ldr	r1, .L240+8	@,
 2125 0046 FFF7FEFF 		bl	Chip_SSP_SetBitRate	@
 2126              	.LVL192:
 2127              		.loc 1 492 0
 2128 004a 10BD     		pop	{r4, pc}
 2129              	.LVL193:
 2130              	.L239:
 2131              	.LBB529:
 2132              	.LBB511:
 297:../../lpc_chip_11cxx_lib/inc/clock_11xx.h **** 	LPC_SYSCTL->SYSAHBCLKCTRL |= (1 << clk);
 2133              		.loc 3 297 0
 2134 004c 074B     		ldr	r3, .L240+4	@ tmp136,
 2135 004e 8022     		mov	r2, #128	@ tmp137,
 2136 0050 9C58     		ldr	r4, [r3, r2]	@ D.6944, MEM[(struct LPC_SYSCTL_T *)1074036736B].SYSAHBCLKCTRL
 2137 0052 8021     		mov	r1, #128	@ tmp154,
 2138 0054 0901     		lsl	r1, r1, #4	@ tmp138, tmp154,
 2139 0056 2143     		orr	r1, r4	@ D.6944, D.6944
 2140 0058 9950     		str	r1, [r3, r2]	@ D.6944, MEM[(struct LPC_SYSCTL_T *)1074036736B].SYSAHBCLKCTRL
 2141              	.LVL194:
 2142              	.LBE511:
 2143              	.LBE529:
 2144              	.LBB530:
 2145              	.LBB515:
ARM GAS  /var/folders/f9/8bk2lnw15zn4cbgn6wrnb4lm0000gn/T//ccCGlkPS.s 			page 68


 2146              	.LBB516:
 319:../../lpc_chip_11cxx_lib/inc/clock_11xx.h **** 	LPC_SYSCTL->SSP0CLKDIV  = div;
 2147              		.loc 3 319 0
 2148 005a 9422     		mov	r2, #148	@ tmp142,
 2149 005c 0121     		mov	r1, #1	@ tmp143,
 2150 005e 9950     		str	r1, [r3, r2]	@ tmp143, MEM[(struct LPC_SYSCTL_T *)1074036736B].SSP0CLKDIV
 2151              	.LVL195:
 2152 0060 0222     		mov	r2, #2	@ tmp155,
 2153 0062 5242     		neg	r2, r2	@ D.6944, tmp155
 2154 0064 DDE7     		b	.L236	@
 2155              	.L241:
 2156 0066 C046     		.align	2
 2157              	.L240:
 2158 0068 00000440 		.word	1074003968
 2159 006c 00800440 		.word	1074036736
 2160 0070 A0860100 		.word	100000
 2161              	.LBE516:
 2162              	.LBE515:
 2163              	.LBE530:
 2164              		.cfi_endproc
 2165              	.LFE215:
 2166              		.size	Chip_SSP_Init, .-Chip_SSP_Init
 2167              		.section	.text.Chip_SSP_DeInit,"ax",%progbits
 2168              		.align	2
 2169              		.global	Chip_SSP_DeInit
 2170              		.code	16
 2171              		.thumb_func
 2172              		.type	Chip_SSP_DeInit, %function
 2173              	Chip_SSP_DeInit:
 2174              	.LFB216:
 493:../../lpc_chip_11cxx_lib/src/ssp_11xx.c **** 
 494:../../lpc_chip_11cxx_lib/src/ssp_11xx.c **** /* De-initializes the SSP peripheral */
 495:../../lpc_chip_11cxx_lib/src/ssp_11xx.c **** void Chip_SSP_DeInit(LPC_SSP_T *pSSP)
 496:../../lpc_chip_11cxx_lib/src/ssp_11xx.c **** {
 2175              		.loc 1 496 0
 2176              		.cfi_startproc
 2177              	.LVL196:
 2178              	.LBB531:
 2179              	.LBB532:
 244:../../lpc_chip_11cxx_lib/inc/ssp_11xx.h **** 	pSSP->CR1 &= (~SSP_CR1_SSP_EN) & SSP_CR1_BITMASK;
 2180              		.loc 2 244 0
 2181 0000 4368     		ldr	r3, [r0, #4]	@ D.6947, pSSP_2(D)->CR1
 2182 0002 0D22     		mov	r2, #13	@ tmp117,
 2183 0004 1340     		and	r3, r2	@ D.6947, tmp117
 2184 0006 4360     		str	r3, [r0, #4]	@ D.6947, pSSP_2(D)->CR1
 2185              	.LVL197:
 2186              	.LBE532:
 2187              	.LBE531:
 2188              	.LBB533:
 2189              	.LBB534:
 109:../../lpc_chip_11cxx_lib/src/ssp_11xx.c **** 	if (pSSP == LPC_SSP0) {
 2190              		.loc 1 109 0
 2191 0008 0B4B     		ldr	r3, .L248	@ tmp118,
 2192 000a 9842     		cmp	r0, r3	@ pSSP, tmp118
 2193 000c 09D0     		beq	.L247	@,
 2194              	.LVL198:
 2195              	.LBE534:
ARM GAS  /var/folders/f9/8bk2lnw15zn4cbgn6wrnb4lm0000gn/T//ccCGlkPS.s 			page 69


 2196              	.LBE533:
 2197              	.LBB535:
 2198              	.LBB536:
 307:../../lpc_chip_11cxx_lib/inc/clock_11xx.h **** 	LPC_SYSCTL->SYSAHBCLKCTRL &= ~(1 << clk);
 2199              		.loc 3 307 0
 2200 000e 0B4B     		ldr	r3, .L248+4	@ tmp127,
 2201 0010 8022     		mov	r2, #128	@ tmp128,
 2202 0012 9858     		ldr	r0, [r3, r2]	@ D.6947,
 2203              	.LVL199:
 2204 0014 0A49     		ldr	r1, .L248+8	@ tmp129,
 2205 0016 0140     		and	r1, r0	@ D.6947, D.6947
 2206 0018 9950     		str	r1, [r3, r2]	@ D.6947, MEM[(struct LPC_SYSCTL_T *)1074036736B].SYSAHBCLKCTRL
 2207              	.LVL200:
 2208              	.LBE536:
 2209              	.LBE535:
 2210              	.LBB538:
 2211              	.LBB539:
 2212              	.LBB540:
 364:../../lpc_chip_11cxx_lib/inc/clock_11xx.h **** 	LPC_SYSCTL->SSP1CLKDIV  = div;
 2213              		.loc 3 364 0
 2214 001a 0021     		mov	r1, #0	@ tmp134,
 2215 001c 9C22     		mov	r2, #156	@ tmp133,
 2216 001e 9950     		str	r1, [r3, r2]	@ tmp134,
 2217              	.LVL201:
 2218              	.L242:
 2219              	.LBE540:
 2220              	.LBE539:
 2221              	.LBE538:
 497:../../lpc_chip_11cxx_lib/src/ssp_11xx.c **** 	Chip_SSP_Disable(pSSP);
 498:../../lpc_chip_11cxx_lib/src/ssp_11xx.c **** 
 499:../../lpc_chip_11cxx_lib/src/ssp_11xx.c **** 	Chip_Clock_DisablePeriphClock(Chip_SSP_GetClockIndex(pSSP));
 500:../../lpc_chip_11cxx_lib/src/ssp_11xx.c **** 	Chip_SSP_SetSSPClkDivider(pSSP, 0);
 501:../../lpc_chip_11cxx_lib/src/ssp_11xx.c **** }
 2222              		.loc 1 501 0
 2223              		@ sp needed	@
 2224 0020 7047     		bx	lr
 2225              	.LVL202:
 2226              	.L247:
 2227              	.LBB543:
 2228              	.LBB537:
 307:../../lpc_chip_11cxx_lib/inc/clock_11xx.h **** 	LPC_SYSCTL->SYSAHBCLKCTRL &= ~(1 << clk);
 2229              		.loc 3 307 0
 2230 0022 064B     		ldr	r3, .L248+4	@ tmp119,
 2231 0024 8022     		mov	r2, #128	@ tmp120,
 2232 0026 9858     		ldr	r0, [r3, r2]	@ D.6947,
 2233              	.LVL203:
 2234 0028 0649     		ldr	r1, .L248+12	@ tmp121,
 2235 002a 0140     		and	r1, r0	@ D.6947, D.6947
 2236 002c 9950     		str	r1, [r3, r2]	@ D.6947, MEM[(struct LPC_SYSCTL_T *)1074036736B].SYSAHBCLKCTRL
 2237              	.LVL204:
 2238              	.LBE537:
 2239              	.LBE543:
 2240              	.LBB544:
 2241              	.LBB541:
 2242              	.LBB542:
 319:../../lpc_chip_11cxx_lib/inc/clock_11xx.h **** 	LPC_SYSCTL->SSP0CLKDIV  = div;
 2243              		.loc 3 319 0
ARM GAS  /var/folders/f9/8bk2lnw15zn4cbgn6wrnb4lm0000gn/T//ccCGlkPS.s 			page 70


 2244 002e 0021     		mov	r1, #0	@ tmp126,
 2245 0030 9422     		mov	r2, #148	@ tmp125,
 2246 0032 9950     		str	r1, [r3, r2]	@ tmp126,
 2247 0034 F4E7     		b	.L242	@
 2248              	.L249:
 2249 0036 C046     		.align	2
 2250              	.L248:
 2251 0038 00000440 		.word	1074003968
 2252 003c 00800440 		.word	1074036736
 2253 0040 FFFFFBFF 		.word	-262145
 2254 0044 FFF7FFFF 		.word	-2049
 2255              	.LBE542:
 2256              	.LBE541:
 2257              	.LBE544:
 2258              		.cfi_endproc
 2259              	.LFE216:
 2260              		.size	Chip_SSP_DeInit, .-Chip_SSP_DeInit
 2261              		.text
 2262              	.Letext0:
 2263              		.file 5 "/usr/local/Cellar/gcc-arm-none-eabi/20140805/arm-none-eabi/include/machine/_default_types
 2264              		.file 6 "/usr/local/Cellar/gcc-arm-none-eabi/20140805/arm-none-eabi/include/stdint.h"
 2265              		.file 7 "../../lpc_chip_11cxx_lib/inc/lpc_types.h"
 2266              		.file 8 "../../lpc_chip_11cxx_lib/inc/chip.h"