ARM GAS  /var/folders/f9/8bk2lnw15zn4cbgn6wrnb4lm0000gn/T//ccyV4EJ6.s 			page 1


   1              		.cpu cortex-m0
   2              		.fpu softvfp
   3              		.eabi_attribute 20, 1	@ Tag_ABI_FP_denormal
   4              		.eabi_attribute 21, 1	@ Tag_ABI_FP_exceptions
   5              		.eabi_attribute 23, 3	@ Tag_ABI_FP_number_model
   6              		.eabi_attribute 24, 1	@ Tag_ABI_align8_needed
   7              		.eabi_attribute 25, 1	@ Tag_ABI_align8_preserved
   8              		.eabi_attribute 26, 1	@ Tag_ABI_enum_size
   9              		.eabi_attribute 30, 2	@ Tag_ABI_optimization_goals
  10              		.eabi_attribute 34, 0	@ Tag_CPU_unaligned_access
  11              		.eabi_attribute 18, 4	@ Tag_ABI_PCS_wchar_t
  12              		.file	"uart_11xx.c"
  13              	@ GNU C (GNU Tools for ARM Embedded Processors) version 4.8.4 20140725 (release) [ARM/embedded-4_8-
  14              	@	compiled by GNU C version 4.2.1 (Based on Apple Inc. build 5658) (LLVM build 2336.9.00), GMP vers
  15              	@ GGC heuristics: --param ggc-min-expand=100 --param ggc-min-heapsize=131072
  16              	@ options passed:  -I . -I ../../lpc_chip_11cxx_lib/inc
  17              	@ -I ../../evt_lib/inc -imultilib armv6-m
  18              	@ -iprefix /usr/local/Cellar/gcc-arm-none-eabi/20140805/bin/../lib/gcc/arm-none-eabi/4.8.4/
  19              	@ -isysroot /usr/local/Cellar/gcc-arm-none-eabi/20140805/bin/../arm-none-eabi
  20              	@ -MD bin/uart_11xx.d -MF bin/uart_11xx.d -MP -MQ bin/uart_11xx.o
  21              	@ -D__USES_INITFINI__ -D CORE_M0 ../../lpc_chip_11cxx_lib/src/uart_11xx.c
  22              	@ -mcpu=cortex-m0 -mthumb -auxbase-strip bin/uart_11xx.o -g -ggdb3 -O2
  23              	@ -Wall -Wstrict-prototypes -Wextra -std=gnu90 -ffunction-sections
  24              	@ -fdata-sections -fverbose-asm
  25              	@ options enabled:  -faggressive-loop-optimizations -fauto-inc-dec
  26              	@ -fbranch-count-reg -fcaller-saves -fcombine-stack-adjustments -fcommon
  27              	@ -fcompare-elim -fcprop-registers -fcrossjumping -fcse-follow-jumps
  28              	@ -fdata-sections -fdefer-pop -fdelete-null-pointer-checks -fdevirtualize
  29              	@ -fdwarf2-cfi-asm -fearly-inlining -feliminate-unused-debug-types
  30              	@ -fexpensive-optimizations -fforward-propagate -ffunction-cse
  31              	@ -ffunction-sections -fgcse -fgcse-lm -fgnu-runtime -fgnu-unique
  32              	@ -fguess-branch-probability -fhoist-adjacent-loads -fident -fif-conversion
  33              	@ -fif-conversion2 -findirect-inlining -finline -finline-atomics
  34              	@ -finline-functions-called-once -finline-small-functions -fipa-cp
  35              	@ -fipa-profile -fipa-pure-const -fipa-reference -fipa-sra
  36              	@ -fira-hoist-pressure -fira-share-save-slots -fira-share-spill-slots
  37              	@ -fivopts -fkeep-static-consts -fleading-underscore -fmath-errno
  38              	@ -fmerge-constants -fmerge-debug-strings -fmove-loop-invariants
  39              	@ -fomit-frame-pointer -foptimize-register-move -foptimize-sibling-calls
  40              	@ -foptimize-strlen -fpartial-inlining -fpeephole -fpeephole2
  41              	@ -fprefetch-loop-arrays -freg-struct-return -fregmove -freorder-blocks
  42              	@ -freorder-functions -frerun-cse-after-loop
  43              	@ -fsched-critical-path-heuristic -fsched-dep-count-heuristic
  44              	@ -fsched-group-heuristic -fsched-interblock -fsched-last-insn-heuristic
  45              	@ -fsched-pressure -fsched-rank-heuristic -fsched-spec
  46              	@ -fsched-spec-insn-heuristic -fsched-stalled-insns-dep -fschedule-insns2
  47              	@ -fsection-anchors -fshow-column -fshrink-wrap -fsigned-zeros
  48              	@ -fsplit-ivs-in-unroller -fsplit-wide-types -fstrict-aliasing
  49              	@ -fstrict-overflow -fstrict-volatile-bitfields -fsync-libcalls
  50              	@ -fthread-jumps -ftoplevel-reorder -ftrapping-math -ftree-bit-ccp
  51              	@ -ftree-builtin-call-dce -ftree-ccp -ftree-ch -ftree-coalesce-vars
  52              	@ -ftree-copy-prop -ftree-copyrename -ftree-cselim -ftree-dce
  53              	@ -ftree-dominator-opts -ftree-dse -ftree-forwprop -ftree-fre
  54              	@ -ftree-loop-if-convert -ftree-loop-im -ftree-loop-ivcanon
  55              	@ -ftree-loop-optimize -ftree-parallelize-loops= -ftree-phiprop -ftree-pre
  56              	@ -ftree-pta -ftree-reassoc -ftree-scev-cprop -ftree-sink
  57              	@ -ftree-slp-vectorize -ftree-slsr -ftree-sra -ftree-switch-conversion
ARM GAS  /var/folders/f9/8bk2lnw15zn4cbgn6wrnb4lm0000gn/T//ccyV4EJ6.s 			page 2


  58              	@ -ftree-tail-merge -ftree-ter -ftree-vect-loop-version -ftree-vrp
  59              	@ -funit-at-a-time -fvar-tracking -fvar-tracking-assignments -fverbose-asm
  60              	@ -fzero-initialized-in-bss -mlittle-endian -mpic-data-is-text-relative
  61              	@ -msched-prolog -mthumb -mvectorize-with-neon-quad
  62              	
  63              		.text
  64              	.Ltext0:
  65              		.cfi_sections	.debug_frame
  66              		.section	.text.Chip_UART_Init,"ax",%progbits
  67              		.align	2
  68              		.global	Chip_UART_Init
  69              		.code	16
  70              		.thumb_func
  71              		.type	Chip_UART_Init, %function
  72              	Chip_UART_Init:
  73              	.LFB198:
  74              		.file 1 "../../lpc_chip_11cxx_lib/src/uart_11xx.c"
   1:../../lpc_chip_11cxx_lib/src/uart_11xx.c **** /*
   2:../../lpc_chip_11cxx_lib/src/uart_11xx.c ****  * @brief LPC11xx UART chip driver
   3:../../lpc_chip_11cxx_lib/src/uart_11xx.c ****  *
   4:../../lpc_chip_11cxx_lib/src/uart_11xx.c ****  * @note
   5:../../lpc_chip_11cxx_lib/src/uart_11xx.c ****  * Copyright(C) NXP Semiconductors, 2012
   6:../../lpc_chip_11cxx_lib/src/uart_11xx.c ****  * All rights reserved.
   7:../../lpc_chip_11cxx_lib/src/uart_11xx.c ****  *
   8:../../lpc_chip_11cxx_lib/src/uart_11xx.c ****  * @par
   9:../../lpc_chip_11cxx_lib/src/uart_11xx.c ****  * Software that is described herein is for illustrative purposes only
  10:../../lpc_chip_11cxx_lib/src/uart_11xx.c ****  * which provides customers with programming information regarding the
  11:../../lpc_chip_11cxx_lib/src/uart_11xx.c ****  * LPC products.  This software is supplied "AS IS" without any warranties of
  12:../../lpc_chip_11cxx_lib/src/uart_11xx.c ****  * any kind, and NXP Semiconductors and its licensor disclaim any and
  13:../../lpc_chip_11cxx_lib/src/uart_11xx.c ****  * all warranties, express or implied, including all implied warranties of
  14:../../lpc_chip_11cxx_lib/src/uart_11xx.c ****  * merchantability, fitness for a particular purpose and non-infringement of
  15:../../lpc_chip_11cxx_lib/src/uart_11xx.c ****  * intellectual property rights.  NXP Semiconductors assumes no responsibility
  16:../../lpc_chip_11cxx_lib/src/uart_11xx.c ****  * or liability for the use of the software, conveys no license or rights under any
  17:../../lpc_chip_11cxx_lib/src/uart_11xx.c ****  * patent, copyright, mask work right, or any other intellectual property rights in
  18:../../lpc_chip_11cxx_lib/src/uart_11xx.c ****  * or to any products. NXP Semiconductors reserves the right to make changes
  19:../../lpc_chip_11cxx_lib/src/uart_11xx.c ****  * in the software without notification. NXP Semiconductors also makes no
  20:../../lpc_chip_11cxx_lib/src/uart_11xx.c ****  * representation or warranty that such application will be suitable for the
  21:../../lpc_chip_11cxx_lib/src/uart_11xx.c ****  * specified use without further testing or modification.
  22:../../lpc_chip_11cxx_lib/src/uart_11xx.c ****  *
  23:../../lpc_chip_11cxx_lib/src/uart_11xx.c ****  * @par
  24:../../lpc_chip_11cxx_lib/src/uart_11xx.c ****  * Permission to use, copy, modify, and distribute this software and its
  25:../../lpc_chip_11cxx_lib/src/uart_11xx.c ****  * documentation is hereby granted, under NXP Semiconductors' and its
  26:../../lpc_chip_11cxx_lib/src/uart_11xx.c ****  * licensor's relevant copyrights in the software, without fee, provided that it
  27:../../lpc_chip_11cxx_lib/src/uart_11xx.c ****  * is used in conjunction with NXP Semiconductors microcontrollers.  This
  28:../../lpc_chip_11cxx_lib/src/uart_11xx.c ****  * copyright, permission, and disclaimer notice must appear in all copies of
  29:../../lpc_chip_11cxx_lib/src/uart_11xx.c ****  * this code.
  30:../../lpc_chip_11cxx_lib/src/uart_11xx.c ****  */
  31:../../lpc_chip_11cxx_lib/src/uart_11xx.c **** 
  32:../../lpc_chip_11cxx_lib/src/uart_11xx.c **** #include "chip.h"
  33:../../lpc_chip_11cxx_lib/src/uart_11xx.c **** 
  34:../../lpc_chip_11cxx_lib/src/uart_11xx.c **** /*****************************************************************************
  35:../../lpc_chip_11cxx_lib/src/uart_11xx.c ****  * Private types/enumerations/variables
  36:../../lpc_chip_11cxx_lib/src/uart_11xx.c ****  ****************************************************************************/
  37:../../lpc_chip_11cxx_lib/src/uart_11xx.c **** 
  38:../../lpc_chip_11cxx_lib/src/uart_11xx.c **** /*****************************************************************************
  39:../../lpc_chip_11cxx_lib/src/uart_11xx.c ****  * Public types/enumerations/variables
  40:../../lpc_chip_11cxx_lib/src/uart_11xx.c ****  ****************************************************************************/
ARM GAS  /var/folders/f9/8bk2lnw15zn4cbgn6wrnb4lm0000gn/T//ccyV4EJ6.s 			page 3


  41:../../lpc_chip_11cxx_lib/src/uart_11xx.c **** 
  42:../../lpc_chip_11cxx_lib/src/uart_11xx.c **** /*****************************************************************************
  43:../../lpc_chip_11cxx_lib/src/uart_11xx.c ****  * Private functions
  44:../../lpc_chip_11cxx_lib/src/uart_11xx.c ****  ****************************************************************************/
  45:../../lpc_chip_11cxx_lib/src/uart_11xx.c **** 
  46:../../lpc_chip_11cxx_lib/src/uart_11xx.c **** /*****************************************************************************
  47:../../lpc_chip_11cxx_lib/src/uart_11xx.c ****  * Public functions
  48:../../lpc_chip_11cxx_lib/src/uart_11xx.c ****  ****************************************************************************/
  49:../../lpc_chip_11cxx_lib/src/uart_11xx.c **** 
  50:../../lpc_chip_11cxx_lib/src/uart_11xx.c **** /* Initializes the pUART peripheral */
  51:../../lpc_chip_11cxx_lib/src/uart_11xx.c **** void Chip_UART_Init(LPC_USART_T *pUART)
  52:../../lpc_chip_11cxx_lib/src/uart_11xx.c **** {
  75              		.loc 1 52 0
  76              		.cfi_startproc
  77              	.LVL0:
  78              	.LBB68:
  79              	.LBB69:
  80              		.file 2 "../../lpc_chip_11cxx_lib/inc/clock_11xx.h"
   1:../../lpc_chip_11cxx_lib/inc/clock_11xx.h **** /*
   2:../../lpc_chip_11cxx_lib/inc/clock_11xx.h ****  * @brief LPC11XX Clock control functions
   3:../../lpc_chip_11cxx_lib/inc/clock_11xx.h ****  *
   4:../../lpc_chip_11cxx_lib/inc/clock_11xx.h ****  * @note
   5:../../lpc_chip_11cxx_lib/inc/clock_11xx.h ****  * Copyright(C) NXP Semiconductors, 2012
   6:../../lpc_chip_11cxx_lib/inc/clock_11xx.h ****  * All rights reserved.
   7:../../lpc_chip_11cxx_lib/inc/clock_11xx.h ****  *
   8:../../lpc_chip_11cxx_lib/inc/clock_11xx.h ****  * @par
   9:../../lpc_chip_11cxx_lib/inc/clock_11xx.h ****  * Software that is described herein is for illustrative purposes only
  10:../../lpc_chip_11cxx_lib/inc/clock_11xx.h ****  * which provides customers with programming information regarding the
  11:../../lpc_chip_11cxx_lib/inc/clock_11xx.h ****  * LPC products.  This software is supplied "AS IS" without any warranties of
  12:../../lpc_chip_11cxx_lib/inc/clock_11xx.h ****  * any kind, and NXP Semiconductors and its licensor disclaim any and
  13:../../lpc_chip_11cxx_lib/inc/clock_11xx.h ****  * all warranties, express or implied, including all implied warranties of
  14:../../lpc_chip_11cxx_lib/inc/clock_11xx.h ****  * merchantability, fitness for a particular purpose and non-infringement of
  15:../../lpc_chip_11cxx_lib/inc/clock_11xx.h ****  * intellectual property rights.  NXP Semiconductors assumes no responsibility
  16:../../lpc_chip_11cxx_lib/inc/clock_11xx.h ****  * or liability for the use of the software, conveys no license or rights under any
  17:../../lpc_chip_11cxx_lib/inc/clock_11xx.h ****  * patent, copyright, mask work right, or any other intellectual property rights in
  18:../../lpc_chip_11cxx_lib/inc/clock_11xx.h ****  * or to any products. NXP Semiconductors reserves the right to make changes
  19:../../lpc_chip_11cxx_lib/inc/clock_11xx.h ****  * in the software without notification. NXP Semiconductors also makes no
  20:../../lpc_chip_11cxx_lib/inc/clock_11xx.h ****  * representation or warranty that such application will be suitable for the
  21:../../lpc_chip_11cxx_lib/inc/clock_11xx.h ****  * specified use without further testing or modification.
  22:../../lpc_chip_11cxx_lib/inc/clock_11xx.h ****  *
  23:../../lpc_chip_11cxx_lib/inc/clock_11xx.h ****  * @par
  24:../../lpc_chip_11cxx_lib/inc/clock_11xx.h ****  * Permission to use, copy, modify, and distribute this software and its
  25:../../lpc_chip_11cxx_lib/inc/clock_11xx.h ****  * documentation is hereby granted, under NXP Semiconductors' and its
  26:../../lpc_chip_11cxx_lib/inc/clock_11xx.h ****  * licensor's relevant copyrights in the software, without fee, provided that it
  27:../../lpc_chip_11cxx_lib/inc/clock_11xx.h ****  * is used in conjunction with NXP Semiconductors microcontrollers.  This
  28:../../lpc_chip_11cxx_lib/inc/clock_11xx.h ****  * copyright, permission, and disclaimer notice must appear in all copies of
  29:../../lpc_chip_11cxx_lib/inc/clock_11xx.h ****  * this code.
  30:../../lpc_chip_11cxx_lib/inc/clock_11xx.h ****  */
  31:../../lpc_chip_11cxx_lib/inc/clock_11xx.h **** 
  32:../../lpc_chip_11cxx_lib/inc/clock_11xx.h **** #ifndef __CLOCK_11XX_H_
  33:../../lpc_chip_11cxx_lib/inc/clock_11xx.h **** #define __CLOCK_11XX_H_
  34:../../lpc_chip_11cxx_lib/inc/clock_11xx.h **** 
  35:../../lpc_chip_11cxx_lib/inc/clock_11xx.h **** #ifdef __cplusplus
  36:../../lpc_chip_11cxx_lib/inc/clock_11xx.h **** extern "C" {
  37:../../lpc_chip_11cxx_lib/inc/clock_11xx.h **** #endif
  38:../../lpc_chip_11cxx_lib/inc/clock_11xx.h **** 
  39:../../lpc_chip_11cxx_lib/inc/clock_11xx.h **** /** @defgroup CLOCK_11XX CHIP: LPC11xx Clock Control block driver
ARM GAS  /var/folders/f9/8bk2lnw15zn4cbgn6wrnb4lm0000gn/T//ccyV4EJ6.s 			page 4


  40:../../lpc_chip_11cxx_lib/inc/clock_11xx.h ****  * @ingroup CHIP_11XX_Drivers
  41:../../lpc_chip_11cxx_lib/inc/clock_11xx.h ****  * @{
  42:../../lpc_chip_11cxx_lib/inc/clock_11xx.h ****  */
  43:../../lpc_chip_11cxx_lib/inc/clock_11xx.h **** 
  44:../../lpc_chip_11cxx_lib/inc/clock_11xx.h **** /** Internal oscillator frequency */
  45:../../lpc_chip_11cxx_lib/inc/clock_11xx.h **** #define SYSCTL_IRC_FREQ (12000000)
  46:../../lpc_chip_11cxx_lib/inc/clock_11xx.h **** 
  47:../../lpc_chip_11cxx_lib/inc/clock_11xx.h **** /**
  48:../../lpc_chip_11cxx_lib/inc/clock_11xx.h ****  * @brief	Set System PLL divider values
  49:../../lpc_chip_11cxx_lib/inc/clock_11xx.h ****  * @param	msel    : PLL feedback divider value. M = msel + 1.
  50:../../lpc_chip_11cxx_lib/inc/clock_11xx.h ****  * @param	psel    : PLL post divider value. P =  (1<<psel).
  51:../../lpc_chip_11cxx_lib/inc/clock_11xx.h ****  * @return	Nothing
  52:../../lpc_chip_11cxx_lib/inc/clock_11xx.h ****  * @note	See the user manual for how to setup the PLL.
  53:../../lpc_chip_11cxx_lib/inc/clock_11xx.h ****  */
  54:../../lpc_chip_11cxx_lib/inc/clock_11xx.h **** STATIC INLINE void Chip_Clock_SetupSystemPLL(uint8_t msel, uint8_t psel)
  55:../../lpc_chip_11cxx_lib/inc/clock_11xx.h **** {
  56:../../lpc_chip_11cxx_lib/inc/clock_11xx.h **** 	LPC_SYSCTL->SYSPLLCTRL = (msel & 0x1F) | ((psel & 0x3) << 5);
  57:../../lpc_chip_11cxx_lib/inc/clock_11xx.h **** }
  58:../../lpc_chip_11cxx_lib/inc/clock_11xx.h **** 
  59:../../lpc_chip_11cxx_lib/inc/clock_11xx.h **** /**
  60:../../lpc_chip_11cxx_lib/inc/clock_11xx.h ****  * @brief	Read System PLL lock status
  61:../../lpc_chip_11cxx_lib/inc/clock_11xx.h ****  * @return	true of the PLL is locked. false if not locked
  62:../../lpc_chip_11cxx_lib/inc/clock_11xx.h ****  */
  63:../../lpc_chip_11cxx_lib/inc/clock_11xx.h **** STATIC INLINE bool Chip_Clock_IsSystemPLLLocked(void)
  64:../../lpc_chip_11cxx_lib/inc/clock_11xx.h **** {
  65:../../lpc_chip_11cxx_lib/inc/clock_11xx.h **** 	return (bool) ((LPC_SYSCTL->SYSPLLSTAT & 1) != 0);
  66:../../lpc_chip_11cxx_lib/inc/clock_11xx.h **** }
  67:../../lpc_chip_11cxx_lib/inc/clock_11xx.h **** 
  68:../../lpc_chip_11cxx_lib/inc/clock_11xx.h **** /**
  69:../../lpc_chip_11cxx_lib/inc/clock_11xx.h ****  * Clock sources for system and USB PLLs
  70:../../lpc_chip_11cxx_lib/inc/clock_11xx.h ****  */
  71:../../lpc_chip_11cxx_lib/inc/clock_11xx.h **** typedef enum CHIP_SYSCTL_PLLCLKSRC {
  72:../../lpc_chip_11cxx_lib/inc/clock_11xx.h **** 	SYSCTL_PLLCLKSRC_IRC = 0,		/*!< Internal oscillator in */
  73:../../lpc_chip_11cxx_lib/inc/clock_11xx.h **** 	SYSCTL_PLLCLKSRC_MAINOSC,		/*!< Crystal (main) oscillator in */
  74:../../lpc_chip_11cxx_lib/inc/clock_11xx.h **** #if defined(CHIP_LPC11AXX)
  75:../../lpc_chip_11cxx_lib/inc/clock_11xx.h **** 	SYSCTL_PLLCLKSRC_EXT_CLKIN,	/*!< External clock in (11Axx only) */
  76:../../lpc_chip_11cxx_lib/inc/clock_11xx.h **** #else
  77:../../lpc_chip_11cxx_lib/inc/clock_11xx.h **** 	SYSCTL_PLLCLKSRC_RESERVED1,	/*!< Reserved */
  78:../../lpc_chip_11cxx_lib/inc/clock_11xx.h **** #endif
  79:../../lpc_chip_11cxx_lib/inc/clock_11xx.h **** 	SYSCTL_PLLCLKSRC_RESERVED2,	/*!< Reserved */
  80:../../lpc_chip_11cxx_lib/inc/clock_11xx.h **** } CHIP_SYSCTL_PLLCLKSRC_T;
  81:../../lpc_chip_11cxx_lib/inc/clock_11xx.h **** 
  82:../../lpc_chip_11cxx_lib/inc/clock_11xx.h **** /**
  83:../../lpc_chip_11cxx_lib/inc/clock_11xx.h ****  * @brief	Set System PLL clock source
  84:../../lpc_chip_11cxx_lib/inc/clock_11xx.h ****  * @param	src	: Clock source for system PLL
  85:../../lpc_chip_11cxx_lib/inc/clock_11xx.h ****  * @return	Nothing
  86:../../lpc_chip_11cxx_lib/inc/clock_11xx.h ****  * @note	This function will also toggle the clock source update register
  87:../../lpc_chip_11cxx_lib/inc/clock_11xx.h ****  * to update the clock source.
  88:../../lpc_chip_11cxx_lib/inc/clock_11xx.h ****  */
  89:../../lpc_chip_11cxx_lib/inc/clock_11xx.h **** void Chip_Clock_SetSystemPLLSource(CHIP_SYSCTL_PLLCLKSRC_T src);
  90:../../lpc_chip_11cxx_lib/inc/clock_11xx.h **** 
  91:../../lpc_chip_11cxx_lib/inc/clock_11xx.h **** #if defined(CHIP_LPC11UXX)
  92:../../lpc_chip_11cxx_lib/inc/clock_11xx.h **** /**
  93:../../lpc_chip_11cxx_lib/inc/clock_11xx.h ****  * @brief	Set USB PLL divider values
  94:../../lpc_chip_11cxx_lib/inc/clock_11xx.h ****  * @param	msel    : PLL feedback divider value. M = msel + 1.
  95:../../lpc_chip_11cxx_lib/inc/clock_11xx.h ****  * @param	psel    : PLL post divider value. P = (1<<psel).
  96:../../lpc_chip_11cxx_lib/inc/clock_11xx.h ****  * @return	Nothing
ARM GAS  /var/folders/f9/8bk2lnw15zn4cbgn6wrnb4lm0000gn/T//ccyV4EJ6.s 			page 5


  97:../../lpc_chip_11cxx_lib/inc/clock_11xx.h ****  * @note	See the user manual for how to setup the PLL.
  98:../../lpc_chip_11cxx_lib/inc/clock_11xx.h ****  */
  99:../../lpc_chip_11cxx_lib/inc/clock_11xx.h **** STATIC INLINE void Chip_Clock_SetupUSBPLL(uint8_t msel, uint8_t psel)
 100:../../lpc_chip_11cxx_lib/inc/clock_11xx.h **** {
 101:../../lpc_chip_11cxx_lib/inc/clock_11xx.h **** 	LPC_SYSCTL->USBPLLCTRL = (msel & 0x1F) | ((psel & 0x3) << 5);
 102:../../lpc_chip_11cxx_lib/inc/clock_11xx.h **** }
 103:../../lpc_chip_11cxx_lib/inc/clock_11xx.h **** 
 104:../../lpc_chip_11cxx_lib/inc/clock_11xx.h **** /**
 105:../../lpc_chip_11cxx_lib/inc/clock_11xx.h ****  * @brief	Read USB PLL lock status
 106:../../lpc_chip_11cxx_lib/inc/clock_11xx.h ****  * @return	true of the PLL is locked. false if not locked
 107:../../lpc_chip_11cxx_lib/inc/clock_11xx.h ****  */
 108:../../lpc_chip_11cxx_lib/inc/clock_11xx.h **** STATIC INLINE bool Chip_Clock_IsUSBPLLLocked(void)
 109:../../lpc_chip_11cxx_lib/inc/clock_11xx.h **** {
 110:../../lpc_chip_11cxx_lib/inc/clock_11xx.h **** 	return (bool) ((LPC_SYSCTL->USBPLLSTAT & 1) != 0);
 111:../../lpc_chip_11cxx_lib/inc/clock_11xx.h **** }
 112:../../lpc_chip_11cxx_lib/inc/clock_11xx.h **** 
 113:../../lpc_chip_11cxx_lib/inc/clock_11xx.h **** /**
 114:../../lpc_chip_11cxx_lib/inc/clock_11xx.h ****  * @brief	Set USB PLL clock source
 115:../../lpc_chip_11cxx_lib/inc/clock_11xx.h ****  * @param	src	: Clock source for USB PLL
 116:../../lpc_chip_11cxx_lib/inc/clock_11xx.h ****  * @return	Nothing
 117:../../lpc_chip_11cxx_lib/inc/clock_11xx.h ****  * @note	This function will also toggle the clock source update register
 118:../../lpc_chip_11cxx_lib/inc/clock_11xx.h ****  * to update the clock source.
 119:../../lpc_chip_11cxx_lib/inc/clock_11xx.h ****  */
 120:../../lpc_chip_11cxx_lib/inc/clock_11xx.h **** void Chip_Clock_SetUSBPLLSource(CHIP_SYSCTL_PLLCLKSRC_T src);
 121:../../lpc_chip_11cxx_lib/inc/clock_11xx.h **** 
 122:../../lpc_chip_11cxx_lib/inc/clock_11xx.h **** #endif /*defined(CHIP_LPC11UXX)*/
 123:../../lpc_chip_11cxx_lib/inc/clock_11xx.h **** 
 124:../../lpc_chip_11cxx_lib/inc/clock_11xx.h **** /**
 125:../../lpc_chip_11cxx_lib/inc/clock_11xx.h ****  * @brief	Bypass System Oscillator and set oscillator frequency range
 126:../../lpc_chip_11cxx_lib/inc/clock_11xx.h ****  * @param	bypass	: Flag to bypass oscillator
 127:../../lpc_chip_11cxx_lib/inc/clock_11xx.h ****  * @param	highfr	: Flag to set oscillator range from 15-25 MHz
 128:../../lpc_chip_11cxx_lib/inc/clock_11xx.h ****  * @return	Nothing
 129:../../lpc_chip_11cxx_lib/inc/clock_11xx.h ****  * @note	Sets the PLL input to bypass the oscillator. This would be
 130:../../lpc_chip_11cxx_lib/inc/clock_11xx.h ****  * used if an external clock that is not an oscillator is attached
 131:../../lpc_chip_11cxx_lib/inc/clock_11xx.h ****  * to the XTALIN pin.
 132:../../lpc_chip_11cxx_lib/inc/clock_11xx.h ****  */
 133:../../lpc_chip_11cxx_lib/inc/clock_11xx.h **** void Chip_Clock_SetPLLBypass(bool bypass, bool highfr);
 134:../../lpc_chip_11cxx_lib/inc/clock_11xx.h **** 
 135:../../lpc_chip_11cxx_lib/inc/clock_11xx.h **** /**
 136:../../lpc_chip_11cxx_lib/inc/clock_11xx.h ****  * Watchdog and low frequency oscillator frequencies plus or minus 40%
 137:../../lpc_chip_11cxx_lib/inc/clock_11xx.h ****  */
 138:../../lpc_chip_11cxx_lib/inc/clock_11xx.h **** typedef enum CHIP_WDTLFO_OSC {
 139:../../lpc_chip_11cxx_lib/inc/clock_11xx.h **** 	WDTLFO_OSC_ILLEGAL,
 140:../../lpc_chip_11cxx_lib/inc/clock_11xx.h **** 	WDTLFO_OSC_0_60,	/*!< 0.6 MHz watchdog/LFO rate */
 141:../../lpc_chip_11cxx_lib/inc/clock_11xx.h **** 	WDTLFO_OSC_1_05,	/*!< 1.05 MHz watchdog/LFO rate */
 142:../../lpc_chip_11cxx_lib/inc/clock_11xx.h **** 	WDTLFO_OSC_1_40,	/*!< 1.4 MHz watchdog/LFO rate */
 143:../../lpc_chip_11cxx_lib/inc/clock_11xx.h **** 	WDTLFO_OSC_1_75,	/*!< 1.75 MHz watchdog/LFO rate */
 144:../../lpc_chip_11cxx_lib/inc/clock_11xx.h **** 	WDTLFO_OSC_2_10,	/*!< 2.1 MHz watchdog/LFO rate */
 145:../../lpc_chip_11cxx_lib/inc/clock_11xx.h **** 	WDTLFO_OSC_2_40,	/*!< 2.4 MHz watchdog/LFO rate */
 146:../../lpc_chip_11cxx_lib/inc/clock_11xx.h **** 	WDTLFO_OSC_2_70,	/*!< 2.7 MHz watchdog/LFO rate */
 147:../../lpc_chip_11cxx_lib/inc/clock_11xx.h **** 	WDTLFO_OSC_3_00,	/*!< 3.0 MHz watchdog/LFO rate */
 148:../../lpc_chip_11cxx_lib/inc/clock_11xx.h **** 	WDTLFO_OSC_3_25,	/*!< 3.25 MHz watchdog/LFO rate */
 149:../../lpc_chip_11cxx_lib/inc/clock_11xx.h **** 	WDTLFO_OSC_3_50,	/*!< 3.5 MHz watchdog/LFO rate */
 150:../../lpc_chip_11cxx_lib/inc/clock_11xx.h **** 	WDTLFO_OSC_3_75,	/*!< 3.75 MHz watchdog/LFO rate */
 151:../../lpc_chip_11cxx_lib/inc/clock_11xx.h **** 	WDTLFO_OSC_4_00,	/*!< 4.0 MHz watchdog/LFO rate */
 152:../../lpc_chip_11cxx_lib/inc/clock_11xx.h **** 	WDTLFO_OSC_4_20,	/*!< 4.2 MHz watchdog/LFO rate */
 153:../../lpc_chip_11cxx_lib/inc/clock_11xx.h **** 	WDTLFO_OSC_4_40,	/*!< 4.4 MHz watchdog/LFO rate */
ARM GAS  /var/folders/f9/8bk2lnw15zn4cbgn6wrnb4lm0000gn/T//ccyV4EJ6.s 			page 6


 154:../../lpc_chip_11cxx_lib/inc/clock_11xx.h **** 	WDTLFO_OSC_4_60		/*!< 4.6 MHz watchdog/LFO rate */
 155:../../lpc_chip_11cxx_lib/inc/clock_11xx.h **** } CHIP_WDTLFO_OSC_T;
 156:../../lpc_chip_11cxx_lib/inc/clock_11xx.h **** 
 157:../../lpc_chip_11cxx_lib/inc/clock_11xx.h **** /**
 158:../../lpc_chip_11cxx_lib/inc/clock_11xx.h ****  * @brief	Setup Watchdog oscillator rate and divider
 159:../../lpc_chip_11cxx_lib/inc/clock_11xx.h ****  * @param	wdtclk	: Selected watchdog clock rate
 160:../../lpc_chip_11cxx_lib/inc/clock_11xx.h ****  * @param	div		: Watchdog divider value, even value between 2 and 64
 161:../../lpc_chip_11cxx_lib/inc/clock_11xx.h ****  * @return	Nothing
 162:../../lpc_chip_11cxx_lib/inc/clock_11xx.h ****  * @note	Watchdog rate = selected rate divided by divider rate
 163:../../lpc_chip_11cxx_lib/inc/clock_11xx.h ****  */
 164:../../lpc_chip_11cxx_lib/inc/clock_11xx.h **** STATIC INLINE void Chip_Clock_SetWDTOSC(CHIP_WDTLFO_OSC_T wdtclk, uint8_t div)
 165:../../lpc_chip_11cxx_lib/inc/clock_11xx.h **** {
 166:../../lpc_chip_11cxx_lib/inc/clock_11xx.h **** 	LPC_SYSCTL->WDTOSCCTRL  = (((uint32_t) wdtclk) << 5) | ((div >> 1) - 1);
 167:../../lpc_chip_11cxx_lib/inc/clock_11xx.h **** }
 168:../../lpc_chip_11cxx_lib/inc/clock_11xx.h **** 
 169:../../lpc_chip_11cxx_lib/inc/clock_11xx.h **** #if defined(CHIP_LPC11AXX)
 170:../../lpc_chip_11cxx_lib/inc/clock_11xx.h **** /**
 171:../../lpc_chip_11cxx_lib/inc/clock_11xx.h ****  * @brief	Setup low frequency oscillator rate and divider
 172:../../lpc_chip_11cxx_lib/inc/clock_11xx.h ****  * @param	lfoclk	: Selected low frequency clock rate
 173:../../lpc_chip_11cxx_lib/inc/clock_11xx.h ****  * @param	div		: Low frequency divider value, even value between 2 and 64
 174:../../lpc_chip_11cxx_lib/inc/clock_11xx.h ****  * @return	Nothing
 175:../../lpc_chip_11cxx_lib/inc/clock_11xx.h ****  * @note	Low frequency oscillator rate = selected rate divided by divider rate
 176:../../lpc_chip_11cxx_lib/inc/clock_11xx.h ****  */
 177:../../lpc_chip_11cxx_lib/inc/clock_11xx.h **** STATIC INLINE void Chip_Clock_SetLFOSC(CHIP_WDTLFO_OSC_T lfoclk, uint8_t div)
 178:../../lpc_chip_11cxx_lib/inc/clock_11xx.h **** {
 179:../../lpc_chip_11cxx_lib/inc/clock_11xx.h **** 	LPC_SYSCTL->LFOSCCTRL  = (((uint32_t) lfoclk) << 5) | ((div >> 1) - 1);
 180:../../lpc_chip_11cxx_lib/inc/clock_11xx.h **** }
 181:../../lpc_chip_11cxx_lib/inc/clock_11xx.h **** 
 182:../../lpc_chip_11cxx_lib/inc/clock_11xx.h **** #endif /*CHIP_LPC11AXX*/
 183:../../lpc_chip_11cxx_lib/inc/clock_11xx.h **** 
 184:../../lpc_chip_11cxx_lib/inc/clock_11xx.h **** /**
 185:../../lpc_chip_11cxx_lib/inc/clock_11xx.h ****  * Clock sources for main system clock
 186:../../lpc_chip_11cxx_lib/inc/clock_11xx.h ****  */
 187:../../lpc_chip_11cxx_lib/inc/clock_11xx.h **** typedef enum CHIP_SYSCTL_MAINCLKSRC {
 188:../../lpc_chip_11cxx_lib/inc/clock_11xx.h **** 	SYSCTL_MAINCLKSRC_IRC = 0,		/*!< Internal oscillator */
 189:../../lpc_chip_11cxx_lib/inc/clock_11xx.h **** 	SYSCTL_MAINCLKSRC_PLLIN,		/*!< System PLL input */
 190:../../lpc_chip_11cxx_lib/inc/clock_11xx.h **** 	SYSCTL_MAINCLKSRC_LFOSC,		/*!< LF oscillator rate (11Axx only) */
 191:../../lpc_chip_11cxx_lib/inc/clock_11xx.h **** 	SYSCTL_MAINCLKSRC_WDTOSC = SYSCTL_MAINCLKSRC_LFOSC,	/*!< Watchdog oscillator rate */
 192:../../lpc_chip_11cxx_lib/inc/clock_11xx.h **** 	SYSCTL_MAINCLKSRC_PLLOUT,		/*!< System PLL output */
 193:../../lpc_chip_11cxx_lib/inc/clock_11xx.h **** } CHIP_SYSCTL_MAINCLKSRC_T;
 194:../../lpc_chip_11cxx_lib/inc/clock_11xx.h **** 
 195:../../lpc_chip_11cxx_lib/inc/clock_11xx.h **** /**
 196:../../lpc_chip_11cxx_lib/inc/clock_11xx.h ****  * @brief	Set main system clock source
 197:../../lpc_chip_11cxx_lib/inc/clock_11xx.h ****  * @param	src	: Clock source for main system
 198:../../lpc_chip_11cxx_lib/inc/clock_11xx.h ****  * @return	Nothing
 199:../../lpc_chip_11cxx_lib/inc/clock_11xx.h ****  * @note	This function will also toggle the clock source update register
 200:../../lpc_chip_11cxx_lib/inc/clock_11xx.h ****  * to update the clock source.
 201:../../lpc_chip_11cxx_lib/inc/clock_11xx.h ****  */
 202:../../lpc_chip_11cxx_lib/inc/clock_11xx.h **** void Chip_Clock_SetMainClockSource(CHIP_SYSCTL_MAINCLKSRC_T src);
 203:../../lpc_chip_11cxx_lib/inc/clock_11xx.h **** 
 204:../../lpc_chip_11cxx_lib/inc/clock_11xx.h **** /**
 205:../../lpc_chip_11cxx_lib/inc/clock_11xx.h ****  * @brief   Returns the main clock source
 206:../../lpc_chip_11cxx_lib/inc/clock_11xx.h ****  * @return	Which clock is used for the core clock source?
 207:../../lpc_chip_11cxx_lib/inc/clock_11xx.h ****  */
 208:../../lpc_chip_11cxx_lib/inc/clock_11xx.h **** STATIC INLINE CHIP_SYSCTL_MAINCLKSRC_T Chip_Clock_GetMainClockSource(void)
 209:../../lpc_chip_11cxx_lib/inc/clock_11xx.h **** {
 210:../../lpc_chip_11cxx_lib/inc/clock_11xx.h **** 	return (CHIP_SYSCTL_MAINCLKSRC_T) (LPC_SYSCTL->MAINCLKSEL);
ARM GAS  /var/folders/f9/8bk2lnw15zn4cbgn6wrnb4lm0000gn/T//ccyV4EJ6.s 			page 7


 211:../../lpc_chip_11cxx_lib/inc/clock_11xx.h **** }
 212:../../lpc_chip_11cxx_lib/inc/clock_11xx.h **** 
 213:../../lpc_chip_11cxx_lib/inc/clock_11xx.h **** /**
 214:../../lpc_chip_11cxx_lib/inc/clock_11xx.h ****  * @brief	Set system clock divider
 215:../../lpc_chip_11cxx_lib/inc/clock_11xx.h ****  * @param	div	: divider for system clock
 216:../../lpc_chip_11cxx_lib/inc/clock_11xx.h ****  * @return	Nothing
 217:../../lpc_chip_11cxx_lib/inc/clock_11xx.h ****  * @note	Use 0 to disable, or a divider value of 1 to 255. The system clock
 218:../../lpc_chip_11cxx_lib/inc/clock_11xx.h ****  * rate is the main system clock divided by this value.
 219:../../lpc_chip_11cxx_lib/inc/clock_11xx.h ****  */
 220:../../lpc_chip_11cxx_lib/inc/clock_11xx.h **** STATIC INLINE void Chip_Clock_SetSysClockDiv(uint32_t div)
 221:../../lpc_chip_11cxx_lib/inc/clock_11xx.h **** {
 222:../../lpc_chip_11cxx_lib/inc/clock_11xx.h **** 	LPC_SYSCTL->SYSAHBCLKDIV  = div;
 223:../../lpc_chip_11cxx_lib/inc/clock_11xx.h **** }
 224:../../lpc_chip_11cxx_lib/inc/clock_11xx.h **** 
 225:../../lpc_chip_11cxx_lib/inc/clock_11xx.h **** /**
 226:../../lpc_chip_11cxx_lib/inc/clock_11xx.h ****  * System and peripheral clocks
 227:../../lpc_chip_11cxx_lib/inc/clock_11xx.h ****  */
 228:../../lpc_chip_11cxx_lib/inc/clock_11xx.h **** typedef enum CHIP_SYSCTL_CLOCK {
 229:../../lpc_chip_11cxx_lib/inc/clock_11xx.h **** 	SYSCTL_CLOCK_SYS = 0,				/*!< 0: System clock */
 230:../../lpc_chip_11cxx_lib/inc/clock_11xx.h **** 	SYSCTL_CLOCK_ROM,					/*!<1:  ROM clock */
 231:../../lpc_chip_11cxx_lib/inc/clock_11xx.h **** 	SYSCTL_CLOCK_RAM,					/*!< 2: RAM clock */
 232:../../lpc_chip_11cxx_lib/inc/clock_11xx.h **** 	SYSCTL_CLOCK_FLASHREG,				/*!< 3: FLASH register interface clock */
 233:../../lpc_chip_11cxx_lib/inc/clock_11xx.h **** 	SYSCTL_CLOCK_FLASHARRAY,			/*!< 4: FLASH array access clock */
 234:../../lpc_chip_11cxx_lib/inc/clock_11xx.h **** #if defined(CHIP_LPC110X)
 235:../../lpc_chip_11cxx_lib/inc/clock_11xx.h **** 	SYSCTL_CLOCK_RESERVED5,				/*!< 5: Reserved */
 236:../../lpc_chip_11cxx_lib/inc/clock_11xx.h **** #else
 237:../../lpc_chip_11cxx_lib/inc/clock_11xx.h **** 	SYSCTL_CLOCK_I2C,					/*!< 5: I2C clock, not on LPC110x */
 238:../../lpc_chip_11cxx_lib/inc/clock_11xx.h **** #endif
 239:../../lpc_chip_11cxx_lib/inc/clock_11xx.h **** 	SYSCTL_CLOCK_GPIO,					/*!< 6: GPIO clock */
 240:../../lpc_chip_11cxx_lib/inc/clock_11xx.h **** 	SYSCTL_CLOCK_CT16B0,				/*!< 7: 16-bit Counter/timer 0 clock */
 241:../../lpc_chip_11cxx_lib/inc/clock_11xx.h **** 	SYSCTL_CLOCK_CT16B1,				/*!< 8: 16-bit Counter/timer 1 clock */
 242:../../lpc_chip_11cxx_lib/inc/clock_11xx.h **** 	SYSCTL_CLOCK_CT32B0,				/*!< 9: 32-bit Counter/timer 0 clock */
 243:../../lpc_chip_11cxx_lib/inc/clock_11xx.h **** 	SYSCTL_CLOCK_CT32B1,				/*!< 10: 32-bit Counter/timer 1 clock */
 244:../../lpc_chip_11cxx_lib/inc/clock_11xx.h **** 	SYSCTL_CLOCK_SSP0,					/*!< 11: SSP0 clock */
 245:../../lpc_chip_11cxx_lib/inc/clock_11xx.h **** 	SYSCTL_CLOCK_UART0,					/*!< 12: UART0 clock */
 246:../../lpc_chip_11cxx_lib/inc/clock_11xx.h **** 	SYSCTL_CLOCK_ADC,					/*!< 13: ADC clock */
 247:../../lpc_chip_11cxx_lib/inc/clock_11xx.h **** #if defined(CHIP_LPC11UXX)
 248:../../lpc_chip_11cxx_lib/inc/clock_11xx.h **** 	SYSCTL_CLOCK_USB,					/*!< 14: USB clock, LPC11Uxx only */
 249:../../lpc_chip_11cxx_lib/inc/clock_11xx.h **** #else
 250:../../lpc_chip_11cxx_lib/inc/clock_11xx.h **** 	SYSCTL_CLOCK_RESERVED14,			/*!< 14: Reserved */
 251:../../lpc_chip_11cxx_lib/inc/clock_11xx.h **** #endif
 252:../../lpc_chip_11cxx_lib/inc/clock_11xx.h **** 	SYSCTL_CLOCK_WDT,					/*!< 15: Watchdog timer clock */
 253:../../lpc_chip_11cxx_lib/inc/clock_11xx.h **** 	SYSCTL_CLOCK_IOCON,					/*!< 16: IOCON block clock */
 254:../../lpc_chip_11cxx_lib/inc/clock_11xx.h **** #if defined(CHIP_LPC11CXX)
 255:../../lpc_chip_11cxx_lib/inc/clock_11xx.h **** 	SYSCTL_CLOCK_CAN,					/*!< 17: CAN clock, LPC11Cxx only */
 256:../../lpc_chip_11cxx_lib/inc/clock_11xx.h **** #else
 257:../../lpc_chip_11cxx_lib/inc/clock_11xx.h **** 	SYSCTL_CLOCK_RESERVED17,			/*!< 17: Reserved */
 258:../../lpc_chip_11cxx_lib/inc/clock_11xx.h **** #endif
 259:../../lpc_chip_11cxx_lib/inc/clock_11xx.h **** #if !(defined(CHIP_LPC110X) || defined(CHIP_LPC11XXLV))  
 260:../../lpc_chip_11cxx_lib/inc/clock_11xx.h **** 	SYSCTL_CLOCK_SSP1,					/*!< 18: SSP1 clock, LPC11A/C/E/Uxx//1125 only */
 261:../../lpc_chip_11cxx_lib/inc/clock_11xx.h **** #if !defined(CHIP_LPC11CXX)
 262:../../lpc_chip_11cxx_lib/inc/clock_11xx.h **** 	SYSCTL_CLOCK_PINT,					/*!< 19: GPIO Pin int register interface clock, LPC11A/E/Uxx only */
 263:../../lpc_chip_11cxx_lib/inc/clock_11xx.h **** #if defined(CHIP_LPC11AXX)
 264:../../lpc_chip_11cxx_lib/inc/clock_11xx.h **** 	SYSCTL_CLOCK_ACOMP,					/*!< 20: Analog comparator clock, LPC11Axx only */
 265:../../lpc_chip_11cxx_lib/inc/clock_11xx.h **** 	SYSCTL_CLOCK_DAC,					/*!< 21: DAC clock, LPC11Axx only */
 266:../../lpc_chip_11cxx_lib/inc/clock_11xx.h **** #else
 267:../../lpc_chip_11cxx_lib/inc/clock_11xx.h **** 	SYSCTL_CLOCK_RESERVED20,			/*!< 20: Reserved */
ARM GAS  /var/folders/f9/8bk2lnw15zn4cbgn6wrnb4lm0000gn/T//ccyV4EJ6.s 			page 8


 268:../../lpc_chip_11cxx_lib/inc/clock_11xx.h **** 	SYSCTL_CLOCK_RESERVED21,			/*!< 21: Reserved */
 269:../../lpc_chip_11cxx_lib/inc/clock_11xx.h **** #endif
 270:../../lpc_chip_11cxx_lib/inc/clock_11xx.h **** 	SYSCTL_CLOCK_RESERVED22,			/*!< 22: Reserved */
 271:../../lpc_chip_11cxx_lib/inc/clock_11xx.h **** 	SYSCTL_CLOCK_P0INT,					/*!< 23: GPIO GROUP1 interrupt register clock, LPC11Axx only */
 272:../../lpc_chip_11cxx_lib/inc/clock_11xx.h **** 	SYSCTL_CLOCK_GROUP0INT = SYSCTL_CLOCK_P0INT,/*!< 23: GPIO GROUP0 interrupt register interface cloc
 273:../../lpc_chip_11cxx_lib/inc/clock_11xx.h **** 	SYSCTL_CLOCK_P1INT,					/*!< 24: GPIO GROUP1 interrupt register clock, LPC11Axx only */
 274:../../lpc_chip_11cxx_lib/inc/clock_11xx.h **** 	SYSCTL_CLOCK_GROUP1INT = SYSCTL_CLOCK_P1INT,/*!< 24: GPIO GROUP1 interrupt register interface cloc
 275:../../lpc_chip_11cxx_lib/inc/clock_11xx.h **** 	SYSCTL_CLOCK_RESERVED25,			/*!< 25: Reserved */
 276:../../lpc_chip_11cxx_lib/inc/clock_11xx.h **** #if defined(CHIP_LPC11EXX)  || defined(CHIP_LPC11UXX)
 277:../../lpc_chip_11cxx_lib/inc/clock_11xx.h **** 	SYSCTL_CLOCK_RAM1,					/*!< 26: SRAM block (0x20000000) clock, LPC11E/Uxx only */
 278:../../lpc_chip_11cxx_lib/inc/clock_11xx.h **** #else
 279:../../lpc_chip_11cxx_lib/inc/clock_11xx.h **** 	SYSCTL_CLOCK_RESERVED26,			/*!< 26: Reserved */
 280:../../lpc_chip_11cxx_lib/inc/clock_11xx.h **** #endif
 281:../../lpc_chip_11cxx_lib/inc/clock_11xx.h **** #if defined(CHIP_LPC11UXX)
 282:../../lpc_chip_11cxx_lib/inc/clock_11xx.h **** 	SYSCTL_CLOCK_USBRAM,				/*!< 27: USB SRAM block clock, LPC11Uxx only */
 283:../../lpc_chip_11cxx_lib/inc/clock_11xx.h **** #else
 284:../../lpc_chip_11cxx_lib/inc/clock_11xx.h **** 	SYSCTL_CLOCK_RESERVED27,			/*!< 27: Reserved */
 285:../../lpc_chip_11cxx_lib/inc/clock_11xx.h **** #endif
 286:../../lpc_chip_11cxx_lib/inc/clock_11xx.h **** #endif /* !defined(CHIP_LPC11CXX) */
 287:../../lpc_chip_11cxx_lib/inc/clock_11xx.h **** #endif /* !(defined(CHIP_LPC110X) || defined(CHIP_LPC11XXLV)) */
 288:../../lpc_chip_11cxx_lib/inc/clock_11xx.h **** } CHIP_SYSCTL_CLOCK_T;
 289:../../lpc_chip_11cxx_lib/inc/clock_11xx.h **** 
 290:../../lpc_chip_11cxx_lib/inc/clock_11xx.h **** /**
 291:../../lpc_chip_11cxx_lib/inc/clock_11xx.h ****  * @brief	Enable a system or peripheral clock
 292:../../lpc_chip_11cxx_lib/inc/clock_11xx.h ****  * @param	clk	: Clock to enable
 293:../../lpc_chip_11cxx_lib/inc/clock_11xx.h ****  * @return	Nothing
 294:../../lpc_chip_11cxx_lib/inc/clock_11xx.h ****  */
 295:../../lpc_chip_11cxx_lib/inc/clock_11xx.h **** STATIC INLINE void Chip_Clock_EnablePeriphClock(CHIP_SYSCTL_CLOCK_T clk)
 296:../../lpc_chip_11cxx_lib/inc/clock_11xx.h **** {
 297:../../lpc_chip_11cxx_lib/inc/clock_11xx.h **** 	LPC_SYSCTL->SYSAHBCLKCTRL |= (1 << clk);
  81              		.loc 2 297 0
  82 0000 084B     		ldr	r3, .L2	@ tmp113,
  83 0002 8022     		mov	r2, #128	@ tmp114,
  84              	.LBE69:
  85              	.LBE68:
  86              		.loc 1 52 0
  87 0004 10B5     		push	{r4, lr}	@
  88              		.cfi_def_cfa_offset 8
  89              		.cfi_offset 4, -8
  90              		.cfi_offset 14, -4
  91              	.LBB71:
  92              	.LBB70:
  93              		.loc 2 297 0
  94 0006 8021     		mov	r1, #128	@ tmp124,
  95 0008 9C58     		ldr	r4, [r3, r2]	@ D.6374, MEM[(struct LPC_SYSCTL_T *)1074036736B].SYSAHBCLKCTRL
  96 000a 4901     		lsl	r1, r1, #5	@ tmp115, tmp124,
  97 000c 2143     		orr	r1, r4	@ D.6374, D.6374
  98 000e 9950     		str	r1, [r3, r2]	@ D.6374, MEM[(struct LPC_SYSCTL_T *)1074036736B].SYSAHBCLKCTRL
  99              	.LVL1:
 100              	.LBE70:
 101              	.LBE71:
 102              	.LBB72:
 103              	.LBB73:
 298:../../lpc_chip_11cxx_lib/inc/clock_11xx.h **** }
 299:../../lpc_chip_11cxx_lib/inc/clock_11xx.h **** 
 300:../../lpc_chip_11cxx_lib/inc/clock_11xx.h **** /**
 301:../../lpc_chip_11cxx_lib/inc/clock_11xx.h ****  * @brief	Disable a system or peripheral clock
ARM GAS  /var/folders/f9/8bk2lnw15zn4cbgn6wrnb4lm0000gn/T//ccyV4EJ6.s 			page 9


 302:../../lpc_chip_11cxx_lib/inc/clock_11xx.h ****  * @param	clk	: Clock to disable
 303:../../lpc_chip_11cxx_lib/inc/clock_11xx.h ****  * @return	Nothing
 304:../../lpc_chip_11cxx_lib/inc/clock_11xx.h ****  */
 305:../../lpc_chip_11cxx_lib/inc/clock_11xx.h **** STATIC INLINE void Chip_Clock_DisablePeriphClock(CHIP_SYSCTL_CLOCK_T clk)
 306:../../lpc_chip_11cxx_lib/inc/clock_11xx.h **** {
 307:../../lpc_chip_11cxx_lib/inc/clock_11xx.h **** 	LPC_SYSCTL->SYSAHBCLKCTRL &= ~(1 << clk);
 308:../../lpc_chip_11cxx_lib/inc/clock_11xx.h **** }
 309:../../lpc_chip_11cxx_lib/inc/clock_11xx.h **** 
 310:../../lpc_chip_11cxx_lib/inc/clock_11xx.h **** /**
 311:../../lpc_chip_11cxx_lib/inc/clock_11xx.h ****  * @brief	Set SSP0 divider
 312:../../lpc_chip_11cxx_lib/inc/clock_11xx.h ****  * @param	div	: divider for SSP0 clock
 313:../../lpc_chip_11cxx_lib/inc/clock_11xx.h ****  * @return	Nothing
 314:../../lpc_chip_11cxx_lib/inc/clock_11xx.h ****  * @note	Use 0 to disable, or a divider value of 1 to 255. The SSP0 clock
 315:../../lpc_chip_11cxx_lib/inc/clock_11xx.h ****  * rate is the main system clock divided by this value.
 316:../../lpc_chip_11cxx_lib/inc/clock_11xx.h ****  */
 317:../../lpc_chip_11cxx_lib/inc/clock_11xx.h **** STATIC INLINE void Chip_Clock_SetSSP0ClockDiv(uint32_t div)
 318:../../lpc_chip_11cxx_lib/inc/clock_11xx.h **** {
 319:../../lpc_chip_11cxx_lib/inc/clock_11xx.h **** 	LPC_SYSCTL->SSP0CLKDIV  = div;
 320:../../lpc_chip_11cxx_lib/inc/clock_11xx.h **** }
 321:../../lpc_chip_11cxx_lib/inc/clock_11xx.h **** 
 322:../../lpc_chip_11cxx_lib/inc/clock_11xx.h **** /**
 323:../../lpc_chip_11cxx_lib/inc/clock_11xx.h ****  * @brief	Return SSP0 divider
 324:../../lpc_chip_11cxx_lib/inc/clock_11xx.h ****  * @return	divider for SSP0 clock
 325:../../lpc_chip_11cxx_lib/inc/clock_11xx.h ****  * @note	A value of 0 means the clock is disabled.
 326:../../lpc_chip_11cxx_lib/inc/clock_11xx.h ****  */
 327:../../lpc_chip_11cxx_lib/inc/clock_11xx.h **** STATIC INLINE uint32_t Chip_Clock_GetSSP0ClockDiv(void)
 328:../../lpc_chip_11cxx_lib/inc/clock_11xx.h **** {
 329:../../lpc_chip_11cxx_lib/inc/clock_11xx.h **** 	return LPC_SYSCTL->SSP0CLKDIV;
 330:../../lpc_chip_11cxx_lib/inc/clock_11xx.h **** }
 331:../../lpc_chip_11cxx_lib/inc/clock_11xx.h **** 
 332:../../lpc_chip_11cxx_lib/inc/clock_11xx.h **** /**
 333:../../lpc_chip_11cxx_lib/inc/clock_11xx.h ****  * @brief	Set UART divider clock
 334:../../lpc_chip_11cxx_lib/inc/clock_11xx.h ****  * @param	div	: divider for UART clock
 335:../../lpc_chip_11cxx_lib/inc/clock_11xx.h ****  * @return	Nothing
 336:../../lpc_chip_11cxx_lib/inc/clock_11xx.h ****  * @note	Use 0 to disable, or a divider value of 1 to 255. The UART clock
 337:../../lpc_chip_11cxx_lib/inc/clock_11xx.h ****  * rate is the main system clock divided by this value.
 338:../../lpc_chip_11cxx_lib/inc/clock_11xx.h ****  */
 339:../../lpc_chip_11cxx_lib/inc/clock_11xx.h **** STATIC INLINE void Chip_Clock_SetUARTClockDiv(uint32_t div)
 340:../../lpc_chip_11cxx_lib/inc/clock_11xx.h **** {
 341:../../lpc_chip_11cxx_lib/inc/clock_11xx.h **** 	LPC_SYSCTL->USARTCLKDIV  = div;
 104              		.loc 2 341 0
 105 0010 0121     		mov	r1, #1	@ tmp120,
 106 0012 9822     		mov	r2, #152	@ tmp119,
 107 0014 9950     		str	r1, [r3, r2]	@ tmp120, MEM[(struct LPC_SYSCTL_T *)1074036736B].USARTCLKDIV
 108              	.LVL2:
 109              	.LBE73:
 110              	.LBE72:
 111              	.LBB74:
 112              	.LBB75:
 113              		.file 3 "../../lpc_chip_11cxx_lib/inc/uart_11xx.h"
   1:../../lpc_chip_11cxx_lib/inc/uart_11xx.h **** /*
   2:../../lpc_chip_11cxx_lib/inc/uart_11xx.h ****  * @brief LPC11xx UART chip driver
   3:../../lpc_chip_11cxx_lib/inc/uart_11xx.h ****  *
   4:../../lpc_chip_11cxx_lib/inc/uart_11xx.h ****  * @note
   5:../../lpc_chip_11cxx_lib/inc/uart_11xx.h ****  * Copyright(C) NXP Semiconductors, 2012
   6:../../lpc_chip_11cxx_lib/inc/uart_11xx.h ****  * All rights reserved.
   7:../../lpc_chip_11cxx_lib/inc/uart_11xx.h ****  *
ARM GAS  /var/folders/f9/8bk2lnw15zn4cbgn6wrnb4lm0000gn/T//ccyV4EJ6.s 			page 10


   8:../../lpc_chip_11cxx_lib/inc/uart_11xx.h ****  * @par
   9:../../lpc_chip_11cxx_lib/inc/uart_11xx.h ****  * Software that is described herein is for illustrative purposes only
  10:../../lpc_chip_11cxx_lib/inc/uart_11xx.h ****  * which provides customers with programming information regarding the
  11:../../lpc_chip_11cxx_lib/inc/uart_11xx.h ****  * LPC products.  This software is supplied "AS IS" without any warranties of
  12:../../lpc_chip_11cxx_lib/inc/uart_11xx.h ****  * any kind, and NXP Semiconductors and its licensor disclaim any and
  13:../../lpc_chip_11cxx_lib/inc/uart_11xx.h ****  * all warranties, express or implied, including all implied warranties of
  14:../../lpc_chip_11cxx_lib/inc/uart_11xx.h ****  * merchantability, fitness for a particular purpose and non-infringement of
  15:../../lpc_chip_11cxx_lib/inc/uart_11xx.h ****  * intellectual property rights.  NXP Semiconductors assumes no responsibility
  16:../../lpc_chip_11cxx_lib/inc/uart_11xx.h ****  * or liability for the use of the software, conveys no license or rights under any
  17:../../lpc_chip_11cxx_lib/inc/uart_11xx.h ****  * patent, copyright, mask work right, or any other intellectual property rights in
  18:../../lpc_chip_11cxx_lib/inc/uart_11xx.h ****  * or to any products. NXP Semiconductors reserves the right to make changes
  19:../../lpc_chip_11cxx_lib/inc/uart_11xx.h ****  * in the software without notification. NXP Semiconductors also makes no
  20:../../lpc_chip_11cxx_lib/inc/uart_11xx.h ****  * representation or warranty that such application will be suitable for the
  21:../../lpc_chip_11cxx_lib/inc/uart_11xx.h ****  * specified use without further testing or modification.
  22:../../lpc_chip_11cxx_lib/inc/uart_11xx.h ****  *
  23:../../lpc_chip_11cxx_lib/inc/uart_11xx.h ****  * @par
  24:../../lpc_chip_11cxx_lib/inc/uart_11xx.h ****  * Permission to use, copy, modify, and distribute this software and its
  25:../../lpc_chip_11cxx_lib/inc/uart_11xx.h ****  * documentation is hereby granted, under NXP Semiconductors' and its
  26:../../lpc_chip_11cxx_lib/inc/uart_11xx.h ****  * licensor's relevant copyrights in the software, without fee, provided that it
  27:../../lpc_chip_11cxx_lib/inc/uart_11xx.h ****  * is used in conjunction with NXP Semiconductors microcontrollers.  This
  28:../../lpc_chip_11cxx_lib/inc/uart_11xx.h ****  * copyright, permission, and disclaimer notice must appear in all copies of
  29:../../lpc_chip_11cxx_lib/inc/uart_11xx.h ****  * this code.
  30:../../lpc_chip_11cxx_lib/inc/uart_11xx.h ****  */
  31:../../lpc_chip_11cxx_lib/inc/uart_11xx.h **** 
  32:../../lpc_chip_11cxx_lib/inc/uart_11xx.h **** #ifndef __UART_11XX_H_
  33:../../lpc_chip_11cxx_lib/inc/uart_11xx.h **** #define __UART_11XX_H_
  34:../../lpc_chip_11cxx_lib/inc/uart_11xx.h **** 
  35:../../lpc_chip_11cxx_lib/inc/uart_11xx.h **** #include "ring_buffer.h"
  36:../../lpc_chip_11cxx_lib/inc/uart_11xx.h **** 
  37:../../lpc_chip_11cxx_lib/inc/uart_11xx.h **** #ifdef __cplusplus
  38:../../lpc_chip_11cxx_lib/inc/uart_11xx.h **** extern "C" {
  39:../../lpc_chip_11cxx_lib/inc/uart_11xx.h **** #endif
  40:../../lpc_chip_11cxx_lib/inc/uart_11xx.h **** 
  41:../../lpc_chip_11cxx_lib/inc/uart_11xx.h **** /** @defgroup UART_11XX CHIP: LPC11xx UART driver
  42:../../lpc_chip_11cxx_lib/inc/uart_11xx.h ****  * @ingroup CHIP_11XX_Drivers
  43:../../lpc_chip_11cxx_lib/inc/uart_11xx.h ****  * @{
  44:../../lpc_chip_11cxx_lib/inc/uart_11xx.h ****  */
  45:../../lpc_chip_11cxx_lib/inc/uart_11xx.h **** 
  46:../../lpc_chip_11cxx_lib/inc/uart_11xx.h **** /**
  47:../../lpc_chip_11cxx_lib/inc/uart_11xx.h ****  * @brief USART register block structure
  48:../../lpc_chip_11cxx_lib/inc/uart_11xx.h ****  */
  49:../../lpc_chip_11cxx_lib/inc/uart_11xx.h **** typedef struct {					/*!< USARTn Structure       */
  50:../../lpc_chip_11cxx_lib/inc/uart_11xx.h **** 
  51:../../lpc_chip_11cxx_lib/inc/uart_11xx.h **** 	union {
  52:../../lpc_chip_11cxx_lib/inc/uart_11xx.h **** 		__IO uint32_t  DLL;			/*!< Divisor Latch LSB. Least significant byte of the baud rate divisor val
  53:../../lpc_chip_11cxx_lib/inc/uart_11xx.h **** 		__O  uint32_t  THR;			/*!< Transmit Holding Register. The next character to be transmitted is wri
  54:../../lpc_chip_11cxx_lib/inc/uart_11xx.h **** 		__I  uint32_t  RBR;			/*!< Receiver Buffer Register. Contains the next received character to be r
  55:../../lpc_chip_11cxx_lib/inc/uart_11xx.h **** 	};
  56:../../lpc_chip_11cxx_lib/inc/uart_11xx.h **** 
  57:../../lpc_chip_11cxx_lib/inc/uart_11xx.h **** 	union {
  58:../../lpc_chip_11cxx_lib/inc/uart_11xx.h **** 		__IO uint32_t IER;			/*!< Interrupt Enable Register. Contains individual interrupt enable bits fo
  59:../../lpc_chip_11cxx_lib/inc/uart_11xx.h **** 		__IO uint32_t DLM;			/*!< Divisor Latch MSB. Most significant byte of the baud rate divisor value
  60:../../lpc_chip_11cxx_lib/inc/uart_11xx.h **** 	};
  61:../../lpc_chip_11cxx_lib/inc/uart_11xx.h **** 
  62:../../lpc_chip_11cxx_lib/inc/uart_11xx.h **** 	union {
  63:../../lpc_chip_11cxx_lib/inc/uart_11xx.h **** 		__O  uint32_t FCR;			/*!< FIFO Control Register. Controls UART FIFO usage and modes. */
  64:../../lpc_chip_11cxx_lib/inc/uart_11xx.h **** 		__I  uint32_t IIR;			/*!< Interrupt ID Register. Identifies which interrupt(s) are pending. */
ARM GAS  /var/folders/f9/8bk2lnw15zn4cbgn6wrnb4lm0000gn/T//ccyV4EJ6.s 			page 11


  65:../../lpc_chip_11cxx_lib/inc/uart_11xx.h **** 	};
  66:../../lpc_chip_11cxx_lib/inc/uart_11xx.h **** 
  67:../../lpc_chip_11cxx_lib/inc/uart_11xx.h **** 	__IO uint32_t LCR;				/*!< Line Control Register. Contains controls for frame formatting and break
  68:../../lpc_chip_11cxx_lib/inc/uart_11xx.h **** 	__IO uint32_t MCR;				/*!< Modem Control Register. Only present on USART ports with full modem sup
  69:../../lpc_chip_11cxx_lib/inc/uart_11xx.h **** 	__I  uint32_t LSR;				/*!< Line Status Register. Contains flags for transmit and receive status, i
  70:../../lpc_chip_11cxx_lib/inc/uart_11xx.h **** 	__I  uint32_t MSR;				/*!< Modem Status Register. Only present on USART ports with full modem supp
  71:../../lpc_chip_11cxx_lib/inc/uart_11xx.h **** 	__IO uint32_t SCR;				/*!< Scratch Pad Register. Eight-bit temporary storage for software. */
  72:../../lpc_chip_11cxx_lib/inc/uart_11xx.h **** 	__IO uint32_t ACR;				/*!< Auto-baud Control Register. Contains controls for the auto-baud feature
  73:../../lpc_chip_11cxx_lib/inc/uart_11xx.h **** 	__IO uint32_t ICR;				/*!< IrDA control register (not all UARTS) */
  74:../../lpc_chip_11cxx_lib/inc/uart_11xx.h **** 	__IO uint32_t FDR;				/*!< Fractional Divider Register. Generates a clock input for the baud rate 
  75:../../lpc_chip_11cxx_lib/inc/uart_11xx.h **** 	__IO uint32_t OSR;				/*!< Oversampling Register. Controls the degree of oversampling during each 
  76:../../lpc_chip_11cxx_lib/inc/uart_11xx.h **** 	__IO uint32_t TER1;				/*!< Transmit Enable Register. Turns off USART transmitter for use with sof
  77:../../lpc_chip_11cxx_lib/inc/uart_11xx.h **** 	uint32_t  RESERVED0[3];
  78:../../lpc_chip_11cxx_lib/inc/uart_11xx.h ****     __IO uint32_t HDEN;				/*!< Half-duplex enable Register- only on some UARTs */
  79:../../lpc_chip_11cxx_lib/inc/uart_11xx.h **** 	__I  uint32_t RESERVED1[1];
  80:../../lpc_chip_11cxx_lib/inc/uart_11xx.h **** 	__IO uint32_t SCICTRL;			/*!< Smart card interface control register- only on some UARTs */
  81:../../lpc_chip_11cxx_lib/inc/uart_11xx.h **** 
  82:../../lpc_chip_11cxx_lib/inc/uart_11xx.h **** 	__IO uint32_t RS485CTRL;		/*!< RS-485/EIA-485 Control. Contains controls to configure various aspe
  83:../../lpc_chip_11cxx_lib/inc/uart_11xx.h **** 	__IO uint32_t RS485ADRMATCH;	/*!< RS-485/EIA-485 address match. Contains the address match value f
  84:../../lpc_chip_11cxx_lib/inc/uart_11xx.h **** 	__IO uint32_t RS485DLY;			/*!< RS-485/EIA-485 direction control delay. */
  85:../../lpc_chip_11cxx_lib/inc/uart_11xx.h **** 
  86:../../lpc_chip_11cxx_lib/inc/uart_11xx.h **** 	union {
  87:../../lpc_chip_11cxx_lib/inc/uart_11xx.h **** 		__IO uint32_t SYNCCTRL;		/*!< Synchronous mode control register. Only on USARTs. */
  88:../../lpc_chip_11cxx_lib/inc/uart_11xx.h **** 		__I  uint32_t FIFOLVL;		/*!< FIFO Level register. Provides the current fill levels of the transmi
  89:../../lpc_chip_11cxx_lib/inc/uart_11xx.h **** 	};
  90:../../lpc_chip_11cxx_lib/inc/uart_11xx.h **** 
  91:../../lpc_chip_11cxx_lib/inc/uart_11xx.h **** 	__IO uint32_t TER2;				/*!< Transmit Enable Register. Only on LPC177X_8X UART4 and LPC18XX/43XX US
  92:../../lpc_chip_11cxx_lib/inc/uart_11xx.h **** } LPC_USART_T;
  93:../../lpc_chip_11cxx_lib/inc/uart_11xx.h **** 
  94:../../lpc_chip_11cxx_lib/inc/uart_11xx.h **** 
  95:../../lpc_chip_11cxx_lib/inc/uart_11xx.h **** /**
  96:../../lpc_chip_11cxx_lib/inc/uart_11xx.h ****  * @brief Macro defines for UART Receive Buffer register
  97:../../lpc_chip_11cxx_lib/inc/uart_11xx.h ****  */
  98:../../lpc_chip_11cxx_lib/inc/uart_11xx.h **** #define UART_RBR_MASKBIT    (0xFF)		        /*!< UART Received Buffer mask bit (8 bits) */
  99:../../lpc_chip_11cxx_lib/inc/uart_11xx.h **** 
 100:../../lpc_chip_11cxx_lib/inc/uart_11xx.h **** /**
 101:../../lpc_chip_11cxx_lib/inc/uart_11xx.h ****  * @brief Macro defines for UART Divisor Latch LSB register
 102:../../lpc_chip_11cxx_lib/inc/uart_11xx.h ****  */
 103:../../lpc_chip_11cxx_lib/inc/uart_11xx.h **** #define UART_LOAD_DLL(div)  ((div) & 0xFF)		/*!< Macro for loading LSB of divisor */
 104:../../lpc_chip_11cxx_lib/inc/uart_11xx.h **** #define UART_DLL_MASKBIT    (0xFF)	            /*!< Divisor latch LSB bit mask */
 105:../../lpc_chip_11cxx_lib/inc/uart_11xx.h **** 
 106:../../lpc_chip_11cxx_lib/inc/uart_11xx.h **** /**
 107:../../lpc_chip_11cxx_lib/inc/uart_11xx.h ****  * @brief Macro defines for UART Divisor Latch MSB register
 108:../../lpc_chip_11cxx_lib/inc/uart_11xx.h ****  */
 109:../../lpc_chip_11cxx_lib/inc/uart_11xx.h **** #define UART_LOAD_DLM(div)  (((div) >> 8) & 0xFF)	/*!< Macro for loading MSB of divisors */
 110:../../lpc_chip_11cxx_lib/inc/uart_11xx.h **** #define UART_DLM_MASKBIT    (0xFF)		            /*!< Divisor latch MSB bit mask */
 111:../../lpc_chip_11cxx_lib/inc/uart_11xx.h **** 
 112:../../lpc_chip_11cxx_lib/inc/uart_11xx.h **** /**
 113:../../lpc_chip_11cxx_lib/inc/uart_11xx.h ****  * @brief Macro defines for UART Interrupt Enable Register
 114:../../lpc_chip_11cxx_lib/inc/uart_11xx.h ****  */
 115:../../lpc_chip_11cxx_lib/inc/uart_11xx.h **** #define UART_IER_RBRINT      (1 << 0)	/*!< RBR Interrupt enable */
 116:../../lpc_chip_11cxx_lib/inc/uart_11xx.h **** #define UART_IER_THREINT     (1 << 1)	/*!< THR Interrupt enable */
 117:../../lpc_chip_11cxx_lib/inc/uart_11xx.h **** #define UART_IER_RLSINT      (1 << 2)	/*!< RX line status interrupt enable */
 118:../../lpc_chip_11cxx_lib/inc/uart_11xx.h **** #define UART_IER_MSINT       (1 << 3)	/*!< Modem status interrupt enable - valid for 11xx, 17xx/40x
 119:../../lpc_chip_11cxx_lib/inc/uart_11xx.h **** #define UART_IER_CTSINT      (1 << 7)	/*!< CTS signal transition interrupt enable - valid for 17xx/
 120:../../lpc_chip_11cxx_lib/inc/uart_11xx.h **** #define UART_IER_ABEOINT     (1 << 8)	/*!< Enables the end of auto-baud interrupt */
 121:../../lpc_chip_11cxx_lib/inc/uart_11xx.h **** #define UART_IER_ABTOINT     (1 << 9)	/*!< Enables the auto-baud time-out interrupt */
ARM GAS  /var/folders/f9/8bk2lnw15zn4cbgn6wrnb4lm0000gn/T//ccyV4EJ6.s 			page 12


 122:../../lpc_chip_11cxx_lib/inc/uart_11xx.h **** #define UART_IER_BITMASK     (0x307)	/*!< UART interrupt enable register bit mask  - valid for 13xx
 123:../../lpc_chip_11cxx_lib/inc/uart_11xx.h **** #define UART1_IER_BITMASK    (0x30F)	/*!< UART1 interrupt enable register bit mask - valid for 11xx
 124:../../lpc_chip_11cxx_lib/inc/uart_11xx.h **** #define UART2_IER_BITMASK    (0x38F)	/*!< UART2 interrupt enable register bit mask - valid for 17xx
 125:../../lpc_chip_11cxx_lib/inc/uart_11xx.h **** 
 126:../../lpc_chip_11cxx_lib/inc/uart_11xx.h **** /**
 127:../../lpc_chip_11cxx_lib/inc/uart_11xx.h ****  * @brief Macro defines for UART Interrupt Identification Register
 128:../../lpc_chip_11cxx_lib/inc/uart_11xx.h ****  */
 129:../../lpc_chip_11cxx_lib/inc/uart_11xx.h **** #define UART_IIR_INTSTAT_PEND   (1 << 0)	/*!< Interrupt pending status - Active low */
 130:../../lpc_chip_11cxx_lib/inc/uart_11xx.h **** #define UART_IIR_FIFO_EN        (3 << 6)	/*!< These bits are equivalent to FCR[0] */
 131:../../lpc_chip_11cxx_lib/inc/uart_11xx.h **** #define UART_IIR_ABEO_INT       (1 << 8)	/*!< End of auto-baud interrupt */
 132:../../lpc_chip_11cxx_lib/inc/uart_11xx.h **** #define UART_IIR_ABTO_INT       (1 << 9)	/*!< Auto-baud time-out interrupt */
 133:../../lpc_chip_11cxx_lib/inc/uart_11xx.h **** #define UART_IIR_BITMASK        (0x3CF)		/*!< UART interrupt identification register bit mask */
 134:../../lpc_chip_11cxx_lib/inc/uart_11xx.h **** 
 135:../../lpc_chip_11cxx_lib/inc/uart_11xx.h **** /* Interrupt ID bit definitions */
 136:../../lpc_chip_11cxx_lib/inc/uart_11xx.h **** #define UART_IIR_INTID_MASK     (7 << 1)	/*!< Interrupt identification: Interrupt ID mask */
 137:../../lpc_chip_11cxx_lib/inc/uart_11xx.h **** #define UART_IIR_INTID_RLS      (3 << 1)	/*!< Interrupt identification: Receive line interrupt */
 138:../../lpc_chip_11cxx_lib/inc/uart_11xx.h **** #define UART_IIR_INTID_RDA      (2 << 1)	/*!< Interrupt identification: Receive data available inte
 139:../../lpc_chip_11cxx_lib/inc/uart_11xx.h **** #define UART_IIR_INTID_CTI      (6 << 1)	/*!< Interrupt identification: Character time-out indicato
 140:../../lpc_chip_11cxx_lib/inc/uart_11xx.h **** #define UART_IIR_INTID_THRE     (1 << 1)	/*!< Interrupt identification: THRE interrupt */
 141:../../lpc_chip_11cxx_lib/inc/uart_11xx.h **** #define UART_IIR_INTID_MODEM    (0 << 1)	/*!< Interrupt identification: Modem interrupt */
 142:../../lpc_chip_11cxx_lib/inc/uart_11xx.h **** 
 143:../../lpc_chip_11cxx_lib/inc/uart_11xx.h **** /**
 144:../../lpc_chip_11cxx_lib/inc/uart_11xx.h ****  * @brief Macro defines for UART FIFO Control Register
 145:../../lpc_chip_11cxx_lib/inc/uart_11xx.h ****  */
 146:../../lpc_chip_11cxx_lib/inc/uart_11xx.h **** #define UART_FCR_FIFO_EN        (1 << 0)	/*!< UART FIFO enable */
 147:../../lpc_chip_11cxx_lib/inc/uart_11xx.h **** #define UART_FCR_RX_RS          (1 << 1)	/*!< UART RX FIFO reset */
 148:../../lpc_chip_11cxx_lib/inc/uart_11xx.h **** #define UART_FCR_TX_RS          (1 << 2)	/*!< UART TX FIFO reset */
 149:../../lpc_chip_11cxx_lib/inc/uart_11xx.h **** #define UART_FCR_DMAMODE_SEL    (1 << 3)	/*!< UART DMA mode selection - valid for 17xx/40xx, 18xx/4
 150:../../lpc_chip_11cxx_lib/inc/uart_11xx.h **** #define UART_FCR_BITMASK        (0xCF)		/*!< UART FIFO control bit mask */
 151:../../lpc_chip_11cxx_lib/inc/uart_11xx.h **** 
 152:../../lpc_chip_11cxx_lib/inc/uart_11xx.h **** #define UART_TX_FIFO_SIZE       (16)
 153:../../lpc_chip_11cxx_lib/inc/uart_11xx.h **** 
 154:../../lpc_chip_11cxx_lib/inc/uart_11xx.h **** /* FIFO trigger level bit definitions */
 155:../../lpc_chip_11cxx_lib/inc/uart_11xx.h **** #define UART_FCR_TRG_LEV0       (0)			/*!< UART FIFO trigger level 0: 1 character */
 156:../../lpc_chip_11cxx_lib/inc/uart_11xx.h **** #define UART_FCR_TRG_LEV1       (1 << 6)	/*!< UART FIFO trigger level 1: 4 character */
 157:../../lpc_chip_11cxx_lib/inc/uart_11xx.h **** #define UART_FCR_TRG_LEV2       (2 << 6)	/*!< UART FIFO trigger level 2: 8 character */
 158:../../lpc_chip_11cxx_lib/inc/uart_11xx.h **** #define UART_FCR_TRG_LEV3       (3 << 6)	/*!< UART FIFO trigger level 3: 14 character */
 159:../../lpc_chip_11cxx_lib/inc/uart_11xx.h **** 
 160:../../lpc_chip_11cxx_lib/inc/uart_11xx.h **** /**
 161:../../lpc_chip_11cxx_lib/inc/uart_11xx.h ****  * @brief Macro defines for UART Line Control Register
 162:../../lpc_chip_11cxx_lib/inc/uart_11xx.h ****  */
 163:../../lpc_chip_11cxx_lib/inc/uart_11xx.h **** /* UART word length select bit definitions */
 164:../../lpc_chip_11cxx_lib/inc/uart_11xx.h **** #define UART_LCR_WLEN_MASK      (3 << 0)		/*!< UART word length select bit mask */
 165:../../lpc_chip_11cxx_lib/inc/uart_11xx.h **** #define UART_LCR_WLEN5          (0 << 0)		/*!< UART word length select: 5 bit data mode */
 166:../../lpc_chip_11cxx_lib/inc/uart_11xx.h **** #define UART_LCR_WLEN6          (1 << 0)		/*!< UART word length select: 6 bit data mode */
 167:../../lpc_chip_11cxx_lib/inc/uart_11xx.h **** #define UART_LCR_WLEN7          (2 << 0)		/*!< UART word length select: 7 bit data mode */
 168:../../lpc_chip_11cxx_lib/inc/uart_11xx.h **** #define UART_LCR_WLEN8          (3 << 0)		/*!< UART word length select: 8 bit data mode */
 169:../../lpc_chip_11cxx_lib/inc/uart_11xx.h **** 
 170:../../lpc_chip_11cxx_lib/inc/uart_11xx.h **** /* UART Stop bit select bit definitions */
 171:../../lpc_chip_11cxx_lib/inc/uart_11xx.h **** #define UART_LCR_SBS_MASK       (1 << 2)		/*!< UART stop bit select: bit mask */
 172:../../lpc_chip_11cxx_lib/inc/uart_11xx.h **** #define UART_LCR_SBS_1BIT       (0 << 2)		/*!< UART stop bit select: 1 stop bit */
 173:../../lpc_chip_11cxx_lib/inc/uart_11xx.h **** #define UART_LCR_SBS_2BIT       (1 << 2)		/*!< UART stop bit select: 2 stop bits (in 5 bit data mod
 174:../../lpc_chip_11cxx_lib/inc/uart_11xx.h **** 
 175:../../lpc_chip_11cxx_lib/inc/uart_11xx.h **** /* UART Parity enable bit definitions */
 176:../../lpc_chip_11cxx_lib/inc/uart_11xx.h **** #define UART_LCR_PARITY_EN      (1 << 3)		/*!< UART Parity Enable */
 177:../../lpc_chip_11cxx_lib/inc/uart_11xx.h **** #define UART_LCR_PARITY_DIS     (0 << 3)		/*!< UART Parity Disable */
 178:../../lpc_chip_11cxx_lib/inc/uart_11xx.h **** #define UART_LCR_PARITY_ODD     (0 << 4)		/*!< UART Parity select: Odd parity */
ARM GAS  /var/folders/f9/8bk2lnw15zn4cbgn6wrnb4lm0000gn/T//ccyV4EJ6.s 			page 13


 179:../../lpc_chip_11cxx_lib/inc/uart_11xx.h **** #define UART_LCR_PARITY_EVEN    (1 << 4)		/*!< UART Parity select: Even parity */
 180:../../lpc_chip_11cxx_lib/inc/uart_11xx.h **** #define UART_LCR_PARITY_F_1     (2 << 4)		/*!< UART Parity select: Forced 1 stick parity */
 181:../../lpc_chip_11cxx_lib/inc/uart_11xx.h **** #define UART_LCR_PARITY_F_0     (3 << 4)		/*!< UART Parity select: Forced 0 stick parity */
 182:../../lpc_chip_11cxx_lib/inc/uart_11xx.h **** #define UART_LCR_BREAK_EN       (1 << 6)		/*!< UART Break transmission enable */
 183:../../lpc_chip_11cxx_lib/inc/uart_11xx.h **** #define UART_LCR_DLAB_EN        (1 << 7)		/*!< UART Divisor Latches Access bit enable */
 184:../../lpc_chip_11cxx_lib/inc/uart_11xx.h **** #define UART_LCR_BITMASK        (0xFF)			/*!< UART line control bit mask */
 185:../../lpc_chip_11cxx_lib/inc/uart_11xx.h **** 
 186:../../lpc_chip_11cxx_lib/inc/uart_11xx.h **** /**
 187:../../lpc_chip_11cxx_lib/inc/uart_11xx.h ****  * @brief Macro defines for UART Modem Control Register
 188:../../lpc_chip_11cxx_lib/inc/uart_11xx.h ****  */
 189:../../lpc_chip_11cxx_lib/inc/uart_11xx.h **** #define UART_MCR_DTR_CTRL       (1 << 0)		/*!< Source for modem output pin DTR */
 190:../../lpc_chip_11cxx_lib/inc/uart_11xx.h **** #define UART_MCR_RTS_CTRL       (1 << 1)		/*!< Source for modem output pin RTS */
 191:../../lpc_chip_11cxx_lib/inc/uart_11xx.h **** #define UART_MCR_LOOPB_EN       (1 << 4)		/*!< Loop back mode select */
 192:../../lpc_chip_11cxx_lib/inc/uart_11xx.h **** #define UART_MCR_AUTO_RTS_EN    (1 << 6)		/*!< Enable Auto RTS flow-control */
 193:../../lpc_chip_11cxx_lib/inc/uart_11xx.h **** #define UART_MCR_AUTO_CTS_EN    (1 << 7)		/*!< Enable Auto CTS flow-control */
 194:../../lpc_chip_11cxx_lib/inc/uart_11xx.h **** #define UART_MCR_BITMASK        (0xD3)			/*!< UART bit mask value */
 195:../../lpc_chip_11cxx_lib/inc/uart_11xx.h **** 
 196:../../lpc_chip_11cxx_lib/inc/uart_11xx.h **** /**
 197:../../lpc_chip_11cxx_lib/inc/uart_11xx.h ****  * @brief Macro defines for UART Line Status Register
 198:../../lpc_chip_11cxx_lib/inc/uart_11xx.h ****  */
 199:../../lpc_chip_11cxx_lib/inc/uart_11xx.h **** #define UART_LSR_RDR        (1 << 0)	/*!< Line status: Receive data ready */
 200:../../lpc_chip_11cxx_lib/inc/uart_11xx.h **** #define UART_LSR_OE         (1 << 1)	/*!< Line status: Overrun error */
 201:../../lpc_chip_11cxx_lib/inc/uart_11xx.h **** #define UART_LSR_PE         (1 << 2)	/*!< Line status: Parity error */
 202:../../lpc_chip_11cxx_lib/inc/uart_11xx.h **** #define UART_LSR_FE         (1 << 3)	/*!< Line status: Framing error */
 203:../../lpc_chip_11cxx_lib/inc/uart_11xx.h **** #define UART_LSR_BI         (1 << 4)	/*!< Line status: Break interrupt */
 204:../../lpc_chip_11cxx_lib/inc/uart_11xx.h **** #define UART_LSR_THRE       (1 << 5)	/*!< Line status: Transmit holding register empty */
 205:../../lpc_chip_11cxx_lib/inc/uart_11xx.h **** #define UART_LSR_TEMT       (1 << 6)	/*!< Line status: Transmitter empty */
 206:../../lpc_chip_11cxx_lib/inc/uart_11xx.h **** #define UART_LSR_RXFE       (1 << 7)	/*!< Line status: Error in RX FIFO */
 207:../../lpc_chip_11cxx_lib/inc/uart_11xx.h **** #define UART_LSR_TXFE       (1 << 8)	/*!< Line status: Error in RX FIFO */
 208:../../lpc_chip_11cxx_lib/inc/uart_11xx.h **** #define UART_LSR_BITMASK    (0xFF)		/*!< UART Line status bit mask */
 209:../../lpc_chip_11cxx_lib/inc/uart_11xx.h **** #define UART1_LSR_BITMASK   (0x1FF)		/*!< UART1 Line status bit mask - valid for 11xx, 18xx/43xx UA
 210:../../lpc_chip_11cxx_lib/inc/uart_11xx.h **** 
 211:../../lpc_chip_11cxx_lib/inc/uart_11xx.h **** /**
 212:../../lpc_chip_11cxx_lib/inc/uart_11xx.h ****  * @brief Macro defines for UART Modem Status Register
 213:../../lpc_chip_11cxx_lib/inc/uart_11xx.h ****  */
 214:../../lpc_chip_11cxx_lib/inc/uart_11xx.h **** #define UART_MSR_DELTA_CTS      (1 << 0)	/*!< Modem status: State change of input CTS */
 215:../../lpc_chip_11cxx_lib/inc/uart_11xx.h **** #define UART_MSR_DELTA_DSR      (1 << 1)	/*!< Modem status: State change of input DSR */
 216:../../lpc_chip_11cxx_lib/inc/uart_11xx.h **** #define UART_MSR_LO2HI_RI       (1 << 2)	/*!< Modem status: Low to high transition of input RI */
 217:../../lpc_chip_11cxx_lib/inc/uart_11xx.h **** #define UART_MSR_DELTA_DCD      (1 << 3)	/*!< Modem status: State change of input DCD */
 218:../../lpc_chip_11cxx_lib/inc/uart_11xx.h **** #define UART_MSR_CTS            (1 << 4)	/*!< Modem status: Clear To Send State */
 219:../../lpc_chip_11cxx_lib/inc/uart_11xx.h **** #define UART_MSR_DSR            (1 << 5)	/*!< Modem status: Data Set Ready State */
 220:../../lpc_chip_11cxx_lib/inc/uart_11xx.h **** #define UART_MSR_RI             (1 << 6)	/*!< Modem status: Ring Indicator State */
 221:../../lpc_chip_11cxx_lib/inc/uart_11xx.h **** #define UART_MSR_DCD            (1 << 7)	/*!< Modem status: Data Carrier Detect State */
 222:../../lpc_chip_11cxx_lib/inc/uart_11xx.h **** #define UART_MSR_BITMASK        (0xFF)		/*!< Modem status: MSR register bit-mask value */
 223:../../lpc_chip_11cxx_lib/inc/uart_11xx.h **** 
 224:../../lpc_chip_11cxx_lib/inc/uart_11xx.h **** /**
 225:../../lpc_chip_11cxx_lib/inc/uart_11xx.h ****  * @brief Macro defines for UART Auto baudrate control register
 226:../../lpc_chip_11cxx_lib/inc/uart_11xx.h ****  */
 227:../../lpc_chip_11cxx_lib/inc/uart_11xx.h **** #define UART_ACR_START              (1 << 0)	/*!< UART Auto-baud start */
 228:../../lpc_chip_11cxx_lib/inc/uart_11xx.h **** #define UART_ACR_MODE               (1 << 1)	/*!< UART Auto baudrate Mode 1 */
 229:../../lpc_chip_11cxx_lib/inc/uart_11xx.h **** #define UART_ACR_AUTO_RESTART       (1 << 2)	/*!< UART Auto baudrate restart */
 230:../../lpc_chip_11cxx_lib/inc/uart_11xx.h **** #define UART_ACR_ABEOINT_CLR        (1 << 8)	/*!< UART End of auto-baud interrupt clear */
 231:../../lpc_chip_11cxx_lib/inc/uart_11xx.h **** #define UART_ACR_ABTOINT_CLR        (1 << 9)	/*!< UART Auto-baud time-out interrupt clear */
 232:../../lpc_chip_11cxx_lib/inc/uart_11xx.h **** #define UART_ACR_BITMASK            (0x307)		/*!< UART Auto Baudrate register bit mask */
 233:../../lpc_chip_11cxx_lib/inc/uart_11xx.h **** 
 234:../../lpc_chip_11cxx_lib/inc/uart_11xx.h **** /**
 235:../../lpc_chip_11cxx_lib/inc/uart_11xx.h ****  * @brief Macro defines for UART RS485 Control register
ARM GAS  /var/folders/f9/8bk2lnw15zn4cbgn6wrnb4lm0000gn/T//ccyV4EJ6.s 			page 14


 236:../../lpc_chip_11cxx_lib/inc/uart_11xx.h ****  */
 237:../../lpc_chip_11cxx_lib/inc/uart_11xx.h **** #define UART_RS485CTRL_NMM_EN       (1 << 0)	/*!< RS-485/EIA-485 Normal Multi-drop Mode (NMM) is di
 238:../../lpc_chip_11cxx_lib/inc/uart_11xx.h **** #define UART_RS485CTRL_RX_DIS       (1 << 1)	/*!< The receiver is disabled */
 239:../../lpc_chip_11cxx_lib/inc/uart_11xx.h **** #define UART_RS485CTRL_AADEN        (1 << 2)	/*!< Auto Address Detect (AAD) is enabled */
 240:../../lpc_chip_11cxx_lib/inc/uart_11xx.h **** #define UART_RS485CTRL_SEL_DTR      (1 << 3)	/*!< If direction control is enabled (bit DCTRL = 1), 
 241:../../lpc_chip_11cxx_lib/inc/uart_11xx.h **** 												        used for direction control */
 242:../../lpc_chip_11cxx_lib/inc/uart_11xx.h **** #define UART_RS485CTRL_DCTRL_EN     (1 << 4)	/*!< Enable Auto Direction Control */
 243:../../lpc_chip_11cxx_lib/inc/uart_11xx.h **** #define UART_RS485CTRL_OINV_1       (1 << 5)	/*!< This bit reverses the polarity of the direction
 244:../../lpc_chip_11cxx_lib/inc/uart_11xx.h **** 												       control signal on the RTS (or DTR) pin. The direction control pin
 245:../../lpc_chip_11cxx_lib/inc/uart_11xx.h **** 												       will be driven to logic "1" when the transmitter has data to be sent */
 246:../../lpc_chip_11cxx_lib/inc/uart_11xx.h **** #define UART_RS485CTRL_BITMASK      (0x3F)		/*!< RS485 control bit-mask value */
 247:../../lpc_chip_11cxx_lib/inc/uart_11xx.h **** 
 248:../../lpc_chip_11cxx_lib/inc/uart_11xx.h **** /**
 249:../../lpc_chip_11cxx_lib/inc/uart_11xx.h ****  * @brief Macro defines for UART IrDA Control Register - valid for 11xx, 17xx/40xx UART0/2/3, 18xx/
 250:../../lpc_chip_11cxx_lib/inc/uart_11xx.h ****  */
 251:../../lpc_chip_11cxx_lib/inc/uart_11xx.h **** #define UART_ICR_IRDAEN         (1 << 0)			/*!< IrDA mode enable */
 252:../../lpc_chip_11cxx_lib/inc/uart_11xx.h **** #define UART_ICR_IRDAINV        (1 << 1)			/*!< IrDA serial input inverted */
 253:../../lpc_chip_11cxx_lib/inc/uart_11xx.h **** #define UART_ICR_FIXPULSE_EN    (1 << 2)			/*!< IrDA fixed pulse width mode */
 254:../../lpc_chip_11cxx_lib/inc/uart_11xx.h **** #define UART_ICR_PULSEDIV(n)    ((n & 0x07) << 3)	/*!< PulseDiv - Configures the pulse when FixPuls
 255:../../lpc_chip_11cxx_lib/inc/uart_11xx.h **** #define UART_ICR_BITMASK        (0x3F)				/*!< UART IRDA bit mask */
 256:../../lpc_chip_11cxx_lib/inc/uart_11xx.h **** 
 257:../../lpc_chip_11cxx_lib/inc/uart_11xx.h **** /**
 258:../../lpc_chip_11cxx_lib/inc/uart_11xx.h ****  * @brief Macro defines for UART half duplex register - ????
 259:../../lpc_chip_11cxx_lib/inc/uart_11xx.h ****  */
 260:../../lpc_chip_11cxx_lib/inc/uart_11xx.h **** #define UART_HDEN_HDEN          ((1 << 0))			/*!< enable half-duplex mode*/
 261:../../lpc_chip_11cxx_lib/inc/uart_11xx.h **** 
 262:../../lpc_chip_11cxx_lib/inc/uart_11xx.h **** /**
 263:../../lpc_chip_11cxx_lib/inc/uart_11xx.h ****  * @brief Macro defines for UART Smart card interface Control Register - valid for 11xx, 18xx/43xx 
 264:../../lpc_chip_11cxx_lib/inc/uart_11xx.h ****  */
 265:../../lpc_chip_11cxx_lib/inc/uart_11xx.h **** #define UART_SCICTRL_SCIEN        (1 << 0)			/*!< enable asynchronous half-duplex smart card interf
 266:../../lpc_chip_11cxx_lib/inc/uart_11xx.h **** #define UART_SCICTRL_NACKDIS      (1 << 1)			/*!< NACK response is inhibited*/
 267:../../lpc_chip_11cxx_lib/inc/uart_11xx.h **** #define UART_SCICTRL_PROTSEL_T1   (1 << 2)			/*!< ISO7816-3 protocol T1 is selected*/
 268:../../lpc_chip_11cxx_lib/inc/uart_11xx.h **** #define UART_SCICTRL_TXRETRY(n)   ((n & 0x07) << 5)	/*!< number of retransmission*/
 269:../../lpc_chip_11cxx_lib/inc/uart_11xx.h **** #define UART_SCICTRL_GUARDTIME(n) ((n & 0xFF) << 8)	/*!< Extra guard time*/
 270:../../lpc_chip_11cxx_lib/inc/uart_11xx.h **** 
 271:../../lpc_chip_11cxx_lib/inc/uart_11xx.h **** /**
 272:../../lpc_chip_11cxx_lib/inc/uart_11xx.h ****  * @brief Macro defines for UART Fractional Divider Register
 273:../../lpc_chip_11cxx_lib/inc/uart_11xx.h ****  */
 274:../../lpc_chip_11cxx_lib/inc/uart_11xx.h **** #define UART_FDR_DIVADDVAL(n)   (n & 0x0F)			/*!< Baud-rate generation pre-scaler divisor */
 275:../../lpc_chip_11cxx_lib/inc/uart_11xx.h **** #define UART_FDR_MULVAL(n)      ((n << 4) & 0xF0)	/*!< Baud-rate pre-scaler multiplier value */
 276:../../lpc_chip_11cxx_lib/inc/uart_11xx.h **** #define UART_FDR_BITMASK        (0xFF)				/*!< UART Fractional Divider register bit mask */
 277:../../lpc_chip_11cxx_lib/inc/uart_11xx.h **** 
 278:../../lpc_chip_11cxx_lib/inc/uart_11xx.h **** /**
 279:../../lpc_chip_11cxx_lib/inc/uart_11xx.h ****  * @brief Macro defines for UART Tx Enable Register
 280:../../lpc_chip_11cxx_lib/inc/uart_11xx.h ****  */
 281:../../lpc_chip_11cxx_lib/inc/uart_11xx.h **** #define UART_TER1_TXEN      (1 << 7)		/*!< Transmit enable bit  - valid for 11xx, 13xx, 17xx/40xx o
 282:../../lpc_chip_11cxx_lib/inc/uart_11xx.h **** #define UART_TER2_TXEN      (1 << 0)		/*!< Transmit enable bit  - valid for 18xx/43xx only */
 283:../../lpc_chip_11cxx_lib/inc/uart_11xx.h **** 
 284:../../lpc_chip_11cxx_lib/inc/uart_11xx.h **** /**
 285:../../lpc_chip_11cxx_lib/inc/uart_11xx.h ****  * @brief Macro defines for UART Synchronous Control Register - 11xx, 18xx/43xx UART0/2/3 only 
 286:../../lpc_chip_11cxx_lib/inc/uart_11xx.h ****  */
 287:../../lpc_chip_11cxx_lib/inc/uart_11xx.h **** #define UART_SYNCCTRL_SYNC             (1 << 0)			/*!< enable synchronous mode*/
 288:../../lpc_chip_11cxx_lib/inc/uart_11xx.h **** #define UART_SYNCCTRL_CSRC_MASTER      (1 << 1)  		/*!< synchronous master mode*/
 289:../../lpc_chip_11cxx_lib/inc/uart_11xx.h **** #define UART_SYNCCTRL_FES              (1 << 2)			/*!< sample on falling edge*/
 290:../../lpc_chip_11cxx_lib/inc/uart_11xx.h **** #define UART_SYNCCTRL_TSBYPASS         (1 << 3)			/*!< to be defined*/
 291:../../lpc_chip_11cxx_lib/inc/uart_11xx.h **** #define UART_SYNCCTRL_CSCEN            (1 << 4)			/*!< Continuous running clock enable (master mode
 292:../../lpc_chip_11cxx_lib/inc/uart_11xx.h **** #define UART_SYNCCTRL_STARTSTOPDISABLE (1 << 5)	        /*!< Do not send start/stop bit*/
ARM GAS  /var/folders/f9/8bk2lnw15zn4cbgn6wrnb4lm0000gn/T//ccyV4EJ6.s 			page 15


 293:../../lpc_chip_11cxx_lib/inc/uart_11xx.h **** #define UART_SYNCCTRL_CCCLR            (1 << 6)			/*!< stop continuous clock*/
 294:../../lpc_chip_11cxx_lib/inc/uart_11xx.h **** 
 295:../../lpc_chip_11cxx_lib/inc/uart_11xx.h **** /**
 296:../../lpc_chip_11cxx_lib/inc/uart_11xx.h ****  * @brief	Enable transmission on UART TxD pin
 297:../../lpc_chip_11cxx_lib/inc/uart_11xx.h ****  * @param	pUART	: Pointer to selected pUART peripheral
 298:../../lpc_chip_11cxx_lib/inc/uart_11xx.h ****  * @return Nothing
 299:../../lpc_chip_11cxx_lib/inc/uart_11xx.h ****  */
 300:../../lpc_chip_11cxx_lib/inc/uart_11xx.h **** STATIC INLINE void Chip_UART_TXEnable(LPC_USART_T *pUART)
 301:../../lpc_chip_11cxx_lib/inc/uart_11xx.h **** {
 302:../../lpc_chip_11cxx_lib/inc/uart_11xx.h **** 	pUART->TER1 = UART_TER1_TXEN;
 303:../../lpc_chip_11cxx_lib/inc/uart_11xx.h **** }
 304:../../lpc_chip_11cxx_lib/inc/uart_11xx.h **** 
 305:../../lpc_chip_11cxx_lib/inc/uart_11xx.h **** /**
 306:../../lpc_chip_11cxx_lib/inc/uart_11xx.h ****  * @brief	Disable transmission on UART TxD pin
 307:../../lpc_chip_11cxx_lib/inc/uart_11xx.h ****  * @param	pUART	: Pointer to selected pUART peripheral
 308:../../lpc_chip_11cxx_lib/inc/uart_11xx.h ****  * @return Nothing
 309:../../lpc_chip_11cxx_lib/inc/uart_11xx.h ****  */
 310:../../lpc_chip_11cxx_lib/inc/uart_11xx.h **** STATIC INLINE void Chip_UART_TXDisable(LPC_USART_T *pUART)
 311:../../lpc_chip_11cxx_lib/inc/uart_11xx.h **** {
 312:../../lpc_chip_11cxx_lib/inc/uart_11xx.h **** 	pUART->TER1 = 0;
 313:../../lpc_chip_11cxx_lib/inc/uart_11xx.h **** }
 314:../../lpc_chip_11cxx_lib/inc/uart_11xx.h **** 
 315:../../lpc_chip_11cxx_lib/inc/uart_11xx.h **** /**
 316:../../lpc_chip_11cxx_lib/inc/uart_11xx.h ****  * @brief	Transmit a single data byte through the UART peripheral
 317:../../lpc_chip_11cxx_lib/inc/uart_11xx.h ****  * @param	pUART	: Pointer to selected UART peripheral
 318:../../lpc_chip_11cxx_lib/inc/uart_11xx.h ****  * @param	data	: Byte to transmit
 319:../../lpc_chip_11cxx_lib/inc/uart_11xx.h ****  * @return	Nothing
 320:../../lpc_chip_11cxx_lib/inc/uart_11xx.h ****  * @note	This function attempts to place a byte into the UART transmit
 321:../../lpc_chip_11cxx_lib/inc/uart_11xx.h ****  *			FIFO or transmit hold register regard regardless of UART state
 322:../../lpc_chip_11cxx_lib/inc/uart_11xx.h ****  */
 323:../../lpc_chip_11cxx_lib/inc/uart_11xx.h **** STATIC INLINE void Chip_UART_SendByte(LPC_USART_T *pUART, uint8_t data)
 324:../../lpc_chip_11cxx_lib/inc/uart_11xx.h **** {
 325:../../lpc_chip_11cxx_lib/inc/uart_11xx.h **** 	pUART->THR = (uint32_t) data;
 326:../../lpc_chip_11cxx_lib/inc/uart_11xx.h **** }
 327:../../lpc_chip_11cxx_lib/inc/uart_11xx.h **** 
 328:../../lpc_chip_11cxx_lib/inc/uart_11xx.h **** /**
 329:../../lpc_chip_11cxx_lib/inc/uart_11xx.h ****  * @brief	Read a single byte data from the UART peripheral
 330:../../lpc_chip_11cxx_lib/inc/uart_11xx.h ****  * @param	pUART	: Pointer to selected UART peripheral
 331:../../lpc_chip_11cxx_lib/inc/uart_11xx.h ****  * @return	A single byte of data read
 332:../../lpc_chip_11cxx_lib/inc/uart_11xx.h ****  * @note	This function reads a byte from the UART receive FIFO or
 333:../../lpc_chip_11cxx_lib/inc/uart_11xx.h ****  *			receive hold register regard regardless of UART state. The
 334:../../lpc_chip_11cxx_lib/inc/uart_11xx.h ****  *			FIFO status should be read first prior to using this function
 335:../../lpc_chip_11cxx_lib/inc/uart_11xx.h ****  */
 336:../../lpc_chip_11cxx_lib/inc/uart_11xx.h **** STATIC INLINE uint8_t Chip_UART_ReadByte(LPC_USART_T *pUART)
 337:../../lpc_chip_11cxx_lib/inc/uart_11xx.h **** {
 338:../../lpc_chip_11cxx_lib/inc/uart_11xx.h **** 	return (uint8_t) (pUART->RBR & UART_RBR_MASKBIT);
 339:../../lpc_chip_11cxx_lib/inc/uart_11xx.h **** }
 340:../../lpc_chip_11cxx_lib/inc/uart_11xx.h **** 
 341:../../lpc_chip_11cxx_lib/inc/uart_11xx.h **** /**
 342:../../lpc_chip_11cxx_lib/inc/uart_11xx.h ****  * @brief	Enable UART interrupts
 343:../../lpc_chip_11cxx_lib/inc/uart_11xx.h ****  * @param	pUART	: Pointer to selected UART peripheral
 344:../../lpc_chip_11cxx_lib/inc/uart_11xx.h ****  * @param	intMask	: OR'ed Interrupts to enable in the Interrupt Enable Register (IER)
 345:../../lpc_chip_11cxx_lib/inc/uart_11xx.h ****  * @return	Nothing
 346:../../lpc_chip_11cxx_lib/inc/uart_11xx.h ****  * @note	Use an OR'ed value of UART_IER_* definitions with this function
 347:../../lpc_chip_11cxx_lib/inc/uart_11xx.h ****  *			to enable specific UART interrupts. The Divisor Latch Access Bit
 348:../../lpc_chip_11cxx_lib/inc/uart_11xx.h ****  *			(DLAB) in LCR must be cleared in order to access the IER register.
 349:../../lpc_chip_11cxx_lib/inc/uart_11xx.h ****  *			This function doesn't alter the DLAB state
ARM GAS  /var/folders/f9/8bk2lnw15zn4cbgn6wrnb4lm0000gn/T//ccyV4EJ6.s 			page 16


 350:../../lpc_chip_11cxx_lib/inc/uart_11xx.h ****  */
 351:../../lpc_chip_11cxx_lib/inc/uart_11xx.h **** STATIC INLINE void Chip_UART_IntEnable(LPC_USART_T *pUART, uint32_t intMask)
 352:../../lpc_chip_11cxx_lib/inc/uart_11xx.h **** {
 353:../../lpc_chip_11cxx_lib/inc/uart_11xx.h **** 	pUART->IER |= intMask;
 354:../../lpc_chip_11cxx_lib/inc/uart_11xx.h **** }
 355:../../lpc_chip_11cxx_lib/inc/uart_11xx.h **** 
 356:../../lpc_chip_11cxx_lib/inc/uart_11xx.h **** /**
 357:../../lpc_chip_11cxx_lib/inc/uart_11xx.h ****  * @brief	Disable UART interrupts
 358:../../lpc_chip_11cxx_lib/inc/uart_11xx.h ****  * @param	pUART	: Pointer to selected UART peripheral
 359:../../lpc_chip_11cxx_lib/inc/uart_11xx.h ****  * @param	intMask	: OR'ed Interrupts to disable in the Interrupt Enable Register (IER)
 360:../../lpc_chip_11cxx_lib/inc/uart_11xx.h ****  * @return	Nothing
 361:../../lpc_chip_11cxx_lib/inc/uart_11xx.h ****  * @note	Use an OR'ed value of UART_IER_* definitions with this function
 362:../../lpc_chip_11cxx_lib/inc/uart_11xx.h ****  *			to disable specific UART interrupts. The Divisor Latch Access Bit
 363:../../lpc_chip_11cxx_lib/inc/uart_11xx.h ****  *			(DLAB) in LCR must be cleared in order to access the IER register.
 364:../../lpc_chip_11cxx_lib/inc/uart_11xx.h ****  *			This function doesn't alter the DLAB state
 365:../../lpc_chip_11cxx_lib/inc/uart_11xx.h ****  */
 366:../../lpc_chip_11cxx_lib/inc/uart_11xx.h **** STATIC INLINE void Chip_UART_IntDisable(LPC_USART_T *pUART, uint32_t intMask)
 367:../../lpc_chip_11cxx_lib/inc/uart_11xx.h **** {
 368:../../lpc_chip_11cxx_lib/inc/uart_11xx.h **** 	pUART->IER &= ~intMask;
 369:../../lpc_chip_11cxx_lib/inc/uart_11xx.h **** }
 370:../../lpc_chip_11cxx_lib/inc/uart_11xx.h **** 
 371:../../lpc_chip_11cxx_lib/inc/uart_11xx.h **** /**
 372:../../lpc_chip_11cxx_lib/inc/uart_11xx.h ****  * @brief	Returns UART interrupts that are enabled
 373:../../lpc_chip_11cxx_lib/inc/uart_11xx.h ****  * @param	pUART	: Pointer to selected UART peripheral
 374:../../lpc_chip_11cxx_lib/inc/uart_11xx.h ****  * @return	Returns the enabled UART interrupts
 375:../../lpc_chip_11cxx_lib/inc/uart_11xx.h ****  * @note	Use an OR'ed value of UART_IER_* definitions with this function
 376:../../lpc_chip_11cxx_lib/inc/uart_11xx.h ****  *			to determine which interrupts are enabled. You can check
 377:../../lpc_chip_11cxx_lib/inc/uart_11xx.h ****  *			for multiple enabled bits if needed.
 378:../../lpc_chip_11cxx_lib/inc/uart_11xx.h ****  */
 379:../../lpc_chip_11cxx_lib/inc/uart_11xx.h **** STATIC INLINE uint32_t Chip_UART_GetIntsEnabled(LPC_USART_T *pUART)
 380:../../lpc_chip_11cxx_lib/inc/uart_11xx.h **** {
 381:../../lpc_chip_11cxx_lib/inc/uart_11xx.h **** 	return pUART->IER;
 382:../../lpc_chip_11cxx_lib/inc/uart_11xx.h **** }
 383:../../lpc_chip_11cxx_lib/inc/uart_11xx.h **** 
 384:../../lpc_chip_11cxx_lib/inc/uart_11xx.h **** /**
 385:../../lpc_chip_11cxx_lib/inc/uart_11xx.h ****  * @brief	Read the Interrupt Identification Register (IIR)
 386:../../lpc_chip_11cxx_lib/inc/uart_11xx.h ****  * @param	pUART	: Pointer to selected UART peripheral
 387:../../lpc_chip_11cxx_lib/inc/uart_11xx.h ****  * @return	Current pending interrupt status per the IIR register
 388:../../lpc_chip_11cxx_lib/inc/uart_11xx.h ****  */
 389:../../lpc_chip_11cxx_lib/inc/uart_11xx.h **** STATIC INLINE uint32_t Chip_UART_ReadIntIDReg(LPC_USART_T *pUART)
 390:../../lpc_chip_11cxx_lib/inc/uart_11xx.h **** {
 391:../../lpc_chip_11cxx_lib/inc/uart_11xx.h **** 	return pUART->IIR;
 392:../../lpc_chip_11cxx_lib/inc/uart_11xx.h **** }
 393:../../lpc_chip_11cxx_lib/inc/uart_11xx.h **** 
 394:../../lpc_chip_11cxx_lib/inc/uart_11xx.h **** /**
 395:../../lpc_chip_11cxx_lib/inc/uart_11xx.h ****  * @brief	Setup the UART FIFOs
 396:../../lpc_chip_11cxx_lib/inc/uart_11xx.h ****  * @param	pUART	: Pointer to selected UART peripheral
 397:../../lpc_chip_11cxx_lib/inc/uart_11xx.h ****  * @param	fcr		: FIFO control register setup OR'ed flags
 398:../../lpc_chip_11cxx_lib/inc/uart_11xx.h ****  * @return	Nothing
 399:../../lpc_chip_11cxx_lib/inc/uart_11xx.h ****  * @note	Use OR'ed value of UART_FCR_* definitions with this function
 400:../../lpc_chip_11cxx_lib/inc/uart_11xx.h ****  *			to select specific options. For example, to enable the FIFOs
 401:../../lpc_chip_11cxx_lib/inc/uart_11xx.h ****  *			with a RX trip level of 8 characters, use something like
 402:../../lpc_chip_11cxx_lib/inc/uart_11xx.h ****  *			(UART_FCR_FIFO_EN | UART_FCR_TRG_LEV2)
 403:../../lpc_chip_11cxx_lib/inc/uart_11xx.h ****  */
 404:../../lpc_chip_11cxx_lib/inc/uart_11xx.h **** STATIC INLINE void Chip_UART_SetupFIFOS(LPC_USART_T *pUART, uint32_t fcr)
 405:../../lpc_chip_11cxx_lib/inc/uart_11xx.h **** {
 406:../../lpc_chip_11cxx_lib/inc/uart_11xx.h **** 	pUART->FCR = fcr;
ARM GAS  /var/folders/f9/8bk2lnw15zn4cbgn6wrnb4lm0000gn/T//ccyV4EJ6.s 			page 17


 114              		.loc 3 406 0
 115 0016 0723     		mov	r3, #7	@ tmp121,
 116 0018 8360     		str	r3, [r0, #8]	@ tmp121, pUART_4(D)->D.4996.FCR
 117              	.LVL3:
 118              	.LBE75:
 119              	.LBE74:
 120              	.LBB76:
 121              	.LBB77:
 407:../../lpc_chip_11cxx_lib/inc/uart_11xx.h **** }
 408:../../lpc_chip_11cxx_lib/inc/uart_11xx.h **** 
 409:../../lpc_chip_11cxx_lib/inc/uart_11xx.h **** /**
 410:../../lpc_chip_11cxx_lib/inc/uart_11xx.h ****  * @brief	Configure data width, parity and stop bits
 411:../../lpc_chip_11cxx_lib/inc/uart_11xx.h ****  * @param	pUART	: Pointer to selected pUART peripheral
 412:../../lpc_chip_11cxx_lib/inc/uart_11xx.h ****  * @param	config	: UART configuration, OR'ed values of UART_LCR_* defines
 413:../../lpc_chip_11cxx_lib/inc/uart_11xx.h ****  * @return	Nothing
 414:../../lpc_chip_11cxx_lib/inc/uart_11xx.h ****  * @note	Select OR'ed config options for the UART from the UART_LCR_*
 415:../../lpc_chip_11cxx_lib/inc/uart_11xx.h ****  *			definitions. For example, a configuration of 8 data bits, 1
 416:../../lpc_chip_11cxx_lib/inc/uart_11xx.h ****  *			stop bit, and even (enabled) parity would be
 417:../../lpc_chip_11cxx_lib/inc/uart_11xx.h ****  *			(UART_LCR_WLEN8 | UART_LCR_SBS_1BIT | UART_LCR_PARITY_EN | UART_LCR_PARITY_EVEN)
 418:../../lpc_chip_11cxx_lib/inc/uart_11xx.h ****  */
 419:../../lpc_chip_11cxx_lib/inc/uart_11xx.h **** STATIC INLINE void Chip_UART_ConfigData(LPC_USART_T *pUART, uint32_t config)
 420:../../lpc_chip_11cxx_lib/inc/uart_11xx.h **** {
 421:../../lpc_chip_11cxx_lib/inc/uart_11xx.h **** 	pUART->LCR = config;
 122              		.loc 3 421 0
 123 001a 0323     		mov	r3, #3	@ tmp122,
 124 001c C360     		str	r3, [r0, #12]	@ tmp122, pUART_4(D)->LCR
 125              	.LBE77:
 126              	.LBE76:
  53:../../lpc_chip_11cxx_lib/src/uart_11xx.c **** 	Chip_Clock_EnablePeriphClock(SYSCTL_CLOCK_UART0);
  54:../../lpc_chip_11cxx_lib/src/uart_11xx.c **** 	Chip_Clock_SetUARTClockDiv(1);
  55:../../lpc_chip_11cxx_lib/src/uart_11xx.c **** 
  56:../../lpc_chip_11cxx_lib/src/uart_11xx.c **** 	/* Enable FIFOs by default, reset them */
  57:../../lpc_chip_11cxx_lib/src/uart_11xx.c **** 	Chip_UART_SetupFIFOS(pUART, (UART_FCR_FIFO_EN | UART_FCR_RX_RS | UART_FCR_TX_RS));
  58:../../lpc_chip_11cxx_lib/src/uart_11xx.c **** 
  59:../../lpc_chip_11cxx_lib/src/uart_11xx.c **** 	/* Default 8N1, with DLAB disabled */
  60:../../lpc_chip_11cxx_lib/src/uart_11xx.c **** 	Chip_UART_ConfigData(pUART, (UART_LCR_WLEN8 | UART_LCR_SBS_1BIT | UART_LCR_PARITY_DIS));
  61:../../lpc_chip_11cxx_lib/src/uart_11xx.c **** 
  62:../../lpc_chip_11cxx_lib/src/uart_11xx.c **** 	/* Disable fractional divider */
  63:../../lpc_chip_11cxx_lib/src/uart_11xx.c **** 	pUART->FDR = 0x10;
 127              		.loc 1 63 0
 128 001e 1023     		mov	r3, #16	@ tmp123,
 129 0020 8362     		str	r3, [r0, #40]	@ tmp123, pUART_4(D)->FDR
  64:../../lpc_chip_11cxx_lib/src/uart_11xx.c **** }
 130              		.loc 1 64 0
 131              		@ sp needed	@
 132 0022 10BD     		pop	{r4, pc}
 133              	.L3:
 134              		.align	2
 135              	.L2:
 136 0024 00800440 		.word	1074036736
 137              		.cfi_endproc
 138              	.LFE198:
 139              		.size	Chip_UART_Init, .-Chip_UART_Init
 140              		.section	.text.Chip_UART_DeInit,"ax",%progbits
 141              		.align	2
 142              		.global	Chip_UART_DeInit
 143              		.code	16
ARM GAS  /var/folders/f9/8bk2lnw15zn4cbgn6wrnb4lm0000gn/T//ccyV4EJ6.s 			page 18


 144              		.thumb_func
 145              		.type	Chip_UART_DeInit, %function
 146              	Chip_UART_DeInit:
 147              	.LFB199:
  65:../../lpc_chip_11cxx_lib/src/uart_11xx.c **** 
  66:../../lpc_chip_11cxx_lib/src/uart_11xx.c **** /* De-initializes the pUART peripheral */
  67:../../lpc_chip_11cxx_lib/src/uart_11xx.c **** void Chip_UART_DeInit(LPC_USART_T *pUART)
  68:../../lpc_chip_11cxx_lib/src/uart_11xx.c **** {
 148              		.loc 1 68 0
 149              		.cfi_startproc
 150              	.LVL4:
 151              	.LBB78:
 152              	.LBB79:
 307:../../lpc_chip_11cxx_lib/inc/clock_11xx.h **** 	LPC_SYSCTL->SYSAHBCLKCTRL &= ~(1 << clk);
 153              		.loc 2 307 0
 154 0000 034A     		ldr	r2, .L5	@ tmp113,
 155 0002 8023     		mov	r3, #128	@ tmp114,
 156 0004 D058     		ldr	r0, [r2, r3]	@ D.6377, MEM[(struct LPC_SYSCTL_T *)1074036736B].SYSAHBCLKCTRL
 157              	.LVL5:
 158 0006 0349     		ldr	r1, .L5+4	@ tmp115,
 159              	.LBE79:
 160              	.LBE78:
  69:../../lpc_chip_11cxx_lib/src/uart_11xx.c **** 	UNUSED(pUART);
  70:../../lpc_chip_11cxx_lib/src/uart_11xx.c **** 	Chip_Clock_DisablePeriphClock(SYSCTL_CLOCK_UART0);
  71:../../lpc_chip_11cxx_lib/src/uart_11xx.c **** }
 161              		.loc 1 71 0
 162              		@ sp needed	@
 163              	.LBB81:
 164              	.LBB80:
 307:../../lpc_chip_11cxx_lib/inc/clock_11xx.h **** 	LPC_SYSCTL->SYSAHBCLKCTRL &= ~(1 << clk);
 165              		.loc 2 307 0
 166 0008 0140     		and	r1, r0	@ D.6377, D.6377
 167 000a D150     		str	r1, [r2, r3]	@ D.6377, MEM[(struct LPC_SYSCTL_T *)1074036736B].SYSAHBCLKCTRL
 168              	.LBE80:
 169              	.LBE81:
 170              		.loc 1 71 0
 171 000c 7047     		bx	lr
 172              	.L6:
 173 000e C046     		.align	2
 174              	.L5:
 175 0010 00800440 		.word	1074036736
 176 0014 FFEFFFFF 		.word	-4097
 177              		.cfi_endproc
 178              	.LFE199:
 179              		.size	Chip_UART_DeInit, .-Chip_UART_DeInit
 180              		.section	.text.Chip_UART_Send,"ax",%progbits
 181              		.align	2
 182              		.global	Chip_UART_Send
 183              		.code	16
 184              		.thumb_func
 185              		.type	Chip_UART_Send, %function
 186              	Chip_UART_Send:
 187              	.LFB200:
  72:../../lpc_chip_11cxx_lib/src/uart_11xx.c **** 
  73:../../lpc_chip_11cxx_lib/src/uart_11xx.c **** /* Transmit a byte array through the UART peripheral (non-blocking) */
  74:../../lpc_chip_11cxx_lib/src/uart_11xx.c **** int Chip_UART_Send(LPC_USART_T *pUART, const void *data, int numBytes)
  75:../../lpc_chip_11cxx_lib/src/uart_11xx.c **** {
ARM GAS  /var/folders/f9/8bk2lnw15zn4cbgn6wrnb4lm0000gn/T//ccyV4EJ6.s 			page 19


 188              		.loc 1 75 0
 189              		.cfi_startproc
 190              	.LVL6:
 191 0000 30B5     		push	{r4, r5, lr}	@
 192              		.cfi_def_cfa_offset 12
 193              		.cfi_offset 4, -12
 194              		.cfi_offset 5, -8
 195              		.cfi_offset 14, -4
  76:../../lpc_chip_11cxx_lib/src/uart_11xx.c **** 	int sent = 0;
  77:../../lpc_chip_11cxx_lib/src/uart_11xx.c **** 	uint8_t *p8 = (uint8_t *) data;
  78:../../lpc_chip_11cxx_lib/src/uart_11xx.c **** 
  79:../../lpc_chip_11cxx_lib/src/uart_11xx.c **** 	/* Send until the transmit FIFO is full or out of bytes */
  80:../../lpc_chip_11cxx_lib/src/uart_11xx.c **** 	while ((sent < numBytes) &&
 196              		.loc 1 80 0
 197 0002 002A     		cmp	r2, #0	@ numBytes,
 198 0004 0FDD     		ble	.L11	@,
 199              	.LVL7:
 200              	.LBB82:
 201              	.LBB83:
 422:../../lpc_chip_11cxx_lib/inc/uart_11xx.h **** }
 423:../../lpc_chip_11cxx_lib/inc/uart_11xx.h **** 
 424:../../lpc_chip_11cxx_lib/inc/uart_11xx.h **** /**
 425:../../lpc_chip_11cxx_lib/inc/uart_11xx.h ****  * @brief	Enable access to Divisor Latches
 426:../../lpc_chip_11cxx_lib/inc/uart_11xx.h ****  * @param	pUART	: Pointer to selected UART peripheral
 427:../../lpc_chip_11cxx_lib/inc/uart_11xx.h ****  * @return	Nothing
 428:../../lpc_chip_11cxx_lib/inc/uart_11xx.h ****  */
 429:../../lpc_chip_11cxx_lib/inc/uart_11xx.h **** STATIC INLINE void Chip_UART_EnableDivisorAccess(LPC_USART_T *pUART)
 430:../../lpc_chip_11cxx_lib/inc/uart_11xx.h **** {
 431:../../lpc_chip_11cxx_lib/inc/uart_11xx.h **** 	pUART->LCR |= UART_LCR_DLAB_EN;
 432:../../lpc_chip_11cxx_lib/inc/uart_11xx.h **** }
 433:../../lpc_chip_11cxx_lib/inc/uart_11xx.h **** 
 434:../../lpc_chip_11cxx_lib/inc/uart_11xx.h **** /**
 435:../../lpc_chip_11cxx_lib/inc/uart_11xx.h ****  * @brief	Disable access to Divisor Latches
 436:../../lpc_chip_11cxx_lib/inc/uart_11xx.h ****  * @param	pUART	: Pointer to selected UART peripheral
 437:../../lpc_chip_11cxx_lib/inc/uart_11xx.h ****  * @return	Nothing
 438:../../lpc_chip_11cxx_lib/inc/uart_11xx.h ****  */
 439:../../lpc_chip_11cxx_lib/inc/uart_11xx.h **** STATIC INLINE void Chip_UART_DisableDivisorAccess(LPC_USART_T *pUART)
 440:../../lpc_chip_11cxx_lib/inc/uart_11xx.h **** {
 441:../../lpc_chip_11cxx_lib/inc/uart_11xx.h **** 	pUART->LCR &= ~UART_LCR_DLAB_EN;
 442:../../lpc_chip_11cxx_lib/inc/uart_11xx.h **** }
 443:../../lpc_chip_11cxx_lib/inc/uart_11xx.h **** 
 444:../../lpc_chip_11cxx_lib/inc/uart_11xx.h **** /**
 445:../../lpc_chip_11cxx_lib/inc/uart_11xx.h ****  * @brief	Set LSB and MSB divisor latch registers
 446:../../lpc_chip_11cxx_lib/inc/uart_11xx.h ****  * @param	pUART	: Pointer to selected UART peripheral
 447:../../lpc_chip_11cxx_lib/inc/uart_11xx.h ****  * @param	dll		: Divisor Latch LSB value
 448:../../lpc_chip_11cxx_lib/inc/uart_11xx.h ****  * @param	dlm		: Divisor Latch MSB value
 449:../../lpc_chip_11cxx_lib/inc/uart_11xx.h ****  * @return	Nothing
 450:../../lpc_chip_11cxx_lib/inc/uart_11xx.h ****  * @note	The Divisor Latch Access Bit (DLAB) in LCR must be set in
 451:../../lpc_chip_11cxx_lib/inc/uart_11xx.h ****  *			order to access the USART Divisor Latches. This function
 452:../../lpc_chip_11cxx_lib/inc/uart_11xx.h ****  *			doesn't alter the DLAB state.
 453:../../lpc_chip_11cxx_lib/inc/uart_11xx.h ****  */
 454:../../lpc_chip_11cxx_lib/inc/uart_11xx.h **** STATIC INLINE void Chip_UART_SetDivisorLatches(LPC_USART_T *pUART, uint8_t dll, uint8_t dlm)
 455:../../lpc_chip_11cxx_lib/inc/uart_11xx.h **** {
 456:../../lpc_chip_11cxx_lib/inc/uart_11xx.h **** 	pUART->DLL = (uint32_t) dll;
 457:../../lpc_chip_11cxx_lib/inc/uart_11xx.h **** 	pUART->DLM = (uint32_t) dlm;
 458:../../lpc_chip_11cxx_lib/inc/uart_11xx.h **** }
 459:../../lpc_chip_11cxx_lib/inc/uart_11xx.h **** 
ARM GAS  /var/folders/f9/8bk2lnw15zn4cbgn6wrnb4lm0000gn/T//ccyV4EJ6.s 			page 20


 460:../../lpc_chip_11cxx_lib/inc/uart_11xx.h **** /**
 461:../../lpc_chip_11cxx_lib/inc/uart_11xx.h ****  * @brief	Return modem control register/status
 462:../../lpc_chip_11cxx_lib/inc/uart_11xx.h ****  * @param	pUART	: Pointer to selected UART peripheral
 463:../../lpc_chip_11cxx_lib/inc/uart_11xx.h ****  * @return	Modem control register (status)
 464:../../lpc_chip_11cxx_lib/inc/uart_11xx.h ****  * @note	Mask bits of the returned status value with UART_MCR_*
 465:../../lpc_chip_11cxx_lib/inc/uart_11xx.h ****  *			definitions for specific statuses.
 466:../../lpc_chip_11cxx_lib/inc/uart_11xx.h ****  */
 467:../../lpc_chip_11cxx_lib/inc/uart_11xx.h **** STATIC INLINE uint32_t Chip_UART_ReadModemControl(LPC_USART_T *pUART)
 468:../../lpc_chip_11cxx_lib/inc/uart_11xx.h **** {
 469:../../lpc_chip_11cxx_lib/inc/uart_11xx.h **** 	return pUART->MCR;
 470:../../lpc_chip_11cxx_lib/inc/uart_11xx.h **** }
 471:../../lpc_chip_11cxx_lib/inc/uart_11xx.h **** 
 472:../../lpc_chip_11cxx_lib/inc/uart_11xx.h **** /**
 473:../../lpc_chip_11cxx_lib/inc/uart_11xx.h ****  * @brief	Set modem control register/status
 474:../../lpc_chip_11cxx_lib/inc/uart_11xx.h ****  * @param	pUART	: Pointer to selected UART peripheral
 475:../../lpc_chip_11cxx_lib/inc/uart_11xx.h ****  * @param	mcr		: Modem control register flags to set
 476:../../lpc_chip_11cxx_lib/inc/uart_11xx.h ****  * @return	Nothing
 477:../../lpc_chip_11cxx_lib/inc/uart_11xx.h ****  * @note	Use an Or'ed value of UART_MCR_* definitions with this
 478:../../lpc_chip_11cxx_lib/inc/uart_11xx.h ****  *			call to set specific options.
 479:../../lpc_chip_11cxx_lib/inc/uart_11xx.h ****  */
 480:../../lpc_chip_11cxx_lib/inc/uart_11xx.h **** STATIC INLINE void Chip_UART_SetModemControl(LPC_USART_T *pUART, uint32_t mcr)
 481:../../lpc_chip_11cxx_lib/inc/uart_11xx.h **** {
 482:../../lpc_chip_11cxx_lib/inc/uart_11xx.h **** 	pUART->MCR |= mcr;
 483:../../lpc_chip_11cxx_lib/inc/uart_11xx.h **** }
 484:../../lpc_chip_11cxx_lib/inc/uart_11xx.h **** 
 485:../../lpc_chip_11cxx_lib/inc/uart_11xx.h **** /**
 486:../../lpc_chip_11cxx_lib/inc/uart_11xx.h ****  * @brief	Clear modem control register/status
 487:../../lpc_chip_11cxx_lib/inc/uart_11xx.h ****  * @param	pUART	: Pointer to selected UART peripheral
 488:../../lpc_chip_11cxx_lib/inc/uart_11xx.h ****  * @param	mcr		: Modem control register flags to clear
 489:../../lpc_chip_11cxx_lib/inc/uart_11xx.h ****  * @return	Nothing
 490:../../lpc_chip_11cxx_lib/inc/uart_11xx.h ****  * @note	Use an Or'ed value of UART_MCR_* definitions with this
 491:../../lpc_chip_11cxx_lib/inc/uart_11xx.h ****  *			call to clear specific options.
 492:../../lpc_chip_11cxx_lib/inc/uart_11xx.h ****  */
 493:../../lpc_chip_11cxx_lib/inc/uart_11xx.h **** STATIC INLINE void Chip_UART_ClearModemControl(LPC_USART_T *pUART, uint32_t mcr)
 494:../../lpc_chip_11cxx_lib/inc/uart_11xx.h **** {
 495:../../lpc_chip_11cxx_lib/inc/uart_11xx.h **** 	pUART->MCR &= ~mcr;
 496:../../lpc_chip_11cxx_lib/inc/uart_11xx.h **** }
 497:../../lpc_chip_11cxx_lib/inc/uart_11xx.h **** 
 498:../../lpc_chip_11cxx_lib/inc/uart_11xx.h **** /**
 499:../../lpc_chip_11cxx_lib/inc/uart_11xx.h ****  * @brief	Return Line Status register/status (LSR)
 500:../../lpc_chip_11cxx_lib/inc/uart_11xx.h ****  * @param	pUART	: Pointer to selected UART peripheral
 501:../../lpc_chip_11cxx_lib/inc/uart_11xx.h ****  * @return	Line Status register (status)
 502:../../lpc_chip_11cxx_lib/inc/uart_11xx.h ****  * @note	Mask bits of the returned status value with UART_LSR_*
 503:../../lpc_chip_11cxx_lib/inc/uart_11xx.h ****  *			definitions for specific statuses.
 504:../../lpc_chip_11cxx_lib/inc/uart_11xx.h ****  */
 505:../../lpc_chip_11cxx_lib/inc/uart_11xx.h **** STATIC INLINE uint32_t Chip_UART_ReadLineStatus(LPC_USART_T *pUART)
 506:../../lpc_chip_11cxx_lib/inc/uart_11xx.h **** {
 507:../../lpc_chip_11cxx_lib/inc/uart_11xx.h **** 	return pUART->LSR;
 202              		.loc 3 507 0
 203 0006 4369     		ldr	r3, [r0, #20]	@ D.6390, pUART_7(D)->LSR
 204              	.LBE83:
 205              	.LBE82:
 206              		.loc 1 80 0
 207 0008 9C06     		lsl	r4, r3, #26	@, D.6390,
 208 000a 0CD5     		bpl	.L11	@,
  76:../../lpc_chip_11cxx_lib/src/uart_11xx.c **** 	int sent = 0;
 209              		.loc 1 76 0
ARM GAS  /var/folders/f9/8bk2lnw15zn4cbgn6wrnb4lm0000gn/T//ccyV4EJ6.s 			page 21


 210 000c 0023     		mov	r3, #0	@ sent,
  81:../../lpc_chip_11cxx_lib/src/uart_11xx.c **** 		   ((Chip_UART_ReadLineStatus(pUART) & UART_LSR_THRE) != 0)) {
 211              		.loc 1 81 0
 212 000e 2025     		mov	r5, #32	@ tmp151,
 213 0010 02E0     		b	.L9	@
 214              	.LVL8:
 215              	.L16:
 216              	.LBB85:
 217              	.LBB84:
 218              		.loc 3 507 0
 219 0012 4469     		ldr	r4, [r0, #20]	@ D.6390, pUART_7(D)->LSR
 220              	.LVL9:
 221              	.LBE84:
 222              	.LBE85:
  80:../../lpc_chip_11cxx_lib/src/uart_11xx.c **** 	while ((sent < numBytes) &&
 223              		.loc 1 80 0
 224 0014 2542     		tst	r5, r4	@ tmp151, D.6390
 225 0016 04D0     		beq	.L8	@,
 226              	.LVL10:
 227              	.L9:
 228              	.LBB86:
 229              	.LBB87:
 325:../../lpc_chip_11cxx_lib/inc/uart_11xx.h **** 	pUART->THR = (uint32_t) data;
 230              		.loc 3 325 0
 231 0018 CC5C     		ldrb	r4, [r1, r3]	@ D.6388, MEM[base: data_4(D), index: _1, offset: 0B]
 232              	.LBE87:
 233              	.LBE86:
  82:../../lpc_chip_11cxx_lib/src/uart_11xx.c **** 		Chip_UART_SendByte(pUART, *p8);
  83:../../lpc_chip_11cxx_lib/src/uart_11xx.c **** 		p8++;
  84:../../lpc_chip_11cxx_lib/src/uart_11xx.c **** 		sent++;
 234              		.loc 1 84 0
 235 001a 0133     		add	r3, r3, #1	@ sent,
 236              	.LVL11:
 237              	.LBB89:
 238              	.LBB88:
 325:../../lpc_chip_11cxx_lib/inc/uart_11xx.h **** 	pUART->THR = (uint32_t) data;
 239              		.loc 3 325 0
 240 001c 0460     		str	r4, [r0]	@ D.6388, pUART_7(D)->D.4988.THR
 241              	.LVL12:
 242              	.LBE88:
 243              	.LBE89:
  80:../../lpc_chip_11cxx_lib/src/uart_11xx.c **** 	while ((sent < numBytes) &&
 244              		.loc 1 80 0
 245 001e 9342     		cmp	r3, r2	@ sent, numBytes
 246 0020 F7D1     		bne	.L16	@,
 247              	.LVL13:
 248              	.L8:
  85:../../lpc_chip_11cxx_lib/src/uart_11xx.c **** 	}
  86:../../lpc_chip_11cxx_lib/src/uart_11xx.c **** 
  87:../../lpc_chip_11cxx_lib/src/uart_11xx.c **** 	return sent;
  88:../../lpc_chip_11cxx_lib/src/uart_11xx.c **** }
 249              		.loc 1 88 0
 250 0022 181C     		mov	r0, r3	@, sent
 251              	.LVL14:
 252              		@ sp needed	@
 253 0024 30BD     		pop	{r4, r5, pc}
 254              	.LVL15:
ARM GAS  /var/folders/f9/8bk2lnw15zn4cbgn6wrnb4lm0000gn/T//ccyV4EJ6.s 			page 22


 255              	.L11:
  76:../../lpc_chip_11cxx_lib/src/uart_11xx.c **** 	int sent = 0;
 256              		.loc 1 76 0
 257 0026 0023     		mov	r3, #0	@ sent,
 258 0028 FBE7     		b	.L8	@
 259              		.cfi_endproc
 260              	.LFE200:
 261              		.size	Chip_UART_Send, .-Chip_UART_Send
 262 002a C046     		.section	.text.Chip_UART_SendBlocking,"ax",%progbits
 263              		.align	2
 264              		.global	Chip_UART_SendBlocking
 265              		.code	16
 266              		.thumb_func
 267              		.type	Chip_UART_SendBlocking, %function
 268              	Chip_UART_SendBlocking:
 269              	.LFB201:
  89:../../lpc_chip_11cxx_lib/src/uart_11xx.c **** 
  90:../../lpc_chip_11cxx_lib/src/uart_11xx.c **** /* Transmit a byte array through the UART peripheral (blocking) */
  91:../../lpc_chip_11cxx_lib/src/uart_11xx.c **** int Chip_UART_SendBlocking(LPC_USART_T *pUART, const void *data, int numBytes)
  92:../../lpc_chip_11cxx_lib/src/uart_11xx.c **** {
 270              		.loc 1 92 0
 271              		.cfi_startproc
 272              	.LVL16:
 273 0000 70B5     		push	{r4, r5, r6, lr}	@
 274              		.cfi_def_cfa_offset 16
 275              		.cfi_offset 4, -16
 276              		.cfi_offset 5, -12
 277              		.cfi_offset 6, -8
 278              		.cfi_offset 14, -4
  93:../../lpc_chip_11cxx_lib/src/uart_11xx.c **** 	int pass, sent = 0;
 279              		.loc 1 93 0
 280 0002 0026     		mov	r6, #0	@ sent,
  94:../../lpc_chip_11cxx_lib/src/uart_11xx.c **** 	uint8_t *p8 = (uint8_t *) data;
  95:../../lpc_chip_11cxx_lib/src/uart_11xx.c **** 
  96:../../lpc_chip_11cxx_lib/src/uart_11xx.c **** 	while (numBytes > 0) {
 281              		.loc 1 96 0
 282 0004 002A     		cmp	r2, #0	@ numBytes,
 283 0006 0EDD     		ble	.L18	@,
 284              	.LBB90:
 285              	.LBB91:
  81:../../lpc_chip_11cxx_lib/src/uart_11xx.c **** 		   ((Chip_UART_ReadLineStatus(pUART) & UART_LSR_THRE) != 0)) {
 286              		.loc 1 81 0
 287 0008 2025     		mov	r5, #32	@ tmp127,
 288              	.LVL17:
 289              	.L19:
 290              	.LBE91:
 291              	.LBE90:
  92:../../lpc_chip_11cxx_lib/src/uart_11xx.c **** {
 292              		.loc 1 92 0
 293 000a 0023     		mov	r3, #0	@ pass,
 294              	.LVL18:
 295              	.L22:
 296              	.LBB99:
 297              	.LBB98:
 298              	.LBB92:
 299              	.LBB93:
 300              		.loc 3 507 0
ARM GAS  /var/folders/f9/8bk2lnw15zn4cbgn6wrnb4lm0000gn/T//ccyV4EJ6.s 			page 23


 301 000c 4469     		ldr	r4, [r0, #20]	@ D.6400, pUART_8(D)->LSR
 302              	.LBE93:
 303              	.LBE92:
  80:../../lpc_chip_11cxx_lib/src/uart_11xx.c **** 	while ((sent < numBytes) &&
 304              		.loc 1 80 0
 305 000e 2542     		tst	r5, r4	@ tmp127, D.6400
 306 0010 04D0     		beq	.L20	@,
 307              	.LVL19:
 308              	.LBB94:
 309              	.LBB95:
 325:../../lpc_chip_11cxx_lib/inc/uart_11xx.h **** 	pUART->THR = (uint32_t) data;
 310              		.loc 3 325 0
 311 0012 CC5C     		ldrb	r4, [r1, r3]	@ D.6399, MEM[base: data_14, index: _2, offset: 0B]
 312              	.LBE95:
 313              	.LBE94:
  84:../../lpc_chip_11cxx_lib/src/uart_11xx.c **** 		sent++;
 314              		.loc 1 84 0
 315 0014 0133     		add	r3, r3, #1	@ pass,
 316              	.LVL20:
 317              	.LBB97:
 318              	.LBB96:
 325:../../lpc_chip_11cxx_lib/inc/uart_11xx.h **** 	pUART->THR = (uint32_t) data;
 319              		.loc 3 325 0
 320 0016 0460     		str	r4, [r0]	@ D.6399, pUART_8(D)->D.4988.THR
 321              	.LVL21:
 322              	.LBE96:
 323              	.LBE97:
  80:../../lpc_chip_11cxx_lib/src/uart_11xx.c **** 	while ((sent < numBytes) &&
 324              		.loc 1 80 0
 325 0018 9342     		cmp	r3, r2	@ pass, numBytes
 326 001a F7DB     		blt	.L22	@,
 327              	.LVL22:
 328              	.L20:
 329              	.LBE98:
 330              	.LBE99:
  97:../../lpc_chip_11cxx_lib/src/uart_11xx.c **** 		pass = Chip_UART_Send(pUART, p8, numBytes);
  98:../../lpc_chip_11cxx_lib/src/uart_11xx.c **** 		numBytes -= pass;
 331              		.loc 1 98 0
 332 001c D21A     		sub	r2, r2, r3	@ numBytes, numBytes, pass
 333              	.LVL23:
  99:../../lpc_chip_11cxx_lib/src/uart_11xx.c **** 		sent += pass;
 334              		.loc 1 99 0
 335 001e F618     		add	r6, r6, r3	@ sent, sent, pass
 336              	.LVL24:
 100:../../lpc_chip_11cxx_lib/src/uart_11xx.c **** 		p8 += pass;
 337              		.loc 1 100 0
 338 0020 C918     		add	r1, r1, r3	@ data, data, pass
 339              	.LVL25:
  96:../../lpc_chip_11cxx_lib/src/uart_11xx.c **** 	while (numBytes > 0) {
 340              		.loc 1 96 0
 341 0022 002A     		cmp	r2, #0	@ numBytes,
 342 0024 F1DC     		bgt	.L19	@,
 343              	.LVL26:
 344              	.L18:
 101:../../lpc_chip_11cxx_lib/src/uart_11xx.c **** 	}
 102:../../lpc_chip_11cxx_lib/src/uart_11xx.c **** 
 103:../../lpc_chip_11cxx_lib/src/uart_11xx.c **** 	return sent;
ARM GAS  /var/folders/f9/8bk2lnw15zn4cbgn6wrnb4lm0000gn/T//ccyV4EJ6.s 			page 24


 104:../../lpc_chip_11cxx_lib/src/uart_11xx.c **** }
 345              		.loc 1 104 0
 346 0026 301C     		mov	r0, r6	@, sent
 347              	.LVL27:
 348              		@ sp needed	@
 349 0028 70BD     		pop	{r4, r5, r6, pc}
 350              		.cfi_endproc
 351              	.LFE201:
 352              		.size	Chip_UART_SendBlocking, .-Chip_UART_SendBlocking
 353 002a C046     		.section	.text.Chip_UART_Read,"ax",%progbits
 354              		.align	2
 355              		.global	Chip_UART_Read
 356              		.code	16
 357              		.thumb_func
 358              		.type	Chip_UART_Read, %function
 359              	Chip_UART_Read:
 360              	.LFB202:
 105:../../lpc_chip_11cxx_lib/src/uart_11xx.c **** 
 106:../../lpc_chip_11cxx_lib/src/uart_11xx.c **** /* Read data through the UART peripheral (non-blocking) */
 107:../../lpc_chip_11cxx_lib/src/uart_11xx.c **** int Chip_UART_Read(LPC_USART_T *pUART, void *data, int numBytes)
 108:../../lpc_chip_11cxx_lib/src/uart_11xx.c **** {
 361              		.loc 1 108 0
 362              		.cfi_startproc
 363              	.LVL28:
 364 0000 30B5     		push	{r4, r5, lr}	@
 365              		.cfi_def_cfa_offset 12
 366              		.cfi_offset 4, -12
 367              		.cfi_offset 5, -8
 368              		.cfi_offset 14, -4
 109:../../lpc_chip_11cxx_lib/src/uart_11xx.c **** 	int readBytes = 0;
 110:../../lpc_chip_11cxx_lib/src/uart_11xx.c **** 	uint8_t *p8 = (uint8_t *) data;
 111:../../lpc_chip_11cxx_lib/src/uart_11xx.c **** 
 112:../../lpc_chip_11cxx_lib/src/uart_11xx.c **** 	/* Send until the transmit FIFO is full or out of bytes */
 113:../../lpc_chip_11cxx_lib/src/uart_11xx.c **** 	while ((readBytes < numBytes) &&
 369              		.loc 1 113 0
 370 0002 002A     		cmp	r2, #0	@ numBytes,
 371 0004 0FDD     		ble	.L28	@,
 372              	.LVL29:
 373              	.LBB100:
 374              	.LBB101:
 375              		.loc 3 507 0
 376 0006 4369     		ldr	r3, [r0, #20]	@ D.6410, pUART_7(D)->LSR
 377              	.LBE101:
 378              	.LBE100:
 379              		.loc 1 113 0
 380 0008 DC07     		lsl	r4, r3, #31	@, D.6410,
 381 000a 0CD5     		bpl	.L28	@,
 109:../../lpc_chip_11cxx_lib/src/uart_11xx.c **** 	int readBytes = 0;
 382              		.loc 1 109 0
 383 000c 0023     		mov	r3, #0	@ readBytes,
 114:../../lpc_chip_11cxx_lib/src/uart_11xx.c **** 		   ((Chip_UART_ReadLineStatus(pUART) & UART_LSR_RDR) != 0)) {
 384              		.loc 1 114 0
 385 000e 0125     		mov	r5, #1	@ tmp128,
 386 0010 02E0     		b	.L26	@
 387              	.LVL30:
 388              	.L32:
 389              	.LBB103:
ARM GAS  /var/folders/f9/8bk2lnw15zn4cbgn6wrnb4lm0000gn/T//ccyV4EJ6.s 			page 25


 390              	.LBB102:
 391              		.loc 3 507 0
 392 0012 4469     		ldr	r4, [r0, #20]	@ D.6410, pUART_7(D)->LSR
 393              	.LBE102:
 394              	.LBE103:
 113:../../lpc_chip_11cxx_lib/src/uart_11xx.c **** 	while ((readBytes < numBytes) &&
 395              		.loc 1 113 0
 396 0014 2542     		tst	r5, r4	@ tmp128, D.6410
 397 0016 04D0     		beq	.L25	@,
 398              	.LVL31:
 399              	.L26:
 400              	.LBB104:
 401              	.LBB105:
 338:../../lpc_chip_11cxx_lib/inc/uart_11xx.h **** 	return (uint8_t) (pUART->RBR & UART_RBR_MASKBIT);
 402              		.loc 3 338 0
 403 0018 0468     		ldr	r4, [r0]	@ D.6408, pUART_7(D)->D.4988.RBR
 404 001a CC54     		strb	r4, [r1, r3]	@ D.6408, MEM[base: data_4(D), index: _1, offset: 0B]
 405              	.LVL32:
 406              	.LBE105:
 407              	.LBE104:
 115:../../lpc_chip_11cxx_lib/src/uart_11xx.c **** 		*p8 = Chip_UART_ReadByte(pUART);
 116:../../lpc_chip_11cxx_lib/src/uart_11xx.c **** 		p8++;
 117:../../lpc_chip_11cxx_lib/src/uart_11xx.c **** 		readBytes++;
 408              		.loc 1 117 0
 409 001c 0133     		add	r3, r3, #1	@ readBytes,
 410              	.LVL33:
 113:../../lpc_chip_11cxx_lib/src/uart_11xx.c **** 	while ((readBytes < numBytes) &&
 411              		.loc 1 113 0
 412 001e 9342     		cmp	r3, r2	@ readBytes, numBytes
 413 0020 F7D1     		bne	.L32	@,
 414              	.LVL34:
 415              	.L25:
 118:../../lpc_chip_11cxx_lib/src/uart_11xx.c **** 	}
 119:../../lpc_chip_11cxx_lib/src/uart_11xx.c **** 
 120:../../lpc_chip_11cxx_lib/src/uart_11xx.c **** 	return readBytes;
 121:../../lpc_chip_11cxx_lib/src/uart_11xx.c **** }
 416              		.loc 1 121 0
 417 0022 181C     		mov	r0, r3	@, readBytes
 418              	.LVL35:
 419              		@ sp needed	@
 420 0024 30BD     		pop	{r4, r5, pc}
 421              	.LVL36:
 422              	.L28:
 109:../../lpc_chip_11cxx_lib/src/uart_11xx.c **** 	int readBytes = 0;
 423              		.loc 1 109 0
 424 0026 0023     		mov	r3, #0	@ readBytes,
 425 0028 FBE7     		b	.L25	@
 426              		.cfi_endproc
 427              	.LFE202:
 428              		.size	Chip_UART_Read, .-Chip_UART_Read
 429 002a C046     		.section	.text.Chip_UART_ReadBlocking,"ax",%progbits
 430              		.align	2
 431              		.global	Chip_UART_ReadBlocking
 432              		.code	16
 433              		.thumb_func
 434              		.type	Chip_UART_ReadBlocking, %function
 435              	Chip_UART_ReadBlocking:
ARM GAS  /var/folders/f9/8bk2lnw15zn4cbgn6wrnb4lm0000gn/T//ccyV4EJ6.s 			page 26


 436              	.LFB203:
 122:../../lpc_chip_11cxx_lib/src/uart_11xx.c **** 
 123:../../lpc_chip_11cxx_lib/src/uart_11xx.c **** /* Read data through the UART peripheral (blocking) */
 124:../../lpc_chip_11cxx_lib/src/uart_11xx.c **** int Chip_UART_ReadBlocking(LPC_USART_T *pUART, void *data, int numBytes)
 125:../../lpc_chip_11cxx_lib/src/uart_11xx.c **** {
 437              		.loc 1 125 0
 438              		.cfi_startproc
 439              	.LVL37:
 440 0000 70B5     		push	{r4, r5, r6, lr}	@
 441              		.cfi_def_cfa_offset 16
 442              		.cfi_offset 4, -16
 443              		.cfi_offset 5, -12
 444              		.cfi_offset 6, -8
 445              		.cfi_offset 14, -4
 126:../../lpc_chip_11cxx_lib/src/uart_11xx.c **** 	int pass, readBytes = 0;
 446              		.loc 1 126 0
 447 0002 0026     		mov	r6, #0	@ readBytes,
 127:../../lpc_chip_11cxx_lib/src/uart_11xx.c **** 	uint8_t *p8 = (uint8_t *) data;
 128:../../lpc_chip_11cxx_lib/src/uart_11xx.c **** 
 129:../../lpc_chip_11cxx_lib/src/uart_11xx.c **** 	while (readBytes < numBytes) {
 448              		.loc 1 129 0
 449 0004 002A     		cmp	r2, #0	@ numBytes,
 450 0006 0EDD     		ble	.L34	@,
 451              	.LBB106:
 452              	.LBB107:
 114:../../lpc_chip_11cxx_lib/src/uart_11xx.c **** 		   ((Chip_UART_ReadLineStatus(pUART) & UART_LSR_RDR) != 0)) {
 453              		.loc 1 114 0
 454 0008 0125     		mov	r5, #1	@ tmp128,
 455              	.LVL38:
 456              	.L35:
 457              	.LBE107:
 458              	.LBE106:
 125:../../lpc_chip_11cxx_lib/src/uart_11xx.c **** {
 459              		.loc 1 125 0
 460 000a 0023     		mov	r3, #0	@ pass,
 461              	.LVL39:
 462              	.L38:
 463              	.LBB113:
 464              	.LBB112:
 465              	.LBB108:
 466              	.LBB109:
 467              		.loc 3 507 0
 468 000c 4469     		ldr	r4, [r0, #20]	@ D.6420, pUART_8(D)->LSR
 469              	.LBE109:
 470              	.LBE108:
 113:../../lpc_chip_11cxx_lib/src/uart_11xx.c **** 	while ((readBytes < numBytes) &&
 471              		.loc 1 113 0
 472 000e 2542     		tst	r5, r4	@ tmp128, D.6420
 473 0010 04D0     		beq	.L36	@,
 474              	.LVL40:
 475              	.LBB110:
 476              	.LBB111:
 338:../../lpc_chip_11cxx_lib/inc/uart_11xx.h **** 	return (uint8_t) (pUART->RBR & UART_RBR_MASKBIT);
 477              		.loc 3 338 0
 478 0012 0468     		ldr	r4, [r0]	@ D.6418, pUART_8(D)->D.4988.RBR
 479 0014 CC54     		strb	r4, [r1, r3]	@ D.6418, MEM[base: data_14, index: _2, offset: 0B]
 480              	.LVL41:
ARM GAS  /var/folders/f9/8bk2lnw15zn4cbgn6wrnb4lm0000gn/T//ccyV4EJ6.s 			page 27


 481              	.LBE111:
 482              	.LBE110:
 117:../../lpc_chip_11cxx_lib/src/uart_11xx.c **** 		readBytes++;
 483              		.loc 1 117 0
 484 0016 0133     		add	r3, r3, #1	@ pass,
 485              	.LVL42:
 113:../../lpc_chip_11cxx_lib/src/uart_11xx.c **** 	while ((readBytes < numBytes) &&
 486              		.loc 1 113 0
 487 0018 9342     		cmp	r3, r2	@ pass, numBytes
 488 001a F7DB     		blt	.L38	@,
 489              	.LVL43:
 490              	.L36:
 491              	.LBE112:
 492              	.LBE113:
 130:../../lpc_chip_11cxx_lib/src/uart_11xx.c **** 		pass = Chip_UART_Read(pUART, p8, numBytes);
 131:../../lpc_chip_11cxx_lib/src/uart_11xx.c **** 		numBytes -= pass;
 132:../../lpc_chip_11cxx_lib/src/uart_11xx.c **** 		readBytes += pass;
 493              		.loc 1 132 0
 494 001c F618     		add	r6, r6, r3	@ readBytes, readBytes, pass
 495              	.LVL44:
 131:../../lpc_chip_11cxx_lib/src/uart_11xx.c **** 		numBytes -= pass;
 496              		.loc 1 131 0
 497 001e D21A     		sub	r2, r2, r3	@ numBytes, numBytes, pass
 498              	.LVL45:
 133:../../lpc_chip_11cxx_lib/src/uart_11xx.c **** 		p8 += pass;
 499              		.loc 1 133 0
 500 0020 C918     		add	r1, r1, r3	@ data, data, pass
 501              	.LVL46:
 129:../../lpc_chip_11cxx_lib/src/uart_11xx.c **** 	while (readBytes < numBytes) {
 502              		.loc 1 129 0
 503 0022 B242     		cmp	r2, r6	@ numBytes, readBytes
 504 0024 F1DC     		bgt	.L35	@,
 505              	.LVL47:
 506              	.L34:
 134:../../lpc_chip_11cxx_lib/src/uart_11xx.c **** 	}
 135:../../lpc_chip_11cxx_lib/src/uart_11xx.c **** 
 136:../../lpc_chip_11cxx_lib/src/uart_11xx.c **** 	return readBytes;
 137:../../lpc_chip_11cxx_lib/src/uart_11xx.c **** }
 507              		.loc 1 137 0
 508 0026 301C     		mov	r0, r6	@, readBytes
 509              	.LVL48:
 510              		@ sp needed	@
 511 0028 70BD     		pop	{r4, r5, r6, pc}
 512              		.cfi_endproc
 513              	.LFE203:
 514              		.size	Chip_UART_ReadBlocking, .-Chip_UART_ReadBlocking
 515              		.global	__aeabi_uidiv
 516 002a C046     		.section	.text.Chip_UART_SetBaud,"ax",%progbits
 517              		.align	2
 518              		.global	Chip_UART_SetBaud
 519              		.code	16
 520              		.thumb_func
 521              		.type	Chip_UART_SetBaud, %function
 522              	Chip_UART_SetBaud:
 523              	.LFB204:
 138:../../lpc_chip_11cxx_lib/src/uart_11xx.c **** 
 139:../../lpc_chip_11cxx_lib/src/uart_11xx.c **** /* Determines and sets best dividers to get a target bit rate */
ARM GAS  /var/folders/f9/8bk2lnw15zn4cbgn6wrnb4lm0000gn/T//ccyV4EJ6.s 			page 28


 140:../../lpc_chip_11cxx_lib/src/uart_11xx.c **** uint32_t Chip_UART_SetBaud(LPC_USART_T *pUART, uint32_t baudrate)
 141:../../lpc_chip_11cxx_lib/src/uart_11xx.c **** {
 524              		.loc 1 141 0
 525              		.cfi_startproc
 526              	.LVL49:
 527 0000 70B5     		push	{r4, r5, r6, lr}	@
 528              		.cfi_def_cfa_offset 16
 529              		.cfi_offset 4, -16
 530              		.cfi_offset 5, -12
 531              		.cfi_offset 6, -8
 532              		.cfi_offset 14, -4
 533              		.loc 1 141 0
 534 0002 041C     		mov	r4, r0	@ pUART, pUART
 535 0004 0E1C     		mov	r6, r1	@ baudrate, baudrate
 142:../../lpc_chip_11cxx_lib/src/uart_11xx.c **** 	uint32_t div, divh, divl, clkin;
 143:../../lpc_chip_11cxx_lib/src/uart_11xx.c **** 
 144:../../lpc_chip_11cxx_lib/src/uart_11xx.c **** 	/* Determine UART clock in rate without FDR */
 145:../../lpc_chip_11cxx_lib/src/uart_11xx.c **** 	clkin = Chip_Clock_GetMainClockRate();
 536              		.loc 1 145 0
 537 0006 FFF7FEFF 		bl	Chip_Clock_GetMainClockRate	@
 538              	.LVL50:
 146:../../lpc_chip_11cxx_lib/src/uart_11xx.c **** 	div = clkin / (baudrate * 16);
 539              		.loc 1 146 0
 540 000a 3101     		lsl	r1, r6, #4	@ D.6423, baudrate,
 145:../../lpc_chip_11cxx_lib/src/uart_11xx.c **** 	clkin = Chip_Clock_GetMainClockRate();
 541              		.loc 1 145 0
 542 000c 051C     		mov	r5, r0	@ clkin,
 543              	.LVL51:
 544              		.loc 1 146 0
 545 000e FFF7FEFF 		bl	__aeabi_uidiv	@
 546              	.LVL52:
 547              	.LBB114:
 548              	.LBB115:
 431:../../lpc_chip_11cxx_lib/inc/uart_11xx.h **** 	pUART->LCR |= UART_LCR_DLAB_EN;
 549              		.loc 3 431 0
 550 0012 E268     		ldr	r2, [r4, #12]	@ D.6423, pUART_10(D)->LCR
 551 0014 8023     		mov	r3, #128	@ tmp130,
 552              	.LBE115:
 553              	.LBE114:
 554              		.loc 1 146 0
 555 0016 011C     		mov	r1, r0	@ tmp129,
 556              	.LVL53:
 557              	.LBB117:
 558              	.LBB116:
 431:../../lpc_chip_11cxx_lib/inc/uart_11xx.h **** 	pUART->LCR |= UART_LCR_DLAB_EN;
 559              		.loc 3 431 0
 560 0018 1A43     		orr	r2, r3	@ D.6423, tmp130
 561 001a E260     		str	r2, [r4, #12]	@ D.6423, pUART_10(D)->LCR
 562              	.LVL54:
 563              	.LBE116:
 564              	.LBE117:
 565              	.LBB118:
 566              	.LBB119:
 456:../../lpc_chip_11cxx_lib/inc/uart_11xx.h **** 	pUART->DLL = (uint32_t) dll;
 567              		.loc 3 456 0
 568 001c 0E1C     		mov	r6, r1	@ D.6423, tmp129
 569              	.LVL55:
ARM GAS  /var/folders/f9/8bk2lnw15zn4cbgn6wrnb4lm0000gn/T//ccyV4EJ6.s 			page 29


 570              	.LBE119:
 571              	.LBE118:
 147:../../lpc_chip_11cxx_lib/src/uart_11xx.c **** 
 148:../../lpc_chip_11cxx_lib/src/uart_11xx.c **** 	/* High and low halves of the divider */
 149:../../lpc_chip_11cxx_lib/src/uart_11xx.c **** 	divh = div / 256;
 150:../../lpc_chip_11cxx_lib/src/uart_11xx.c **** 	divl = div - (divh * 256);
 572              		.loc 1 150 0
 573 001e 000A     		lsr	r0, r0, #8	@ divh, tmp129,
 574              	.LVL56:
 575              	.LBB121:
 576              	.LBB120:
 456:../../lpc_chip_11cxx_lib/inc/uart_11xx.h **** 	pUART->DLL = (uint32_t) dll;
 577              		.loc 3 456 0
 578 0020 FF22     		mov	r2, #255	@ tmp133,
 579 0022 1640     		and	r6, r2	@ D.6423, tmp133
 457:../../lpc_chip_11cxx_lib/inc/uart_11xx.h **** 	pUART->DLM = (uint32_t) dlm;
 580              		.loc 3 457 0
 581 0024 0240     		and	r2, r0	@ D.6423, divh
 456:../../lpc_chip_11cxx_lib/inc/uart_11xx.h **** 	pUART->DLL = (uint32_t) dll;
 582              		.loc 3 456 0
 583 0026 2660     		str	r6, [r4]	@ D.6423, pUART_10(D)->D.4988.DLL
 457:../../lpc_chip_11cxx_lib/inc/uart_11xx.h **** 	pUART->DLM = (uint32_t) dlm;
 584              		.loc 3 457 0
 585 0028 6260     		str	r2, [r4, #4]	@ D.6423, pUART_10(D)->D.4992.DLM
 586              	.LVL57:
 587              	.LBE120:
 588              	.LBE121:
 589              	.LBB122:
 590              	.LBB123:
 441:../../lpc_chip_11cxx_lib/inc/uart_11xx.h **** 	pUART->LCR &= ~UART_LCR_DLAB_EN;
 591              		.loc 3 441 0
 592 002a E268     		ldr	r2, [r4, #12]	@ D.6423, pUART_10(D)->LCR
 593              	.LBE123:
 594              	.LBE122:
 151:../../lpc_chip_11cxx_lib/src/uart_11xx.c **** 
 152:../../lpc_chip_11cxx_lib/src/uart_11xx.c **** 	Chip_UART_EnableDivisorAccess(pUART);
 153:../../lpc_chip_11cxx_lib/src/uart_11xx.c **** 	Chip_UART_SetDivisorLatches(pUART, divl, divh);
 154:../../lpc_chip_11cxx_lib/src/uart_11xx.c **** 	Chip_UART_DisableDivisorAccess(pUART);
 155:../../lpc_chip_11cxx_lib/src/uart_11xx.c **** 
 156:../../lpc_chip_11cxx_lib/src/uart_11xx.c **** 	/* Fractional FDR alreadt setup for 1 in UART init */
 157:../../lpc_chip_11cxx_lib/src/uart_11xx.c **** 
 158:../../lpc_chip_11cxx_lib/src/uart_11xx.c **** 	return clkin / div;
 595              		.loc 1 158 0
 596 002c 281C     		mov	r0, r5	@, clkin
 597              	.LVL58:
 598              	.LBB125:
 599              	.LBB124:
 441:../../lpc_chip_11cxx_lib/inc/uart_11xx.h **** 	pUART->LCR &= ~UART_LCR_DLAB_EN;
 600              		.loc 3 441 0
 601 002e 9A43     		bic	r2, r3	@ D.6423, tmp130
 602 0030 E260     		str	r2, [r4, #12]	@ D.6423, pUART_10(D)->LCR
 603              	.LBE124:
 604              	.LBE125:
 605              		.loc 1 158 0
 606 0032 FFF7FEFF 		bl	__aeabi_uidiv	@
 607              	.LVL59:
 159:../../lpc_chip_11cxx_lib/src/uart_11xx.c **** }
ARM GAS  /var/folders/f9/8bk2lnw15zn4cbgn6wrnb4lm0000gn/T//ccyV4EJ6.s 			page 30


 608              		.loc 1 159 0
 609              		@ sp needed	@
 610              	.LVL60:
 611              	.LVL61:
 612 0036 70BD     		pop	{r4, r5, r6, pc}
 613              		.cfi_endproc
 614              	.LFE204:
 615              		.size	Chip_UART_SetBaud, .-Chip_UART_SetBaud
 616              		.section	.text.Chip_UART_RXIntHandlerRB,"ax",%progbits
 617              		.align	2
 618              		.global	Chip_UART_RXIntHandlerRB
 619              		.code	16
 620              		.thumb_func
 621              		.type	Chip_UART_RXIntHandlerRB, %function
 622              	Chip_UART_RXIntHandlerRB:
 623              	.LFB205:
 160:../../lpc_chip_11cxx_lib/src/uart_11xx.c **** 
 161:../../lpc_chip_11cxx_lib/src/uart_11xx.c **** /* UART receive-only interrupt handler for ring buffers */
 162:../../lpc_chip_11cxx_lib/src/uart_11xx.c **** void Chip_UART_RXIntHandlerRB(LPC_USART_T *pUART, RINGBUFF_T *pRB)
 163:../../lpc_chip_11cxx_lib/src/uart_11xx.c **** {
 624              		.loc 1 163 0
 625              		.cfi_startproc
 626              	.LVL62:
 627 0000 F0B5     		push	{r4, r5, r6, r7, lr}	@
 628              		.cfi_def_cfa_offset 20
 629              		.cfi_offset 4, -20
 630              		.cfi_offset 5, -16
 631              		.cfi_offset 6, -12
 632              		.cfi_offset 7, -8
 633              		.cfi_offset 14, -4
 634              	.LBB126:
 635              	.LBB127:
 636              		.loc 3 507 0
 637 0002 4369     		ldr	r3, [r0, #20]	@ D.6429, pUART_3(D)->LSR
 638              	.LBE127:
 639              	.LBE126:
 640              		.loc 1 163 0
 641 0004 83B0     		sub	sp, sp, #12	@,,
 642              		.cfi_def_cfa_offset 32
 643 0006 6D46     		mov	r5, sp	@ tmp125,
 644              		.loc 1 163 0
 645 0008 041C     		mov	r4, r0	@ pUART, pUART
 646 000a 0F1C     		mov	r7, r1	@ pRB, pRB
 647 000c 0735     		add	r5, r5, #7	@ tmp125,
 164:../../lpc_chip_11cxx_lib/src/uart_11xx.c **** 	/* New data will be ignored if data not popped in time */
 165:../../lpc_chip_11cxx_lib/src/uart_11xx.c **** 	while (Chip_UART_ReadLineStatus(pUART) & UART_LSR_RDR) {
 648              		.loc 1 165 0
 649 000e 0126     		mov	r6, #1	@ tmp126,
 650 0010 DA07     		lsl	r2, r3, #31	@, D.6429,
 651 0012 08D5     		bpl	.L41	@,
 652              	.LVL63:
 653              	.L48:
 654              	.LBB129:
 655              	.LBB130:
 656              	.LBB131:
 338:../../lpc_chip_11cxx_lib/inc/uart_11xx.h **** 	return (uint8_t) (pUART->RBR & UART_RBR_MASKBIT);
 657              		.loc 3 338 0
ARM GAS  /var/folders/f9/8bk2lnw15zn4cbgn6wrnb4lm0000gn/T//ccyV4EJ6.s 			page 31


 658 0014 2368     		ldr	r3, [r4]	@ D.6427, pUART_3(D)->D.4988.RBR
 659              	.LBE131:
 660              	.LBE130:
 166:../../lpc_chip_11cxx_lib/src/uart_11xx.c **** 		uint8_t ch = Chip_UART_ReadByte(pUART);
 167:../../lpc_chip_11cxx_lib/src/uart_11xx.c **** 		RingBuffer_Insert(pRB, &ch);
 661              		.loc 1 167 0
 662 0016 381C     		mov	r0, r7	@, pRB
 663 0018 291C     		mov	r1, r5	@, tmp125
 664              	.LBB133:
 665              	.LBB132:
 338:../../lpc_chip_11cxx_lib/inc/uart_11xx.h **** 	return (uint8_t) (pUART->RBR & UART_RBR_MASKBIT);
 666              		.loc 3 338 0
 667 001a 2B70     		strb	r3, [r5]	@ D.6427, ch
 668              	.LBE132:
 669              	.LBE133:
 670              		.loc 1 167 0
 671 001c FFF7FEFF 		bl	RingBuffer_Insert	@
 672              	.LVL64:
 673              	.LBE129:
 674              	.LBB134:
 675              	.LBB128:
 676              		.loc 3 507 0
 677 0020 6369     		ldr	r3, [r4, #20]	@ D.6429, pUART_3(D)->LSR
 678              	.LBE128:
 679              	.LBE134:
 165:../../lpc_chip_11cxx_lib/src/uart_11xx.c **** 	while (Chip_UART_ReadLineStatus(pUART) & UART_LSR_RDR) {
 680              		.loc 1 165 0
 681 0022 1E42     		tst	r6, r3	@ tmp126, D.6429
 682 0024 F6D1     		bne	.L48	@,
 683              	.LVL65:
 684              	.L41:
 168:../../lpc_chip_11cxx_lib/src/uart_11xx.c **** 	}
 169:../../lpc_chip_11cxx_lib/src/uart_11xx.c **** }
 685              		.loc 1 169 0
 686 0026 03B0     		add	sp, sp, #12	@,,
 687              		@ sp needed	@
 688              	.LVL66:
 689              	.LVL67:
 690 0028 F0BD     		pop	{r4, r5, r6, r7, pc}
 691              		.cfi_endproc
 692              	.LFE205:
 693              		.size	Chip_UART_RXIntHandlerRB, .-Chip_UART_RXIntHandlerRB
 694 002a C046     		.section	.text.Chip_UART_TXIntHandlerRB,"ax",%progbits
 695              		.align	2
 696              		.global	Chip_UART_TXIntHandlerRB
 697              		.code	16
 698              		.thumb_func
 699              		.type	Chip_UART_TXIntHandlerRB, %function
 700              	Chip_UART_TXIntHandlerRB:
 701              	.LFB206:
 170:../../lpc_chip_11cxx_lib/src/uart_11xx.c **** 
 171:../../lpc_chip_11cxx_lib/src/uart_11xx.c **** /* UART transmit-only interrupt handler for ring buffers */
 172:../../lpc_chip_11cxx_lib/src/uart_11xx.c **** void Chip_UART_TXIntHandlerRB(LPC_USART_T *pUART, RINGBUFF_T *pRB)
 173:../../lpc_chip_11cxx_lib/src/uart_11xx.c **** {
 702              		.loc 1 173 0
 703              		.cfi_startproc
 704              	.LVL68:
ARM GAS  /var/folders/f9/8bk2lnw15zn4cbgn6wrnb4lm0000gn/T//ccyV4EJ6.s 			page 32


 705 0000 F0B5     		push	{r4, r5, r6, r7, lr}	@
 706              		.cfi_def_cfa_offset 20
 707              		.cfi_offset 4, -20
 708              		.cfi_offset 5, -16
 709              		.cfi_offset 6, -12
 710              		.cfi_offset 7, -8
 711              		.cfi_offset 14, -4
 712              	.LBB135:
 713              	.LBB136:
 714              		.loc 3 507 0
 715 0002 4369     		ldr	r3, [r0, #20]	@ D.6434, pUART_4(D)->LSR
 716              	.LBE136:
 717              	.LBE135:
 718              		.loc 1 173 0
 719 0004 83B0     		sub	sp, sp, #12	@,,
 720              		.cfi_def_cfa_offset 32
 721 0006 6D46     		mov	r5, sp	@ tmp125,
 722              		.loc 1 173 0
 723 0008 041C     		mov	r4, r0	@ pUART, pUART
 724 000a 0E1C     		mov	r6, r1	@ pRB, pRB
 725 000c 0735     		add	r5, r5, #7	@ tmp125,
 174:../../lpc_chip_11cxx_lib/src/uart_11xx.c **** 	uint8_t ch;
 175:../../lpc_chip_11cxx_lib/src/uart_11xx.c **** 
 176:../../lpc_chip_11cxx_lib/src/uart_11xx.c **** 	/* Fill FIFO until full or until TX ring buffer is empty */
 177:../../lpc_chip_11cxx_lib/src/uart_11xx.c **** 	while ((Chip_UART_ReadLineStatus(pUART) & UART_LSR_THRE) != 0 &&
 726              		.loc 1 177 0
 727 000e 2027     		mov	r7, #32	@ tmp126,
 728 0010 9A06     		lsl	r2, r3, #26	@, D.6434,
 729 0012 05D4     		bmi	.L59	@,
 730 0014 0AE0     		b	.L49	@
 731              	.LVL69:
 732              	.L60:
 733              	.LBB138:
 734              	.LBB139:
 325:../../lpc_chip_11cxx_lib/inc/uart_11xx.h **** 	pUART->THR = (uint32_t) data;
 735              		.loc 3 325 0
 736 0016 2B78     		ldrb	r3, [r5]	@ D.6432, ch
 737 0018 2360     		str	r3, [r4]	@ D.6432, pUART_4(D)->D.4988.THR
 738              	.LBE139:
 739              	.LBE138:
 740              	.LBB140:
 741              	.LBB137:
 742              		.loc 3 507 0
 743 001a 6369     		ldr	r3, [r4, #20]	@ D.6434, pUART_4(D)->LSR
 744              	.LBE137:
 745              	.LBE140:
 746              		.loc 1 177 0
 747 001c 1F42     		tst	r7, r3	@ tmp126, D.6434
 748 001e 05D0     		beq	.L49	@,
 749              	.LVL70:
 750              	.L59:
 178:../../lpc_chip_11cxx_lib/src/uart_11xx.c **** 		   RingBuffer_Pop(pRB, &ch)) {
 751              		.loc 1 178 0
 752 0020 301C     		mov	r0, r6	@, pRB
 753 0022 291C     		mov	r1, r5	@, tmp125
 754 0024 FFF7FEFF 		bl	RingBuffer_Pop	@
 755              	.LVL71:
ARM GAS  /var/folders/f9/8bk2lnw15zn4cbgn6wrnb4lm0000gn/T//ccyV4EJ6.s 			page 33


 177:../../lpc_chip_11cxx_lib/src/uart_11xx.c **** 	while ((Chip_UART_ReadLineStatus(pUART) & UART_LSR_THRE) != 0 &&
 756              		.loc 1 177 0
 757 0028 0028     		cmp	r0, #0	@ D.6433,
 758 002a F4D1     		bne	.L60	@,
 759              	.L49:
 179:../../lpc_chip_11cxx_lib/src/uart_11xx.c **** 		Chip_UART_SendByte(pUART, ch);
 180:../../lpc_chip_11cxx_lib/src/uart_11xx.c **** 	}
 181:../../lpc_chip_11cxx_lib/src/uart_11xx.c **** }
 760              		.loc 1 181 0
 761 002c 03B0     		add	sp, sp, #12	@,,
 762              		@ sp needed	@
 763              	.LVL72:
 764              	.LVL73:
 765 002e F0BD     		pop	{r4, r5, r6, r7, pc}
 766              		.cfi_endproc
 767              	.LFE206:
 768              		.size	Chip_UART_TXIntHandlerRB, .-Chip_UART_TXIntHandlerRB
 769              		.section	.text.Chip_UART_SendRB,"ax",%progbits
 770              		.align	2
 771              		.global	Chip_UART_SendRB
 772              		.code	16
 773              		.thumb_func
 774              		.type	Chip_UART_SendRB, %function
 775              	Chip_UART_SendRB:
 776              	.LFB207:
 182:../../lpc_chip_11cxx_lib/src/uart_11xx.c **** 
 183:../../lpc_chip_11cxx_lib/src/uart_11xx.c **** /* Populate a transmit ring buffer and start UART transmit */
 184:../../lpc_chip_11cxx_lib/src/uart_11xx.c **** uint32_t Chip_UART_SendRB(LPC_USART_T *pUART, RINGBUFF_T *pRB, const void *data, int bytes)
 185:../../lpc_chip_11cxx_lib/src/uart_11xx.c **** {
 777              		.loc 1 185 0
 778              		.cfi_startproc
 779              	.LVL74:
 780 0000 F8B5     		push	{r3, r4, r5, r6, r7, lr}	@
 781              		.cfi_def_cfa_offset 24
 782              		.cfi_offset 3, -24
 783              		.cfi_offset 4, -20
 784              		.cfi_offset 5, -16
 785              		.cfi_offset 6, -12
 786              		.cfi_offset 7, -8
 787              		.cfi_offset 14, -4
 788 0002 4F46     		mov	r7, r9	@,
 789 0004 4646     		mov	r6, r8	@,
 790 0006 C0B4     		push	{r6, r7}	@
 791              		.cfi_def_cfa_offset 32
 792              		.cfi_offset 8, -32
 793              		.cfi_offset 9, -28
 794              		.loc 1 185 0
 795 0008 9846     		mov	r8, r3	@ bytes, bytes
 796              	.LBB141:
 797              	.LBB142:
 368:../../lpc_chip_11cxx_lib/inc/uart_11xx.h **** 	pUART->IER &= ~intMask;
 798              		.loc 3 368 0
 799 000a 4368     		ldr	r3, [r0, #4]	@ D.6439, pUART_3(D)->D.4992.IER
 800              	.LVL75:
 801 000c 0227     		mov	r7, #2	@ tmp128,
 802 000e BB43     		bic	r3, r7	@ D.6439, tmp128
 803              	.LBE142:
ARM GAS  /var/folders/f9/8bk2lnw15zn4cbgn6wrnb4lm0000gn/T//ccyV4EJ6.s 			page 34


 804              	.LBE141:
 805              		.loc 1 185 0
 806 0010 041C     		mov	r4, r0	@ pUART, pUART
 807 0012 0E1C     		mov	r6, r1	@ pRB, pRB
 808 0014 9146     		mov	r9, r2	@ data, data
 809              	.LBB144:
 810              	.LBB143:
 368:../../lpc_chip_11cxx_lib/inc/uart_11xx.h **** 	pUART->IER &= ~intMask;
 811              		.loc 3 368 0
 812 0016 4360     		str	r3, [r0, #4]	@ D.6439, pUART_3(D)->D.4992.IER
 813              	.LBE143:
 814              	.LBE144:
 186:../../lpc_chip_11cxx_lib/src/uart_11xx.c **** 	uint32_t ret;
 187:../../lpc_chip_11cxx_lib/src/uart_11xx.c **** 	uint8_t *p8 = (uint8_t *) data;
 188:../../lpc_chip_11cxx_lib/src/uart_11xx.c **** 
 189:../../lpc_chip_11cxx_lib/src/uart_11xx.c **** 	/* Don't let UART transmit ring buffer change in the UART IRQ handler */
 190:../../lpc_chip_11cxx_lib/src/uart_11xx.c **** 	Chip_UART_IntDisable(pUART, UART_IER_THREINT);
 191:../../lpc_chip_11cxx_lib/src/uart_11xx.c **** 
 192:../../lpc_chip_11cxx_lib/src/uart_11xx.c **** 	/* Move as much data as possible into transmit ring buffer */
 193:../../lpc_chip_11cxx_lib/src/uart_11xx.c **** 	ret = RingBuffer_InsertMult(pRB, p8, bytes);
 815              		.loc 1 193 0
 816 0018 081C     		mov	r0, r1	@, pRB
 817              	.LVL76:
 818 001a 111C     		mov	r1, r2	@, data
 819              	.LVL77:
 820 001c 4246     		mov	r2, r8	@, bytes
 821              	.LVL78:
 822 001e FFF7FEFF 		bl	RingBuffer_InsertMult	@
 823              	.LVL79:
 194:../../lpc_chip_11cxx_lib/src/uart_11xx.c **** 	Chip_UART_TXIntHandlerRB(pUART, pRB);
 824              		.loc 1 194 0
 825 0022 311C     		mov	r1, r6	@, pRB
 193:../../lpc_chip_11cxx_lib/src/uart_11xx.c **** 	ret = RingBuffer_InsertMult(pRB, p8, bytes);
 826              		.loc 1 193 0
 827 0024 051C     		mov	r5, r0	@ D.6437,
 828              	.LVL80:
 829              		.loc 1 194 0
 830 0026 201C     		mov	r0, r4	@, pUART
 831              	.LVL81:
 832 0028 FFF7FEFF 		bl	Chip_UART_TXIntHandlerRB	@
 833              	.LVL82:
 195:../../lpc_chip_11cxx_lib/src/uart_11xx.c **** 
 196:../../lpc_chip_11cxx_lib/src/uart_11xx.c **** 	/* Add additional data to transmit ring buffer if possible */
 197:../../lpc_chip_11cxx_lib/src/uart_11xx.c **** 	ret += RingBuffer_InsertMult(pRB, (p8 + ret), (bytes - ret));
 834              		.loc 1 197 0
 835 002c 4B46     		mov	r3, r9	@, data
 836 002e 5919     		add	r1, r3, r5	@ D.6438,, D.6437
 837 0030 4346     		mov	r3, r8	@, bytes
 838 0032 5A1B     		sub	r2, r3, r5	@ D.6439,, D.6437
 839 0034 301C     		mov	r0, r6	@, pRB
 840 0036 FFF7FEFF 		bl	RingBuffer_InsertMult	@
 841              	.LVL83:
 842              	.LBB145:
 843              	.LBB146:
 353:../../lpc_chip_11cxx_lib/inc/uart_11xx.h **** 	pUART->IER |= intMask;
 844              		.loc 3 353 0
 845 003a 6368     		ldr	r3, [r4, #4]	@ D.6439, pUART_3(D)->D.4992.IER
ARM GAS  /var/folders/f9/8bk2lnw15zn4cbgn6wrnb4lm0000gn/T//ccyV4EJ6.s 			page 35


 846              	.LBE146:
 847              	.LBE145:
 848              		.loc 1 197 0
 849 003c 4019     		add	r0, r0, r5	@ ret, D.6437, D.6437
 850              	.LVL84:
 851              	.LBB148:
 852              	.LBB147:
 353:../../lpc_chip_11cxx_lib/inc/uart_11xx.h **** 	pUART->IER |= intMask;
 853              		.loc 3 353 0
 854 003e 1F43     		orr	r7, r3	@ D.6439, D.6439
 855 0040 6760     		str	r7, [r4, #4]	@ D.6439, pUART_3(D)->D.4992.IER
 856              	.LBE147:
 857              	.LBE148:
 198:../../lpc_chip_11cxx_lib/src/uart_11xx.c **** 
 199:../../lpc_chip_11cxx_lib/src/uart_11xx.c **** 	/* Enable UART transmit interrupt */
 200:../../lpc_chip_11cxx_lib/src/uart_11xx.c **** 	Chip_UART_IntEnable(pUART, UART_IER_THREINT);
 201:../../lpc_chip_11cxx_lib/src/uart_11xx.c **** 
 202:../../lpc_chip_11cxx_lib/src/uart_11xx.c **** 	return ret;
 203:../../lpc_chip_11cxx_lib/src/uart_11xx.c **** }
 858              		.loc 1 203 0
 859              		@ sp needed	@
 860              	.LVL85:
 861              	.LVL86:
 862              	.LVL87:
 863              	.LVL88:
 864 0042 0CBC     		pop	{r2, r3}
 865 0044 9046     		mov	r8, r2
 866 0046 9946     		mov	r9, r3
 867 0048 F8BD     		pop	{r3, r4, r5, r6, r7, pc}
 868              		.cfi_endproc
 869              	.LFE207:
 870              		.size	Chip_UART_SendRB, .-Chip_UART_SendRB
 871 004a C046     		.section	.text.Chip_UART_ReadRB,"ax",%progbits
 872              		.align	2
 873              		.global	Chip_UART_ReadRB
 874              		.code	16
 875              		.thumb_func
 876              		.type	Chip_UART_ReadRB, %function
 877              	Chip_UART_ReadRB:
 878              	.LFB208:
 204:../../lpc_chip_11cxx_lib/src/uart_11xx.c **** 
 205:../../lpc_chip_11cxx_lib/src/uart_11xx.c **** /* Copy data from a receive ring buffer */
 206:../../lpc_chip_11cxx_lib/src/uart_11xx.c **** int Chip_UART_ReadRB(LPC_USART_T *pUART, RINGBUFF_T *pRB, void *data, int bytes)
 207:../../lpc_chip_11cxx_lib/src/uart_11xx.c **** {
 879              		.loc 1 207 0
 880              		.cfi_startproc
 881              	.LVL89:
 882 0000 08B5     		push	{r3, lr}	@
 883              		.cfi_def_cfa_offset 8
 884              		.cfi_offset 3, -8
 885              		.cfi_offset 14, -4
 208:../../lpc_chip_11cxx_lib/src/uart_11xx.c **** 	(void) pUART;
 209:../../lpc_chip_11cxx_lib/src/uart_11xx.c **** 
 210:../../lpc_chip_11cxx_lib/src/uart_11xx.c **** 	return RingBuffer_PopMult(pRB, (uint8_t *) data, bytes);
 886              		.loc 1 210 0
 887 0002 081C     		mov	r0, r1	@, pRB
 888              	.LVL90:
ARM GAS  /var/folders/f9/8bk2lnw15zn4cbgn6wrnb4lm0000gn/T//ccyV4EJ6.s 			page 36


 889 0004 111C     		mov	r1, r2	@, data
 890              	.LVL91:
 891 0006 1A1C     		mov	r2, r3	@, bytes
 892              	.LVL92:
 893 0008 FFF7FEFF 		bl	RingBuffer_PopMult	@
 894              	.LVL93:
 211:../../lpc_chip_11cxx_lib/src/uart_11xx.c **** }
 895              		.loc 1 211 0
 896              		@ sp needed	@
 897 000c 08BD     		pop	{r3, pc}
 898              		.cfi_endproc
 899              	.LFE208:
 900              		.size	Chip_UART_ReadRB, .-Chip_UART_ReadRB
 901 000e C046     		.section	.text.Chip_UART_IRQRBHandler,"ax",%progbits
 902              		.align	2
 903              		.global	Chip_UART_IRQRBHandler
 904              		.code	16
 905              		.thumb_func
 906              		.type	Chip_UART_IRQRBHandler, %function
 907              	Chip_UART_IRQRBHandler:
 908              	.LFB209:
 212:../../lpc_chip_11cxx_lib/src/uart_11xx.c **** 
 213:../../lpc_chip_11cxx_lib/src/uart_11xx.c **** /* UART receive/transmit interrupt handler for ring buffers */
 214:../../lpc_chip_11cxx_lib/src/uart_11xx.c **** void Chip_UART_IRQRBHandler(LPC_USART_T *pUART, RINGBUFF_T *pRXRB, RINGBUFF_T *pTXRB)
 215:../../lpc_chip_11cxx_lib/src/uart_11xx.c **** {
 909              		.loc 1 215 0
 910              		.cfi_startproc
 911              	.LVL94:
 912 0000 F0B5     		push	{r4, r5, r6, r7, lr}	@
 913              		.cfi_def_cfa_offset 20
 914              		.cfi_offset 4, -20
 915              		.cfi_offset 5, -16
 916              		.cfi_offset 6, -12
 917              		.cfi_offset 7, -8
 918              		.cfi_offset 14, -4
 216:../../lpc_chip_11cxx_lib/src/uart_11xx.c **** 	/* Handle transmit interrupt if enabled */
 217:../../lpc_chip_11cxx_lib/src/uart_11xx.c **** 	if (pUART->IER & UART_IER_THREINT) {
 919              		.loc 1 217 0
 920 0002 4368     		ldr	r3, [r0, #4]	@ D.6445, pUART_3(D)->D.4992.IER
 921 0004 0225     		mov	r5, #2	@ tmp125,
 215:../../lpc_chip_11cxx_lib/src/uart_11xx.c **** {
 922              		.loc 1 215 0
 923 0006 83B0     		sub	sp, sp, #12	@,,
 924              		.cfi_def_cfa_offset 32
 215:../../lpc_chip_11cxx_lib/src/uart_11xx.c **** {
 925              		.loc 1 215 0
 926 0008 041C     		mov	r4, r0	@ pUART, pUART
 927 000a 0F1C     		mov	r7, r1	@ pRXRB, pRXRB
 928 000c 161C     		mov	r6, r2	@ pTXRB, pTXRB
 929              		.loc 1 217 0
 930 000e 1D42     		tst	r5, r3	@ tmp125, D.6445
 931 0010 10D1     		bne	.L74	@,
 932              	.LVL95:
 933              	.L65:
 934              	.LBB149:
 935              	.LBB150:
 936              	.LBB151:
ARM GAS  /var/folders/f9/8bk2lnw15zn4cbgn6wrnb4lm0000gn/T//ccyV4EJ6.s 			page 37


 937              	.LBB152:
 938              		.loc 3 507 0
 939 0012 6369     		ldr	r3, [r4, #20]	@ D.6447, pUART_3(D)->LSR
 940 0014 6D46     		mov	r5, sp	@ tmp135,
 941 0016 0735     		add	r5, r5, #7	@ tmp135,
 942              	.LBE152:
 943              	.LBE151:
 165:../../lpc_chip_11cxx_lib/src/uart_11xx.c **** 	while (Chip_UART_ReadLineStatus(pUART) & UART_LSR_RDR) {
 944              		.loc 1 165 0
 945 0018 0126     		mov	r6, #1	@ tmp136,
 946              	.LVL96:
 947 001a DA07     		lsl	r2, r3, #31	@, D.6447,
 948 001c 08D5     		bpl	.L63	@,
 949              	.L73:
 950              	.LVL97:
 951              	.LBB154:
 952              	.LBB155:
 953              	.LBB156:
 338:../../lpc_chip_11cxx_lib/inc/uart_11xx.h **** 	return (uint8_t) (pUART->RBR & UART_RBR_MASKBIT);
 954              		.loc 3 338 0
 955 001e 2368     		ldr	r3, [r4]	@ D.6445, pUART_3(D)->D.4988.RBR
 956              	.LBE156:
 957              	.LBE155:
 167:../../lpc_chip_11cxx_lib/src/uart_11xx.c **** 		RingBuffer_Insert(pRB, &ch);
 958              		.loc 1 167 0
 959 0020 381C     		mov	r0, r7	@, pRXRB
 960 0022 291C     		mov	r1, r5	@, tmp135
 961              	.LBB158:
 962              	.LBB157:
 338:../../lpc_chip_11cxx_lib/inc/uart_11xx.h **** 	return (uint8_t) (pUART->RBR & UART_RBR_MASKBIT);
 963              		.loc 3 338 0
 964 0024 2B70     		strb	r3, [r5]	@ D.6445, ch
 965              	.LBE157:
 966              	.LBE158:
 167:../../lpc_chip_11cxx_lib/src/uart_11xx.c **** 		RingBuffer_Insert(pRB, &ch);
 967              		.loc 1 167 0
 968 0026 FFF7FEFF 		bl	RingBuffer_Insert	@
 969              	.LVL98:
 970              	.LBE154:
 971              	.LBB159:
 972              	.LBB153:
 973              		.loc 3 507 0
 974 002a 6369     		ldr	r3, [r4, #20]	@ D.6447, pUART_3(D)->LSR
 975              	.LBE153:
 976              	.LBE159:
 165:../../lpc_chip_11cxx_lib/src/uart_11xx.c **** 	while (Chip_UART_ReadLineStatus(pUART) & UART_LSR_RDR) {
 977              		.loc 1 165 0
 978 002c 1E42     		tst	r6, r3	@ tmp136, D.6447
 979 002e F6D1     		bne	.L73	@,
 980              	.LVL99:
 981              	.L63:
 982              	.LBE150:
 983              	.LBE149:
 218:../../lpc_chip_11cxx_lib/src/uart_11xx.c **** 		Chip_UART_TXIntHandlerRB(pUART, pTXRB);
 219:../../lpc_chip_11cxx_lib/src/uart_11xx.c **** 
 220:../../lpc_chip_11cxx_lib/src/uart_11xx.c **** 		/* Disable transmit interrupt if the ring buffer is empty */
 221:../../lpc_chip_11cxx_lib/src/uart_11xx.c **** 		if (RingBuffer_IsEmpty(pTXRB)) {
ARM GAS  /var/folders/f9/8bk2lnw15zn4cbgn6wrnb4lm0000gn/T//ccyV4EJ6.s 			page 38


 222:../../lpc_chip_11cxx_lib/src/uart_11xx.c **** 			Chip_UART_IntDisable(pUART, UART_IER_THREINT);
 223:../../lpc_chip_11cxx_lib/src/uart_11xx.c **** 		}
 224:../../lpc_chip_11cxx_lib/src/uart_11xx.c **** 	}
 225:../../lpc_chip_11cxx_lib/src/uart_11xx.c **** 
 226:../../lpc_chip_11cxx_lib/src/uart_11xx.c **** 	/* Handle receive interrupt */
 227:../../lpc_chip_11cxx_lib/src/uart_11xx.c **** 	Chip_UART_RXIntHandlerRB(pUART, pRXRB);
 228:../../lpc_chip_11cxx_lib/src/uart_11xx.c **** }
 984              		.loc 1 228 0
 985 0030 03B0     		add	sp, sp, #12	@,,
 986              		@ sp needed	@
 987              	.LVL100:
 988              	.LVL101:
 989 0032 F0BD     		pop	{r4, r5, r6, r7, pc}
 990              	.LVL102:
 991              	.L74:
 218:../../lpc_chip_11cxx_lib/src/uart_11xx.c **** 		Chip_UART_TXIntHandlerRB(pUART, pTXRB);
 992              		.loc 1 218 0
 993 0034 111C     		mov	r1, r2	@, pTXRB
 994              	.LVL103:
 995 0036 FFF7FEFF 		bl	Chip_UART_TXIntHandlerRB	@
 996              	.LVL104:
 997              	.LBB160:
 998              	.LBB161:
 999              		.file 4 "../../lpc_chip_11cxx_lib/inc/ring_buffer.h"
   1:../../lpc_chip_11cxx_lib/inc/ring_buffer.h **** /*
   2:../../lpc_chip_11cxx_lib/inc/ring_buffer.h ****  * @brief Common ring buffer support functions
   3:../../lpc_chip_11cxx_lib/inc/ring_buffer.h ****  *
   4:../../lpc_chip_11cxx_lib/inc/ring_buffer.h ****  * @note
   5:../../lpc_chip_11cxx_lib/inc/ring_buffer.h ****  * Copyright(C) NXP Semiconductors, 2012
   6:../../lpc_chip_11cxx_lib/inc/ring_buffer.h ****  * All rights reserved.
   7:../../lpc_chip_11cxx_lib/inc/ring_buffer.h ****  *
   8:../../lpc_chip_11cxx_lib/inc/ring_buffer.h ****  * @par
   9:../../lpc_chip_11cxx_lib/inc/ring_buffer.h ****  * Software that is described herein is for illustrative purposes only
  10:../../lpc_chip_11cxx_lib/inc/ring_buffer.h ****  * which provides customers with programming information regarding the
  11:../../lpc_chip_11cxx_lib/inc/ring_buffer.h ****  * LPC products.  This software is supplied "AS IS" without any warranties of
  12:../../lpc_chip_11cxx_lib/inc/ring_buffer.h ****  * any kind, and NXP Semiconductors and its licensor disclaim any and
  13:../../lpc_chip_11cxx_lib/inc/ring_buffer.h ****  * all warranties, express or implied, including all implied warranties of
  14:../../lpc_chip_11cxx_lib/inc/ring_buffer.h ****  * merchantability, fitness for a particular purpose and non-infringement of
  15:../../lpc_chip_11cxx_lib/inc/ring_buffer.h ****  * intellectual property rights.  NXP Semiconductors assumes no responsibility
  16:../../lpc_chip_11cxx_lib/inc/ring_buffer.h ****  * or liability for the use of the software, conveys no license or rights under any
  17:../../lpc_chip_11cxx_lib/inc/ring_buffer.h ****  * patent, copyright, mask work right, or any other intellectual property rights in
  18:../../lpc_chip_11cxx_lib/inc/ring_buffer.h ****  * or to any products. NXP Semiconductors reserves the right to make changes
  19:../../lpc_chip_11cxx_lib/inc/ring_buffer.h ****  * in the software without notification. NXP Semiconductors also makes no
  20:../../lpc_chip_11cxx_lib/inc/ring_buffer.h ****  * representation or warranty that such application will be suitable for the
  21:../../lpc_chip_11cxx_lib/inc/ring_buffer.h ****  * specified use without further testing or modification.
  22:../../lpc_chip_11cxx_lib/inc/ring_buffer.h ****  *
  23:../../lpc_chip_11cxx_lib/inc/ring_buffer.h ****  * @par
  24:../../lpc_chip_11cxx_lib/inc/ring_buffer.h ****  * Permission to use, copy, modify, and distribute this software and its
  25:../../lpc_chip_11cxx_lib/inc/ring_buffer.h ****  * documentation is hereby granted, under NXP Semiconductors' and its
  26:../../lpc_chip_11cxx_lib/inc/ring_buffer.h ****  * licensor's relevant copyrights in the software, without fee, provided that it
  27:../../lpc_chip_11cxx_lib/inc/ring_buffer.h ****  * is used in conjunction with NXP Semiconductors microcontrollers.  This
  28:../../lpc_chip_11cxx_lib/inc/ring_buffer.h ****  * copyright, permission, and disclaimer notice must appear in all copies of
  29:../../lpc_chip_11cxx_lib/inc/ring_buffer.h ****  * this code.
  30:../../lpc_chip_11cxx_lib/inc/ring_buffer.h ****  */
  31:../../lpc_chip_11cxx_lib/inc/ring_buffer.h **** 
  32:../../lpc_chip_11cxx_lib/inc/ring_buffer.h **** #ifndef __RING_BUFFER_H_
  33:../../lpc_chip_11cxx_lib/inc/ring_buffer.h **** #define __RING_BUFFER_H_
ARM GAS  /var/folders/f9/8bk2lnw15zn4cbgn6wrnb4lm0000gn/T//ccyV4EJ6.s 			page 39


  34:../../lpc_chip_11cxx_lib/inc/ring_buffer.h **** 
  35:../../lpc_chip_11cxx_lib/inc/ring_buffer.h **** #include "lpc_types.h"
  36:../../lpc_chip_11cxx_lib/inc/ring_buffer.h **** 
  37:../../lpc_chip_11cxx_lib/inc/ring_buffer.h **** /** @defgroup Ring_Buffer CHIP: Simple ring buffer implementation
  38:../../lpc_chip_11cxx_lib/inc/ring_buffer.h ****  * @ingroup CHIP_Common
  39:../../lpc_chip_11cxx_lib/inc/ring_buffer.h ****  * @{
  40:../../lpc_chip_11cxx_lib/inc/ring_buffer.h ****  */
  41:../../lpc_chip_11cxx_lib/inc/ring_buffer.h **** 
  42:../../lpc_chip_11cxx_lib/inc/ring_buffer.h **** /**
  43:../../lpc_chip_11cxx_lib/inc/ring_buffer.h ****  * @brief Ring buffer structure
  44:../../lpc_chip_11cxx_lib/inc/ring_buffer.h ****  */
  45:../../lpc_chip_11cxx_lib/inc/ring_buffer.h **** typedef struct {
  46:../../lpc_chip_11cxx_lib/inc/ring_buffer.h **** 	void *data;
  47:../../lpc_chip_11cxx_lib/inc/ring_buffer.h **** 	int count;
  48:../../lpc_chip_11cxx_lib/inc/ring_buffer.h **** 	int itemSz;
  49:../../lpc_chip_11cxx_lib/inc/ring_buffer.h **** 	uint32_t head;
  50:../../lpc_chip_11cxx_lib/inc/ring_buffer.h **** 	uint32_t tail;
  51:../../lpc_chip_11cxx_lib/inc/ring_buffer.h **** } RINGBUFF_T;
  52:../../lpc_chip_11cxx_lib/inc/ring_buffer.h **** 
  53:../../lpc_chip_11cxx_lib/inc/ring_buffer.h **** /**
  54:../../lpc_chip_11cxx_lib/inc/ring_buffer.h ****  * @def		RB_VHEAD(rb)
  55:../../lpc_chip_11cxx_lib/inc/ring_buffer.h ****  * volatile typecasted head index
  56:../../lpc_chip_11cxx_lib/inc/ring_buffer.h ****  */
  57:../../lpc_chip_11cxx_lib/inc/ring_buffer.h **** #define RB_VHEAD(rb)              (*(volatile uint32_t *) &(rb)->head)
  58:../../lpc_chip_11cxx_lib/inc/ring_buffer.h **** 
  59:../../lpc_chip_11cxx_lib/inc/ring_buffer.h **** /**
  60:../../lpc_chip_11cxx_lib/inc/ring_buffer.h ****  * @def		RB_VTAIL(rb)
  61:../../lpc_chip_11cxx_lib/inc/ring_buffer.h ****  * volatile typecasted tail index
  62:../../lpc_chip_11cxx_lib/inc/ring_buffer.h ****  */
  63:../../lpc_chip_11cxx_lib/inc/ring_buffer.h **** #define RB_VTAIL(rb)              (*(volatile uint32_t *) &(rb)->tail)
  64:../../lpc_chip_11cxx_lib/inc/ring_buffer.h **** 
  65:../../lpc_chip_11cxx_lib/inc/ring_buffer.h **** /**
  66:../../lpc_chip_11cxx_lib/inc/ring_buffer.h ****  * @brief	Initialize ring buffer
  67:../../lpc_chip_11cxx_lib/inc/ring_buffer.h ****  * @param	RingBuff	: Pointer to ring buffer to initialize
  68:../../lpc_chip_11cxx_lib/inc/ring_buffer.h ****  * @param	buffer		: Pointer to buffer to associate with RingBuff
  69:../../lpc_chip_11cxx_lib/inc/ring_buffer.h ****  * @param	itemSize	: Size of each buffer item size
  70:../../lpc_chip_11cxx_lib/inc/ring_buffer.h ****  * @param	count		: Size of ring buffer
  71:../../lpc_chip_11cxx_lib/inc/ring_buffer.h ****  * @note	Memory pointed by @a buffer must have correct alignment of
  72:../../lpc_chip_11cxx_lib/inc/ring_buffer.h ****  * 			@a itemSize, and @a count must be a power of 2 and must at
  73:../../lpc_chip_11cxx_lib/inc/ring_buffer.h ****  * 			least be 2 or greater.
  74:../../lpc_chip_11cxx_lib/inc/ring_buffer.h ****  * @return	Nothing
  75:../../lpc_chip_11cxx_lib/inc/ring_buffer.h ****  */
  76:../../lpc_chip_11cxx_lib/inc/ring_buffer.h **** int RingBuffer_Init(RINGBUFF_T *RingBuff, void *buffer, int itemSize, int count);
  77:../../lpc_chip_11cxx_lib/inc/ring_buffer.h **** 
  78:../../lpc_chip_11cxx_lib/inc/ring_buffer.h **** /**
  79:../../lpc_chip_11cxx_lib/inc/ring_buffer.h ****  * @brief	Resets the ring buffer to empty
  80:../../lpc_chip_11cxx_lib/inc/ring_buffer.h ****  * @param	RingBuff	: Pointer to ring buffer
  81:../../lpc_chip_11cxx_lib/inc/ring_buffer.h ****  * @return	Nothing
  82:../../lpc_chip_11cxx_lib/inc/ring_buffer.h ****  */
  83:../../lpc_chip_11cxx_lib/inc/ring_buffer.h **** STATIC INLINE void RingBuffer_Flush(RINGBUFF_T *RingBuff)
  84:../../lpc_chip_11cxx_lib/inc/ring_buffer.h **** {
  85:../../lpc_chip_11cxx_lib/inc/ring_buffer.h **** 	RingBuff->head = RingBuff->tail = 0;
  86:../../lpc_chip_11cxx_lib/inc/ring_buffer.h **** }
  87:../../lpc_chip_11cxx_lib/inc/ring_buffer.h **** 
  88:../../lpc_chip_11cxx_lib/inc/ring_buffer.h **** /**
  89:../../lpc_chip_11cxx_lib/inc/ring_buffer.h ****  * @brief	Return size the ring buffer
  90:../../lpc_chip_11cxx_lib/inc/ring_buffer.h ****  * @param	RingBuff	: Pointer to ring buffer
ARM GAS  /var/folders/f9/8bk2lnw15zn4cbgn6wrnb4lm0000gn/T//ccyV4EJ6.s 			page 40


  91:../../lpc_chip_11cxx_lib/inc/ring_buffer.h ****  * @return	Size of the ring buffer in bytes
  92:../../lpc_chip_11cxx_lib/inc/ring_buffer.h ****  */
  93:../../lpc_chip_11cxx_lib/inc/ring_buffer.h **** STATIC INLINE int RingBuffer_GetSize(RINGBUFF_T *RingBuff)
  94:../../lpc_chip_11cxx_lib/inc/ring_buffer.h **** {
  95:../../lpc_chip_11cxx_lib/inc/ring_buffer.h **** 	return RingBuff->count;
  96:../../lpc_chip_11cxx_lib/inc/ring_buffer.h **** }
  97:../../lpc_chip_11cxx_lib/inc/ring_buffer.h **** 
  98:../../lpc_chip_11cxx_lib/inc/ring_buffer.h **** /**
  99:../../lpc_chip_11cxx_lib/inc/ring_buffer.h ****  * @brief	Return number of items in the ring buffer
 100:../../lpc_chip_11cxx_lib/inc/ring_buffer.h ****  * @param	RingBuff	: Pointer to ring buffer
 101:../../lpc_chip_11cxx_lib/inc/ring_buffer.h ****  * @return	Number of items in the ring buffer
 102:../../lpc_chip_11cxx_lib/inc/ring_buffer.h ****  */
 103:../../lpc_chip_11cxx_lib/inc/ring_buffer.h **** STATIC INLINE int RingBuffer_GetCount(RINGBUFF_T *RingBuff)
 104:../../lpc_chip_11cxx_lib/inc/ring_buffer.h **** {
 105:../../lpc_chip_11cxx_lib/inc/ring_buffer.h **** 	return RB_VHEAD(RingBuff) - RB_VTAIL(RingBuff);
 106:../../lpc_chip_11cxx_lib/inc/ring_buffer.h **** }
 107:../../lpc_chip_11cxx_lib/inc/ring_buffer.h **** 
 108:../../lpc_chip_11cxx_lib/inc/ring_buffer.h **** /**
 109:../../lpc_chip_11cxx_lib/inc/ring_buffer.h ****  * @brief	Return number of free items in the ring buffer
 110:../../lpc_chip_11cxx_lib/inc/ring_buffer.h ****  * @param	RingBuff	: Pointer to ring buffer
 111:../../lpc_chip_11cxx_lib/inc/ring_buffer.h ****  * @return	Number of free items in the ring buffer
 112:../../lpc_chip_11cxx_lib/inc/ring_buffer.h ****  */
 113:../../lpc_chip_11cxx_lib/inc/ring_buffer.h **** STATIC INLINE int RingBuffer_GetFree(RINGBUFF_T *RingBuff)
 114:../../lpc_chip_11cxx_lib/inc/ring_buffer.h **** {
 115:../../lpc_chip_11cxx_lib/inc/ring_buffer.h **** 	return RingBuff->count - RingBuffer_GetCount(RingBuff);
 116:../../lpc_chip_11cxx_lib/inc/ring_buffer.h **** }
 117:../../lpc_chip_11cxx_lib/inc/ring_buffer.h **** 
 118:../../lpc_chip_11cxx_lib/inc/ring_buffer.h **** /**
 119:../../lpc_chip_11cxx_lib/inc/ring_buffer.h ****  * @brief	Return number of items in the ring buffer
 120:../../lpc_chip_11cxx_lib/inc/ring_buffer.h ****  * @param	RingBuff	: Pointer to ring buffer
 121:../../lpc_chip_11cxx_lib/inc/ring_buffer.h ****  * @return	1 if the ring buffer is full, otherwise 0
 122:../../lpc_chip_11cxx_lib/inc/ring_buffer.h ****  */
 123:../../lpc_chip_11cxx_lib/inc/ring_buffer.h **** STATIC INLINE int RingBuffer_IsFull(RINGBUFF_T *RingBuff)
 124:../../lpc_chip_11cxx_lib/inc/ring_buffer.h **** {
 125:../../lpc_chip_11cxx_lib/inc/ring_buffer.h **** 	return (RingBuffer_GetCount(RingBuff) >= RingBuff->count);
 126:../../lpc_chip_11cxx_lib/inc/ring_buffer.h **** }
 127:../../lpc_chip_11cxx_lib/inc/ring_buffer.h **** 
 128:../../lpc_chip_11cxx_lib/inc/ring_buffer.h **** /**
 129:../../lpc_chip_11cxx_lib/inc/ring_buffer.h ****  * @brief	Return empty status of ring buffer
 130:../../lpc_chip_11cxx_lib/inc/ring_buffer.h ****  * @param	RingBuff	: Pointer to ring buffer
 131:../../lpc_chip_11cxx_lib/inc/ring_buffer.h ****  * @return	1 if the ring buffer is empty, otherwise 0
 132:../../lpc_chip_11cxx_lib/inc/ring_buffer.h ****  */
 133:../../lpc_chip_11cxx_lib/inc/ring_buffer.h **** STATIC INLINE int RingBuffer_IsEmpty(RINGBUFF_T *RingBuff)
 134:../../lpc_chip_11cxx_lib/inc/ring_buffer.h **** {
 135:../../lpc_chip_11cxx_lib/inc/ring_buffer.h **** 	return RB_VHEAD(RingBuff) == RB_VTAIL(RingBuff);
 1000              		.loc 4 135 0
 1001 003a F268     		ldr	r2, [r6, #12]	@ D.6445, MEM[(volatile uint32_t *)pTXRB_6(D) + 12B]
 1002 003c 3369     		ldr	r3, [r6, #16]	@ D.6445, MEM[(volatile uint32_t *)pTXRB_6(D) + 16B]
 1003              	.LBE161:
 1004              	.LBE160:
 221:../../lpc_chip_11cxx_lib/src/uart_11xx.c **** 		if (RingBuffer_IsEmpty(pTXRB)) {
 1005              		.loc 1 221 0
 1006 003e 9A42     		cmp	r2, r3	@ D.6445, D.6445
 1007 0040 E7D1     		bne	.L65	@,
 1008              	.LVL105:
 1009              	.LBB162:
 1010              	.LBB163:
ARM GAS  /var/folders/f9/8bk2lnw15zn4cbgn6wrnb4lm0000gn/T//ccyV4EJ6.s 			page 41


 368:../../lpc_chip_11cxx_lib/inc/uart_11xx.h **** 	pUART->IER &= ~intMask;
 1011              		.loc 3 368 0
 1012 0042 6368     		ldr	r3, [r4, #4]	@ D.6445, pUART_3(D)->D.4992.IER
 1013 0044 AB43     		bic	r3, r5	@ D.6445, tmp125
 1014 0046 6360     		str	r3, [r4, #4]	@ D.6445, pUART_3(D)->D.4992.IER
 1015 0048 E3E7     		b	.L65	@
 1016              	.LBE163:
 1017              	.LBE162:
 1018              		.cfi_endproc
 1019              	.LFE209:
 1020              		.size	Chip_UART_IRQRBHandler, .-Chip_UART_IRQRBHandler
 1021              		.global	__aeabi_uidivmod
 1022 004a C046     		.section	.text.Chip_UART_SetBaudFDR,"ax",%progbits
 1023              		.align	2
 1024              		.global	Chip_UART_SetBaudFDR
 1025              		.code	16
 1026              		.thumb_func
 1027              		.type	Chip_UART_SetBaudFDR, %function
 1028              	Chip_UART_SetBaudFDR:
 1029              	.LFB210:
 229:../../lpc_chip_11cxx_lib/src/uart_11xx.c **** 
 230:../../lpc_chip_11cxx_lib/src/uart_11xx.c **** /* Determines and sets best dividers to get a target baud rate */
 231:../../lpc_chip_11cxx_lib/src/uart_11xx.c **** uint32_t Chip_UART_SetBaudFDR(LPC_USART_T *pUART, uint32_t baudrate)
 232:../../lpc_chip_11cxx_lib/src/uart_11xx.c **** 
 233:../../lpc_chip_11cxx_lib/src/uart_11xx.c **** {
 1030              		.loc 1 233 0
 1031              		.cfi_startproc
 1032              	.LVL106:
 1033 0000 F8B5     		push	{r3, r4, r5, r6, r7, lr}	@
 1034              		.cfi_def_cfa_offset 24
 1035              		.cfi_offset 3, -24
 1036              		.cfi_offset 4, -20
 1037              		.cfi_offset 5, -16
 1038              		.cfi_offset 6, -12
 1039              		.cfi_offset 7, -8
 1040              		.cfi_offset 14, -4
 1041 0002 4646     		mov	r6, r8	@,
 1042 0004 4F46     		mov	r7, r9	@,
 1043 0006 C0B4     		push	{r6, r7}	@
 1044              		.cfi_def_cfa_offset 32
 1045              		.cfi_offset 8, -32
 1046              		.cfi_offset 9, -28
 234:../../lpc_chip_11cxx_lib/src/uart_11xx.c **** 	uint32_t uClk;
 235:../../lpc_chip_11cxx_lib/src/uart_11xx.c ****     uint32_t dval;
 236:../../lpc_chip_11cxx_lib/src/uart_11xx.c ****     uint32_t mval = 0;
 237:../../lpc_chip_11cxx_lib/src/uart_11xx.c ****     uint32_t dl;
 238:../../lpc_chip_11cxx_lib/src/uart_11xx.c ****     uint32_t rate16 = 16 * baudrate;
 1047              		.loc 1 238 0
 1048 0008 0D01     		lsl	r5, r1, #4	@ rate16, baudrate,
 1049              	.LVL107:
 233:../../lpc_chip_11cxx_lib/src/uart_11xx.c **** {
 1050              		.loc 1 233 0
 1051 000a 041C     		mov	r4, r0	@ pUART, pUART
 239:../../lpc_chip_11cxx_lib/src/uart_11xx.c **** 	uint32_t actualRate = 0;
 240:../../lpc_chip_11cxx_lib/src/uart_11xx.c **** 
 241:../../lpc_chip_11cxx_lib/src/uart_11xx.c **** 	/* Get Clock rate */
 242:../../lpc_chip_11cxx_lib/src/uart_11xx.c **** 	uClk = Chip_Clock_GetMainClockRate();
ARM GAS  /var/folders/f9/8bk2lnw15zn4cbgn6wrnb4lm0000gn/T//ccyV4EJ6.s 			page 42


 1052              		.loc 1 242 0
 1053 000c FFF7FEFF 		bl	Chip_Clock_GetMainClockRate	@
 1054              	.LVL108:
 243:../../lpc_chip_11cxx_lib/src/uart_11xx.c **** 
 244:../../lpc_chip_11cxx_lib/src/uart_11xx.c ****     /* The fractional is calculated as (PCLK  % (16 * Baudrate)) / (16 * Baudrate)
 245:../../lpc_chip_11cxx_lib/src/uart_11xx.c ****      * Let's make it to be the ratio DivVal / MulVal
 246:../../lpc_chip_11cxx_lib/src/uart_11xx.c ****      */
 247:../../lpc_chip_11cxx_lib/src/uart_11xx.c **** 	dval = uClk % rate16;
 1055              		.loc 1 247 0
 1056 0010 291C     		mov	r1, r5	@, rate16
 242:../../lpc_chip_11cxx_lib/src/uart_11xx.c **** 	uClk = Chip_Clock_GetMainClockRate();
 1057              		.loc 1 242 0
 1058 0012 061C     		mov	r6, r0	@ uClk,
 1059              	.LVL109:
 1060              		.loc 1 247 0
 1061 0014 FFF7FEFF 		bl	__aeabi_uidivmod	@
 1062              	.LVL110:
 248:../../lpc_chip_11cxx_lib/src/uart_11xx.c **** 
 249:../../lpc_chip_11cxx_lib/src/uart_11xx.c ****    /* The PCLK / (16 * Baudrate) is fractional
 250:../../lpc_chip_11cxx_lib/src/uart_11xx.c ****     * => dval = pclk % rate16
 251:../../lpc_chip_11cxx_lib/src/uart_11xx.c ****     * mval = rate16;
 252:../../lpc_chip_11cxx_lib/src/uart_11xx.c ****     * now mormalize the ratio
 253:../../lpc_chip_11cxx_lib/src/uart_11xx.c ****     * dval / mval = 1 / new_mval
 254:../../lpc_chip_11cxx_lib/src/uart_11xx.c ****     * new_mval = mval / dval
 255:../../lpc_chip_11cxx_lib/src/uart_11xx.c ****     * new_dval = 1
 256:../../lpc_chip_11cxx_lib/src/uart_11xx.c ****     */
 257:../../lpc_chip_11cxx_lib/src/uart_11xx.c ****     if (dval > 0) {
 1063              		.loc 1 257 0
 1064 0018 0029     		cmp	r1, #0	@ tmp143,
 1065 001a 36D0     		beq	.L78	@,
 258:../../lpc_chip_11cxx_lib/src/uart_11xx.c ****         mval = rate16 / dval;
 1066              		.loc 1 258 0
 1067 001c 281C     		mov	r0, r5	@, rate16
 1068 001e FFF7FEFF 		bl	__aeabi_uidiv	@
 1069              	.LVL111:
 259:../../lpc_chip_11cxx_lib/src/uart_11xx.c ****         dval = 1;
 260:../../lpc_chip_11cxx_lib/src/uart_11xx.c **** 
 261:../../lpc_chip_11cxx_lib/src/uart_11xx.c ****         /* In case mval still bigger then 4 bits
 262:../../lpc_chip_11cxx_lib/src/uart_11xx.c ****         * no adjustment require
 263:../../lpc_chip_11cxx_lib/src/uart_11xx.c ****         */
 264:../../lpc_chip_11cxx_lib/src/uart_11xx.c ****         if (mval > 12) {
 1070              		.loc 1 264 0
 1071 0022 0C22     		mov	r2, #12	@ tmp152,
 1072 0024 0023     		mov	r3, #0	@ tmp153,
 1073 0026 8242     		cmp	r2, r0	@ tmp152, tmp149
 1074 0028 5B41     		adc	r3, r3, r3	@ tmp153, tmp153, tmp153
 1075 002a 0F27     		mov	r7, #15	@ tmp154,
 1076 002c 9946     		mov	r9, r3	@ D.6451, tmp153
 1077 002e 0740     		and	r7, r0	@ D.6452, tmp149
 1078 0030 3B01     		lsl	r3, r7, #4	@ D.6450, D.6452,
 1079 0032 4A46     		mov	r2, r9	@, D.6451
 1080 0034 4846     		mov	r0, r9	@ D.6450, D.6451
 1081              	.LVL112:
 1082 0036 1A43     		orr	r2, r3	@, D.6450
 1083 0038 6843     		mul	r0, r5	@ D.6450, rate16
 1084 003a 391C     		mov	r1, r7	@, D.6452
 1085 003c 9046     		mov	r8, r2	@ D.6450,
ARM GAS  /var/folders/f9/8bk2lnw15zn4cbgn6wrnb4lm0000gn/T//ccyV4EJ6.s 			page 43


 1086 003e FFF7FEFF 		bl	__aeabi_uidiv	@
 1087              	.LVL113:
 1088 0042 4119     		add	r1, r0, r5	@ D.6450, D.6450, rate16
 1089 0044 301C     		mov	r0, r6	@, uClk
 1090 0046 FFF7FEFF 		bl	__aeabi_uidiv	@
 1091              	.LVL114:
 1092 004a 4B46     		mov	r3, r9	@, D.6451
 1093 004c 051C     		mov	r5, r0	@ D.6452,
 1094              	.LVL115:
 1095 004e 1801     		lsl	r0, r3, #4	@ D.6450,,
 1096 0050 6843     		mul	r0, r5	@ D.6450, D.6452
 1097 0052 391C     		mov	r1, r7	@, D.6452
 1098 0054 FFF7FEFF 		bl	__aeabi_uidiv	@
 1099              	.LVL116:
 1100              	.L77:
 1101              	.LBB164:
 1102              	.LBB165:
 431:../../lpc_chip_11cxx_lib/inc/uart_11xx.h **** 	pUART->LCR |= UART_LCR_DLAB_EN;
 1103              		.loc 3 431 0
 1104 0058 E268     		ldr	r2, [r4, #12]	@ D.6450, pUART_16(D)->LCR
 1105 005a 8023     		mov	r3, #128	@ tmp170,
 1106 005c 1A43     		orr	r2, r3	@ D.6450, tmp170
 1107 005e E260     		str	r2, [r4, #12]	@ D.6450, pUART_16(D)->LCR
 1108              	.LVL117:
 1109              	.LBE165:
 1110              	.LBE164:
 1111              	.LBB166:
 1112              	.LBB167:
 456:../../lpc_chip_11cxx_lib/inc/uart_11xx.h **** 	pUART->DLL = (uint32_t) dll;
 1113              		.loc 3 456 0
 1114 0060 FF22     		mov	r2, #255	@ tmp171,
 1115 0062 111C     		mov	r1, r2	@ D.6450, tmp171
 1116 0064 2940     		and	r1, r5	@ D.6450, D.6452
 1117 0066 2160     		str	r1, [r4]	@ D.6450, pUART_16(D)->D.4988.DLL
 1118              	.LBE167:
 1119              	.LBE166:
 265:../../lpc_chip_11cxx_lib/src/uart_11xx.c ****          dval = 0;
 266:../../lpc_chip_11cxx_lib/src/uart_11xx.c ****       }
 267:../../lpc_chip_11cxx_lib/src/uart_11xx.c ****     }
 268:../../lpc_chip_11cxx_lib/src/uart_11xx.c ****     dval &= 0xf;
 269:../../lpc_chip_11cxx_lib/src/uart_11xx.c ****     mval &= 0xf;
 270:../../lpc_chip_11cxx_lib/src/uart_11xx.c ****     dl = uClk / (rate16 + rate16 *dval / mval);
 271:../../lpc_chip_11cxx_lib/src/uart_11xx.c **** 
 272:../../lpc_chip_11cxx_lib/src/uart_11xx.c ****     /* Update UART registers */
 273:../../lpc_chip_11cxx_lib/src/uart_11xx.c ****     Chip_UART_EnableDivisorAccess(pUART);
 274:../../lpc_chip_11cxx_lib/src/uart_11xx.c **** 	Chip_UART_SetDivisorLatches(pUART, UART_LOAD_DLL(dl), UART_LOAD_DLM(dl));
 1120              		.loc 1 274 0
 1121 0068 290A     		lsr	r1, r5, #8	@ D.6450, D.6452,
 1122              	.LBB169:
 1123              	.LBB168:
 457:../../lpc_chip_11cxx_lib/inc/uart_11xx.h **** 	pUART->DLM = (uint32_t) dlm;
 1124              		.loc 3 457 0
 1125 006a 0A40     		and	r2, r1	@ D.6450, D.6450
 1126 006c 6260     		str	r2, [r4, #4]	@ D.6450, pUART_16(D)->D.4992.DLM
 1127              	.LVL118:
 1128              	.LBE168:
 1129              	.LBE169:
ARM GAS  /var/folders/f9/8bk2lnw15zn4cbgn6wrnb4lm0000gn/T//ccyV4EJ6.s 			page 44


 1130              	.LBB170:
 1131              	.LBB171:
 441:../../lpc_chip_11cxx_lib/inc/uart_11xx.h **** 	pUART->LCR &= ~UART_LCR_DLAB_EN;
 1132              		.loc 3 441 0
 1133 006e E268     		ldr	r2, [r4, #12]	@ D.6450, pUART_16(D)->LCR
 1134              	.LBE171:
 1135              	.LBE170:
 275:../../lpc_chip_11cxx_lib/src/uart_11xx.c **** 	Chip_UART_DisableDivisorAccess(pUART);
 276:../../lpc_chip_11cxx_lib/src/uart_11xx.c **** 
 277:../../lpc_chip_11cxx_lib/src/uart_11xx.c **** 	/* Set best fractional divider */
 278:../../lpc_chip_11cxx_lib/src/uart_11xx.c **** 	pUART->FDR = (UART_FDR_MULVAL(mval) | UART_FDR_DIVADDVAL(dval));
 279:../../lpc_chip_11cxx_lib/src/uart_11xx.c **** 
 280:../../lpc_chip_11cxx_lib/src/uart_11xx.c **** 	/* Return actual baud rate */
 281:../../lpc_chip_11cxx_lib/src/uart_11xx.c **** 	actualRate = uClk / (16 * dl + 16 * dl * dval / mval);
 1136              		.loc 1 281 0
 1137 0070 2D01     		lsl	r5, r5, #4	@ D.6450, D.6452,
 1138              	.LVL119:
 1139              	.LBB173:
 1140              	.LBB172:
 441:../../lpc_chip_11cxx_lib/inc/uart_11xx.h **** 	pUART->LCR &= ~UART_LCR_DLAB_EN;
 1141              		.loc 3 441 0
 1142 0072 9A43     		bic	r2, r3	@ D.6450, tmp170
 1143 0074 E260     		str	r2, [r4, #12]	@ D.6450, pUART_16(D)->LCR
 1144              	.LBE172:
 1145              	.LBE173:
 278:../../lpc_chip_11cxx_lib/src/uart_11xx.c **** 	pUART->FDR = (UART_FDR_MULVAL(mval) | UART_FDR_DIVADDVAL(dval));
 1146              		.loc 1 278 0
 1147 0076 4246     		mov	r2, r8	@, D.6450
 1148              		.loc 1 281 0
 1149 0078 2918     		add	r1, r5, r0	@ D.6450, D.6450, D.6450
 278:../../lpc_chip_11cxx_lib/src/uart_11xx.c **** 	pUART->FDR = (UART_FDR_MULVAL(mval) | UART_FDR_DIVADDVAL(dval));
 1150              		.loc 1 278 0
 1151 007a A262     		str	r2, [r4, #40]	@, pUART_16(D)->FDR
 1152              	.LVL120:
 1153              		.loc 1 281 0
 1154 007c 301C     		mov	r0, r6	@, uClk
 1155 007e FFF7FEFF 		bl	__aeabi_uidiv	@
 1156              	.LVL121:
 282:../../lpc_chip_11cxx_lib/src/uart_11xx.c **** 	return actualRate;
 283:../../lpc_chip_11cxx_lib/src/uart_11xx.c **** }
 1157              		.loc 1 283 0
 1158              		@ sp needed	@
 1159              	.LVL122:
 1160              	.LVL123:
 1161 0082 0CBC     		pop	{r2, r3}
 1162 0084 9046     		mov	r8, r2
 1163 0086 9946     		mov	r9, r3
 1164 0088 F8BD     		pop	{r3, r4, r5, r6, r7, pc}
 1165              	.LVL124:
 1166              	.L78:
 1167 008a 291C     		mov	r1, r5	@, rate16
 1168              	.LVL125:
 1169 008c 301C     		mov	r0, r6	@, uClk
 1170 008e FFF7FEFF 		bl	__aeabi_uidiv	@
 1171              	.LVL126:
 1172 0092 051C     		mov	r5, r0	@ D.6452,
 1173              	.LVL127:
ARM GAS  /var/folders/f9/8bk2lnw15zn4cbgn6wrnb4lm0000gn/T//ccyV4EJ6.s 			page 45


 257:../../lpc_chip_11cxx_lib/src/uart_11xx.c ****     if (dval > 0) {
 1174              		.loc 1 257 0
 1175 0094 0020     		mov	r0, #0	@ D.6450,
 1176 0096 8046     		mov	r8, r0	@ D.6450, D.6450
 1177 0098 DEE7     		b	.L77	@
 1178              		.cfi_endproc
 1179              	.LFE210:
 1180              		.size	Chip_UART_SetBaudFDR, .-Chip_UART_SetBaudFDR
 1181 009a C046     		.text
 1182              	.Letext0:
 1183              		.file 5 "/usr/local/Cellar/gcc-arm-none-eabi/20140805/arm-none-eabi/include/machine/_default_types
 1184              		.file 6 "/usr/local/Cellar/gcc-arm-none-eabi/20140805/arm-none-eabi/include/stdint.h"
 1185              		.file 7 "../../lpc_chip_11cxx_lib/inc/sysctl_11xx.h"
 1186              		.file 8 "../../lpc_chip_11cxx_lib/inc/chip.h"
 1187              		.section	.debug_info,"",%progbits
 1188              	.Ldebug_info0:
 1189 0000 B7130000 		.4byte	0x13b7
 1190 0004 0400     		.2byte	0x4
 1191 0006 00000000 		.4byte	.Ldebug_abbrev0
 1192 000a 04       		.byte	0x4
 1193 000b 01       		.uleb128 0x1
 1194 000c BF0B0000 		.4byte	.LASF1156
 1195 0010 01       		.byte	0x1
 1196 0011 A8170000 		.4byte	.LASF1157
 1197 0015 37190000 		.4byte	.LASF1158
 1198 0019 E0010000 		.4byte	.Ldebug_ranges0+0x1e0
 1199 001d 00000000 		.4byte	0
 1200 0021 00000000 		.4byte	.Ldebug_line0
 1201 0025 00000000 		.4byte	.Ldebug_macro0
 1202 0029 02       		.uleb128 0x2
 1203 002a 01       		.byte	0x1
 1204 002b 06       		.byte	0x6
 1205 002c B51B0000 		.4byte	.LASF988
 1206 0030 03       		.uleb128 0x3
 1207 0031 21100000 		.4byte	.LASF993
 1208 0035 05       		.byte	0x5
 1209 0036 1C       		.byte	0x1c
 1210 0037 3B000000 		.4byte	0x3b
 1211 003b 02       		.uleb128 0x2
 1212 003c 01       		.byte	0x1
 1213 003d 08       		.byte	0x8
 1214 003e E71E0000 		.4byte	.LASF989
 1215 0042 02       		.uleb128 0x2
 1216 0043 02       		.byte	0x2
 1217 0044 05       		.byte	0x5
 1218 0045 FF630000 		.4byte	.LASF990
 1219 0049 02       		.uleb128 0x2
 1220 004a 02       		.byte	0x2
 1221 004b 07       		.byte	0x7
 1222 004c 69700000 		.4byte	.LASF991
 1223 0050 02       		.uleb128 0x2
 1224 0051 04       		.byte	0x4
 1225 0052 05       		.byte	0x5
 1226 0053 DE130000 		.4byte	.LASF992
 1227 0057 03       		.uleb128 0x3
 1228 0058 343E0000 		.4byte	.LASF994
 1229 005c 05       		.byte	0x5
ARM GAS  /var/folders/f9/8bk2lnw15zn4cbgn6wrnb4lm0000gn/T//ccyV4EJ6.s 			page 46


 1230 005d 38       		.byte	0x38
 1231 005e 62000000 		.4byte	0x62
 1232 0062 02       		.uleb128 0x2
 1233 0063 04       		.byte	0x4
 1234 0064 07       		.byte	0x7
 1235 0065 EB350000 		.4byte	.LASF995
 1236 0069 02       		.uleb128 0x2
 1237 006a 08       		.byte	0x8
 1238 006b 05       		.byte	0x5
 1239 006c 9B3E0000 		.4byte	.LASF996
 1240 0070 02       		.uleb128 0x2
 1241 0071 08       		.byte	0x8
 1242 0072 07       		.byte	0x7
 1243 0073 63550000 		.4byte	.LASF997
 1244 0077 04       		.uleb128 0x4
 1245 0078 04       		.byte	0x4
 1246 0079 05       		.byte	0x5
 1247 007a 696E7400 		.ascii	"int\000"
 1248 007e 02       		.uleb128 0x2
 1249 007f 04       		.byte	0x4
 1250 0080 07       		.byte	0x7
 1251 0081 A0450000 		.4byte	.LASF998
 1252 0085 03       		.uleb128 0x3
 1253 0086 0B1C0000 		.4byte	.LASF999
 1254 008a 06       		.byte	0x6
 1255 008b 2A       		.byte	0x2a
 1256 008c 30000000 		.4byte	0x30
 1257 0090 03       		.uleb128 0x3
 1258 0091 376D0000 		.4byte	.LASF1000
 1259 0095 06       		.byte	0x6
 1260 0096 42       		.byte	0x42
 1261 0097 57000000 		.4byte	0x57
 1262 009b 02       		.uleb128 0x2
 1263 009c 01       		.byte	0x1
 1264 009d 08       		.byte	0x8
 1265 009e BA230000 		.4byte	.LASF1001
 1266 00a2 02       		.uleb128 0x2
 1267 00a3 01       		.byte	0x1
 1268 00a4 02       		.byte	0x2
 1269 00a5 75220000 		.4byte	.LASF1002
 1270 00a9 05       		.uleb128 0x5
 1271 00aa 90000000 		.4byte	0x90
 1272 00ae B9000000 		.4byte	0xb9
 1273 00b2 06       		.uleb128 0x6
 1274 00b3 B9000000 		.4byte	0xb9
 1275 00b7 00       		.byte	0
 1276 00b8 00       		.byte	0
 1277 00b9 02       		.uleb128 0x2
 1278 00ba 04       		.byte	0x4
 1279 00bb 07       		.byte	0x7
 1280 00bc A0010000 		.4byte	.LASF1003
 1281 00c0 05       		.uleb128 0x5
 1282 00c1 90000000 		.4byte	0x90
 1283 00c5 D0000000 		.4byte	0xd0
 1284 00c9 06       		.uleb128 0x6
 1285 00ca B9000000 		.4byte	0xb9
 1286 00ce 07       		.byte	0x7
ARM GAS  /var/folders/f9/8bk2lnw15zn4cbgn6wrnb4lm0000gn/T//ccyV4EJ6.s 			page 47


 1287 00cf 00       		.byte	0
 1288 00d0 07       		.uleb128 0x7
 1289 00d1 D5000000 		.4byte	0xd5
 1290 00d5 08       		.uleb128 0x8
 1291 00d6 90000000 		.4byte	0x90
 1292 00da 05       		.uleb128 0x5
 1293 00db 90000000 		.4byte	0x90
 1294 00df EA000000 		.4byte	0xea
 1295 00e3 06       		.uleb128 0x6
 1296 00e4 B9000000 		.4byte	0xb9
 1297 00e8 01       		.byte	0x1
 1298 00e9 00       		.byte	0
 1299 00ea 05       		.uleb128 0x5
 1300 00eb 90000000 		.4byte	0x90
 1301 00ef FA000000 		.4byte	0xfa
 1302 00f3 06       		.uleb128 0x6
 1303 00f4 B9000000 		.4byte	0xb9
 1304 00f8 03       		.byte	0x3
 1305 00f9 00       		.byte	0
 1306 00fa 05       		.uleb128 0x5
 1307 00fb 90000000 		.4byte	0x90
 1308 00ff 0A010000 		.4byte	0x10a
 1309 0103 06       		.uleb128 0x6
 1310 0104 B9000000 		.4byte	0xb9
 1311 0108 02       		.byte	0x2
 1312 0109 00       		.byte	0
 1313 010a 09       		.uleb128 0x9
 1314 010b F803     		.2byte	0x3f8
 1315 010d 07       		.byte	0x7
 1316 010e 2F       		.byte	0x2f
 1317 010f 1F040000 		.4byte	0x41f
 1318 0113 0A       		.uleb128 0xa
 1319 0114 CF2D0000 		.4byte	.LASF1004
 1320 0118 07       		.byte	0x7
 1321 0119 30       		.byte	0x30
 1322 011a D5000000 		.4byte	0xd5
 1323 011e 00       		.byte	0
 1324 011f 0A       		.uleb128 0xa
 1325 0120 245A0000 		.4byte	.LASF1005
 1326 0124 07       		.byte	0x7
 1327 0125 31       		.byte	0x31
 1328 0126 D5000000 		.4byte	0xd5
 1329 012a 04       		.byte	0x4
 1330 012b 0A       		.uleb128 0xa
 1331 012c 582D0000 		.4byte	.LASF1006
 1332 0130 07       		.byte	0x7
 1333 0131 32       		.byte	0x32
 1334 0132 D5000000 		.4byte	0xd5
 1335 0136 08       		.byte	0x8
 1336 0137 0A       		.uleb128 0xa
 1337 0138 246A0000 		.4byte	.LASF1007
 1338 013c 07       		.byte	0x7
 1339 013d 33       		.byte	0x33
 1340 013e D0000000 		.4byte	0xd0
 1341 0142 0C       		.byte	0xc
 1342 0143 0A       		.uleb128 0xa
 1343 0144 0B6A0000 		.4byte	.LASF1008
ARM GAS  /var/folders/f9/8bk2lnw15zn4cbgn6wrnb4lm0000gn/T//ccyV4EJ6.s 			page 48


 1344 0148 07       		.byte	0x7
 1345 0149 34       		.byte	0x34
 1346 014a D5000000 		.4byte	0xd5
 1347 014e 10       		.byte	0x10
 1348 014f 0A       		.uleb128 0xa
 1349 0150 AD330000 		.4byte	.LASF1009
 1350 0154 07       		.byte	0x7
 1351 0155 35       		.byte	0x35
 1352 0156 D0000000 		.4byte	0xd0
 1353 015a 14       		.byte	0x14
 1354 015b 0A       		.uleb128 0xa
 1355 015c DD1E0000 		.4byte	.LASF1010
 1356 0160 07       		.byte	0x7
 1357 0161 36       		.byte	0x36
 1358 0162 1F040000 		.4byte	0x41f
 1359 0166 18       		.byte	0x18
 1360 0167 0A       		.uleb128 0xa
 1361 0168 BD500000 		.4byte	.LASF1011
 1362 016c 07       		.byte	0x7
 1363 016d 37       		.byte	0x37
 1364 016e D5000000 		.4byte	0xd5
 1365 0172 20       		.byte	0x20
 1366 0173 0A       		.uleb128 0xa
 1367 0174 0F6F0000 		.4byte	.LASF1012
 1368 0178 07       		.byte	0x7
 1369 0179 38       		.byte	0x38
 1370 017a D5000000 		.4byte	0xd5
 1371 017e 24       		.byte	0x24
 1372 017f 0A       		.uleb128 0xa
 1373 0180 34590000 		.4byte	.LASF1013
 1374 0184 07       		.byte	0x7
 1375 0185 39       		.byte	0x39
 1376 0186 D5000000 		.4byte	0xd5
 1377 018a 28       		.byte	0x28
 1378 018b 0A       		.uleb128 0xa
 1379 018c 18620000 		.4byte	.LASF1014
 1380 0190 07       		.byte	0x7
 1381 0191 3A       		.byte	0x3a
 1382 0192 D5000000 		.4byte	0xd5
 1383 0196 2C       		.byte	0x2c
 1384 0197 0A       		.uleb128 0xa
 1385 0198 85400000 		.4byte	.LASF1015
 1386 019c 07       		.byte	0x7
 1387 019d 3B       		.byte	0x3b
 1388 019e D5000000 		.4byte	0xd5
 1389 01a2 30       		.byte	0x30
 1390 01a3 0A       		.uleb128 0xa
 1391 01a4 05230000 		.4byte	.LASF1016
 1392 01a8 07       		.byte	0x7
 1393 01a9 3C       		.byte	0x3c
 1394 01aa 29040000 		.4byte	0x429
 1395 01ae 34       		.byte	0x34
 1396 01af 0A       		.uleb128 0xa
 1397 01b0 2D150000 		.4byte	.LASF1017
 1398 01b4 07       		.byte	0x7
 1399 01b5 3D       		.byte	0x3d
 1400 01b6 D5000000 		.4byte	0xd5
ARM GAS  /var/folders/f9/8bk2lnw15zn4cbgn6wrnb4lm0000gn/T//ccyV4EJ6.s 			page 49


 1401 01ba 40       		.byte	0x40
 1402 01bb 0A       		.uleb128 0xa
 1403 01bc C7450000 		.4byte	.LASF1018
 1404 01c0 07       		.byte	0x7
 1405 01c1 3E       		.byte	0x3e
 1406 01c2 D5000000 		.4byte	0xd5
 1407 01c6 44       		.byte	0x44
 1408 01c7 0A       		.uleb128 0xa
 1409 01c8 361C0000 		.4byte	.LASF1019
 1410 01cc 07       		.byte	0x7
 1411 01cd 3F       		.byte	0x3f
 1412 01ce D5000000 		.4byte	0xd5
 1413 01d2 48       		.byte	0x48
 1414 01d3 0A       		.uleb128 0xa
 1415 01d4 1B4C0000 		.4byte	.LASF1020
 1416 01d8 07       		.byte	0x7
 1417 01d9 40       		.byte	0x40
 1418 01da D5000000 		.4byte	0xd5
 1419 01de 4C       		.byte	0x4c
 1420 01df 0A       		.uleb128 0xa
 1421 01e0 F51E0000 		.4byte	.LASF1021
 1422 01e4 07       		.byte	0x7
 1423 01e5 41       		.byte	0x41
 1424 01e6 33040000 		.4byte	0x433
 1425 01ea 50       		.byte	0x50
 1426 01eb 0A       		.uleb128 0xa
 1427 01ec 531F0000 		.4byte	.LASF1022
 1428 01f0 07       		.byte	0x7
 1429 01f1 42       		.byte	0x42
 1430 01f2 D5000000 		.4byte	0xd5
 1431 01f6 70       		.byte	0x70
 1432 01f7 0A       		.uleb128 0xa
 1433 01f8 514F0000 		.4byte	.LASF1023
 1434 01fc 07       		.byte	0x7
 1435 01fd 43       		.byte	0x43
 1436 01fe D5000000 		.4byte	0xd5
 1437 0202 74       		.byte	0x74
 1438 0203 0A       		.uleb128 0xa
 1439 0204 B2480000 		.4byte	.LASF1024
 1440 0208 07       		.byte	0x7
 1441 0209 44       		.byte	0x44
 1442 020a D5000000 		.4byte	0xd5
 1443 020e 78       		.byte	0x78
 1444 020f 0A       		.uleb128 0xa
 1445 0210 FF1E0000 		.4byte	.LASF1025
 1446 0214 07       		.byte	0x7
 1447 0215 45       		.byte	0x45
 1448 0216 D0000000 		.4byte	0xd0
 1449 021a 7C       		.byte	0x7c
 1450 021b 0A       		.uleb128 0xa
 1451 021c CD580000 		.4byte	.LASF1026
 1452 0220 07       		.byte	0x7
 1453 0221 46       		.byte	0x46
 1454 0222 D5000000 		.4byte	0xd5
 1455 0226 80       		.byte	0x80
 1456 0227 0A       		.uleb128 0xa
 1457 0228 091F0000 		.4byte	.LASF1027
ARM GAS  /var/folders/f9/8bk2lnw15zn4cbgn6wrnb4lm0000gn/T//ccyV4EJ6.s 			page 50


 1458 022c 07       		.byte	0x7
 1459 022d 47       		.byte	0x47
 1460 022e 3D040000 		.4byte	0x43d
 1461 0232 84       		.byte	0x84
 1462 0233 0A       		.uleb128 0xa
 1463 0234 ED6A0000 		.4byte	.LASF1028
 1464 0238 07       		.byte	0x7
 1465 0239 48       		.byte	0x48
 1466 023a D5000000 		.4byte	0xd5
 1467 023e 94       		.byte	0x94
 1468 023f 0A       		.uleb128 0xa
 1469 0240 1D240000 		.4byte	.LASF1029
 1470 0244 07       		.byte	0x7
 1471 0245 49       		.byte	0x49
 1472 0246 D5000000 		.4byte	0xd5
 1473 024a 98       		.byte	0x98
 1474 024b 0A       		.uleb128 0xa
 1475 024c 10700000 		.4byte	.LASF1030
 1476 0250 07       		.byte	0x7
 1477 0251 4A       		.byte	0x4a
 1478 0252 D5000000 		.4byte	0xd5
 1479 0256 9C       		.byte	0x9c
 1480 0257 0A       		.uleb128 0xa
 1481 0258 131F0000 		.4byte	.LASF1031
 1482 025c 07       		.byte	0x7
 1483 025d 4B       		.byte	0x4b
 1484 025e 47040000 		.4byte	0x447
 1485 0262 A0       		.byte	0xa0
 1486 0263 0A       		.uleb128 0xa
 1487 0264 D4730000 		.4byte	.LASF1032
 1488 0268 07       		.byte	0x7
 1489 0269 4C       		.byte	0x4c
 1490 026a D5000000 		.4byte	0xd5
 1491 026e C0       		.byte	0xc0
 1492 026f 0A       		.uleb128 0xa
 1493 0270 742F0000 		.4byte	.LASF1033
 1494 0274 07       		.byte	0x7
 1495 0275 4D       		.byte	0x4d
 1496 0276 D5000000 		.4byte	0xd5
 1497 027a C4       		.byte	0xc4
 1498 027b 0A       		.uleb128 0xa
 1499 027c 4D0A0000 		.4byte	.LASF1034
 1500 0280 07       		.byte	0x7
 1501 0281 4E       		.byte	0x4e
 1502 0282 D5000000 		.4byte	0xd5
 1503 0286 C8       		.byte	0xc8
 1504 0287 0A       		.uleb128 0xa
 1505 0288 1D1F0000 		.4byte	.LASF1035
 1506 028c 07       		.byte	0x7
 1507 028d 4F       		.byte	0x4f
 1508 028e D0000000 		.4byte	0xd0
 1509 0292 CC       		.byte	0xcc
 1510 0293 0A       		.uleb128 0xa
 1511 0294 CF5C0000 		.4byte	.LASF1036
 1512 0298 07       		.byte	0x7
 1513 0299 50       		.byte	0x50
 1514 029a D5000000 		.4byte	0xd5
ARM GAS  /var/folders/f9/8bk2lnw15zn4cbgn6wrnb4lm0000gn/T//ccyV4EJ6.s 			page 51


 1515 029e D0       		.byte	0xd0
 1516 029f 0A       		.uleb128 0xa
 1517 02a0 4A150000 		.4byte	.LASF1037
 1518 02a4 07       		.byte	0x7
 1519 02a5 51       		.byte	0x51
 1520 02a6 D5000000 		.4byte	0xd5
 1521 02aa D4       		.byte	0xd4
 1522 02ab 0A       		.uleb128 0xa
 1523 02ac 53690000 		.4byte	.LASF1038
 1524 02b0 07       		.byte	0x7
 1525 02b1 52       		.byte	0x52
 1526 02b2 D5000000 		.4byte	0xd5
 1527 02b6 D8       		.byte	0xd8
 1528 02b7 0A       		.uleb128 0xa
 1529 02b8 271F0000 		.4byte	.LASF1039
 1530 02bc 07       		.byte	0x7
 1531 02bd 53       		.byte	0x53
 1532 02be D0000000 		.4byte	0xd0
 1533 02c2 DC       		.byte	0xdc
 1534 02c3 0A       		.uleb128 0xa
 1535 02c4 91630000 		.4byte	.LASF1040
 1536 02c8 07       		.byte	0x7
 1537 02c9 54       		.byte	0x54
 1538 02ca D5000000 		.4byte	0xd5
 1539 02ce E0       		.byte	0xe0
 1540 02cf 0A       		.uleb128 0xa
 1541 02d0 D11C0000 		.4byte	.LASF1041
 1542 02d4 07       		.byte	0x7
 1543 02d5 55       		.byte	0x55
 1544 02d6 D5000000 		.4byte	0xd5
 1545 02da E4       		.byte	0xe4
 1546 02db 0A       		.uleb128 0xa
 1547 02dc 4F6F0000 		.4byte	.LASF1042
 1548 02e0 07       		.byte	0x7
 1549 02e1 56       		.byte	0x56
 1550 02e2 D5000000 		.4byte	0xd5
 1551 02e6 E8       		.byte	0xe8
 1552 02e7 0A       		.uleb128 0xa
 1553 02e8 311F0000 		.4byte	.LASF1043
 1554 02ec 07       		.byte	0x7
 1555 02ed 57       		.byte	0x57
 1556 02ee 61040000 		.4byte	0x461
 1557 02f2 EC       		.byte	0xec
 1558 02f3 0B       		.uleb128 0xb
 1559 02f4 B8140000 		.4byte	.LASF1044
 1560 02f8 07       		.byte	0x7
 1561 02f9 58       		.byte	0x58
 1562 02fa 6B040000 		.4byte	0x46b
 1563 02fe 0001     		.2byte	0x100
 1564 0300 0B       		.uleb128 0xb
 1565 0301 84570000 		.4byte	.LASF1045
 1566 0305 07       		.byte	0x7
 1567 0306 59       		.byte	0x59
 1568 0307 85040000 		.4byte	0x485
 1569 030b 0801     		.2byte	0x108
 1570 030d 0B       		.uleb128 0xb
 1571 030e B0060000 		.4byte	.LASF1046
ARM GAS  /var/folders/f9/8bk2lnw15zn4cbgn6wrnb4lm0000gn/T//ccyV4EJ6.s 			page 52


 1572 0312 07       		.byte	0x7
 1573 0313 5A       		.byte	0x5a
 1574 0314 D5000000 		.4byte	0xd5
 1575 0318 5001     		.2byte	0x150
 1576 031a 0B       		.uleb128 0xb
 1577 031b 49730000 		.4byte	.LASF1047
 1578 031f 07       		.byte	0x7
 1579 0320 5B       		.byte	0x5b
 1580 0321 D5000000 		.4byte	0xd5
 1581 0325 5401     		.2byte	0x154
 1582 0327 0B       		.uleb128 0xb
 1583 0328 8F570000 		.4byte	.LASF1048
 1584 032c 07       		.byte	0x7
 1585 032d 5C       		.byte	0x5c
 1586 032e 9F040000 		.4byte	0x49f
 1587 0332 5801     		.2byte	0x158
 1588 0334 0B       		.uleb128 0xb
 1589 0335 593A0000 		.4byte	.LASF1049
 1590 0339 07       		.byte	0x7
 1591 033a 5D       		.byte	0x5d
 1592 033b D5000000 		.4byte	0xd5
 1593 033f 7001     		.2byte	0x170
 1594 0341 0B       		.uleb128 0xb
 1595 0342 1A680000 		.4byte	.LASF1050
 1596 0346 07       		.byte	0x7
 1597 0347 5E       		.byte	0x5e
 1598 0348 D5000000 		.4byte	0xd5
 1599 034c 7401     		.2byte	0x174
 1600 034e 0B       		.uleb128 0xb
 1601 034f 04120000 		.4byte	.LASF1051
 1602 0353 07       		.byte	0x7
 1603 0354 5F       		.byte	0x5f
 1604 0355 A9040000 		.4byte	0x4a9
 1605 0359 7801     		.2byte	0x178
 1606 035b 0B       		.uleb128 0xb
 1607 035c 71300000 		.4byte	.LASF1052
 1608 0360 07       		.byte	0x7
 1609 0361 60       		.byte	0x60
 1610 0362 D5000000 		.4byte	0xd5
 1611 0366 9801     		.2byte	0x198
 1612 0368 0B       		.uleb128 0xb
 1613 0369 1B5A0000 		.4byte	.LASF1053
 1614 036d 07       		.byte	0x7
 1615 036e 61       		.byte	0x61
 1616 036f D0000000 		.4byte	0xd0
 1617 0373 9C01     		.2byte	0x19c
 1618 0375 0B       		.uleb128 0xb
 1619 0376 9A570000 		.4byte	.LASF1054
 1620 037a 07       		.byte	0x7
 1621 037b 62       		.byte	0x62
 1622 037c BE040000 		.4byte	0x4be
 1623 0380 A001     		.2byte	0x1a0
 1624 0382 0B       		.uleb128 0xb
 1625 0383 FF4A0000 		.4byte	.LASF1055
 1626 0387 07       		.byte	0x7
 1627 0388 63       		.byte	0x63
 1628 0389 D5000000 		.4byte	0xd5
ARM GAS  /var/folders/f9/8bk2lnw15zn4cbgn6wrnb4lm0000gn/T//ccyV4EJ6.s 			page 53


 1629 038d 0002     		.2byte	0x200
 1630 038f 0B       		.uleb128 0xb
 1631 0390 17660000 		.4byte	.LASF1056
 1632 0394 07       		.byte	0x7
 1633 0395 64       		.byte	0x64
 1634 0396 D5000000 		.4byte	0xd5
 1635 039a 0402     		.2byte	0x204
 1636 039c 0B       		.uleb128 0xb
 1637 039d 166A0000 		.4byte	.LASF1057
 1638 03a1 07       		.byte	0x7
 1639 03a2 65       		.byte	0x65
 1640 03a3 D5000000 		.4byte	0xd5
 1641 03a7 0802     		.2byte	0x208
 1642 03a9 0B       		.uleb128 0xb
 1643 03aa 7A6D0000 		.4byte	.LASF1058
 1644 03ae 07       		.byte	0x7
 1645 03af 66       		.byte	0x66
 1646 03b0 D5000000 		.4byte	0xd5
 1647 03b4 0C02     		.2byte	0x20c
 1648 03b6 0B       		.uleb128 0xb
 1649 03b7 A5570000 		.4byte	.LASF1059
 1650 03bb 07       		.byte	0x7
 1651 03bc 67       		.byte	0x67
 1652 03bd D0000000 		.4byte	0xd0
 1653 03c1 1002     		.2byte	0x210
 1654 03c3 0B       		.uleb128 0xb
 1655 03c4 21660000 		.4byte	.LASF1060
 1656 03c8 07       		.byte	0x7
 1657 03c9 68       		.byte	0x68
 1658 03ca D5000000 		.4byte	0xd5
 1659 03ce 1402     		.2byte	0x214
 1660 03d0 0B       		.uleb128 0xb
 1661 03d1 B0570000 		.4byte	.LASF1061
 1662 03d5 07       		.byte	0x7
 1663 03d6 69       		.byte	0x69
 1664 03d7 C8040000 		.4byte	0x4c8
 1665 03db 1802     		.2byte	0x218
 1666 03dd 0B       		.uleb128 0xb
 1667 03de 97490000 		.4byte	.LASF1062
 1668 03e2 07       		.byte	0x7
 1669 03e3 6A       		.byte	0x6a
 1670 03e4 D5000000 		.4byte	0xd5
 1671 03e8 3002     		.2byte	0x230
 1672 03ea 0B       		.uleb128 0xb
 1673 03eb 035A0000 		.4byte	.LASF1063
 1674 03ef 07       		.byte	0x7
 1675 03f0 6B       		.byte	0x6b
 1676 03f1 D5000000 		.4byte	0xd5
 1677 03f5 3402     		.2byte	0x234
 1678 03f7 0B       		.uleb128 0xb
 1679 03f8 9C1A0000 		.4byte	.LASF1064
 1680 03fc 07       		.byte	0x7
 1681 03fd 6C       		.byte	0x6c
 1682 03fe D5000000 		.4byte	0xd5
 1683 0402 3802     		.2byte	0x238
 1684 0404 0B       		.uleb128 0xb
 1685 0405 BB570000 		.4byte	.LASF1065
ARM GAS  /var/folders/f9/8bk2lnw15zn4cbgn6wrnb4lm0000gn/T//ccyV4EJ6.s 			page 54


 1686 0409 07       		.byte	0x7
 1687 040a 6D       		.byte	0x6d
 1688 040b E2040000 		.4byte	0x4e2
 1689 040f 3C02     		.2byte	0x23c
 1690 0411 0B       		.uleb128 0xb
 1691 0412 16630000 		.4byte	.LASF1066
 1692 0416 07       		.byte	0x7
 1693 0417 6E       		.byte	0x6e
 1694 0418 D0000000 		.4byte	0xd0
 1695 041c F403     		.2byte	0x3f4
 1696 041e 00       		.byte	0
 1697 041f 07       		.uleb128 0x7
 1698 0420 24040000 		.4byte	0x424
 1699 0424 08       		.uleb128 0x8
 1700 0425 DA000000 		.4byte	0xda
 1701 0429 07       		.uleb128 0x7
 1702 042a 2E040000 		.4byte	0x42e
 1703 042e 08       		.uleb128 0x8
 1704 042f FA000000 		.4byte	0xfa
 1705 0433 07       		.uleb128 0x7
 1706 0434 38040000 		.4byte	0x438
 1707 0438 08       		.uleb128 0x8
 1708 0439 C0000000 		.4byte	0xc0
 1709 043d 07       		.uleb128 0x7
 1710 043e 42040000 		.4byte	0x442
 1711 0442 08       		.uleb128 0x8
 1712 0443 EA000000 		.4byte	0xea
 1713 0447 07       		.uleb128 0x7
 1714 0448 4C040000 		.4byte	0x44c
 1715 044c 08       		.uleb128 0x8
 1716 044d C0000000 		.4byte	0xc0
 1717 0451 05       		.uleb128 0x5
 1718 0452 90000000 		.4byte	0x90
 1719 0456 61040000 		.4byte	0x461
 1720 045a 06       		.uleb128 0x6
 1721 045b B9000000 		.4byte	0xb9
 1722 045f 04       		.byte	0x4
 1723 0460 00       		.byte	0
 1724 0461 07       		.uleb128 0x7
 1725 0462 66040000 		.4byte	0x466
 1726 0466 08       		.uleb128 0x8
 1727 0467 51040000 		.4byte	0x451
 1728 046b 07       		.uleb128 0x7
 1729 046c 70040000 		.4byte	0x470
 1730 0470 08       		.uleb128 0x8
 1731 0471 DA000000 		.4byte	0xda
 1732 0475 05       		.uleb128 0x5
 1733 0476 90000000 		.4byte	0x90
 1734 047a 85040000 		.4byte	0x485
 1735 047e 06       		.uleb128 0x6
 1736 047f B9000000 		.4byte	0xb9
 1737 0483 11       		.byte	0x11
 1738 0484 00       		.byte	0
 1739 0485 07       		.uleb128 0x7
 1740 0486 8A040000 		.4byte	0x48a
 1741 048a 08       		.uleb128 0x8
 1742 048b 75040000 		.4byte	0x475
ARM GAS  /var/folders/f9/8bk2lnw15zn4cbgn6wrnb4lm0000gn/T//ccyV4EJ6.s 			page 55


 1743 048f 05       		.uleb128 0x5
 1744 0490 90000000 		.4byte	0x90
 1745 0494 9F040000 		.4byte	0x49f
 1746 0498 06       		.uleb128 0x6
 1747 0499 B9000000 		.4byte	0xb9
 1748 049d 05       		.byte	0x5
 1749 049e 00       		.byte	0
 1750 049f 07       		.uleb128 0x7
 1751 04a0 A4040000 		.4byte	0x4a4
 1752 04a4 08       		.uleb128 0x8
 1753 04a5 8F040000 		.4byte	0x48f
 1754 04a9 08       		.uleb128 0x8
 1755 04aa C0000000 		.4byte	0xc0
 1756 04ae 05       		.uleb128 0x5
 1757 04af 90000000 		.4byte	0x90
 1758 04b3 BE040000 		.4byte	0x4be
 1759 04b7 06       		.uleb128 0x6
 1760 04b8 B9000000 		.4byte	0xb9
 1761 04bc 17       		.byte	0x17
 1762 04bd 00       		.byte	0
 1763 04be 07       		.uleb128 0x7
 1764 04bf C3040000 		.4byte	0x4c3
 1765 04c3 08       		.uleb128 0x8
 1766 04c4 AE040000 		.4byte	0x4ae
 1767 04c8 07       		.uleb128 0x7
 1768 04c9 CD040000 		.4byte	0x4cd
 1769 04cd 08       		.uleb128 0x8
 1770 04ce 8F040000 		.4byte	0x48f
 1771 04d2 05       		.uleb128 0x5
 1772 04d3 90000000 		.4byte	0x90
 1773 04d7 E2040000 		.4byte	0x4e2
 1774 04db 06       		.uleb128 0x6
 1775 04dc B9000000 		.4byte	0xb9
 1776 04e0 6D       		.byte	0x6d
 1777 04e1 00       		.byte	0
 1778 04e2 07       		.uleb128 0x7
 1779 04e3 E7040000 		.4byte	0x4e7
 1780 04e7 08       		.uleb128 0x8
 1781 04e8 D2040000 		.4byte	0x4d2
 1782 04ec 03       		.uleb128 0x3
 1783 04ed 76100000 		.4byte	.LASF1067
 1784 04f1 07       		.byte	0x7
 1785 04f2 6F       		.byte	0x6f
 1786 04f3 0A010000 		.4byte	0x10a
 1787 04f7 0C       		.uleb128 0xc
 1788 04f8 473A0000 		.4byte	.LASF1159
 1789 04fc 01       		.byte	0x1
 1790 04fd 02       		.byte	0x2
 1791 04fe E4       		.byte	0xe4
 1792 04ff 76050000 		.4byte	0x576
 1793 0503 0D       		.uleb128 0xd
 1794 0504 B0000000 		.4byte	.LASF1068
 1795 0508 00       		.sleb128 0
 1796 0509 0D       		.uleb128 0xd
 1797 050a 3C3C0000 		.4byte	.LASF1069
 1798 050e 01       		.sleb128 1
 1799 050f 0D       		.uleb128 0xd
ARM GAS  /var/folders/f9/8bk2lnw15zn4cbgn6wrnb4lm0000gn/T//ccyV4EJ6.s 			page 56


 1800 0510 7D010000 		.4byte	.LASF1070
 1801 0514 02       		.sleb128 2
 1802 0515 0D       		.uleb128 0xd
 1803 0516 7B520000 		.4byte	.LASF1071
 1804 051a 03       		.sleb128 3
 1805 051b 0D       		.uleb128 0xd
 1806 051c 40320000 		.4byte	.LASF1072
 1807 0520 04       		.sleb128 4
 1808 0521 0D       		.uleb128 0xd
 1809 0522 65560000 		.4byte	.LASF1073
 1810 0526 05       		.sleb128 5
 1811 0527 0D       		.uleb128 0xd
 1812 0528 ED320000 		.4byte	.LASF1074
 1813 052c 06       		.sleb128 6
 1814 052d 0D       		.uleb128 0xd
 1815 052e 236D0000 		.4byte	.LASF1075
 1816 0532 07       		.sleb128 7
 1817 0533 0D       		.uleb128 0xd
 1818 0534 4E070000 		.4byte	.LASF1076
 1819 0538 08       		.sleb128 8
 1820 0539 0D       		.uleb128 0xd
 1821 053a 890E0000 		.4byte	.LASF1077
 1822 053e 09       		.sleb128 9
 1823 053f 0D       		.uleb128 0xd
 1824 0540 9D0E0000 		.4byte	.LASF1078
 1825 0544 0A       		.sleb128 10
 1826 0545 0D       		.uleb128 0xd
 1827 0546 6C240000 		.4byte	.LASF1079
 1828 054a 0B       		.sleb128 11
 1829 054b 0D       		.uleb128 0xd
 1830 054c 52560000 		.4byte	.LASF1080
 1831 0550 0C       		.sleb128 12
 1832 0551 0D       		.uleb128 0xd
 1833 0552 7B540000 		.4byte	.LASF1081
 1834 0556 0D       		.sleb128 13
 1835 0557 0D       		.uleb128 0xd
 1836 0558 A6550000 		.4byte	.LASF1082
 1837 055c 0E       		.sleb128 14
 1838 055d 0D       		.uleb128 0xd
 1839 055e D10F0000 		.4byte	.LASF1083
 1840 0562 0F       		.sleb128 15
 1841 0563 0D       		.uleb128 0xd
 1842 0564 7C3A0000 		.4byte	.LASF1084
 1843 0568 10       		.sleb128 16
 1844 0569 0D       		.uleb128 0xd
 1845 056a CF760000 		.4byte	.LASF1085
 1846 056e 11       		.sleb128 17
 1847 056f 0D       		.uleb128 0xd
 1848 0570 7E240000 		.4byte	.LASF1086
 1849 0574 12       		.sleb128 18
 1850 0575 00       		.byte	0
 1851 0576 0E       		.uleb128 0xe
 1852 0577 86060000 		.4byte	.LASF1087
 1853 057b 02       		.byte	0x2
 1854 057c 2001     		.2byte	0x120
 1855 057e F7040000 		.4byte	0x4f7
 1856 0582 0F       		.uleb128 0xf
ARM GAS  /var/folders/f9/8bk2lnw15zn4cbgn6wrnb4lm0000gn/T//ccyV4EJ6.s 			page 57


 1857 0583 14       		.byte	0x14
 1858 0584 04       		.byte	0x4
 1859 0585 2D       		.byte	0x2d
 1860 0586 C7050000 		.4byte	0x5c7
 1861 058a 0A       		.uleb128 0xa
 1862 058b 90750000 		.4byte	.LASF1088
 1863 058f 04       		.byte	0x4
 1864 0590 2E       		.byte	0x2e
 1865 0591 C7050000 		.4byte	0x5c7
 1866 0595 00       		.byte	0
 1867 0596 0A       		.uleb128 0xa
 1868 0597 09440000 		.4byte	.LASF1089
 1869 059b 04       		.byte	0x4
 1870 059c 2F       		.byte	0x2f
 1871 059d 77000000 		.4byte	0x77
 1872 05a1 04       		.byte	0x4
 1873 05a2 0A       		.uleb128 0xa
 1874 05a3 A1600000 		.4byte	.LASF1090
 1875 05a7 04       		.byte	0x4
 1876 05a8 30       		.byte	0x30
 1877 05a9 77000000 		.4byte	0x77
 1878 05ad 08       		.byte	0x8
 1879 05ae 0A       		.uleb128 0xa
 1880 05af A0180000 		.4byte	.LASF1091
 1881 05b3 04       		.byte	0x4
 1882 05b4 31       		.byte	0x31
 1883 05b5 90000000 		.4byte	0x90
 1884 05b9 0C       		.byte	0xc
 1885 05ba 0A       		.uleb128 0xa
 1886 05bb 8A030000 		.4byte	.LASF1092
 1887 05bf 04       		.byte	0x4
 1888 05c0 32       		.byte	0x32
 1889 05c1 90000000 		.4byte	0x90
 1890 05c5 10       		.byte	0x10
 1891 05c6 00       		.byte	0
 1892 05c7 10       		.uleb128 0x10
 1893 05c8 04       		.byte	0x4
 1894 05c9 03       		.uleb128 0x3
 1895 05ca FE4E0000 		.4byte	.LASF1093
 1896 05ce 04       		.byte	0x4
 1897 05cf 33       		.byte	0x33
 1898 05d0 82050000 		.4byte	0x582
 1899 05d4 11       		.uleb128 0x11
 1900 05d5 04       		.byte	0x4
 1901 05d6 03       		.byte	0x3
 1902 05d7 33       		.byte	0x33
 1903 05d8 FE050000 		.4byte	0x5fe
 1904 05dc 12       		.uleb128 0x12
 1905 05dd 444C4C00 		.ascii	"DLL\000"
 1906 05e1 03       		.byte	0x3
 1907 05e2 34       		.byte	0x34
 1908 05e3 D5000000 		.4byte	0xd5
 1909 05e7 12       		.uleb128 0x12
 1910 05e8 54485200 		.ascii	"THR\000"
 1911 05ec 03       		.byte	0x3
 1912 05ed 35       		.byte	0x35
 1913 05ee D5000000 		.4byte	0xd5
ARM GAS  /var/folders/f9/8bk2lnw15zn4cbgn6wrnb4lm0000gn/T//ccyV4EJ6.s 			page 58


 1914 05f2 12       		.uleb128 0x12
 1915 05f3 52425200 		.ascii	"RBR\000"
 1916 05f7 03       		.byte	0x3
 1917 05f8 36       		.byte	0x36
 1918 05f9 D0000000 		.4byte	0xd0
 1919 05fd 00       		.byte	0
 1920 05fe 11       		.uleb128 0x11
 1921 05ff 04       		.byte	0x4
 1922 0600 03       		.byte	0x3
 1923 0601 39       		.byte	0x39
 1924 0602 1D060000 		.4byte	0x61d
 1925 0606 12       		.uleb128 0x12
 1926 0607 49455200 		.ascii	"IER\000"
 1927 060b 03       		.byte	0x3
 1928 060c 3A       		.byte	0x3a
 1929 060d D5000000 		.4byte	0xd5
 1930 0611 12       		.uleb128 0x12
 1931 0612 444C4D00 		.ascii	"DLM\000"
 1932 0616 03       		.byte	0x3
 1933 0617 3B       		.byte	0x3b
 1934 0618 D5000000 		.4byte	0xd5
 1935 061c 00       		.byte	0
 1936 061d 11       		.uleb128 0x11
 1937 061e 04       		.byte	0x4
 1938 061f 03       		.byte	0x3
 1939 0620 3E       		.byte	0x3e
 1940 0621 3C060000 		.4byte	0x63c
 1941 0625 12       		.uleb128 0x12
 1942 0626 46435200 		.ascii	"FCR\000"
 1943 062a 03       		.byte	0x3
 1944 062b 3F       		.byte	0x3f
 1945 062c D5000000 		.4byte	0xd5
 1946 0630 12       		.uleb128 0x12
 1947 0631 49495200 		.ascii	"IIR\000"
 1948 0635 03       		.byte	0x3
 1949 0636 40       		.byte	0x40
 1950 0637 D0000000 		.4byte	0xd0
 1951 063b 00       		.byte	0
 1952 063c 11       		.uleb128 0x11
 1953 063d 04       		.byte	0x4
 1954 063e 03       		.byte	0x3
 1955 063f 56       		.byte	0x56
 1956 0640 5B060000 		.4byte	0x65b
 1957 0644 13       		.uleb128 0x13
 1958 0645 D9530000 		.4byte	.LASF1094
 1959 0649 03       		.byte	0x3
 1960 064a 57       		.byte	0x57
 1961 064b D5000000 		.4byte	0xd5
 1962 064f 13       		.uleb128 0x13
 1963 0650 81620000 		.4byte	.LASF1095
 1964 0654 03       		.byte	0x3
 1965 0655 58       		.byte	0x58
 1966 0656 D0000000 		.4byte	0xd0
 1967 065a 00       		.byte	0
 1968 065b 0F       		.uleb128 0xf
 1969 065c 60       		.byte	0x60
 1970 065d 03       		.byte	0x3
ARM GAS  /var/folders/f9/8bk2lnw15zn4cbgn6wrnb4lm0000gn/T//ccyV4EJ6.s 			page 59


 1971 065e 31       		.byte	0x31
 1972 065f 54070000 		.4byte	0x754
 1973 0663 14       		.uleb128 0x14
 1974 0664 D4050000 		.4byte	0x5d4
 1975 0668 00       		.byte	0
 1976 0669 14       		.uleb128 0x14
 1977 066a FE050000 		.4byte	0x5fe
 1978 066e 04       		.byte	0x4
 1979 066f 14       		.uleb128 0x14
 1980 0670 1D060000 		.4byte	0x61d
 1981 0674 08       		.byte	0x8
 1982 0675 15       		.uleb128 0x15
 1983 0676 4C435200 		.ascii	"LCR\000"
 1984 067a 03       		.byte	0x3
 1985 067b 43       		.byte	0x43
 1986 067c D5000000 		.4byte	0xd5
 1987 0680 0C       		.byte	0xc
 1988 0681 15       		.uleb128 0x15
 1989 0682 4D435200 		.ascii	"MCR\000"
 1990 0686 03       		.byte	0x3
 1991 0687 44       		.byte	0x44
 1992 0688 D5000000 		.4byte	0xd5
 1993 068c 10       		.byte	0x10
 1994 068d 15       		.uleb128 0x15
 1995 068e 4C535200 		.ascii	"LSR\000"
 1996 0692 03       		.byte	0x3
 1997 0693 45       		.byte	0x45
 1998 0694 D0000000 		.4byte	0xd0
 1999 0698 14       		.byte	0x14
 2000 0699 15       		.uleb128 0x15
 2001 069a 4D535200 		.ascii	"MSR\000"
 2002 069e 03       		.byte	0x3
 2003 069f 46       		.byte	0x46
 2004 06a0 D0000000 		.4byte	0xd0
 2005 06a4 18       		.byte	0x18
 2006 06a5 15       		.uleb128 0x15
 2007 06a6 53435200 		.ascii	"SCR\000"
 2008 06aa 03       		.byte	0x3
 2009 06ab 47       		.byte	0x47
 2010 06ac D5000000 		.4byte	0xd5
 2011 06b0 1C       		.byte	0x1c
 2012 06b1 15       		.uleb128 0x15
 2013 06b2 41435200 		.ascii	"ACR\000"
 2014 06b6 03       		.byte	0x3
 2015 06b7 48       		.byte	0x48
 2016 06b8 D5000000 		.4byte	0xd5
 2017 06bc 20       		.byte	0x20
 2018 06bd 15       		.uleb128 0x15
 2019 06be 49435200 		.ascii	"ICR\000"
 2020 06c2 03       		.byte	0x3
 2021 06c3 49       		.byte	0x49
 2022 06c4 D5000000 		.4byte	0xd5
 2023 06c8 24       		.byte	0x24
 2024 06c9 15       		.uleb128 0x15
 2025 06ca 46445200 		.ascii	"FDR\000"
 2026 06ce 03       		.byte	0x3
 2027 06cf 4A       		.byte	0x4a
ARM GAS  /var/folders/f9/8bk2lnw15zn4cbgn6wrnb4lm0000gn/T//ccyV4EJ6.s 			page 60


 2028 06d0 D5000000 		.4byte	0xd5
 2029 06d4 28       		.byte	0x28
 2030 06d5 15       		.uleb128 0x15
 2031 06d6 4F535200 		.ascii	"OSR\000"
 2032 06da 03       		.byte	0x3
 2033 06db 4B       		.byte	0x4b
 2034 06dc D5000000 		.4byte	0xd5
 2035 06e0 2C       		.byte	0x2c
 2036 06e1 0A       		.uleb128 0xa
 2037 06e2 DF0E0000 		.4byte	.LASF1096
 2038 06e6 03       		.byte	0x3
 2039 06e7 4C       		.byte	0x4c
 2040 06e8 D5000000 		.4byte	0xd5
 2041 06ec 30       		.byte	0x30
 2042 06ed 0A       		.uleb128 0xa
 2043 06ee D31E0000 		.4byte	.LASF1097
 2044 06f2 03       		.byte	0x3
 2045 06f3 4D       		.byte	0x4d
 2046 06f4 FA000000 		.4byte	0xfa
 2047 06f8 34       		.byte	0x34
 2048 06f9 0A       		.uleb128 0xa
 2049 06fa A1380000 		.4byte	.LASF1098
 2050 06fe 03       		.byte	0x3
 2051 06ff 4E       		.byte	0x4e
 2052 0700 D5000000 		.4byte	0xd5
 2053 0704 40       		.byte	0x40
 2054 0705 0A       		.uleb128 0xa
 2055 0706 DD1E0000 		.4byte	.LASF1010
 2056 070a 03       		.byte	0x3
 2057 070b 4F       		.byte	0x4f
 2058 070c 54070000 		.4byte	0x754
 2059 0710 44       		.byte	0x44
 2060 0711 0A       		.uleb128 0xa
 2061 0712 765D0000 		.4byte	.LASF1099
 2062 0716 03       		.byte	0x3
 2063 0717 50       		.byte	0x50
 2064 0718 D5000000 		.4byte	0xd5
 2065 071c 48       		.byte	0x48
 2066 071d 0A       		.uleb128 0xa
 2067 071e C1540000 		.4byte	.LASF1100
 2068 0722 03       		.byte	0x3
 2069 0723 52       		.byte	0x52
 2070 0724 D5000000 		.4byte	0xd5
 2071 0728 4C       		.byte	0x4c
 2072 0729 0A       		.uleb128 0xa
 2073 072a E90E0000 		.4byte	.LASF1101
 2074 072e 03       		.byte	0x3
 2075 072f 53       		.byte	0x53
 2076 0730 D5000000 		.4byte	0xd5
 2077 0734 50       		.byte	0x50
 2078 0735 0A       		.uleb128 0xa
 2079 0736 902E0000 		.4byte	.LASF1102
 2080 073a 03       		.byte	0x3
 2081 073b 54       		.byte	0x54
 2082 073c D5000000 		.4byte	0xd5
 2083 0740 54       		.byte	0x54
 2084 0741 14       		.uleb128 0x14
ARM GAS  /var/folders/f9/8bk2lnw15zn4cbgn6wrnb4lm0000gn/T//ccyV4EJ6.s 			page 61


 2085 0742 3C060000 		.4byte	0x63c
 2086 0746 58       		.byte	0x58
 2087 0747 0A       		.uleb128 0xa
 2088 0748 E40E0000 		.4byte	.LASF1103
 2089 074c 03       		.byte	0x3
 2090 074d 5B       		.byte	0x5b
 2091 074e D5000000 		.4byte	0xd5
 2092 0752 5C       		.byte	0x5c
 2093 0753 00       		.byte	0
 2094 0754 07       		.uleb128 0x7
 2095 0755 59070000 		.4byte	0x759
 2096 0759 08       		.uleb128 0x8
 2097 075a A9000000 		.4byte	0xa9
 2098 075e 03       		.uleb128 0x3
 2099 075f 3B0D0000 		.4byte	.LASF1104
 2100 0763 03       		.byte	0x3
 2101 0764 5C       		.byte	0x5c
 2102 0765 5B060000 		.4byte	0x65b
 2103 0769 07       		.uleb128 0x7
 2104 076a 90000000 		.4byte	0x90
 2105 076e 16       		.uleb128 0x16
 2106 076f 04       		.byte	0x4
 2107 0770 85000000 		.4byte	0x85
 2108 0774 17       		.uleb128 0x17
 2109 0775 E1550000 		.4byte	.LASF1105
 2110 0779 02       		.byte	0x2
 2111 077a 2701     		.2byte	0x127
 2112 077c 03       		.byte	0x3
 2113 077d 8E070000 		.4byte	0x78e
 2114 0781 18       		.uleb128 0x18
 2115 0782 636C6B00 		.ascii	"clk\000"
 2116 0786 02       		.byte	0x2
 2117 0787 2701     		.2byte	0x127
 2118 0789 76050000 		.4byte	0x576
 2119 078d 00       		.byte	0
 2120 078e 17       		.uleb128 0x17
 2121 078f E1190000 		.4byte	.LASF1106
 2122 0793 02       		.byte	0x2
 2123 0794 5301     		.2byte	0x153
 2124 0796 03       		.byte	0x3
 2125 0797 A8070000 		.4byte	0x7a8
 2126 079b 18       		.uleb128 0x18
 2127 079c 64697600 		.ascii	"div\000"
 2128 07a0 02       		.byte	0x2
 2129 07a1 5301     		.2byte	0x153
 2130 07a3 90000000 		.4byte	0x90
 2131 07a7 00       		.byte	0
 2132 07a8 17       		.uleb128 0x17
 2133 07a9 27230000 		.4byte	.LASF1107
 2134 07ad 03       		.byte	0x3
 2135 07ae 9401     		.2byte	0x194
 2136 07b0 03       		.byte	0x3
 2137 07b1 CE070000 		.4byte	0x7ce
 2138 07b5 19       		.uleb128 0x19
 2139 07b6 14760000 		.4byte	.LASF1108
 2140 07ba 03       		.byte	0x3
 2141 07bb 9401     		.2byte	0x194
ARM GAS  /var/folders/f9/8bk2lnw15zn4cbgn6wrnb4lm0000gn/T//ccyV4EJ6.s 			page 62


 2142 07bd CE070000 		.4byte	0x7ce
 2143 07c1 18       		.uleb128 0x18
 2144 07c2 66637200 		.ascii	"fcr\000"
 2145 07c6 03       		.byte	0x3
 2146 07c7 9401     		.2byte	0x194
 2147 07c9 90000000 		.4byte	0x90
 2148 07cd 00       		.byte	0
 2149 07ce 16       		.uleb128 0x16
 2150 07cf 04       		.byte	0x4
 2151 07d0 5E070000 		.4byte	0x75e
 2152 07d4 17       		.uleb128 0x17
 2153 07d5 B5680000 		.4byte	.LASF1109
 2154 07d9 03       		.byte	0x3
 2155 07da A301     		.2byte	0x1a3
 2156 07dc 03       		.byte	0x3
 2157 07dd FA070000 		.4byte	0x7fa
 2158 07e1 19       		.uleb128 0x19
 2159 07e2 14760000 		.4byte	.LASF1108
 2160 07e6 03       		.byte	0x3
 2161 07e7 A301     		.2byte	0x1a3
 2162 07e9 CE070000 		.4byte	0x7ce
 2163 07ed 19       		.uleb128 0x19
 2164 07ee 460A0000 		.4byte	.LASF1110
 2165 07f2 03       		.byte	0x3
 2166 07f3 A301     		.2byte	0x1a3
 2167 07f5 90000000 		.4byte	0x90
 2168 07f9 00       		.byte	0
 2169 07fa 17       		.uleb128 0x17
 2170 07fb 4C330000 		.4byte	.LASF1111
 2171 07ff 02       		.byte	0x2
 2172 0800 3101     		.2byte	0x131
 2173 0802 03       		.byte	0x3
 2174 0803 14080000 		.4byte	0x814
 2175 0807 18       		.uleb128 0x18
 2176 0808 636C6B00 		.ascii	"clk\000"
 2177 080c 02       		.byte	0x2
 2178 080d 3101     		.2byte	0x131
 2179 080f 76050000 		.4byte	0x576
 2180 0813 00       		.byte	0
 2181 0814 17       		.uleb128 0x17
 2182 0815 92740000 		.4byte	.LASF1112
 2183 0819 03       		.byte	0x3
 2184 081a 4301     		.2byte	0x143
 2185 081c 03       		.byte	0x3
 2186 081d 3A080000 		.4byte	0x83a
 2187 0821 19       		.uleb128 0x19
 2188 0822 14760000 		.4byte	.LASF1108
 2189 0826 03       		.byte	0x3
 2190 0827 4301     		.2byte	0x143
 2191 0829 CE070000 		.4byte	0x7ce
 2192 082d 19       		.uleb128 0x19
 2193 082e 90750000 		.4byte	.LASF1088
 2194 0832 03       		.byte	0x3
 2195 0833 4301     		.2byte	0x143
 2196 0835 85000000 		.4byte	0x85
 2197 0839 00       		.byte	0
 2198 083a 1A       		.uleb128 0x1a
ARM GAS  /var/folders/f9/8bk2lnw15zn4cbgn6wrnb4lm0000gn/T//ccyV4EJ6.s 			page 63


 2199 083b ED400000 		.4byte	.LASF1115
 2200 083f 03       		.byte	0x3
 2201 0840 F901     		.2byte	0x1f9
 2202 0842 90000000 		.4byte	0x90
 2203 0846 03       		.byte	0x3
 2204 0847 58080000 		.4byte	0x858
 2205 084b 19       		.uleb128 0x19
 2206 084c 14760000 		.4byte	.LASF1108
 2207 0850 03       		.byte	0x3
 2208 0851 F901     		.2byte	0x1f9
 2209 0853 CE070000 		.4byte	0x7ce
 2210 0857 00       		.byte	0
 2211 0858 1B       		.uleb128 0x1b
 2212 0859 886F0000 		.4byte	.LASF1117
 2213 085d 01       		.byte	0x1
 2214 085e 4A       		.byte	0x4a
 2215 085f 77000000 		.4byte	0x77
 2216 0863 01       		.byte	0x1
 2217 0864 9F080000 		.4byte	0x89f
 2218 0868 1C       		.uleb128 0x1c
 2219 0869 14760000 		.4byte	.LASF1108
 2220 086d 01       		.byte	0x1
 2221 086e 4A       		.byte	0x4a
 2222 086f CE070000 		.4byte	0x7ce
 2223 0873 1C       		.uleb128 0x1c
 2224 0874 90750000 		.4byte	.LASF1088
 2225 0878 01       		.byte	0x1
 2226 0879 4A       		.byte	0x4a
 2227 087a 9F080000 		.4byte	0x89f
 2228 087e 1C       		.uleb128 0x1c
 2229 087f C4580000 		.4byte	.LASF1113
 2230 0883 01       		.byte	0x1
 2231 0884 4A       		.byte	0x4a
 2232 0885 77000000 		.4byte	0x77
 2233 0889 1D       		.uleb128 0x1d
 2234 088a 653E0000 		.4byte	.LASF1114
 2235 088e 01       		.byte	0x1
 2236 088f 4C       		.byte	0x4c
 2237 0890 77000000 		.4byte	0x77
 2238 0894 1E       		.uleb128 0x1e
 2239 0895 703800   		.ascii	"p8\000"
 2240 0898 01       		.byte	0x1
 2241 0899 4D       		.byte	0x4d
 2242 089a 6E070000 		.4byte	0x76e
 2243 089e 00       		.byte	0
 2244 089f 16       		.uleb128 0x16
 2245 08a0 04       		.byte	0x4
 2246 08a1 A5080000 		.4byte	0x8a5
 2247 08a5 1F       		.uleb128 0x1f
 2248 08a6 1A       		.uleb128 0x1a
 2249 08a7 AF040000 		.4byte	.LASF1116
 2250 08ab 03       		.byte	0x3
 2251 08ac 5001     		.2byte	0x150
 2252 08ae 85000000 		.4byte	0x85
 2253 08b2 03       		.byte	0x3
 2254 08b3 C4080000 		.4byte	0x8c4
 2255 08b7 19       		.uleb128 0x19
ARM GAS  /var/folders/f9/8bk2lnw15zn4cbgn6wrnb4lm0000gn/T//ccyV4EJ6.s 			page 64


 2256 08b8 14760000 		.4byte	.LASF1108
 2257 08bc 03       		.byte	0x3
 2258 08bd 5001     		.2byte	0x150
 2259 08bf CE070000 		.4byte	0x7ce
 2260 08c3 00       		.byte	0
 2261 08c4 1B       		.uleb128 0x1b
 2262 08c5 F4760000 		.4byte	.LASF1118
 2263 08c9 01       		.byte	0x1
 2264 08ca 6B       		.byte	0x6b
 2265 08cb 77000000 		.4byte	0x77
 2266 08cf 01       		.byte	0x1
 2267 08d0 0B090000 		.4byte	0x90b
 2268 08d4 1C       		.uleb128 0x1c
 2269 08d5 14760000 		.4byte	.LASF1108
 2270 08d9 01       		.byte	0x1
 2271 08da 6B       		.byte	0x6b
 2272 08db CE070000 		.4byte	0x7ce
 2273 08df 1C       		.uleb128 0x1c
 2274 08e0 90750000 		.4byte	.LASF1088
 2275 08e4 01       		.byte	0x1
 2276 08e5 6B       		.byte	0x6b
 2277 08e6 C7050000 		.4byte	0x5c7
 2278 08ea 1C       		.uleb128 0x1c
 2279 08eb C4580000 		.4byte	.LASF1113
 2280 08ef 01       		.byte	0x1
 2281 08f0 6B       		.byte	0x6b
 2282 08f1 77000000 		.4byte	0x77
 2283 08f5 1D       		.uleb128 0x1d
 2284 08f6 0D080000 		.4byte	.LASF1119
 2285 08fa 01       		.byte	0x1
 2286 08fb 6D       		.byte	0x6d
 2287 08fc 77000000 		.4byte	0x77
 2288 0900 1E       		.uleb128 0x1e
 2289 0901 703800   		.ascii	"p8\000"
 2290 0904 01       		.byte	0x1
 2291 0905 6E       		.byte	0x6e
 2292 0906 6E070000 		.4byte	0x76e
 2293 090a 00       		.byte	0
 2294 090b 17       		.uleb128 0x17
 2295 090c CF6A0000 		.4byte	.LASF1120
 2296 0910 03       		.byte	0x3
 2297 0911 AD01     		.2byte	0x1ad
 2298 0913 03       		.byte	0x3
 2299 0914 25090000 		.4byte	0x925
 2300 0918 19       		.uleb128 0x19
 2301 0919 14760000 		.4byte	.LASF1108
 2302 091d 03       		.byte	0x3
 2303 091e AD01     		.2byte	0x1ad
 2304 0920 CE070000 		.4byte	0x7ce
 2305 0924 00       		.byte	0
 2306 0925 17       		.uleb128 0x17
 2307 0926 EF1B0000 		.4byte	.LASF1121
 2308 092a 03       		.byte	0x3
 2309 092b C601     		.2byte	0x1c6
 2310 092d 03       		.byte	0x3
 2311 092e 57090000 		.4byte	0x957
 2312 0932 19       		.uleb128 0x19
ARM GAS  /var/folders/f9/8bk2lnw15zn4cbgn6wrnb4lm0000gn/T//ccyV4EJ6.s 			page 65


 2313 0933 14760000 		.4byte	.LASF1108
 2314 0937 03       		.byte	0x3
 2315 0938 C601     		.2byte	0x1c6
 2316 093a CE070000 		.4byte	0x7ce
 2317 093e 18       		.uleb128 0x18
 2318 093f 646C6C00 		.ascii	"dll\000"
 2319 0943 03       		.byte	0x3
 2320 0944 C601     		.2byte	0x1c6
 2321 0946 85000000 		.4byte	0x85
 2322 094a 18       		.uleb128 0x18
 2323 094b 646C6D00 		.ascii	"dlm\000"
 2324 094f 03       		.byte	0x3
 2325 0950 C601     		.2byte	0x1c6
 2326 0952 85000000 		.4byte	0x85
 2327 0956 00       		.byte	0
 2328 0957 17       		.uleb128 0x17
 2329 0958 53430000 		.4byte	.LASF1122
 2330 095c 03       		.byte	0x3
 2331 095d B701     		.2byte	0x1b7
 2332 095f 03       		.byte	0x3
 2333 0960 71090000 		.4byte	0x971
 2334 0964 19       		.uleb128 0x19
 2335 0965 14760000 		.4byte	.LASF1108
 2336 0969 03       		.byte	0x3
 2337 096a B701     		.2byte	0x1b7
 2338 096c CE070000 		.4byte	0x7ce
 2339 0970 00       		.byte	0
 2340 0971 17       		.uleb128 0x17
 2341 0972 7E5D0000 		.4byte	.LASF1123
 2342 0976 03       		.byte	0x3
 2343 0977 6E01     		.2byte	0x16e
 2344 0979 03       		.byte	0x3
 2345 097a 97090000 		.4byte	0x997
 2346 097e 19       		.uleb128 0x19
 2347 097f 14760000 		.4byte	.LASF1108
 2348 0983 03       		.byte	0x3
 2349 0984 6E01     		.2byte	0x16e
 2350 0986 CE070000 		.4byte	0x7ce
 2351 098a 19       		.uleb128 0x19
 2352 098b 91260000 		.4byte	.LASF1124
 2353 098f 03       		.byte	0x3
 2354 0990 6E01     		.2byte	0x16e
 2355 0992 90000000 		.4byte	0x90
 2356 0996 00       		.byte	0
 2357 0997 17       		.uleb128 0x17
 2358 0998 7E050000 		.4byte	.LASF1125
 2359 099c 03       		.byte	0x3
 2360 099d 5F01     		.2byte	0x15f
 2361 099f 03       		.byte	0x3
 2362 09a0 BD090000 		.4byte	0x9bd
 2363 09a4 19       		.uleb128 0x19
 2364 09a5 14760000 		.4byte	.LASF1108
 2365 09a9 03       		.byte	0x3
 2366 09aa 5F01     		.2byte	0x15f
 2367 09ac CE070000 		.4byte	0x7ce
 2368 09b0 19       		.uleb128 0x19
 2369 09b1 91260000 		.4byte	.LASF1124
ARM GAS  /var/folders/f9/8bk2lnw15zn4cbgn6wrnb4lm0000gn/T//ccyV4EJ6.s 			page 66


 2370 09b5 03       		.byte	0x3
 2371 09b6 5F01     		.2byte	0x15f
 2372 09b8 90000000 		.4byte	0x90
 2373 09bc 00       		.byte	0
 2374 09bd 20       		.uleb128 0x20
 2375 09be 04510000 		.4byte	.LASF1126
 2376 09c2 04       		.byte	0x4
 2377 09c3 85       		.byte	0x85
 2378 09c4 77000000 		.4byte	0x77
 2379 09c8 03       		.byte	0x3
 2380 09c9 D9090000 		.4byte	0x9d9
 2381 09cd 1C       		.uleb128 0x1c
 2382 09ce F82B0000 		.4byte	.LASF1127
 2383 09d2 04       		.byte	0x4
 2384 09d3 85       		.byte	0x85
 2385 09d4 D9090000 		.4byte	0x9d9
 2386 09d8 00       		.byte	0
 2387 09d9 16       		.uleb128 0x16
 2388 09da 04       		.byte	0x4
 2389 09db C9050000 		.4byte	0x5c9
 2390 09df 21       		.uleb128 0x21
 2391 09e0 D64D0000 		.4byte	.LASF1154
 2392 09e4 01       		.byte	0x1
 2393 09e5 A2       		.byte	0xa2
 2394 09e6 01       		.byte	0x1
 2395 09e7 0E0A0000 		.4byte	0xa0e
 2396 09eb 1C       		.uleb128 0x1c
 2397 09ec 14760000 		.4byte	.LASF1108
 2398 09f0 01       		.byte	0x1
 2399 09f1 A2       		.byte	0xa2
 2400 09f2 CE070000 		.4byte	0x7ce
 2401 09f6 22       		.uleb128 0x22
 2402 09f7 70524200 		.ascii	"pRB\000"
 2403 09fb 01       		.byte	0x1
 2404 09fc A2       		.byte	0xa2
 2405 09fd D9090000 		.4byte	0x9d9
 2406 0a01 23       		.uleb128 0x23
 2407 0a02 1E       		.uleb128 0x1e
 2408 0a03 636800   		.ascii	"ch\000"
 2409 0a06 01       		.byte	0x1
 2410 0a07 A6       		.byte	0xa6
 2411 0a08 85000000 		.4byte	0x85
 2412 0a0c 00       		.byte	0
 2413 0a0d 00       		.byte	0
 2414 0a0e 24       		.uleb128 0x24
 2415 0a0f ED410000 		.4byte	.LASF1128
 2416 0a13 01       		.byte	0x1
 2417 0a14 33       		.byte	0x33
 2418 0a15 00000000 		.4byte	.LFB198
 2419 0a19 28000000 		.4byte	.LFE198-.LFB198
 2420 0a1d 01       		.uleb128 0x1
 2421 0a1e 9C       		.byte	0x9c
 2422 0a1f A30A0000 		.4byte	0xaa3
 2423 0a23 25       		.uleb128 0x25
 2424 0a24 14760000 		.4byte	.LASF1108
 2425 0a28 01       		.byte	0x1
 2426 0a29 33       		.byte	0x33
ARM GAS  /var/folders/f9/8bk2lnw15zn4cbgn6wrnb4lm0000gn/T//ccyV4EJ6.s 			page 67


 2427 0a2a CE070000 		.4byte	0x7ce
 2428 0a2e 01       		.uleb128 0x1
 2429 0a2f 50       		.byte	0x50
 2430 0a30 26       		.uleb128 0x26
 2431 0a31 74070000 		.4byte	0x774
 2432 0a35 00000000 		.4byte	.LBB68
 2433 0a39 00000000 		.4byte	.Ldebug_ranges0+0
 2434 0a3d 01       		.byte	0x1
 2435 0a3e 35       		.byte	0x35
 2436 0a3f 4A0A0000 		.4byte	0xa4a
 2437 0a43 27       		.uleb128 0x27
 2438 0a44 81070000 		.4byte	0x781
 2439 0a48 0C       		.byte	0xc
 2440 0a49 00       		.byte	0
 2441 0a4a 28       		.uleb128 0x28
 2442 0a4b 8E070000 		.4byte	0x78e
 2443 0a4f 10000000 		.4byte	.LBB72
 2444 0a53 06000000 		.4byte	.LBE72-.LBB72
 2445 0a57 01       		.byte	0x1
 2446 0a58 36       		.byte	0x36
 2447 0a59 640A0000 		.4byte	0xa64
 2448 0a5d 27       		.uleb128 0x27
 2449 0a5e 9B070000 		.4byte	0x79b
 2450 0a62 01       		.byte	0x1
 2451 0a63 00       		.byte	0
 2452 0a64 28       		.uleb128 0x28
 2453 0a65 A8070000 		.4byte	0x7a8
 2454 0a69 16000000 		.4byte	.LBB74
 2455 0a6d 04000000 		.4byte	.LBE74-.LBB74
 2456 0a71 01       		.byte	0x1
 2457 0a72 39       		.byte	0x39
 2458 0a73 850A0000 		.4byte	0xa85
 2459 0a77 27       		.uleb128 0x27
 2460 0a78 C1070000 		.4byte	0x7c1
 2461 0a7c 07       		.byte	0x7
 2462 0a7d 29       		.uleb128 0x29
 2463 0a7e B5070000 		.4byte	0x7b5
 2464 0a82 01       		.uleb128 0x1
 2465 0a83 50       		.byte	0x50
 2466 0a84 00       		.byte	0
 2467 0a85 2A       		.uleb128 0x2a
 2468 0a86 D4070000 		.4byte	0x7d4
 2469 0a8a 1A000000 		.4byte	.LBB76
 2470 0a8e 04000000 		.4byte	.LBE76-.LBB76
 2471 0a92 01       		.byte	0x1
 2472 0a93 3C       		.byte	0x3c
 2473 0a94 27       		.uleb128 0x27
 2474 0a95 ED070000 		.4byte	0x7ed
 2475 0a99 03       		.byte	0x3
 2476 0a9a 29       		.uleb128 0x29
 2477 0a9b E1070000 		.4byte	0x7e1
 2478 0a9f 01       		.uleb128 0x1
 2479 0aa0 50       		.byte	0x50
 2480 0aa1 00       		.byte	0
 2481 0aa2 00       		.byte	0
 2482 0aa3 24       		.uleb128 0x24
 2483 0aa4 2F320000 		.4byte	.LASF1129
ARM GAS  /var/folders/f9/8bk2lnw15zn4cbgn6wrnb4lm0000gn/T//ccyV4EJ6.s 			page 68


 2484 0aa8 01       		.byte	0x1
 2485 0aa9 43       		.byte	0x43
 2486 0aaa 00000000 		.4byte	.LFB199
 2487 0aae 18000000 		.4byte	.LFE199-.LFB199
 2488 0ab2 01       		.uleb128 0x1
 2489 0ab3 9C       		.byte	0x9c
 2490 0ab4 DE0A0000 		.4byte	0xade
 2491 0ab8 2B       		.uleb128 0x2b
 2492 0ab9 14760000 		.4byte	.LASF1108
 2493 0abd 01       		.byte	0x1
 2494 0abe 43       		.byte	0x43
 2495 0abf CE070000 		.4byte	0x7ce
 2496 0ac3 00000000 		.4byte	.LLST0
 2497 0ac7 2C       		.uleb128 0x2c
 2498 0ac8 FA070000 		.4byte	0x7fa
 2499 0acc 00000000 		.4byte	.LBB78
 2500 0ad0 18000000 		.4byte	.Ldebug_ranges0+0x18
 2501 0ad4 01       		.byte	0x1
 2502 0ad5 46       		.byte	0x46
 2503 0ad6 27       		.uleb128 0x27
 2504 0ad7 07080000 		.4byte	0x807
 2505 0adb 0C       		.byte	0xc
 2506 0adc 00       		.byte	0
 2507 0add 00       		.byte	0
 2508 0ade 2D       		.uleb128 0x2d
 2509 0adf 58080000 		.4byte	0x858
 2510 0ae3 00000000 		.4byte	.LFB200
 2511 0ae7 2A000000 		.4byte	.LFE200-.LFB200
 2512 0aeb 01       		.uleb128 0x1
 2513 0aec 9C       		.byte	0x9c
 2514 0aed 5A0B0000 		.4byte	0xb5a
 2515 0af1 2E       		.uleb128 0x2e
 2516 0af2 68080000 		.4byte	0x868
 2517 0af6 21000000 		.4byte	.LLST1
 2518 0afa 29       		.uleb128 0x29
 2519 0afb 73080000 		.4byte	0x873
 2520 0aff 01       		.uleb128 0x1
 2521 0b00 51       		.byte	0x51
 2522 0b01 29       		.uleb128 0x29
 2523 0b02 7E080000 		.4byte	0x87e
 2524 0b06 01       		.uleb128 0x1
 2525 0b07 52       		.byte	0x52
 2526 0b08 2F       		.uleb128 0x2f
 2527 0b09 89080000 		.4byte	0x889
 2528 0b0d 4D000000 		.4byte	.LLST2
 2529 0b11 2F       		.uleb128 0x2f
 2530 0b12 94080000 		.4byte	0x894
 2531 0b16 90000000 		.4byte	.LLST3
 2532 0b1a 26       		.uleb128 0x26
 2533 0b1b 3A080000 		.4byte	0x83a
 2534 0b1f 06000000 		.4byte	.LBB82
 2535 0b23 30000000 		.4byte	.Ldebug_ranges0+0x30
 2536 0b27 01       		.byte	0x1
 2537 0b28 51       		.byte	0x51
 2538 0b29 370B0000 		.4byte	0xb37
 2539 0b2d 2E       		.uleb128 0x2e
 2540 0b2e 4B080000 		.4byte	0x84b
ARM GAS  /var/folders/f9/8bk2lnw15zn4cbgn6wrnb4lm0000gn/T//ccyV4EJ6.s 			page 69


 2541 0b32 D0000000 		.4byte	.LLST4
 2542 0b36 00       		.byte	0
 2543 0b37 2C       		.uleb128 0x2c
 2544 0b38 14080000 		.4byte	0x814
 2545 0b3c 18000000 		.4byte	.LBB86
 2546 0b40 48000000 		.4byte	.Ldebug_ranges0+0x48
 2547 0b44 01       		.byte	0x1
 2548 0b45 52       		.byte	0x52
 2549 0b46 2E       		.uleb128 0x2e
 2550 0b47 2D080000 		.4byte	0x82d
 2551 0b4b E3000000 		.4byte	.LLST5
 2552 0b4f 2E       		.uleb128 0x2e
 2553 0b50 21080000 		.4byte	0x821
 2554 0b54 2F010000 		.4byte	.LLST6
 2555 0b58 00       		.byte	0
 2556 0b59 00       		.byte	0
 2557 0b5a 30       		.uleb128 0x30
 2558 0b5b 2D500000 		.4byte	.LASF1131
 2559 0b5f 01       		.byte	0x1
 2560 0b60 5B       		.byte	0x5b
 2561 0b61 77000000 		.4byte	0x77
 2562 0b65 00000000 		.4byte	.LFB201
 2563 0b69 2A000000 		.4byte	.LFE201-.LFB201
 2564 0b6d 01       		.uleb128 0x1
 2565 0b6e 9C       		.byte	0x9c
 2566 0b6f 3F0C0000 		.4byte	0xc3f
 2567 0b73 2B       		.uleb128 0x2b
 2568 0b74 14760000 		.4byte	.LASF1108
 2569 0b78 01       		.byte	0x1
 2570 0b79 5B       		.byte	0x5b
 2571 0b7a CE070000 		.4byte	0x7ce
 2572 0b7e 42010000 		.4byte	.LLST7
 2573 0b82 2B       		.uleb128 0x2b
 2574 0b83 90750000 		.4byte	.LASF1088
 2575 0b87 01       		.byte	0x1
 2576 0b88 5B       		.byte	0x5b
 2577 0b89 9F080000 		.4byte	0x89f
 2578 0b8d 63010000 		.4byte	.LLST8
 2579 0b91 2B       		.uleb128 0x2b
 2580 0b92 C4580000 		.4byte	.LASF1113
 2581 0b96 01       		.byte	0x1
 2582 0b97 5B       		.byte	0x5b
 2583 0b98 77000000 		.4byte	0x77
 2584 0b9c 84010000 		.4byte	.LLST9
 2585 0ba0 31       		.uleb128 0x31
 2586 0ba1 0B020000 		.4byte	.LASF1130
 2587 0ba5 01       		.byte	0x1
 2588 0ba6 5D       		.byte	0x5d
 2589 0ba7 77000000 		.4byte	0x77
 2590 0bab 01       		.uleb128 0x1
 2591 0bac 53       		.byte	0x53
 2592 0bad 32       		.uleb128 0x32
 2593 0bae 653E0000 		.4byte	.LASF1114
 2594 0bb2 01       		.byte	0x1
 2595 0bb3 5D       		.byte	0x5d
 2596 0bb4 77000000 		.4byte	0x77
 2597 0bb8 A2010000 		.4byte	.LLST10
ARM GAS  /var/folders/f9/8bk2lnw15zn4cbgn6wrnb4lm0000gn/T//ccyV4EJ6.s 			page 70


 2598 0bbc 33       		.uleb128 0x33
 2599 0bbd 703800   		.ascii	"p8\000"
 2600 0bc0 01       		.byte	0x1
 2601 0bc1 5E       		.byte	0x5e
 2602 0bc2 6E070000 		.4byte	0x76e
 2603 0bc6 01       		.uleb128 0x1
 2604 0bc7 51       		.byte	0x51
 2605 0bc8 2C       		.uleb128 0x2c
 2606 0bc9 58080000 		.4byte	0x858
 2607 0bcd 08000000 		.4byte	.LBB90
 2608 0bd1 60000000 		.4byte	.Ldebug_ranges0+0x60
 2609 0bd5 01       		.byte	0x1
 2610 0bd6 61       		.byte	0x61
 2611 0bd7 34       		.uleb128 0x34
 2612 0bd8 7E080000 		.4byte	0x87e
 2613 0bdc 34       		.uleb128 0x34
 2614 0bdd 73080000 		.4byte	0x873
 2615 0be1 34       		.uleb128 0x34
 2616 0be2 68080000 		.4byte	0x868
 2617 0be6 35       		.uleb128 0x35
 2618 0be7 60000000 		.4byte	.Ldebug_ranges0+0x60
 2619 0beb 2F       		.uleb128 0x2f
 2620 0bec 89080000 		.4byte	0x889
 2621 0bf0 C1010000 		.4byte	.LLST11
 2622 0bf4 2F       		.uleb128 0x2f
 2623 0bf5 94080000 		.4byte	0x894
 2624 0bf9 F8010000 		.4byte	.LLST12
 2625 0bfd 28       		.uleb128 0x28
 2626 0bfe 3A080000 		.4byte	0x83a
 2627 0c02 0C000000 		.4byte	.LBB92
 2628 0c06 02000000 		.4byte	.LBE92-.LBB92
 2629 0c0a 01       		.byte	0x1
 2630 0c0b 51       		.byte	0x51
 2631 0c0c 1A0C0000 		.4byte	0xc1a
 2632 0c10 2E       		.uleb128 0x2e
 2633 0c11 4B080000 		.4byte	0x84b
 2634 0c15 2D020000 		.4byte	.LLST13
 2635 0c19 00       		.byte	0
 2636 0c1a 2C       		.uleb128 0x2c
 2637 0c1b 14080000 		.4byte	0x814
 2638 0c1f 12000000 		.4byte	.LBB94
 2639 0c23 78000000 		.4byte	.Ldebug_ranges0+0x78
 2640 0c27 01       		.byte	0x1
 2641 0c28 52       		.byte	0x52
 2642 0c29 2E       		.uleb128 0x2e
 2643 0c2a 2D080000 		.4byte	0x82d
 2644 0c2e 40020000 		.4byte	.LLST14
 2645 0c32 2E       		.uleb128 0x2e
 2646 0c33 21080000 		.4byte	0x821
 2647 0c37 73020000 		.4byte	.LLST15
 2648 0c3b 00       		.byte	0
 2649 0c3c 00       		.byte	0
 2650 0c3d 00       		.byte	0
 2651 0c3e 00       		.byte	0
 2652 0c3f 2D       		.uleb128 0x2d
 2653 0c40 C4080000 		.4byte	0x8c4
 2654 0c44 00000000 		.4byte	.LFB202
ARM GAS  /var/folders/f9/8bk2lnw15zn4cbgn6wrnb4lm0000gn/T//ccyV4EJ6.s 			page 71


 2655 0c48 2A000000 		.4byte	.LFE202-.LFB202
 2656 0c4c 01       		.uleb128 0x1
 2657 0c4d 9C       		.byte	0x9c
 2658 0c4e B20C0000 		.4byte	0xcb2
 2659 0c52 2E       		.uleb128 0x2e
 2660 0c53 D4080000 		.4byte	0x8d4
 2661 0c57 86020000 		.4byte	.LLST16
 2662 0c5b 29       		.uleb128 0x29
 2663 0c5c DF080000 		.4byte	0x8df
 2664 0c60 01       		.uleb128 0x1
 2665 0c61 51       		.byte	0x51
 2666 0c62 29       		.uleb128 0x29
 2667 0c63 EA080000 		.4byte	0x8ea
 2668 0c67 01       		.uleb128 0x1
 2669 0c68 52       		.byte	0x52
 2670 0c69 2F       		.uleb128 0x2f
 2671 0c6a F5080000 		.4byte	0x8f5
 2672 0c6e B2020000 		.4byte	.LLST17
 2673 0c72 2F       		.uleb128 0x2f
 2674 0c73 00090000 		.4byte	0x900
 2675 0c77 DD020000 		.4byte	.LLST18
 2676 0c7b 26       		.uleb128 0x26
 2677 0c7c 3A080000 		.4byte	0x83a
 2678 0c80 06000000 		.4byte	.LBB100
 2679 0c84 90000000 		.4byte	.Ldebug_ranges0+0x90
 2680 0c88 01       		.byte	0x1
 2681 0c89 72       		.byte	0x72
 2682 0c8a 980C0000 		.4byte	0xc98
 2683 0c8e 2E       		.uleb128 0x2e
 2684 0c8f 4B080000 		.4byte	0x84b
 2685 0c93 2D030000 		.4byte	.LLST19
 2686 0c97 00       		.byte	0
 2687 0c98 2A       		.uleb128 0x2a
 2688 0c99 A6080000 		.4byte	0x8a6
 2689 0c9d 18000000 		.4byte	.LBB104
 2690 0ca1 04000000 		.4byte	.LBE104-.LBB104
 2691 0ca5 01       		.byte	0x1
 2692 0ca6 73       		.byte	0x73
 2693 0ca7 2E       		.uleb128 0x2e
 2694 0ca8 B7080000 		.4byte	0x8b7
 2695 0cac 40030000 		.4byte	.LLST20
 2696 0cb0 00       		.byte	0
 2697 0cb1 00       		.byte	0
 2698 0cb2 30       		.uleb128 0x30
 2699 0cb3 146B0000 		.4byte	.LASF1132
 2700 0cb7 01       		.byte	0x1
 2701 0cb8 7C       		.byte	0x7c
 2702 0cb9 77000000 		.4byte	0x77
 2703 0cbd 00000000 		.4byte	.LFB203
 2704 0cc1 2A000000 		.4byte	.LFE203-.LFB203
 2705 0cc5 01       		.uleb128 0x1
 2706 0cc6 9C       		.byte	0x9c
 2707 0cc7 8E0D0000 		.4byte	0xd8e
 2708 0ccb 2B       		.uleb128 0x2b
 2709 0ccc 14760000 		.4byte	.LASF1108
 2710 0cd0 01       		.byte	0x1
 2711 0cd1 7C       		.byte	0x7c
ARM GAS  /var/folders/f9/8bk2lnw15zn4cbgn6wrnb4lm0000gn/T//ccyV4EJ6.s 			page 72


 2712 0cd2 CE070000 		.4byte	0x7ce
 2713 0cd6 53030000 		.4byte	.LLST21
 2714 0cda 2B       		.uleb128 0x2b
 2715 0cdb 90750000 		.4byte	.LASF1088
 2716 0cdf 01       		.byte	0x1
 2717 0ce0 7C       		.byte	0x7c
 2718 0ce1 C7050000 		.4byte	0x5c7
 2719 0ce5 74030000 		.4byte	.LLST22
 2720 0ce9 2B       		.uleb128 0x2b
 2721 0cea C4580000 		.4byte	.LASF1113
 2722 0cee 01       		.byte	0x1
 2723 0cef 7C       		.byte	0x7c
 2724 0cf0 77000000 		.4byte	0x77
 2725 0cf4 95030000 		.4byte	.LLST23
 2726 0cf8 31       		.uleb128 0x31
 2727 0cf9 0B020000 		.4byte	.LASF1130
 2728 0cfd 01       		.byte	0x1
 2729 0cfe 7E       		.byte	0x7e
 2730 0cff 77000000 		.4byte	0x77
 2731 0d03 01       		.uleb128 0x1
 2732 0d04 53       		.byte	0x53
 2733 0d05 32       		.uleb128 0x32
 2734 0d06 0D080000 		.4byte	.LASF1119
 2735 0d0a 01       		.byte	0x1
 2736 0d0b 7E       		.byte	0x7e
 2737 0d0c 77000000 		.4byte	0x77
 2738 0d10 B3030000 		.4byte	.LLST24
 2739 0d14 33       		.uleb128 0x33
 2740 0d15 703800   		.ascii	"p8\000"
 2741 0d18 01       		.byte	0x1
 2742 0d19 7F       		.byte	0x7f
 2743 0d1a 6E070000 		.4byte	0x76e
 2744 0d1e 01       		.uleb128 0x1
 2745 0d1f 51       		.byte	0x51
 2746 0d20 2C       		.uleb128 0x2c
 2747 0d21 C4080000 		.4byte	0x8c4
 2748 0d25 08000000 		.4byte	.LBB106
 2749 0d29 A8000000 		.4byte	.Ldebug_ranges0+0xa8
 2750 0d2d 01       		.byte	0x1
 2751 0d2e 82       		.byte	0x82
 2752 0d2f 34       		.uleb128 0x34
 2753 0d30 EA080000 		.4byte	0x8ea
 2754 0d34 34       		.uleb128 0x34
 2755 0d35 DF080000 		.4byte	0x8df
 2756 0d39 34       		.uleb128 0x34
 2757 0d3a D4080000 		.4byte	0x8d4
 2758 0d3e 35       		.uleb128 0x35
 2759 0d3f A8000000 		.4byte	.Ldebug_ranges0+0xa8
 2760 0d43 2F       		.uleb128 0x2f
 2761 0d44 F5080000 		.4byte	0x8f5
 2762 0d48 DD030000 		.4byte	.LLST25
 2763 0d4c 2F       		.uleb128 0x2f
 2764 0d4d 00090000 		.4byte	0x900
 2765 0d51 FC030000 		.4byte	.LLST26
 2766 0d55 28       		.uleb128 0x28
 2767 0d56 3A080000 		.4byte	0x83a
 2768 0d5a 0C000000 		.4byte	.LBB108
ARM GAS  /var/folders/f9/8bk2lnw15zn4cbgn6wrnb4lm0000gn/T//ccyV4EJ6.s 			page 73


 2769 0d5e 02000000 		.4byte	.LBE108-.LBB108
 2770 0d62 01       		.byte	0x1
 2771 0d63 72       		.byte	0x72
 2772 0d64 720D0000 		.4byte	0xd72
 2773 0d68 2E       		.uleb128 0x2e
 2774 0d69 4B080000 		.4byte	0x84b
 2775 0d6d 41040000 		.4byte	.LLST27
 2776 0d71 00       		.byte	0
 2777 0d72 2A       		.uleb128 0x2a
 2778 0d73 A6080000 		.4byte	0x8a6
 2779 0d77 12000000 		.4byte	.LBB110
 2780 0d7b 04000000 		.4byte	.LBE110-.LBB110
 2781 0d7f 01       		.byte	0x1
 2782 0d80 73       		.byte	0x73
 2783 0d81 2E       		.uleb128 0x2e
 2784 0d82 B7080000 		.4byte	0x8b7
 2785 0d86 54040000 		.4byte	.LLST28
 2786 0d8a 00       		.byte	0
 2787 0d8b 00       		.byte	0
 2788 0d8c 00       		.byte	0
 2789 0d8d 00       		.byte	0
 2790 0d8e 36       		.uleb128 0x36
 2791 0d8f BE180000 		.4byte	.LASF1133
 2792 0d93 01       		.byte	0x1
 2793 0d94 8C       		.byte	0x8c
 2794 0d95 90000000 		.4byte	0x90
 2795 0d99 00000000 		.4byte	.LFB204
 2796 0d9d 38000000 		.4byte	.LFE204-.LFB204
 2797 0da1 01       		.uleb128 0x1
 2798 0da2 9C       		.byte	0x9c
 2799 0da3 740E0000 		.4byte	0xe74
 2800 0da7 2B       		.uleb128 0x2b
 2801 0da8 14760000 		.4byte	.LASF1108
 2802 0dac 01       		.byte	0x1
 2803 0dad 8C       		.byte	0x8c
 2804 0dae CE070000 		.4byte	0x7ce
 2805 0db2 67040000 		.4byte	.LLST29
 2806 0db6 2B       		.uleb128 0x2b
 2807 0db7 F7680000 		.4byte	.LASF1134
 2808 0dbb 01       		.byte	0x1
 2809 0dbc 8C       		.byte	0x8c
 2810 0dbd 90000000 		.4byte	0x90
 2811 0dc1 93040000 		.4byte	.LLST30
 2812 0dc5 37       		.uleb128 0x37
 2813 0dc6 64697600 		.ascii	"div\000"
 2814 0dca 01       		.byte	0x1
 2815 0dcb 8E       		.byte	0x8e
 2816 0dcc 90000000 		.4byte	0x90
 2817 0dd0 BF040000 		.4byte	.LLST31
 2818 0dd4 32       		.uleb128 0x32
 2819 0dd5 41520000 		.4byte	.LASF1135
 2820 0dd9 01       		.byte	0x1
 2821 0dda 8E       		.byte	0x8e
 2822 0ddb 90000000 		.4byte	0x90
 2823 0ddf DD040000 		.4byte	.LLST32
 2824 0de3 32       		.uleb128 0x32
 2825 0de4 76520000 		.4byte	.LASF1136
ARM GAS  /var/folders/f9/8bk2lnw15zn4cbgn6wrnb4lm0000gn/T//ccyV4EJ6.s 			page 74


 2826 0de8 01       		.byte	0x1
 2827 0de9 8E       		.byte	0x8e
 2828 0dea 90000000 		.4byte	0x90
 2829 0dee 0E050000 		.4byte	.LLST33
 2830 0df2 32       		.uleb128 0x32
 2831 0df3 03680000 		.4byte	.LASF1137
 2832 0df7 01       		.byte	0x1
 2833 0df8 8E       		.byte	0x8e
 2834 0df9 90000000 		.4byte	0x90
 2835 0dfd 3E050000 		.4byte	.LLST34
 2836 0e01 26       		.uleb128 0x26
 2837 0e02 0B090000 		.4byte	0x90b
 2838 0e06 12000000 		.4byte	.LBB114
 2839 0e0a C0000000 		.4byte	.Ldebug_ranges0+0xc0
 2840 0e0e 01       		.byte	0x1
 2841 0e0f 98       		.byte	0x98
 2842 0e10 1E0E0000 		.4byte	0xe1e
 2843 0e14 2E       		.uleb128 0x2e
 2844 0e15 18090000 		.4byte	0x918
 2845 0e19 5C050000 		.4byte	.LLST35
 2846 0e1d 00       		.byte	0
 2847 0e1e 26       		.uleb128 0x26
 2848 0e1f 25090000 		.4byte	0x925
 2849 0e23 1C000000 		.4byte	.LBB118
 2850 0e27 D8000000 		.4byte	.Ldebug_ranges0+0xd8
 2851 0e2b 01       		.byte	0x1
 2852 0e2c 99       		.byte	0x99
 2853 0e2d 4D0E0000 		.4byte	0xe4d
 2854 0e31 2E       		.uleb128 0x2e
 2855 0e32 4A090000 		.4byte	0x94a
 2856 0e36 7D050000 		.4byte	.LLST36
 2857 0e3a 2E       		.uleb128 0x2e
 2858 0e3b 3E090000 		.4byte	0x93e
 2859 0e3f A3050000 		.4byte	.LLST37
 2860 0e43 2E       		.uleb128 0x2e
 2861 0e44 32090000 		.4byte	0x932
 2862 0e48 D3050000 		.4byte	.LLST38
 2863 0e4c 00       		.byte	0
 2864 0e4d 26       		.uleb128 0x26
 2865 0e4e 57090000 		.4byte	0x957
 2866 0e52 2A000000 		.4byte	.LBB122
 2867 0e56 F0000000 		.4byte	.Ldebug_ranges0+0xf0
 2868 0e5a 01       		.byte	0x1
 2869 0e5b 9A       		.byte	0x9a
 2870 0e5c 6A0E0000 		.4byte	0xe6a
 2871 0e60 2E       		.uleb128 0x2e
 2872 0e61 64090000 		.4byte	0x964
 2873 0e65 F4050000 		.4byte	.LLST39
 2874 0e69 00       		.byte	0
 2875 0e6a 38       		.uleb128 0x38
 2876 0e6b 0A000000 		.4byte	.LVL50
 2877 0e6f 40130000 		.4byte	0x1340
 2878 0e73 00       		.byte	0
 2879 0e74 2D       		.uleb128 0x2d
 2880 0e75 DF090000 		.4byte	0x9df
 2881 0e79 00000000 		.4byte	.LFB205
 2882 0e7d 2A000000 		.4byte	.LFE205-.LFB205
ARM GAS  /var/folders/f9/8bk2lnw15zn4cbgn6wrnb4lm0000gn/T//ccyV4EJ6.s 			page 75


 2883 0e81 01       		.uleb128 0x1
 2884 0e82 9C       		.byte	0x9c
 2885 0e83 FC0E0000 		.4byte	0xefc
 2886 0e87 2E       		.uleb128 0x2e
 2887 0e88 EB090000 		.4byte	0x9eb
 2888 0e8c 15060000 		.4byte	.LLST40
 2889 0e90 2E       		.uleb128 0x2e
 2890 0e91 F6090000 		.4byte	0x9f6
 2891 0e95 41060000 		.4byte	.LLST41
 2892 0e99 26       		.uleb128 0x26
 2893 0e9a 3A080000 		.4byte	0x83a
 2894 0e9e 02000000 		.4byte	.LBB126
 2895 0ea2 08010000 		.4byte	.Ldebug_ranges0+0x108
 2896 0ea6 01       		.byte	0x1
 2897 0ea7 A5       		.byte	0xa5
 2898 0ea8 B60E0000 		.4byte	0xeb6
 2899 0eac 2E       		.uleb128 0x2e
 2900 0ead 4B080000 		.4byte	0x84b
 2901 0eb1 15060000 		.4byte	.LLST40
 2902 0eb5 00       		.byte	0
 2903 0eb6 39       		.uleb128 0x39
 2904 0eb7 14000000 		.4byte	.LBB129
 2905 0ebb 0C000000 		.4byte	.LBE129-.LBB129
 2906 0ebf 3A       		.uleb128 0x3a
 2907 0ec0 020A0000 		.4byte	0xa02
 2908 0ec4 02       		.uleb128 0x2
 2909 0ec5 91       		.byte	0x91
 2910 0ec6 67       		.sleb128 -25
 2911 0ec7 26       		.uleb128 0x26
 2912 0ec8 A6080000 		.4byte	0x8a6
 2913 0ecc 14000000 		.4byte	.LBB130
 2914 0ed0 20010000 		.4byte	.Ldebug_ranges0+0x120
 2915 0ed4 01       		.byte	0x1
 2916 0ed5 A6       		.byte	0xa6
 2917 0ed6 E40E0000 		.4byte	0xee4
 2918 0eda 2E       		.uleb128 0x2e
 2919 0edb B7080000 		.4byte	0x8b7
 2920 0edf 6D060000 		.4byte	.LLST43
 2921 0ee3 00       		.byte	0
 2922 0ee4 3B       		.uleb128 0x3b
 2923 0ee5 20000000 		.4byte	.LVL64
 2924 0ee9 4C130000 		.4byte	0x134c
 2925 0eed 3C       		.uleb128 0x3c
 2926 0eee 01       		.uleb128 0x1
 2927 0eef 51       		.byte	0x51
 2928 0ef0 02       		.uleb128 0x2
 2929 0ef1 75       		.byte	0x75
 2930 0ef2 00       		.sleb128 0
 2931 0ef3 3C       		.uleb128 0x3c
 2932 0ef4 01       		.uleb128 0x1
 2933 0ef5 50       		.byte	0x50
 2934 0ef6 02       		.uleb128 0x2
 2935 0ef7 77       		.byte	0x77
 2936 0ef8 00       		.sleb128 0
 2937 0ef9 00       		.byte	0
 2938 0efa 00       		.byte	0
 2939 0efb 00       		.byte	0
ARM GAS  /var/folders/f9/8bk2lnw15zn4cbgn6wrnb4lm0000gn/T//ccyV4EJ6.s 			page 76


 2940 0efc 24       		.uleb128 0x24
 2941 0efd 78160000 		.4byte	.LASF1138
 2942 0f01 01       		.byte	0x1
 2943 0f02 AC       		.byte	0xac
 2944 0f03 00000000 		.4byte	.LFB206
 2945 0f07 30000000 		.4byte	.LFE206-.LFB206
 2946 0f0b 01       		.uleb128 0x1
 2947 0f0c 9C       		.byte	0x9c
 2948 0f0d 960F0000 		.4byte	0xf96
 2949 0f11 2B       		.uleb128 0x2b
 2950 0f12 14760000 		.4byte	.LASF1108
 2951 0f16 01       		.byte	0x1
 2952 0f17 AC       		.byte	0xac
 2953 0f18 CE070000 		.4byte	0x7ce
 2954 0f1c 80060000 		.4byte	.LLST44
 2955 0f20 3D       		.uleb128 0x3d
 2956 0f21 70524200 		.ascii	"pRB\000"
 2957 0f25 01       		.byte	0x1
 2958 0f26 AC       		.byte	0xac
 2959 0f27 D9090000 		.4byte	0x9d9
 2960 0f2b AC060000 		.4byte	.LLST45
 2961 0f2f 33       		.uleb128 0x33
 2962 0f30 636800   		.ascii	"ch\000"
 2963 0f33 01       		.byte	0x1
 2964 0f34 AE       		.byte	0xae
 2965 0f35 85000000 		.4byte	0x85
 2966 0f39 02       		.uleb128 0x2
 2967 0f3a 91       		.byte	0x91
 2968 0f3b 67       		.sleb128 -25
 2969 0f3c 26       		.uleb128 0x26
 2970 0f3d 3A080000 		.4byte	0x83a
 2971 0f41 02000000 		.4byte	.LBB135
 2972 0f45 38010000 		.4byte	.Ldebug_ranges0+0x138
 2973 0f49 01       		.byte	0x1
 2974 0f4a B1       		.byte	0xb1
 2975 0f4b 590F0000 		.4byte	0xf59
 2976 0f4f 2E       		.uleb128 0x2e
 2977 0f50 4B080000 		.4byte	0x84b
 2978 0f54 80060000 		.4byte	.LLST44
 2979 0f58 00       		.byte	0
 2980 0f59 28       		.uleb128 0x28
 2981 0f5a 14080000 		.4byte	0x814
 2982 0f5e 16000000 		.4byte	.LBB138
 2983 0f62 04000000 		.4byte	.LBE138-.LBB138
 2984 0f66 01       		.byte	0x1
 2985 0f67 B3       		.byte	0xb3
 2986 0f68 7F0F0000 		.4byte	0xf7f
 2987 0f6c 2E       		.uleb128 0x2e
 2988 0f6d 2D080000 		.4byte	0x82d
 2989 0f71 D8060000 		.4byte	.LLST47
 2990 0f75 2E       		.uleb128 0x2e
 2991 0f76 21080000 		.4byte	0x821
 2992 0f7a EC060000 		.4byte	.LLST48
 2993 0f7e 00       		.byte	0
 2994 0f7f 3B       		.uleb128 0x3b
 2995 0f80 28000000 		.4byte	.LVL71
 2996 0f84 66130000 		.4byte	0x1366
ARM GAS  /var/folders/f9/8bk2lnw15zn4cbgn6wrnb4lm0000gn/T//ccyV4EJ6.s 			page 77


 2997 0f88 3C       		.uleb128 0x3c
 2998 0f89 01       		.uleb128 0x1
 2999 0f8a 51       		.byte	0x51
 3000 0f8b 02       		.uleb128 0x2
 3001 0f8c 75       		.byte	0x75
 3002 0f8d 00       		.sleb128 0
 3003 0f8e 3C       		.uleb128 0x3c
 3004 0f8f 01       		.uleb128 0x1
 3005 0f90 50       		.byte	0x50
 3006 0f91 02       		.uleb128 0x2
 3007 0f92 76       		.byte	0x76
 3008 0f93 00       		.sleb128 0
 3009 0f94 00       		.byte	0
 3010 0f95 00       		.byte	0
 3011 0f96 30       		.uleb128 0x30
 3012 0f97 DB590000 		.4byte	.LASF1139
 3013 0f9b 01       		.byte	0x1
 3014 0f9c B8       		.byte	0xb8
 3015 0f9d 90000000 		.4byte	0x90
 3016 0fa1 00000000 		.4byte	.LFB207
 3017 0fa5 4A000000 		.4byte	.LFE207-.LFB207
 3018 0fa9 01       		.uleb128 0x1
 3019 0faa 9C       		.byte	0x9c
 3020 0fab AB100000 		.4byte	0x10ab
 3021 0faf 2B       		.uleb128 0x2b
 3022 0fb0 14760000 		.4byte	.LASF1108
 3023 0fb4 01       		.byte	0x1
 3024 0fb5 B8       		.byte	0xb8
 3025 0fb6 CE070000 		.4byte	0x7ce
 3026 0fba FF060000 		.4byte	.LLST49
 3027 0fbe 3D       		.uleb128 0x3d
 3028 0fbf 70524200 		.ascii	"pRB\000"
 3029 0fc3 01       		.byte	0x1
 3030 0fc4 B8       		.byte	0xb8
 3031 0fc5 D9090000 		.4byte	0x9d9
 3032 0fc9 2B070000 		.4byte	.LLST50
 3033 0fcd 2B       		.uleb128 0x2b
 3034 0fce 90750000 		.4byte	.LASF1088
 3035 0fd2 01       		.byte	0x1
 3036 0fd3 B8       		.byte	0xb8
 3037 0fd4 9F080000 		.4byte	0x89f
 3038 0fd8 62070000 		.4byte	.LLST51
 3039 0fdc 2B       		.uleb128 0x2b
 3040 0fdd 93220000 		.4byte	.LASF1140
 3041 0fe1 01       		.byte	0x1
 3042 0fe2 B8       		.byte	0xb8
 3043 0fe3 77000000 		.4byte	0x77
 3044 0fe7 99070000 		.4byte	.LLST52
 3045 0feb 37       		.uleb128 0x37
 3046 0fec 72657400 		.ascii	"ret\000"
 3047 0ff0 01       		.byte	0x1
 3048 0ff1 BA       		.byte	0xba
 3049 0ff2 90000000 		.4byte	0x90
 3050 0ff6 C5070000 		.4byte	.LLST53
 3051 0ffa 37       		.uleb128 0x37
 3052 0ffb 703800   		.ascii	"p8\000"
 3053 0ffe 01       		.byte	0x1
ARM GAS  /var/folders/f9/8bk2lnw15zn4cbgn6wrnb4lm0000gn/T//ccyV4EJ6.s 			page 78


 3054 0fff BB       		.byte	0xbb
 3055 1000 6E070000 		.4byte	0x76e
 3056 1004 62070000 		.4byte	.LLST51
 3057 1008 26       		.uleb128 0x26
 3058 1009 71090000 		.4byte	0x971
 3059 100d 0A000000 		.4byte	.LBB141
 3060 1011 50010000 		.4byte	.Ldebug_ranges0+0x150
 3061 1015 01       		.byte	0x1
 3062 1016 BE       		.byte	0xbe
 3063 1017 2B100000 		.4byte	0x102b
 3064 101b 27       		.uleb128 0x27
 3065 101c 8A090000 		.4byte	0x98a
 3066 1020 02       		.byte	0x2
 3067 1021 2E       		.uleb128 0x2e
 3068 1022 7E090000 		.4byte	0x97e
 3069 1026 FF060000 		.4byte	.LLST49
 3070 102a 00       		.byte	0
 3071 102b 26       		.uleb128 0x26
 3072 102c 97090000 		.4byte	0x997
 3073 1030 3A000000 		.4byte	.LBB145
 3074 1034 68010000 		.4byte	.Ldebug_ranges0+0x168
 3075 1038 01       		.byte	0x1
 3076 1039 C8       		.byte	0xc8
 3077 103a 4E100000 		.4byte	0x104e
 3078 103e 27       		.uleb128 0x27
 3079 103f B0090000 		.4byte	0x9b0
 3080 1043 02       		.byte	0x2
 3081 1044 2E       		.uleb128 0x2e
 3082 1045 A4090000 		.4byte	0x9a4
 3083 1049 FE070000 		.4byte	.LLST56
 3084 104d 00       		.byte	0
 3085 104e 3E       		.uleb128 0x3e
 3086 104f 22000000 		.4byte	.LVL79
 3087 1053 80130000 		.4byte	0x1380
 3088 1057 6E100000 		.4byte	0x106e
 3089 105b 3C       		.uleb128 0x3c
 3090 105c 01       		.uleb128 0x1
 3091 105d 52       		.byte	0x52
 3092 105e 02       		.uleb128 0x2
 3093 105f 78       		.byte	0x78
 3094 1060 00       		.sleb128 0
 3095 1061 3C       		.uleb128 0x3c
 3096 1062 01       		.uleb128 0x1
 3097 1063 51       		.byte	0x51
 3098 1064 02       		.uleb128 0x2
 3099 1065 79       		.byte	0x79
 3100 1066 00       		.sleb128 0
 3101 1067 3C       		.uleb128 0x3c
 3102 1068 01       		.uleb128 0x1
 3103 1069 50       		.byte	0x50
 3104 106a 02       		.uleb128 0x2
 3105 106b 76       		.byte	0x76
 3106 106c 00       		.sleb128 0
 3107 106d 00       		.byte	0
 3108 106e 3E       		.uleb128 0x3e
 3109 106f 2C000000 		.4byte	.LVL82
 3110 1073 FC0E0000 		.4byte	0xefc
ARM GAS  /var/folders/f9/8bk2lnw15zn4cbgn6wrnb4lm0000gn/T//ccyV4EJ6.s 			page 79


 3111 1077 88100000 		.4byte	0x1088
 3112 107b 3C       		.uleb128 0x3c
 3113 107c 01       		.uleb128 0x1
 3114 107d 51       		.byte	0x51
 3115 107e 02       		.uleb128 0x2
 3116 107f 76       		.byte	0x76
 3117 1080 00       		.sleb128 0
 3118 1081 3C       		.uleb128 0x3c
 3119 1082 01       		.uleb128 0x1
 3120 1083 50       		.byte	0x50
 3121 1084 02       		.uleb128 0x2
 3122 1085 74       		.byte	0x74
 3123 1086 00       		.sleb128 0
 3124 1087 00       		.byte	0
 3125 1088 3B       		.uleb128 0x3b
 3126 1089 3A000000 		.4byte	.LVL83
 3127 108d 80130000 		.4byte	0x1380
 3128 1091 3C       		.uleb128 0x3c
 3129 1092 01       		.uleb128 0x1
 3130 1093 52       		.byte	0x52
 3131 1094 05       		.uleb128 0x5
 3132 1095 78       		.byte	0x78
 3133 1096 00       		.sleb128 0
 3134 1097 75       		.byte	0x75
 3135 1098 00       		.sleb128 0
 3136 1099 1C       		.byte	0x1c
 3137 109a 3C       		.uleb128 0x3c
 3138 109b 01       		.uleb128 0x1
 3139 109c 51       		.byte	0x51
 3140 109d 05       		.uleb128 0x5
 3141 109e 79       		.byte	0x79
 3142 109f 00       		.sleb128 0
 3143 10a0 75       		.byte	0x75
 3144 10a1 00       		.sleb128 0
 3145 10a2 22       		.byte	0x22
 3146 10a3 3C       		.uleb128 0x3c
 3147 10a4 01       		.uleb128 0x1
 3148 10a5 50       		.byte	0x50
 3149 10a6 02       		.uleb128 0x2
 3150 10a7 76       		.byte	0x76
 3151 10a8 00       		.sleb128 0
 3152 10a9 00       		.byte	0
 3153 10aa 00       		.byte	0
 3154 10ab 30       		.uleb128 0x30
 3155 10ac EC720000 		.4byte	.LASF1141
 3156 10b0 01       		.byte	0x1
 3157 10b1 CE       		.byte	0xce
 3158 10b2 77000000 		.4byte	0x77
 3159 10b6 00000000 		.4byte	.LFB208
 3160 10ba 0E000000 		.4byte	.LFE208-.LFB208
 3161 10be 01       		.uleb128 0x1
 3162 10bf 9C       		.byte	0x9c
 3163 10c0 20110000 		.4byte	0x1120
 3164 10c4 2B       		.uleb128 0x2b
 3165 10c5 14760000 		.4byte	.LASF1108
 3166 10c9 01       		.byte	0x1
 3167 10ca CE       		.byte	0xce
ARM GAS  /var/folders/f9/8bk2lnw15zn4cbgn6wrnb4lm0000gn/T//ccyV4EJ6.s 			page 80


 3168 10cb CE070000 		.4byte	0x7ce
 3169 10cf 1F080000 		.4byte	.LLST57
 3170 10d3 3D       		.uleb128 0x3d
 3171 10d4 70524200 		.ascii	"pRB\000"
 3172 10d8 01       		.byte	0x1
 3173 10d9 CE       		.byte	0xce
 3174 10da D9090000 		.4byte	0x9d9
 3175 10de 40080000 		.4byte	.LLST58
 3176 10e2 2B       		.uleb128 0x2b
 3177 10e3 90750000 		.4byte	.LASF1088
 3178 10e7 01       		.byte	0x1
 3179 10e8 CE       		.byte	0xce
 3180 10e9 C7050000 		.4byte	0x5c7
 3181 10ed 6C080000 		.4byte	.LLST59
 3182 10f1 2B       		.uleb128 0x2b
 3183 10f2 93220000 		.4byte	.LASF1140
 3184 10f6 01       		.byte	0x1
 3185 10f7 CE       		.byte	0xce
 3186 10f8 77000000 		.4byte	0x77
 3187 10fc 98080000 		.4byte	.LLST60
 3188 1100 3B       		.uleb128 0x3b
 3189 1101 0C000000 		.4byte	.LVL93
 3190 1105 9F130000 		.4byte	0x139f
 3191 1109 3C       		.uleb128 0x3c
 3192 110a 01       		.uleb128 0x1
 3193 110b 52       		.byte	0x52
 3194 110c 03       		.uleb128 0x3
 3195 110d F3       		.byte	0xf3
 3196 110e 01       		.uleb128 0x1
 3197 110f 53       		.byte	0x53
 3198 1110 3C       		.uleb128 0x3c
 3199 1111 01       		.uleb128 0x1
 3200 1112 51       		.byte	0x51
 3201 1113 03       		.uleb128 0x3
 3202 1114 F3       		.byte	0xf3
 3203 1115 01       		.uleb128 0x1
 3204 1116 52       		.byte	0x52
 3205 1117 3C       		.uleb128 0x3c
 3206 1118 01       		.uleb128 0x1
 3207 1119 50       		.byte	0x50
 3208 111a 03       		.uleb128 0x3
 3209 111b F3       		.byte	0xf3
 3210 111c 01       		.uleb128 0x1
 3211 111d 51       		.byte	0x51
 3212 111e 00       		.byte	0
 3213 111f 00       		.byte	0
 3214 1120 24       		.uleb128 0x24
 3215 1121 73030000 		.4byte	.LASF1142
 3216 1125 01       		.byte	0x1
 3217 1126 D6       		.byte	0xd6
 3218 1127 00000000 		.4byte	.LFB209
 3219 112b 4A000000 		.4byte	.LFE209-.LFB209
 3220 112f 01       		.uleb128 0x1
 3221 1130 9C       		.byte	0x9c
 3222 1131 2F120000 		.4byte	0x122f
 3223 1135 2B       		.uleb128 0x2b
 3224 1136 14760000 		.4byte	.LASF1108
ARM GAS  /var/folders/f9/8bk2lnw15zn4cbgn6wrnb4lm0000gn/T//ccyV4EJ6.s 			page 81


 3225 113a 01       		.byte	0x1
 3226 113b D6       		.byte	0xd6
 3227 113c CE070000 		.4byte	0x7ce
 3228 1140 B9080000 		.4byte	.LLST61
 3229 1144 2B       		.uleb128 0x2b
 3230 1145 5D0C0000 		.4byte	.LASF1143
 3231 1149 01       		.byte	0x1
 3232 114a D6       		.byte	0xd6
 3233 114b D9090000 		.4byte	0x9d9
 3234 114f FB080000 		.4byte	.LLST62
 3235 1153 2B       		.uleb128 0x2b
 3236 1154 5F0E0000 		.4byte	.LASF1144
 3237 1158 01       		.byte	0x1
 3238 1159 D6       		.byte	0xd6
 3239 115a D9090000 		.4byte	0x9d9
 3240 115e 3D090000 		.4byte	.LLST63
 3241 1162 28       		.uleb128 0x28
 3242 1163 DF090000 		.4byte	0x9df
 3243 1167 12000000 		.4byte	.LBB149
 3244 116b 1E000000 		.4byte	.LBE149-.LBB149
 3245 116f 01       		.byte	0x1
 3246 1170 E3       		.byte	0xe3
 3247 1171 E2110000 		.4byte	0x11e2
 3248 1175 34       		.uleb128 0x34
 3249 1176 F6090000 		.4byte	0x9f6
 3250 117a 34       		.uleb128 0x34
 3251 117b EB090000 		.4byte	0x9eb
 3252 117f 26       		.uleb128 0x26
 3253 1180 3A080000 		.4byte	0x83a
 3254 1184 12000000 		.4byte	.LBB151
 3255 1188 80010000 		.4byte	.Ldebug_ranges0+0x180
 3256 118c 01       		.byte	0x1
 3257 118d A5       		.byte	0xa5
 3258 118e 9C110000 		.4byte	0x119c
 3259 1192 2E       		.uleb128 0x2e
 3260 1193 4B080000 		.4byte	0x84b
 3261 1197 7F090000 		.4byte	.LLST64
 3262 119b 00       		.byte	0
 3263 119c 39       		.uleb128 0x39
 3264 119d 1E000000 		.4byte	.LBB154
 3265 11a1 0C000000 		.4byte	.LBE154-.LBB154
 3266 11a5 3A       		.uleb128 0x3a
 3267 11a6 020A0000 		.4byte	0xa02
 3268 11aa 02       		.uleb128 0x2
 3269 11ab 91       		.byte	0x91
 3270 11ac 67       		.sleb128 -25
 3271 11ad 26       		.uleb128 0x26
 3272 11ae A6080000 		.4byte	0x8a6
 3273 11b2 1E000000 		.4byte	.LBB155
 3274 11b6 98010000 		.4byte	.Ldebug_ranges0+0x198
 3275 11ba 01       		.byte	0x1
 3276 11bb A6       		.byte	0xa6
 3277 11bc CA110000 		.4byte	0x11ca
 3278 11c0 2E       		.uleb128 0x2e
 3279 11c1 B7080000 		.4byte	0x8b7
 3280 11c5 A0090000 		.4byte	.LLST65
 3281 11c9 00       		.byte	0
ARM GAS  /var/folders/f9/8bk2lnw15zn4cbgn6wrnb4lm0000gn/T//ccyV4EJ6.s 			page 82


 3282 11ca 3B       		.uleb128 0x3b
 3283 11cb 2A000000 		.4byte	.LVL98
 3284 11cf 4C130000 		.4byte	0x134c
 3285 11d3 3C       		.uleb128 0x3c
 3286 11d4 01       		.uleb128 0x1
 3287 11d5 51       		.byte	0x51
 3288 11d6 02       		.uleb128 0x2
 3289 11d7 75       		.byte	0x75
 3290 11d8 00       		.sleb128 0
 3291 11d9 3C       		.uleb128 0x3c
 3292 11da 01       		.uleb128 0x1
 3293 11db 50       		.byte	0x50
 3294 11dc 02       		.uleb128 0x2
 3295 11dd 77       		.byte	0x77
 3296 11de 00       		.sleb128 0
 3297 11df 00       		.byte	0
 3298 11e0 00       		.byte	0
 3299 11e1 00       		.byte	0
 3300 11e2 28       		.uleb128 0x28
 3301 11e3 BD090000 		.4byte	0x9bd
 3302 11e7 3A000000 		.4byte	.LBB160
 3303 11eb 04000000 		.4byte	.LBE160-.LBB160
 3304 11ef 01       		.byte	0x1
 3305 11f0 DD       		.byte	0xdd
 3306 11f1 FD110000 		.4byte	0x11fd
 3307 11f5 29       		.uleb128 0x29
 3308 11f6 CD090000 		.4byte	0x9cd
 3309 11fa 01       		.uleb128 0x1
 3310 11fb 56       		.byte	0x56
 3311 11fc 00       		.byte	0
 3312 11fd 28       		.uleb128 0x28
 3313 11fe 71090000 		.4byte	0x971
 3314 1202 42000000 		.4byte	.LBB162
 3315 1206 08000000 		.4byte	.LBE162-.LBB162
 3316 120a 01       		.byte	0x1
 3317 120b DE       		.byte	0xde
 3318 120c 1E120000 		.4byte	0x121e
 3319 1210 27       		.uleb128 0x27
 3320 1211 8A090000 		.4byte	0x98a
 3321 1215 02       		.byte	0x2
 3322 1216 29       		.uleb128 0x29
 3323 1217 7E090000 		.4byte	0x97e
 3324 121b 01       		.uleb128 0x1
 3325 121c 54       		.byte	0x54
 3326 121d 00       		.byte	0
 3327 121e 3B       		.uleb128 0x3b
 3328 121f 3A000000 		.4byte	.LVL104
 3329 1223 FC0E0000 		.4byte	0xefc
 3330 1227 3C       		.uleb128 0x3c
 3331 1228 01       		.uleb128 0x1
 3332 1229 51       		.byte	0x51
 3333 122a 02       		.uleb128 0x2
 3334 122b 76       		.byte	0x76
 3335 122c 00       		.sleb128 0
 3336 122d 00       		.byte	0
 3337 122e 00       		.byte	0
 3338 122f 36       		.uleb128 0x36
ARM GAS  /var/folders/f9/8bk2lnw15zn4cbgn6wrnb4lm0000gn/T//ccyV4EJ6.s 			page 83


 3339 1230 771C0000 		.4byte	.LASF1145
 3340 1234 01       		.byte	0x1
 3341 1235 E7       		.byte	0xe7
 3342 1236 90000000 		.4byte	0x90
 3343 123a 00000000 		.4byte	.LFB210
 3344 123e 9A000000 		.4byte	.LFE210-.LFB210
 3345 1242 01       		.uleb128 0x1
 3346 1243 9C       		.byte	0x9c
 3347 1244 35130000 		.4byte	0x1335
 3348 1248 2B       		.uleb128 0x2b
 3349 1249 14760000 		.4byte	.LASF1108
 3350 124d 01       		.byte	0x1
 3351 124e E7       		.byte	0xe7
 3352 124f CE070000 		.4byte	0x7ce
 3353 1253 B3090000 		.4byte	.LLST66
 3354 1257 2B       		.uleb128 0x2b
 3355 1258 F7680000 		.4byte	.LASF1134
 3356 125c 01       		.byte	0x1
 3357 125d E7       		.byte	0xe7
 3358 125e 90000000 		.4byte	0x90
 3359 1262 EA090000 		.4byte	.LLST67
 3360 1266 32       		.uleb128 0x32
 3361 1267 34480000 		.4byte	.LASF1146
 3362 126b 01       		.byte	0x1
 3363 126c EA       		.byte	0xea
 3364 126d 90000000 		.4byte	0x90
 3365 1271 0B0A0000 		.4byte	.LLST68
 3366 1275 32       		.uleb128 0x32
 3367 1276 BC490000 		.4byte	.LASF1147
 3368 127a 01       		.byte	0x1
 3369 127b EB       		.byte	0xeb
 3370 127c 90000000 		.4byte	0x90
 3371 1280 340A0000 		.4byte	.LLST69
 3372 1284 32       		.uleb128 0x32
 3373 1285 28120000 		.4byte	.LASF1148
 3374 1289 01       		.byte	0x1
 3375 128a EC       		.byte	0xec
 3376 128b 90000000 		.4byte	0x90
 3377 128f 5E0A0000 		.4byte	.LLST70
 3378 1293 37       		.uleb128 0x37
 3379 1294 646C00   		.ascii	"dl\000"
 3380 1297 01       		.byte	0x1
 3381 1298 ED       		.byte	0xed
 3382 1299 90000000 		.4byte	0x90
 3383 129d 890A0000 		.4byte	.LLST71
 3384 12a1 32       		.uleb128 0x32
 3385 12a2 AE080000 		.4byte	.LASF1149
 3386 12a6 01       		.byte	0x1
 3387 12a7 EE       		.byte	0xee
 3388 12a8 90000000 		.4byte	0x90
 3389 12ac 9C0A0000 		.4byte	.LLST72
 3390 12b0 32       		.uleb128 0x32
 3391 12b1 540E0000 		.4byte	.LASF1150
 3392 12b5 01       		.byte	0x1
 3393 12b6 EF       		.byte	0xef
 3394 12b7 90000000 		.4byte	0x90
 3395 12bb DA0A0000 		.4byte	.LLST73
ARM GAS  /var/folders/f9/8bk2lnw15zn4cbgn6wrnb4lm0000gn/T//ccyV4EJ6.s 			page 84


 3396 12bf 3F       		.uleb128 0x3f
 3397 12c0 0B090000 		.4byte	0x90b
 3398 12c4 58000000 		.4byte	.LBB164
 3399 12c8 08000000 		.4byte	.LBE164-.LBB164
 3400 12cc 01       		.byte	0x1
 3401 12cd 1101     		.2byte	0x111
 3402 12cf DD120000 		.4byte	0x12dd
 3403 12d3 2E       		.uleb128 0x2e
 3404 12d4 18090000 		.4byte	0x918
 3405 12d8 FA0A0000 		.4byte	.LLST74
 3406 12dc 00       		.byte	0
 3407 12dd 40       		.uleb128 0x40
 3408 12de 25090000 		.4byte	0x925
 3409 12e2 60000000 		.4byte	.LBB166
 3410 12e6 B0010000 		.4byte	.Ldebug_ranges0+0x1b0
 3411 12ea 01       		.byte	0x1
 3412 12eb 1201     		.2byte	0x112
 3413 12ed 0D130000 		.4byte	0x130d
 3414 12f1 2E       		.uleb128 0x2e
 3415 12f2 4A090000 		.4byte	0x94a
 3416 12f6 1B0B0000 		.4byte	.LLST75
 3417 12fa 2E       		.uleb128 0x2e
 3418 12fb 3E090000 		.4byte	0x93e
 3419 12ff 320B0000 		.4byte	.LLST76
 3420 1303 2E       		.uleb128 0x2e
 3421 1304 32090000 		.4byte	0x932
 3422 1308 450B0000 		.4byte	.LLST77
 3423 130c 00       		.byte	0
 3424 130d 40       		.uleb128 0x40
 3425 130e 57090000 		.4byte	0x957
 3426 1312 6E000000 		.4byte	.LBB170
 3427 1316 C8010000 		.4byte	.Ldebug_ranges0+0x1c8
 3428 131a 01       		.byte	0x1
 3429 131b 1301     		.2byte	0x113
 3430 131d 2B130000 		.4byte	0x132b
 3431 1321 2E       		.uleb128 0x2e
 3432 1322 64090000 		.4byte	0x964
 3433 1326 660B0000 		.4byte	.LLST78
 3434 132a 00       		.byte	0
 3435 132b 38       		.uleb128 0x38
 3436 132c 10000000 		.4byte	.LVL108
 3437 1330 40130000 		.4byte	0x1340
 3438 1334 00       		.byte	0
 3439 1335 41       		.uleb128 0x41
 3440 1336 27530000 		.4byte	.LASF1160
 3441 133a 08       		.byte	0x8
 3442 133b D4       		.byte	0xd4
 3443 133c 69070000 		.4byte	0x769
 3444 1340 42       		.uleb128 0x42
 3445 1341 0A400000 		.4byte	.LASF1161
 3446 1345 02       		.byte	0x2
 3447 1346 1302     		.2byte	0x213
 3448 1348 90000000 		.4byte	0x90
 3449 134c 43       		.uleb128 0x43
 3450 134d 9C250000 		.4byte	.LASF1151
 3451 1351 04       		.byte	0x4
 3452 1352 93       		.byte	0x93
ARM GAS  /var/folders/f9/8bk2lnw15zn4cbgn6wrnb4lm0000gn/T//ccyV4EJ6.s 			page 85


 3453 1353 77000000 		.4byte	0x77
 3454 1357 66130000 		.4byte	0x1366
 3455 135b 44       		.uleb128 0x44
 3456 135c D9090000 		.4byte	0x9d9
 3457 1360 44       		.uleb128 0x44
 3458 1361 9F080000 		.4byte	0x89f
 3459 1365 00       		.byte	0
 3460 1366 43       		.uleb128 0x43
 3461 1367 DD5D0000 		.4byte	.LASF1152
 3462 136b 04       		.byte	0x4
 3463 136c AA       		.byte	0xaa
 3464 136d 77000000 		.4byte	0x77
 3465 1371 80130000 		.4byte	0x1380
 3466 1375 44       		.uleb128 0x44
 3467 1376 D9090000 		.4byte	0x9d9
 3468 137a 44       		.uleb128 0x44
 3469 137b C7050000 		.4byte	0x5c7
 3470 137f 00       		.byte	0
 3471 1380 43       		.uleb128 0x43
 3472 1381 E2330000 		.4byte	.LASF1153
 3473 1385 04       		.byte	0x4
 3474 1386 9F       		.byte	0x9f
 3475 1387 77000000 		.4byte	0x77
 3476 138b 9F130000 		.4byte	0x139f
 3477 138f 44       		.uleb128 0x44
 3478 1390 D9090000 		.4byte	0x9d9
 3479 1394 44       		.uleb128 0x44
 3480 1395 9F080000 		.4byte	0x89f
 3481 1399 44       		.uleb128 0x44
 3482 139a 77000000 		.4byte	0x77
 3483 139e 00       		.byte	0
 3484 139f 45       		.uleb128 0x45
 3485 13a0 5B0D0000 		.4byte	.LASF1155
 3486 13a4 04       		.byte	0x4
 3487 13a5 B5       		.byte	0xb5
 3488 13a6 77000000 		.4byte	0x77
 3489 13aa 44       		.uleb128 0x44
 3490 13ab D9090000 		.4byte	0x9d9
 3491 13af 44       		.uleb128 0x44
 3492 13b0 C7050000 		.4byte	0x5c7
 3493 13b4 44       		.uleb128 0x44
 3494 13b5 77000000 		.4byte	0x77
 3495 13b9 00       		.byte	0
 3496 13ba 00       		.byte	0
 3497              		.section	.debug_abbrev,"",%progbits
 3498              	.Ldebug_abbrev0:
 3499 0000 01       		.uleb128 0x1
 3500 0001 11       		.uleb128 0x11
 3501 0002 01       		.byte	0x1
 3502 0003 25       		.uleb128 0x25
 3503 0004 0E       		.uleb128 0xe
 3504 0005 13       		.uleb128 0x13
 3505 0006 0B       		.uleb128 0xb
 3506 0007 03       		.uleb128 0x3
 3507 0008 0E       		.uleb128 0xe
 3508 0009 1B       		.uleb128 0x1b
 3509 000a 0E       		.uleb128 0xe
ARM GAS  /var/folders/f9/8bk2lnw15zn4cbgn6wrnb4lm0000gn/T//ccyV4EJ6.s 			page 86


 3510 000b 55       		.uleb128 0x55
 3511 000c 17       		.uleb128 0x17
 3512 000d 11       		.uleb128 0x11
 3513 000e 01       		.uleb128 0x1
 3514 000f 10       		.uleb128 0x10
 3515 0010 17       		.uleb128 0x17
 3516 0011 9942     		.uleb128 0x2119
 3517 0013 17       		.uleb128 0x17
 3518 0014 00       		.byte	0
 3519 0015 00       		.byte	0
 3520 0016 02       		.uleb128 0x2
 3521 0017 24       		.uleb128 0x24
 3522 0018 00       		.byte	0
 3523 0019 0B       		.uleb128 0xb
 3524 001a 0B       		.uleb128 0xb
 3525 001b 3E       		.uleb128 0x3e
 3526 001c 0B       		.uleb128 0xb
 3527 001d 03       		.uleb128 0x3
 3528 001e 0E       		.uleb128 0xe
 3529 001f 00       		.byte	0
 3530 0020 00       		.byte	0
 3531 0021 03       		.uleb128 0x3
 3532 0022 16       		.uleb128 0x16
 3533 0023 00       		.byte	0
 3534 0024 03       		.uleb128 0x3
 3535 0025 0E       		.uleb128 0xe
 3536 0026 3A       		.uleb128 0x3a
 3537 0027 0B       		.uleb128 0xb
 3538 0028 3B       		.uleb128 0x3b
 3539 0029 0B       		.uleb128 0xb
 3540 002a 49       		.uleb128 0x49
 3541 002b 13       		.uleb128 0x13
 3542 002c 00       		.byte	0
 3543 002d 00       		.byte	0
 3544 002e 04       		.uleb128 0x4
 3545 002f 24       		.uleb128 0x24
 3546 0030 00       		.byte	0
 3547 0031 0B       		.uleb128 0xb
 3548 0032 0B       		.uleb128 0xb
 3549 0033 3E       		.uleb128 0x3e
 3550 0034 0B       		.uleb128 0xb
 3551 0035 03       		.uleb128 0x3
 3552 0036 08       		.uleb128 0x8
 3553 0037 00       		.byte	0
 3554 0038 00       		.byte	0
 3555 0039 05       		.uleb128 0x5
 3556 003a 01       		.uleb128 0x1
 3557 003b 01       		.byte	0x1
 3558 003c 49       		.uleb128 0x49
 3559 003d 13       		.uleb128 0x13
 3560 003e 01       		.uleb128 0x1
 3561 003f 13       		.uleb128 0x13
 3562 0040 00       		.byte	0
 3563 0041 00       		.byte	0
 3564 0042 06       		.uleb128 0x6
 3565 0043 21       		.uleb128 0x21
 3566 0044 00       		.byte	0
ARM GAS  /var/folders/f9/8bk2lnw15zn4cbgn6wrnb4lm0000gn/T//ccyV4EJ6.s 			page 87


 3567 0045 49       		.uleb128 0x49
 3568 0046 13       		.uleb128 0x13
 3569 0047 2F       		.uleb128 0x2f
 3570 0048 0B       		.uleb128 0xb
 3571 0049 00       		.byte	0
 3572 004a 00       		.byte	0
 3573 004b 07       		.uleb128 0x7
 3574 004c 26       		.uleb128 0x26
 3575 004d 00       		.byte	0
 3576 004e 49       		.uleb128 0x49
 3577 004f 13       		.uleb128 0x13
 3578 0050 00       		.byte	0
 3579 0051 00       		.byte	0
 3580 0052 08       		.uleb128 0x8
 3581 0053 35       		.uleb128 0x35
 3582 0054 00       		.byte	0
 3583 0055 49       		.uleb128 0x49
 3584 0056 13       		.uleb128 0x13
 3585 0057 00       		.byte	0
 3586 0058 00       		.byte	0
 3587 0059 09       		.uleb128 0x9
 3588 005a 13       		.uleb128 0x13
 3589 005b 01       		.byte	0x1
 3590 005c 0B       		.uleb128 0xb
 3591 005d 05       		.uleb128 0x5
 3592 005e 3A       		.uleb128 0x3a
 3593 005f 0B       		.uleb128 0xb
 3594 0060 3B       		.uleb128 0x3b
 3595 0061 0B       		.uleb128 0xb
 3596 0062 01       		.uleb128 0x1
 3597 0063 13       		.uleb128 0x13
 3598 0064 00       		.byte	0
 3599 0065 00       		.byte	0
 3600 0066 0A       		.uleb128 0xa
 3601 0067 0D       		.uleb128 0xd
 3602 0068 00       		.byte	0
 3603 0069 03       		.uleb128 0x3
 3604 006a 0E       		.uleb128 0xe
 3605 006b 3A       		.uleb128 0x3a
 3606 006c 0B       		.uleb128 0xb
 3607 006d 3B       		.uleb128 0x3b
 3608 006e 0B       		.uleb128 0xb
 3609 006f 49       		.uleb128 0x49
 3610 0070 13       		.uleb128 0x13
 3611 0071 38       		.uleb128 0x38
 3612 0072 0B       		.uleb128 0xb
 3613 0073 00       		.byte	0
 3614 0074 00       		.byte	0
 3615 0075 0B       		.uleb128 0xb
 3616 0076 0D       		.uleb128 0xd
 3617 0077 00       		.byte	0
 3618 0078 03       		.uleb128 0x3
 3619 0079 0E       		.uleb128 0xe
 3620 007a 3A       		.uleb128 0x3a
 3621 007b 0B       		.uleb128 0xb
 3622 007c 3B       		.uleb128 0x3b
 3623 007d 0B       		.uleb128 0xb
ARM GAS  /var/folders/f9/8bk2lnw15zn4cbgn6wrnb4lm0000gn/T//ccyV4EJ6.s 			page 88


 3624 007e 49       		.uleb128 0x49
 3625 007f 13       		.uleb128 0x13
 3626 0080 38       		.uleb128 0x38
 3627 0081 05       		.uleb128 0x5
 3628 0082 00       		.byte	0
 3629 0083 00       		.byte	0
 3630 0084 0C       		.uleb128 0xc
 3631 0085 04       		.uleb128 0x4
 3632 0086 01       		.byte	0x1
 3633 0087 03       		.uleb128 0x3
 3634 0088 0E       		.uleb128 0xe
 3635 0089 0B       		.uleb128 0xb
 3636 008a 0B       		.uleb128 0xb
 3637 008b 3A       		.uleb128 0x3a
 3638 008c 0B       		.uleb128 0xb
 3639 008d 3B       		.uleb128 0x3b
 3640 008e 0B       		.uleb128 0xb
 3641 008f 01       		.uleb128 0x1
 3642 0090 13       		.uleb128 0x13
 3643 0091 00       		.byte	0
 3644 0092 00       		.byte	0
 3645 0093 0D       		.uleb128 0xd
 3646 0094 28       		.uleb128 0x28
 3647 0095 00       		.byte	0
 3648 0096 03       		.uleb128 0x3
 3649 0097 0E       		.uleb128 0xe
 3650 0098 1C       		.uleb128 0x1c
 3651 0099 0D       		.uleb128 0xd
 3652 009a 00       		.byte	0
 3653 009b 00       		.byte	0
 3654 009c 0E       		.uleb128 0xe
 3655 009d 16       		.uleb128 0x16
 3656 009e 00       		.byte	0
 3657 009f 03       		.uleb128 0x3
 3658 00a0 0E       		.uleb128 0xe
 3659 00a1 3A       		.uleb128 0x3a
 3660 00a2 0B       		.uleb128 0xb
 3661 00a3 3B       		.uleb128 0x3b
 3662 00a4 05       		.uleb128 0x5
 3663 00a5 49       		.uleb128 0x49
 3664 00a6 13       		.uleb128 0x13
 3665 00a7 00       		.byte	0
 3666 00a8 00       		.byte	0
 3667 00a9 0F       		.uleb128 0xf
 3668 00aa 13       		.uleb128 0x13
 3669 00ab 01       		.byte	0x1
 3670 00ac 0B       		.uleb128 0xb
 3671 00ad 0B       		.uleb128 0xb
 3672 00ae 3A       		.uleb128 0x3a
 3673 00af 0B       		.uleb128 0xb
 3674 00b0 3B       		.uleb128 0x3b
 3675 00b1 0B       		.uleb128 0xb
 3676 00b2 01       		.uleb128 0x1
 3677 00b3 13       		.uleb128 0x13
 3678 00b4 00       		.byte	0
 3679 00b5 00       		.byte	0
 3680 00b6 10       		.uleb128 0x10
ARM GAS  /var/folders/f9/8bk2lnw15zn4cbgn6wrnb4lm0000gn/T//ccyV4EJ6.s 			page 89


 3681 00b7 0F       		.uleb128 0xf
 3682 00b8 00       		.byte	0
 3683 00b9 0B       		.uleb128 0xb
 3684 00ba 0B       		.uleb128 0xb
 3685 00bb 00       		.byte	0
 3686 00bc 00       		.byte	0
 3687 00bd 11       		.uleb128 0x11
 3688 00be 17       		.uleb128 0x17
 3689 00bf 01       		.byte	0x1
 3690 00c0 0B       		.uleb128 0xb
 3691 00c1 0B       		.uleb128 0xb
 3692 00c2 3A       		.uleb128 0x3a
 3693 00c3 0B       		.uleb128 0xb
 3694 00c4 3B       		.uleb128 0x3b
 3695 00c5 0B       		.uleb128 0xb
 3696 00c6 01       		.uleb128 0x1
 3697 00c7 13       		.uleb128 0x13
 3698 00c8 00       		.byte	0
 3699 00c9 00       		.byte	0
 3700 00ca 12       		.uleb128 0x12
 3701 00cb 0D       		.uleb128 0xd
 3702 00cc 00       		.byte	0
 3703 00cd 03       		.uleb128 0x3
 3704 00ce 08       		.uleb128 0x8
 3705 00cf 3A       		.uleb128 0x3a
 3706 00d0 0B       		.uleb128 0xb
 3707 00d1 3B       		.uleb128 0x3b
 3708 00d2 0B       		.uleb128 0xb
 3709 00d3 49       		.uleb128 0x49
 3710 00d4 13       		.uleb128 0x13
 3711 00d5 00       		.byte	0
 3712 00d6 00       		.byte	0
 3713 00d7 13       		.uleb128 0x13
 3714 00d8 0D       		.uleb128 0xd
 3715 00d9 00       		.byte	0
 3716 00da 03       		.uleb128 0x3
 3717 00db 0E       		.uleb128 0xe
 3718 00dc 3A       		.uleb128 0x3a
 3719 00dd 0B       		.uleb128 0xb
 3720 00de 3B       		.uleb128 0x3b
 3721 00df 0B       		.uleb128 0xb
 3722 00e0 49       		.uleb128 0x49
 3723 00e1 13       		.uleb128 0x13
 3724 00e2 00       		.byte	0
 3725 00e3 00       		.byte	0
 3726 00e4 14       		.uleb128 0x14
 3727 00e5 0D       		.uleb128 0xd
 3728 00e6 00       		.byte	0
 3729 00e7 49       		.uleb128 0x49
 3730 00e8 13       		.uleb128 0x13
 3731 00e9 38       		.uleb128 0x38
 3732 00ea 0B       		.uleb128 0xb
 3733 00eb 00       		.byte	0
 3734 00ec 00       		.byte	0
 3735 00ed 15       		.uleb128 0x15
 3736 00ee 0D       		.uleb128 0xd
 3737 00ef 00       		.byte	0
ARM GAS  /var/folders/f9/8bk2lnw15zn4cbgn6wrnb4lm0000gn/T//ccyV4EJ6.s 			page 90


 3738 00f0 03       		.uleb128 0x3
 3739 00f1 08       		.uleb128 0x8
 3740 00f2 3A       		.uleb128 0x3a
 3741 00f3 0B       		.uleb128 0xb
 3742 00f4 3B       		.uleb128 0x3b
 3743 00f5 0B       		.uleb128 0xb
 3744 00f6 49       		.uleb128 0x49
 3745 00f7 13       		.uleb128 0x13
 3746 00f8 38       		.uleb128 0x38
 3747 00f9 0B       		.uleb128 0xb
 3748 00fa 00       		.byte	0
 3749 00fb 00       		.byte	0
 3750 00fc 16       		.uleb128 0x16
 3751 00fd 0F       		.uleb128 0xf
 3752 00fe 00       		.byte	0
 3753 00ff 0B       		.uleb128 0xb
 3754 0100 0B       		.uleb128 0xb
 3755 0101 49       		.uleb128 0x49
 3756 0102 13       		.uleb128 0x13
 3757 0103 00       		.byte	0
 3758 0104 00       		.byte	0
 3759 0105 17       		.uleb128 0x17
 3760 0106 2E       		.uleb128 0x2e
 3761 0107 01       		.byte	0x1
 3762 0108 03       		.uleb128 0x3
 3763 0109 0E       		.uleb128 0xe
 3764 010a 3A       		.uleb128 0x3a
 3765 010b 0B       		.uleb128 0xb
 3766 010c 3B       		.uleb128 0x3b
 3767 010d 05       		.uleb128 0x5
 3768 010e 27       		.uleb128 0x27
 3769 010f 19       		.uleb128 0x19
 3770 0110 20       		.uleb128 0x20
 3771 0111 0B       		.uleb128 0xb
 3772 0112 01       		.uleb128 0x1
 3773 0113 13       		.uleb128 0x13
 3774 0114 00       		.byte	0
 3775 0115 00       		.byte	0
 3776 0116 18       		.uleb128 0x18
 3777 0117 05       		.uleb128 0x5
 3778 0118 00       		.byte	0
 3779 0119 03       		.uleb128 0x3
 3780 011a 08       		.uleb128 0x8
 3781 011b 3A       		.uleb128 0x3a
 3782 011c 0B       		.uleb128 0xb
 3783 011d 3B       		.uleb128 0x3b
 3784 011e 05       		.uleb128 0x5
 3785 011f 49       		.uleb128 0x49
 3786 0120 13       		.uleb128 0x13
 3787 0121 00       		.byte	0
 3788 0122 00       		.byte	0
 3789 0123 19       		.uleb128 0x19
 3790 0124 05       		.uleb128 0x5
 3791 0125 00       		.byte	0
 3792 0126 03       		.uleb128 0x3
 3793 0127 0E       		.uleb128 0xe
 3794 0128 3A       		.uleb128 0x3a
ARM GAS  /var/folders/f9/8bk2lnw15zn4cbgn6wrnb4lm0000gn/T//ccyV4EJ6.s 			page 91


 3795 0129 0B       		.uleb128 0xb
 3796 012a 3B       		.uleb128 0x3b
 3797 012b 05       		.uleb128 0x5
 3798 012c 49       		.uleb128 0x49
 3799 012d 13       		.uleb128 0x13
 3800 012e 00       		.byte	0
 3801 012f 00       		.byte	0
 3802 0130 1A       		.uleb128 0x1a
 3803 0131 2E       		.uleb128 0x2e
 3804 0132 01       		.byte	0x1
 3805 0133 03       		.uleb128 0x3
 3806 0134 0E       		.uleb128 0xe
 3807 0135 3A       		.uleb128 0x3a
 3808 0136 0B       		.uleb128 0xb
 3809 0137 3B       		.uleb128 0x3b
 3810 0138 05       		.uleb128 0x5
 3811 0139 27       		.uleb128 0x27
 3812 013a 19       		.uleb128 0x19
 3813 013b 49       		.uleb128 0x49
 3814 013c 13       		.uleb128 0x13
 3815 013d 20       		.uleb128 0x20
 3816 013e 0B       		.uleb128 0xb
 3817 013f 01       		.uleb128 0x1
 3818 0140 13       		.uleb128 0x13
 3819 0141 00       		.byte	0
 3820 0142 00       		.byte	0
 3821 0143 1B       		.uleb128 0x1b
 3822 0144 2E       		.uleb128 0x2e
 3823 0145 01       		.byte	0x1
 3824 0146 3F       		.uleb128 0x3f
 3825 0147 19       		.uleb128 0x19
 3826 0148 03       		.uleb128 0x3
 3827 0149 0E       		.uleb128 0xe
 3828 014a 3A       		.uleb128 0x3a
 3829 014b 0B       		.uleb128 0xb
 3830 014c 3B       		.uleb128 0x3b
 3831 014d 0B       		.uleb128 0xb
 3832 014e 27       		.uleb128 0x27
 3833 014f 19       		.uleb128 0x19
 3834 0150 49       		.uleb128 0x49
 3835 0151 13       		.uleb128 0x13
 3836 0152 20       		.uleb128 0x20
 3837 0153 0B       		.uleb128 0xb
 3838 0154 01       		.uleb128 0x1
 3839 0155 13       		.uleb128 0x13
 3840 0156 00       		.byte	0
 3841 0157 00       		.byte	0
 3842 0158 1C       		.uleb128 0x1c
 3843 0159 05       		.uleb128 0x5
 3844 015a 00       		.byte	0
 3845 015b 03       		.uleb128 0x3
 3846 015c 0E       		.uleb128 0xe
 3847 015d 3A       		.uleb128 0x3a
 3848 015e 0B       		.uleb128 0xb
 3849 015f 3B       		.uleb128 0x3b
 3850 0160 0B       		.uleb128 0xb
 3851 0161 49       		.uleb128 0x49
ARM GAS  /var/folders/f9/8bk2lnw15zn4cbgn6wrnb4lm0000gn/T//ccyV4EJ6.s 			page 92


 3852 0162 13       		.uleb128 0x13
 3853 0163 00       		.byte	0
 3854 0164 00       		.byte	0
 3855 0165 1D       		.uleb128 0x1d
 3856 0166 34       		.uleb128 0x34
 3857 0167 00       		.byte	0
 3858 0168 03       		.uleb128 0x3
 3859 0169 0E       		.uleb128 0xe
 3860 016a 3A       		.uleb128 0x3a
 3861 016b 0B       		.uleb128 0xb
 3862 016c 3B       		.uleb128 0x3b
 3863 016d 0B       		.uleb128 0xb
 3864 016e 49       		.uleb128 0x49
 3865 016f 13       		.uleb128 0x13
 3866 0170 00       		.byte	0
 3867 0171 00       		.byte	0
 3868 0172 1E       		.uleb128 0x1e
 3869 0173 34       		.uleb128 0x34
 3870 0174 00       		.byte	0
 3871 0175 03       		.uleb128 0x3
 3872 0176 08       		.uleb128 0x8
 3873 0177 3A       		.uleb128 0x3a
 3874 0178 0B       		.uleb128 0xb
 3875 0179 3B       		.uleb128 0x3b
 3876 017a 0B       		.uleb128 0xb
 3877 017b 49       		.uleb128 0x49
 3878 017c 13       		.uleb128 0x13
 3879 017d 00       		.byte	0
 3880 017e 00       		.byte	0
 3881 017f 1F       		.uleb128 0x1f
 3882 0180 26       		.uleb128 0x26
 3883 0181 00       		.byte	0
 3884 0182 00       		.byte	0
 3885 0183 00       		.byte	0
 3886 0184 20       		.uleb128 0x20
 3887 0185 2E       		.uleb128 0x2e
 3888 0186 01       		.byte	0x1
 3889 0187 03       		.uleb128 0x3
 3890 0188 0E       		.uleb128 0xe
 3891 0189 3A       		.uleb128 0x3a
 3892 018a 0B       		.uleb128 0xb
 3893 018b 3B       		.uleb128 0x3b
 3894 018c 0B       		.uleb128 0xb
 3895 018d 27       		.uleb128 0x27
 3896 018e 19       		.uleb128 0x19
 3897 018f 49       		.uleb128 0x49
 3898 0190 13       		.uleb128 0x13
 3899 0191 20       		.uleb128 0x20
 3900 0192 0B       		.uleb128 0xb
 3901 0193 01       		.uleb128 0x1
 3902 0194 13       		.uleb128 0x13
 3903 0195 00       		.byte	0
 3904 0196 00       		.byte	0
 3905 0197 21       		.uleb128 0x21
 3906 0198 2E       		.uleb128 0x2e
 3907 0199 01       		.byte	0x1
 3908 019a 3F       		.uleb128 0x3f
ARM GAS  /var/folders/f9/8bk2lnw15zn4cbgn6wrnb4lm0000gn/T//ccyV4EJ6.s 			page 93


 3909 019b 19       		.uleb128 0x19
 3910 019c 03       		.uleb128 0x3
 3911 019d 0E       		.uleb128 0xe
 3912 019e 3A       		.uleb128 0x3a
 3913 019f 0B       		.uleb128 0xb
 3914 01a0 3B       		.uleb128 0x3b
 3915 01a1 0B       		.uleb128 0xb
 3916 01a2 27       		.uleb128 0x27
 3917 01a3 19       		.uleb128 0x19
 3918 01a4 20       		.uleb128 0x20
 3919 01a5 0B       		.uleb128 0xb
 3920 01a6 01       		.uleb128 0x1
 3921 01a7 13       		.uleb128 0x13
 3922 01a8 00       		.byte	0
 3923 01a9 00       		.byte	0
 3924 01aa 22       		.uleb128 0x22
 3925 01ab 05       		.uleb128 0x5
 3926 01ac 00       		.byte	0
 3927 01ad 03       		.uleb128 0x3
 3928 01ae 08       		.uleb128 0x8
 3929 01af 3A       		.uleb128 0x3a
 3930 01b0 0B       		.uleb128 0xb
 3931 01b1 3B       		.uleb128 0x3b
 3932 01b2 0B       		.uleb128 0xb
 3933 01b3 49       		.uleb128 0x49
 3934 01b4 13       		.uleb128 0x13
 3935 01b5 00       		.byte	0
 3936 01b6 00       		.byte	0
 3937 01b7 23       		.uleb128 0x23
 3938 01b8 0B       		.uleb128 0xb
 3939 01b9 01       		.byte	0x1
 3940 01ba 00       		.byte	0
 3941 01bb 00       		.byte	0
 3942 01bc 24       		.uleb128 0x24
 3943 01bd 2E       		.uleb128 0x2e
 3944 01be 01       		.byte	0x1
 3945 01bf 3F       		.uleb128 0x3f
 3946 01c0 19       		.uleb128 0x19
 3947 01c1 03       		.uleb128 0x3
 3948 01c2 0E       		.uleb128 0xe
 3949 01c3 3A       		.uleb128 0x3a
 3950 01c4 0B       		.uleb128 0xb
 3951 01c5 3B       		.uleb128 0x3b
 3952 01c6 0B       		.uleb128 0xb
 3953 01c7 27       		.uleb128 0x27
 3954 01c8 19       		.uleb128 0x19
 3955 01c9 11       		.uleb128 0x11
 3956 01ca 01       		.uleb128 0x1
 3957 01cb 12       		.uleb128 0x12
 3958 01cc 06       		.uleb128 0x6
 3959 01cd 40       		.uleb128 0x40
 3960 01ce 18       		.uleb128 0x18
 3961 01cf 9742     		.uleb128 0x2117
 3962 01d1 19       		.uleb128 0x19
 3963 01d2 01       		.uleb128 0x1
 3964 01d3 13       		.uleb128 0x13
 3965 01d4 00       		.byte	0
ARM GAS  /var/folders/f9/8bk2lnw15zn4cbgn6wrnb4lm0000gn/T//ccyV4EJ6.s 			page 94


 3966 01d5 00       		.byte	0
 3967 01d6 25       		.uleb128 0x25
 3968 01d7 05       		.uleb128 0x5
 3969 01d8 00       		.byte	0
 3970 01d9 03       		.uleb128 0x3
 3971 01da 0E       		.uleb128 0xe
 3972 01db 3A       		.uleb128 0x3a
 3973 01dc 0B       		.uleb128 0xb
 3974 01dd 3B       		.uleb128 0x3b
 3975 01de 0B       		.uleb128 0xb
 3976 01df 49       		.uleb128 0x49
 3977 01e0 13       		.uleb128 0x13
 3978 01e1 02       		.uleb128 0x2
 3979 01e2 18       		.uleb128 0x18
 3980 01e3 00       		.byte	0
 3981 01e4 00       		.byte	0
 3982 01e5 26       		.uleb128 0x26
 3983 01e6 1D       		.uleb128 0x1d
 3984 01e7 01       		.byte	0x1
 3985 01e8 31       		.uleb128 0x31
 3986 01e9 13       		.uleb128 0x13
 3987 01ea 52       		.uleb128 0x52
 3988 01eb 01       		.uleb128 0x1
 3989 01ec 55       		.uleb128 0x55
 3990 01ed 17       		.uleb128 0x17
 3991 01ee 58       		.uleb128 0x58
 3992 01ef 0B       		.uleb128 0xb
 3993 01f0 59       		.uleb128 0x59
 3994 01f1 0B       		.uleb128 0xb
 3995 01f2 01       		.uleb128 0x1
 3996 01f3 13       		.uleb128 0x13
 3997 01f4 00       		.byte	0
 3998 01f5 00       		.byte	0
 3999 01f6 27       		.uleb128 0x27
 4000 01f7 05       		.uleb128 0x5
 4001 01f8 00       		.byte	0
 4002 01f9 31       		.uleb128 0x31
 4003 01fa 13       		.uleb128 0x13
 4004 01fb 1C       		.uleb128 0x1c
 4005 01fc 0B       		.uleb128 0xb
 4006 01fd 00       		.byte	0
 4007 01fe 00       		.byte	0
 4008 01ff 28       		.uleb128 0x28
 4009 0200 1D       		.uleb128 0x1d
 4010 0201 01       		.byte	0x1
 4011 0202 31       		.uleb128 0x31
 4012 0203 13       		.uleb128 0x13
 4013 0204 11       		.uleb128 0x11
 4014 0205 01       		.uleb128 0x1
 4015 0206 12       		.uleb128 0x12
 4016 0207 06       		.uleb128 0x6
 4017 0208 58       		.uleb128 0x58
 4018 0209 0B       		.uleb128 0xb
 4019 020a 59       		.uleb128 0x59
 4020 020b 0B       		.uleb128 0xb
 4021 020c 01       		.uleb128 0x1
 4022 020d 13       		.uleb128 0x13
ARM GAS  /var/folders/f9/8bk2lnw15zn4cbgn6wrnb4lm0000gn/T//ccyV4EJ6.s 			page 95


 4023 020e 00       		.byte	0
 4024 020f 00       		.byte	0
 4025 0210 29       		.uleb128 0x29
 4026 0211 05       		.uleb128 0x5
 4027 0212 00       		.byte	0
 4028 0213 31       		.uleb128 0x31
 4029 0214 13       		.uleb128 0x13
 4030 0215 02       		.uleb128 0x2
 4031 0216 18       		.uleb128 0x18
 4032 0217 00       		.byte	0
 4033 0218 00       		.byte	0
 4034 0219 2A       		.uleb128 0x2a
 4035 021a 1D       		.uleb128 0x1d
 4036 021b 01       		.byte	0x1
 4037 021c 31       		.uleb128 0x31
 4038 021d 13       		.uleb128 0x13
 4039 021e 11       		.uleb128 0x11
 4040 021f 01       		.uleb128 0x1
 4041 0220 12       		.uleb128 0x12
 4042 0221 06       		.uleb128 0x6
 4043 0222 58       		.uleb128 0x58
 4044 0223 0B       		.uleb128 0xb
 4045 0224 59       		.uleb128 0x59
 4046 0225 0B       		.uleb128 0xb
 4047 0226 00       		.byte	0
 4048 0227 00       		.byte	0
 4049 0228 2B       		.uleb128 0x2b
 4050 0229 05       		.uleb128 0x5
 4051 022a 00       		.byte	0
 4052 022b 03       		.uleb128 0x3
 4053 022c 0E       		.uleb128 0xe
 4054 022d 3A       		.uleb128 0x3a
 4055 022e 0B       		.uleb128 0xb
 4056 022f 3B       		.uleb128 0x3b
 4057 0230 0B       		.uleb128 0xb
 4058 0231 49       		.uleb128 0x49
 4059 0232 13       		.uleb128 0x13
 4060 0233 02       		.uleb128 0x2
 4061 0234 17       		.uleb128 0x17
 4062 0235 00       		.byte	0
 4063 0236 00       		.byte	0
 4064 0237 2C       		.uleb128 0x2c
 4065 0238 1D       		.uleb128 0x1d
 4066 0239 01       		.byte	0x1
 4067 023a 31       		.uleb128 0x31
 4068 023b 13       		.uleb128 0x13
 4069 023c 52       		.uleb128 0x52
 4070 023d 01       		.uleb128 0x1
 4071 023e 55       		.uleb128 0x55
 4072 023f 17       		.uleb128 0x17
 4073 0240 58       		.uleb128 0x58
 4074 0241 0B       		.uleb128 0xb
 4075 0242 59       		.uleb128 0x59
 4076 0243 0B       		.uleb128 0xb
 4077 0244 00       		.byte	0
 4078 0245 00       		.byte	0
 4079 0246 2D       		.uleb128 0x2d
ARM GAS  /var/folders/f9/8bk2lnw15zn4cbgn6wrnb4lm0000gn/T//ccyV4EJ6.s 			page 96


 4080 0247 2E       		.uleb128 0x2e
 4081 0248 01       		.byte	0x1
 4082 0249 31       		.uleb128 0x31
 4083 024a 13       		.uleb128 0x13
 4084 024b 11       		.uleb128 0x11
 4085 024c 01       		.uleb128 0x1
 4086 024d 12       		.uleb128 0x12
 4087 024e 06       		.uleb128 0x6
 4088 024f 40       		.uleb128 0x40
 4089 0250 18       		.uleb128 0x18
 4090 0251 9742     		.uleb128 0x2117
 4091 0253 19       		.uleb128 0x19
 4092 0254 01       		.uleb128 0x1
 4093 0255 13       		.uleb128 0x13
 4094 0256 00       		.byte	0
 4095 0257 00       		.byte	0
 4096 0258 2E       		.uleb128 0x2e
 4097 0259 05       		.uleb128 0x5
 4098 025a 00       		.byte	0
 4099 025b 31       		.uleb128 0x31
 4100 025c 13       		.uleb128 0x13
 4101 025d 02       		.uleb128 0x2
 4102 025e 17       		.uleb128 0x17
 4103 025f 00       		.byte	0
 4104 0260 00       		.byte	0
 4105 0261 2F       		.uleb128 0x2f
 4106 0262 34       		.uleb128 0x34
 4107 0263 00       		.byte	0
 4108 0264 31       		.uleb128 0x31
 4109 0265 13       		.uleb128 0x13
 4110 0266 02       		.uleb128 0x2
 4111 0267 17       		.uleb128 0x17
 4112 0268 00       		.byte	0
 4113 0269 00       		.byte	0
 4114 026a 30       		.uleb128 0x30
 4115 026b 2E       		.uleb128 0x2e
 4116 026c 01       		.byte	0x1
 4117 026d 3F       		.uleb128 0x3f
 4118 026e 19       		.uleb128 0x19
 4119 026f 03       		.uleb128 0x3
 4120 0270 0E       		.uleb128 0xe
 4121 0271 3A       		.uleb128 0x3a
 4122 0272 0B       		.uleb128 0xb
 4123 0273 3B       		.uleb128 0x3b
 4124 0274 0B       		.uleb128 0xb
 4125 0275 27       		.uleb128 0x27
 4126 0276 19       		.uleb128 0x19
 4127 0277 49       		.uleb128 0x49
 4128 0278 13       		.uleb128 0x13
 4129 0279 11       		.uleb128 0x11
 4130 027a 01       		.uleb128 0x1
 4131 027b 12       		.uleb128 0x12
 4132 027c 06       		.uleb128 0x6
 4133 027d 40       		.uleb128 0x40
 4134 027e 18       		.uleb128 0x18
 4135 027f 9742     		.uleb128 0x2117
 4136 0281 19       		.uleb128 0x19
ARM GAS  /var/folders/f9/8bk2lnw15zn4cbgn6wrnb4lm0000gn/T//ccyV4EJ6.s 			page 97


 4137 0282 01       		.uleb128 0x1
 4138 0283 13       		.uleb128 0x13
 4139 0284 00       		.byte	0
 4140 0285 00       		.byte	0
 4141 0286 31       		.uleb128 0x31
 4142 0287 34       		.uleb128 0x34
 4143 0288 00       		.byte	0
 4144 0289 03       		.uleb128 0x3
 4145 028a 0E       		.uleb128 0xe
 4146 028b 3A       		.uleb128 0x3a
 4147 028c 0B       		.uleb128 0xb
 4148 028d 3B       		.uleb128 0x3b
 4149 028e 0B       		.uleb128 0xb
 4150 028f 49       		.uleb128 0x49
 4151 0290 13       		.uleb128 0x13
 4152 0291 02       		.uleb128 0x2
 4153 0292 18       		.uleb128 0x18
 4154 0293 00       		.byte	0
 4155 0294 00       		.byte	0
 4156 0295 32       		.uleb128 0x32
 4157 0296 34       		.uleb128 0x34
 4158 0297 00       		.byte	0
 4159 0298 03       		.uleb128 0x3
 4160 0299 0E       		.uleb128 0xe
 4161 029a 3A       		.uleb128 0x3a
 4162 029b 0B       		.uleb128 0xb
 4163 029c 3B       		.uleb128 0x3b
 4164 029d 0B       		.uleb128 0xb
 4165 029e 49       		.uleb128 0x49
 4166 029f 13       		.uleb128 0x13
 4167 02a0 02       		.uleb128 0x2
 4168 02a1 17       		.uleb128 0x17
 4169 02a2 00       		.byte	0
 4170 02a3 00       		.byte	0
 4171 02a4 33       		.uleb128 0x33
 4172 02a5 34       		.uleb128 0x34
 4173 02a6 00       		.byte	0
 4174 02a7 03       		.uleb128 0x3
 4175 02a8 08       		.uleb128 0x8
 4176 02a9 3A       		.uleb128 0x3a
 4177 02aa 0B       		.uleb128 0xb
 4178 02ab 3B       		.uleb128 0x3b
 4179 02ac 0B       		.uleb128 0xb
 4180 02ad 49       		.uleb128 0x49
 4181 02ae 13       		.uleb128 0x13
 4182 02af 02       		.uleb128 0x2
 4183 02b0 18       		.uleb128 0x18
 4184 02b1 00       		.byte	0
 4185 02b2 00       		.byte	0
 4186 02b3 34       		.uleb128 0x34
 4187 02b4 05       		.uleb128 0x5
 4188 02b5 00       		.byte	0
 4189 02b6 31       		.uleb128 0x31
 4190 02b7 13       		.uleb128 0x13
 4191 02b8 00       		.byte	0
 4192 02b9 00       		.byte	0
 4193 02ba 35       		.uleb128 0x35
ARM GAS  /var/folders/f9/8bk2lnw15zn4cbgn6wrnb4lm0000gn/T//ccyV4EJ6.s 			page 98


 4194 02bb 0B       		.uleb128 0xb
 4195 02bc 01       		.byte	0x1
 4196 02bd 55       		.uleb128 0x55
 4197 02be 17       		.uleb128 0x17
 4198 02bf 00       		.byte	0
 4199 02c0 00       		.byte	0
 4200 02c1 36       		.uleb128 0x36
 4201 02c2 2E       		.uleb128 0x2e
 4202 02c3 01       		.byte	0x1
 4203 02c4 3F       		.uleb128 0x3f
 4204 02c5 19       		.uleb128 0x19
 4205 02c6 03       		.uleb128 0x3
 4206 02c7 0E       		.uleb128 0xe
 4207 02c8 3A       		.uleb128 0x3a
 4208 02c9 0B       		.uleb128 0xb
 4209 02ca 3B       		.uleb128 0x3b
 4210 02cb 0B       		.uleb128 0xb
 4211 02cc 27       		.uleb128 0x27
 4212 02cd 19       		.uleb128 0x19
 4213 02ce 49       		.uleb128 0x49
 4214 02cf 13       		.uleb128 0x13
 4215 02d0 11       		.uleb128 0x11
 4216 02d1 01       		.uleb128 0x1
 4217 02d2 12       		.uleb128 0x12
 4218 02d3 06       		.uleb128 0x6
 4219 02d4 40       		.uleb128 0x40
 4220 02d5 18       		.uleb128 0x18
 4221 02d6 9642     		.uleb128 0x2116
 4222 02d8 19       		.uleb128 0x19
 4223 02d9 01       		.uleb128 0x1
 4224 02da 13       		.uleb128 0x13
 4225 02db 00       		.byte	0
 4226 02dc 00       		.byte	0
 4227 02dd 37       		.uleb128 0x37
 4228 02de 34       		.uleb128 0x34
 4229 02df 00       		.byte	0
 4230 02e0 03       		.uleb128 0x3
 4231 02e1 08       		.uleb128 0x8
 4232 02e2 3A       		.uleb128 0x3a
 4233 02e3 0B       		.uleb128 0xb
 4234 02e4 3B       		.uleb128 0x3b
 4235 02e5 0B       		.uleb128 0xb
 4236 02e6 49       		.uleb128 0x49
 4237 02e7 13       		.uleb128 0x13
 4238 02e8 02       		.uleb128 0x2
 4239 02e9 17       		.uleb128 0x17
 4240 02ea 00       		.byte	0
 4241 02eb 00       		.byte	0
 4242 02ec 38       		.uleb128 0x38
 4243 02ed 898201   		.uleb128 0x4109
 4244 02f0 00       		.byte	0
 4245 02f1 11       		.uleb128 0x11
 4246 02f2 01       		.uleb128 0x1
 4247 02f3 31       		.uleb128 0x31
 4248 02f4 13       		.uleb128 0x13
 4249 02f5 00       		.byte	0
 4250 02f6 00       		.byte	0
ARM GAS  /var/folders/f9/8bk2lnw15zn4cbgn6wrnb4lm0000gn/T//ccyV4EJ6.s 			page 99


 4251 02f7 39       		.uleb128 0x39
 4252 02f8 0B       		.uleb128 0xb
 4253 02f9 01       		.byte	0x1
 4254 02fa 11       		.uleb128 0x11
 4255 02fb 01       		.uleb128 0x1
 4256 02fc 12       		.uleb128 0x12
 4257 02fd 06       		.uleb128 0x6
 4258 02fe 00       		.byte	0
 4259 02ff 00       		.byte	0
 4260 0300 3A       		.uleb128 0x3a
 4261 0301 34       		.uleb128 0x34
 4262 0302 00       		.byte	0
 4263 0303 31       		.uleb128 0x31
 4264 0304 13       		.uleb128 0x13
 4265 0305 02       		.uleb128 0x2
 4266 0306 18       		.uleb128 0x18
 4267 0307 00       		.byte	0
 4268 0308 00       		.byte	0
 4269 0309 3B       		.uleb128 0x3b
 4270 030a 898201   		.uleb128 0x4109
 4271 030d 01       		.byte	0x1
 4272 030e 11       		.uleb128 0x11
 4273 030f 01       		.uleb128 0x1
 4274 0310 31       		.uleb128 0x31
 4275 0311 13       		.uleb128 0x13
 4276 0312 00       		.byte	0
 4277 0313 00       		.byte	0
 4278 0314 3C       		.uleb128 0x3c
 4279 0315 8A8201   		.uleb128 0x410a
 4280 0318 00       		.byte	0
 4281 0319 02       		.uleb128 0x2
 4282 031a 18       		.uleb128 0x18
 4283 031b 9142     		.uleb128 0x2111
 4284 031d 18       		.uleb128 0x18
 4285 031e 00       		.byte	0
 4286 031f 00       		.byte	0
 4287 0320 3D       		.uleb128 0x3d
 4288 0321 05       		.uleb128 0x5
 4289 0322 00       		.byte	0
 4290 0323 03       		.uleb128 0x3
 4291 0324 08       		.uleb128 0x8
 4292 0325 3A       		.uleb128 0x3a
 4293 0326 0B       		.uleb128 0xb
 4294 0327 3B       		.uleb128 0x3b
 4295 0328 0B       		.uleb128 0xb
 4296 0329 49       		.uleb128 0x49
 4297 032a 13       		.uleb128 0x13
 4298 032b 02       		.uleb128 0x2
 4299 032c 17       		.uleb128 0x17
 4300 032d 00       		.byte	0
 4301 032e 00       		.byte	0
 4302 032f 3E       		.uleb128 0x3e
 4303 0330 898201   		.uleb128 0x4109
 4304 0333 01       		.byte	0x1
 4305 0334 11       		.uleb128 0x11
 4306 0335 01       		.uleb128 0x1
 4307 0336 31       		.uleb128 0x31
ARM GAS  /var/folders/f9/8bk2lnw15zn4cbgn6wrnb4lm0000gn/T//ccyV4EJ6.s 			page 100


 4308 0337 13       		.uleb128 0x13
 4309 0338 01       		.uleb128 0x1
 4310 0339 13       		.uleb128 0x13
 4311 033a 00       		.byte	0
 4312 033b 00       		.byte	0
 4313 033c 3F       		.uleb128 0x3f
 4314 033d 1D       		.uleb128 0x1d
 4315 033e 01       		.byte	0x1
 4316 033f 31       		.uleb128 0x31
 4317 0340 13       		.uleb128 0x13
 4318 0341 11       		.uleb128 0x11
 4319 0342 01       		.uleb128 0x1
 4320 0343 12       		.uleb128 0x12
 4321 0344 06       		.uleb128 0x6
 4322 0345 58       		.uleb128 0x58
 4323 0346 0B       		.uleb128 0xb
 4324 0347 59       		.uleb128 0x59
 4325 0348 05       		.uleb128 0x5
 4326 0349 01       		.uleb128 0x1
 4327 034a 13       		.uleb128 0x13
 4328 034b 00       		.byte	0
 4329 034c 00       		.byte	0
 4330 034d 40       		.uleb128 0x40
 4331 034e 1D       		.uleb128 0x1d
 4332 034f 01       		.byte	0x1
 4333 0350 31       		.uleb128 0x31
 4334 0351 13       		.uleb128 0x13
 4335 0352 52       		.uleb128 0x52
 4336 0353 01       		.uleb128 0x1
 4337 0354 55       		.uleb128 0x55
 4338 0355 17       		.uleb128 0x17
 4339 0356 58       		.uleb128 0x58
 4340 0357 0B       		.uleb128 0xb
 4341 0358 59       		.uleb128 0x59
 4342 0359 05       		.uleb128 0x5
 4343 035a 01       		.uleb128 0x1
 4344 035b 13       		.uleb128 0x13
 4345 035c 00       		.byte	0
 4346 035d 00       		.byte	0
 4347 035e 41       		.uleb128 0x41
 4348 035f 34       		.uleb128 0x34
 4349 0360 00       		.byte	0
 4350 0361 03       		.uleb128 0x3
 4351 0362 0E       		.uleb128 0xe
 4352 0363 3A       		.uleb128 0x3a
 4353 0364 0B       		.uleb128 0xb
 4354 0365 3B       		.uleb128 0x3b
 4355 0366 0B       		.uleb128 0xb
 4356 0367 49       		.uleb128 0x49
 4357 0368 13       		.uleb128 0x13
 4358 0369 3F       		.uleb128 0x3f
 4359 036a 19       		.uleb128 0x19
 4360 036b 3C       		.uleb128 0x3c
 4361 036c 19       		.uleb128 0x19
 4362 036d 00       		.byte	0
 4363 036e 00       		.byte	0
 4364 036f 42       		.uleb128 0x42
ARM GAS  /var/folders/f9/8bk2lnw15zn4cbgn6wrnb4lm0000gn/T//ccyV4EJ6.s 			page 101


 4365 0370 2E       		.uleb128 0x2e
 4366 0371 00       		.byte	0
 4367 0372 3F       		.uleb128 0x3f
 4368 0373 19       		.uleb128 0x19
 4369 0374 03       		.uleb128 0x3
 4370 0375 0E       		.uleb128 0xe
 4371 0376 3A       		.uleb128 0x3a
 4372 0377 0B       		.uleb128 0xb
 4373 0378 3B       		.uleb128 0x3b
 4374 0379 05       		.uleb128 0x5
 4375 037a 27       		.uleb128 0x27
 4376 037b 19       		.uleb128 0x19
 4377 037c 49       		.uleb128 0x49
 4378 037d 13       		.uleb128 0x13
 4379 037e 3C       		.uleb128 0x3c
 4380 037f 19       		.uleb128 0x19
 4381 0380 00       		.byte	0
 4382 0381 00       		.byte	0
 4383 0382 43       		.uleb128 0x43
 4384 0383 2E       		.uleb128 0x2e
 4385 0384 01       		.byte	0x1
 4386 0385 3F       		.uleb128 0x3f
 4387 0386 19       		.uleb128 0x19
 4388 0387 03       		.uleb128 0x3
 4389 0388 0E       		.uleb128 0xe
 4390 0389 3A       		.uleb128 0x3a
 4391 038a 0B       		.uleb128 0xb
 4392 038b 3B       		.uleb128 0x3b
 4393 038c 0B       		.uleb128 0xb
 4394 038d 27       		.uleb128 0x27
 4395 038e 19       		.uleb128 0x19
 4396 038f 49       		.uleb128 0x49
 4397 0390 13       		.uleb128 0x13
 4398 0391 3C       		.uleb128 0x3c
 4399 0392 19       		.uleb128 0x19
 4400 0393 01       		.uleb128 0x1
 4401 0394 13       		.uleb128 0x13
 4402 0395 00       		.byte	0
 4403 0396 00       		.byte	0
 4404 0397 44       		.uleb128 0x44
 4405 0398 05       		.uleb128 0x5
 4406 0399 00       		.byte	0
 4407 039a 49       		.uleb128 0x49
 4408 039b 13       		.uleb128 0x13
 4409 039c 00       		.byte	0
 4410 039d 00       		.byte	0
 4411 039e 45       		.uleb128 0x45
 4412 039f 2E       		.uleb128 0x2e
 4413 03a0 01       		.byte	0x1
 4414 03a1 3F       		.uleb128 0x3f
 4415 03a2 19       		.uleb128 0x19
 4416 03a3 03       		.uleb128 0x3
 4417 03a4 0E       		.uleb128 0xe
 4418 03a5 3A       		.uleb128 0x3a
 4419 03a6 0B       		.uleb128 0xb
 4420 03a7 3B       		.uleb128 0x3b
 4421 03a8 0B       		.uleb128 0xb
ARM GAS  /var/folders/f9/8bk2lnw15zn4cbgn6wrnb4lm0000gn/T//ccyV4EJ6.s 			page 102


 4422 03a9 27       		.uleb128 0x27
 4423 03aa 19       		.uleb128 0x19
 4424 03ab 49       		.uleb128 0x49
 4425 03ac 13       		.uleb128 0x13
 4426 03ad 3C       		.uleb128 0x3c
 4427 03ae 19       		.uleb128 0x19
 4428 03af 00       		.byte	0
 4429 03b0 00       		.byte	0
 4430 03b1 00       		.byte	0
 4431              		.section	.debug_loc,"",%progbits
 4432              	.Ldebug_loc0:
 4433              	.LLST0:
 4434 0000 00000000 		.4byte	.LVL4
 4435 0004 06000000 		.4byte	.LVL5
 4436 0008 0100     		.2byte	0x1
 4437 000a 50       		.byte	0x50
 4438 000b 06000000 		.4byte	.LVL5
 4439 000f 18000000 		.4byte	.LFE199
 4440 0013 0400     		.2byte	0x4
 4441 0015 F3       		.byte	0xf3
 4442 0016 01       		.uleb128 0x1
 4443 0017 50       		.byte	0x50
 4444 0018 9F       		.byte	0x9f
 4445 0019 00000000 		.4byte	0
 4446 001d 00000000 		.4byte	0
 4447              	.LLST1:
 4448 0021 00000000 		.4byte	.LVL6
 4449 0025 24000000 		.4byte	.LVL14
 4450 0029 0100     		.2byte	0x1
 4451 002b 50       		.byte	0x50
 4452 002c 24000000 		.4byte	.LVL14
 4453 0030 26000000 		.4byte	.LVL15
 4454 0034 0400     		.2byte	0x4
 4455 0036 F3       		.byte	0xf3
 4456 0037 01       		.uleb128 0x1
 4457 0038 50       		.byte	0x50
 4458 0039 9F       		.byte	0x9f
 4459 003a 26000000 		.4byte	.LVL15
 4460 003e 2A000000 		.4byte	.LFE200
 4461 0042 0100     		.2byte	0x1
 4462 0044 50       		.byte	0x50
 4463 0045 00000000 		.4byte	0
 4464 0049 00000000 		.4byte	0
 4465              	.LLST2:
 4466 004d 00000000 		.4byte	.LVL6
 4467 0051 12000000 		.4byte	.LVL8
 4468 0055 0200     		.2byte	0x2
 4469 0057 30       		.byte	0x30
 4470 0058 9F       		.byte	0x9f
 4471 0059 12000000 		.4byte	.LVL8
 4472 005d 1C000000 		.4byte	.LVL11
 4473 0061 0100     		.2byte	0x1
 4474 0063 53       		.byte	0x53
 4475 0064 1C000000 		.4byte	.LVL11
 4476 0068 1E000000 		.4byte	.LVL12
 4477 006c 0300     		.2byte	0x3
 4478 006e 73       		.byte	0x73
ARM GAS  /var/folders/f9/8bk2lnw15zn4cbgn6wrnb4lm0000gn/T//ccyV4EJ6.s 			page 103


 4479 006f 7F       		.sleb128 -1
 4480 0070 9F       		.byte	0x9f
 4481 0071 1E000000 		.4byte	.LVL12
 4482 0075 22000000 		.4byte	.LVL13
 4483 0079 0100     		.2byte	0x1
 4484 007b 53       		.byte	0x53
 4485 007c 26000000 		.4byte	.LVL15
 4486 0080 2A000000 		.4byte	.LFE200
 4487 0084 0200     		.2byte	0x2
 4488 0086 30       		.byte	0x30
 4489 0087 9F       		.byte	0x9f
 4490 0088 00000000 		.4byte	0
 4491 008c 00000000 		.4byte	0
 4492              	.LLST3:
 4493 0090 00000000 		.4byte	.LVL6
 4494 0094 12000000 		.4byte	.LVL8
 4495 0098 0100     		.2byte	0x1
 4496 009a 51       		.byte	0x51
 4497 009b 18000000 		.4byte	.LVL10
 4498 009f 1C000000 		.4byte	.LVL11
 4499 00a3 0600     		.2byte	0x6
 4500 00a5 71       		.byte	0x71
 4501 00a6 00       		.sleb128 0
 4502 00a7 73       		.byte	0x73
 4503 00a8 00       		.sleb128 0
 4504 00a9 22       		.byte	0x22
 4505 00aa 9F       		.byte	0x9f
 4506 00ab 1C000000 		.4byte	.LVL11
 4507 00af 1E000000 		.4byte	.LVL12
 4508 00b3 0800     		.2byte	0x8
 4509 00b5 71       		.byte	0x71
 4510 00b6 00       		.sleb128 0
 4511 00b7 73       		.byte	0x73
 4512 00b8 00       		.sleb128 0
 4513 00b9 22       		.byte	0x22
 4514 00ba 31       		.byte	0x31
 4515 00bb 1C       		.byte	0x1c
 4516 00bc 9F       		.byte	0x9f
 4517 00bd 26000000 		.4byte	.LVL15
 4518 00c1 2A000000 		.4byte	.LFE200
 4519 00c5 0100     		.2byte	0x1
 4520 00c7 51       		.byte	0x51
 4521 00c8 00000000 		.4byte	0
 4522 00cc 00000000 		.4byte	0
 4523              	.LLST4:
 4524 00d0 06000000 		.4byte	.LVL7
 4525 00d4 22000000 		.4byte	.LVL13
 4526 00d8 0100     		.2byte	0x1
 4527 00da 50       		.byte	0x50
 4528 00db 00000000 		.4byte	0
 4529 00df 00000000 		.4byte	0
 4530              	.LLST5:
 4531 00e3 12000000 		.4byte	.LVL8
 4532 00e7 14000000 		.4byte	.LVL9
 4533 00eb 0100     		.2byte	0x1
 4534 00ed 54       		.byte	0x54
 4535 00ee 14000000 		.4byte	.LVL9
ARM GAS  /var/folders/f9/8bk2lnw15zn4cbgn6wrnb4lm0000gn/T//ccyV4EJ6.s 			page 104


 4536 00f2 18000000 		.4byte	.LVL10
 4537 00f6 0400     		.2byte	0x4
 4538 00f8 70       		.byte	0x70
 4539 00f9 00       		.sleb128 0
 4540 00fa 06       		.byte	0x6
 4541 00fb 9F       		.byte	0x9f
 4542 00fc 18000000 		.4byte	.LVL10
 4543 0100 1C000000 		.4byte	.LVL11
 4544 0104 0500     		.2byte	0x5
 4545 0106 71       		.byte	0x71
 4546 0107 00       		.sleb128 0
 4547 0108 73       		.byte	0x73
 4548 0109 00       		.sleb128 0
 4549 010a 22       		.byte	0x22
 4550 010b 1C000000 		.4byte	.LVL11
 4551 010f 1E000000 		.4byte	.LVL12
 4552 0113 0700     		.2byte	0x7
 4553 0115 71       		.byte	0x71
 4554 0116 00       		.sleb128 0
 4555 0117 73       		.byte	0x73
 4556 0118 00       		.sleb128 0
 4557 0119 22       		.byte	0x22
 4558 011a 31       		.byte	0x31
 4559 011b 1C       		.byte	0x1c
 4560 011c 1E000000 		.4byte	.LVL12
 4561 0120 22000000 		.4byte	.LVL13
 4562 0124 0100     		.2byte	0x1
 4563 0126 54       		.byte	0x54
 4564 0127 00000000 		.4byte	0
 4565 012b 00000000 		.4byte	0
 4566              	.LLST6:
 4567 012f 12000000 		.4byte	.LVL8
 4568 0133 22000000 		.4byte	.LVL13
 4569 0137 0100     		.2byte	0x1
 4570 0139 50       		.byte	0x50
 4571 013a 00000000 		.4byte	0
 4572 013e 00000000 		.4byte	0
 4573              	.LLST7:
 4574 0142 00000000 		.4byte	.LVL16
 4575 0146 28000000 		.4byte	.LVL27
 4576 014a 0100     		.2byte	0x1
 4577 014c 50       		.byte	0x50
 4578 014d 28000000 		.4byte	.LVL27
 4579 0151 2A000000 		.4byte	.LFE201
 4580 0155 0400     		.2byte	0x4
 4581 0157 F3       		.byte	0xf3
 4582 0158 01       		.uleb128 0x1
 4583 0159 50       		.byte	0x50
 4584 015a 9F       		.byte	0x9f
 4585 015b 00000000 		.4byte	0
 4586 015f 00000000 		.4byte	0
 4587              	.LLST8:
 4588 0163 00000000 		.4byte	.LVL16
 4589 0167 0A000000 		.4byte	.LVL17
 4590 016b 0100     		.2byte	0x1
 4591 016d 51       		.byte	0x51
 4592 016e 0A000000 		.4byte	.LVL17
ARM GAS  /var/folders/f9/8bk2lnw15zn4cbgn6wrnb4lm0000gn/T//ccyV4EJ6.s 			page 105


 4593 0172 2A000000 		.4byte	.LFE201
 4594 0176 0400     		.2byte	0x4
 4595 0178 F3       		.byte	0xf3
 4596 0179 01       		.uleb128 0x1
 4597 017a 51       		.byte	0x51
 4598 017b 9F       		.byte	0x9f
 4599 017c 00000000 		.4byte	0
 4600 0180 00000000 		.4byte	0
 4601              	.LLST9:
 4602 0184 00000000 		.4byte	.LVL16
 4603 0188 1E000000 		.4byte	.LVL23
 4604 018c 0100     		.2byte	0x1
 4605 018e 52       		.byte	0x52
 4606 018f 1E000000 		.4byte	.LVL23
 4607 0193 2A000000 		.4byte	.LFE201
 4608 0197 0100     		.2byte	0x1
 4609 0199 52       		.byte	0x52
 4610 019a 00000000 		.4byte	0
 4611 019e 00000000 		.4byte	0
 4612              	.LLST10:
 4613 01a2 00000000 		.4byte	.LVL16
 4614 01a6 0A000000 		.4byte	.LVL17
 4615 01aa 0200     		.2byte	0x2
 4616 01ac 30       		.byte	0x30
 4617 01ad 9F       		.byte	0x9f
 4618 01ae 0A000000 		.4byte	.LVL17
 4619 01b2 26000000 		.4byte	.LVL26
 4620 01b6 0100     		.2byte	0x1
 4621 01b8 56       		.byte	0x56
 4622 01b9 00000000 		.4byte	0
 4623 01bd 00000000 		.4byte	0
 4624              	.LLST11:
 4625 01c1 0A000000 		.4byte	.LVL17
 4626 01c5 0C000000 		.4byte	.LVL18
 4627 01c9 0200     		.2byte	0x2
 4628 01cb 30       		.byte	0x30
 4629 01cc 9F       		.byte	0x9f
 4630 01cd 0C000000 		.4byte	.LVL18
 4631 01d1 16000000 		.4byte	.LVL20
 4632 01d5 0100     		.2byte	0x1
 4633 01d7 53       		.byte	0x53
 4634 01d8 16000000 		.4byte	.LVL20
 4635 01dc 18000000 		.4byte	.LVL21
 4636 01e0 0300     		.2byte	0x3
 4637 01e2 73       		.byte	0x73
 4638 01e3 7F       		.sleb128 -1
 4639 01e4 9F       		.byte	0x9f
 4640 01e5 18000000 		.4byte	.LVL21
 4641 01e9 26000000 		.4byte	.LVL26
 4642 01ed 0100     		.2byte	0x1
 4643 01ef 53       		.byte	0x53
 4644 01f0 00000000 		.4byte	0
 4645 01f4 00000000 		.4byte	0
 4646              	.LLST12:
 4647 01f8 0A000000 		.4byte	.LVL17
 4648 01fc 0C000000 		.4byte	.LVL18
 4649 0200 0100     		.2byte	0x1
ARM GAS  /var/folders/f9/8bk2lnw15zn4cbgn6wrnb4lm0000gn/T//ccyV4EJ6.s 			page 106


 4650 0202 51       		.byte	0x51
 4651 0203 0C000000 		.4byte	.LVL18
 4652 0207 16000000 		.4byte	.LVL20
 4653 020b 0600     		.2byte	0x6
 4654 020d 71       		.byte	0x71
 4655 020e 00       		.sleb128 0
 4656 020f 73       		.byte	0x73
 4657 0210 00       		.sleb128 0
 4658 0211 22       		.byte	0x22
 4659 0212 9F       		.byte	0x9f
 4660 0213 16000000 		.4byte	.LVL20
 4661 0217 18000000 		.4byte	.LVL21
 4662 021b 0800     		.2byte	0x8
 4663 021d 71       		.byte	0x71
 4664 021e 00       		.sleb128 0
 4665 021f 73       		.byte	0x73
 4666 0220 00       		.sleb128 0
 4667 0221 22       		.byte	0x22
 4668 0222 31       		.byte	0x31
 4669 0223 1C       		.byte	0x1c
 4670 0224 9F       		.byte	0x9f
 4671 0225 00000000 		.4byte	0
 4672 0229 00000000 		.4byte	0
 4673              	.LLST13:
 4674 022d 0C000000 		.4byte	.LVL18
 4675 0231 26000000 		.4byte	.LVL26
 4676 0235 0100     		.2byte	0x1
 4677 0237 50       		.byte	0x50
 4678 0238 00000000 		.4byte	0
 4679 023c 00000000 		.4byte	0
 4680              	.LLST14:
 4681 0240 12000000 		.4byte	.LVL19
 4682 0244 16000000 		.4byte	.LVL20
 4683 0248 0500     		.2byte	0x5
 4684 024a 71       		.byte	0x71
 4685 024b 00       		.sleb128 0
 4686 024c 73       		.byte	0x73
 4687 024d 00       		.sleb128 0
 4688 024e 22       		.byte	0x22
 4689 024f 16000000 		.4byte	.LVL20
 4690 0253 18000000 		.4byte	.LVL21
 4691 0257 0700     		.2byte	0x7
 4692 0259 71       		.byte	0x71
 4693 025a 00       		.sleb128 0
 4694 025b 73       		.byte	0x73
 4695 025c 00       		.sleb128 0
 4696 025d 22       		.byte	0x22
 4697 025e 31       		.byte	0x31
 4698 025f 1C       		.byte	0x1c
 4699 0260 18000000 		.4byte	.LVL21
 4700 0264 1C000000 		.4byte	.LVL22
 4701 0268 0100     		.2byte	0x1
 4702 026a 54       		.byte	0x54
 4703 026b 00000000 		.4byte	0
 4704 026f 00000000 		.4byte	0
 4705              	.LLST15:
 4706 0273 12000000 		.4byte	.LVL19
ARM GAS  /var/folders/f9/8bk2lnw15zn4cbgn6wrnb4lm0000gn/T//ccyV4EJ6.s 			page 107


 4707 0277 1C000000 		.4byte	.LVL22
 4708 027b 0100     		.2byte	0x1
 4709 027d 50       		.byte	0x50
 4710 027e 00000000 		.4byte	0
 4711 0282 00000000 		.4byte	0
 4712              	.LLST16:
 4713 0286 00000000 		.4byte	.LVL28
 4714 028a 24000000 		.4byte	.LVL35
 4715 028e 0100     		.2byte	0x1
 4716 0290 50       		.byte	0x50
 4717 0291 24000000 		.4byte	.LVL35
 4718 0295 26000000 		.4byte	.LVL36
 4719 0299 0400     		.2byte	0x4
 4720 029b F3       		.byte	0xf3
 4721 029c 01       		.uleb128 0x1
 4722 029d 50       		.byte	0x50
 4723 029e 9F       		.byte	0x9f
 4724 029f 26000000 		.4byte	.LVL36
 4725 02a3 2A000000 		.4byte	.LFE202
 4726 02a7 0100     		.2byte	0x1
 4727 02a9 50       		.byte	0x50
 4728 02aa 00000000 		.4byte	0
 4729 02ae 00000000 		.4byte	0
 4730              	.LLST17:
 4731 02b2 00000000 		.4byte	.LVL28
 4732 02b6 12000000 		.4byte	.LVL30
 4733 02ba 0200     		.2byte	0x2
 4734 02bc 30       		.byte	0x30
 4735 02bd 9F       		.byte	0x9f
 4736 02be 12000000 		.4byte	.LVL30
 4737 02c2 22000000 		.4byte	.LVL34
 4738 02c6 0100     		.2byte	0x1
 4739 02c8 53       		.byte	0x53
 4740 02c9 26000000 		.4byte	.LVL36
 4741 02cd 2A000000 		.4byte	.LFE202
 4742 02d1 0200     		.2byte	0x2
 4743 02d3 30       		.byte	0x30
 4744 02d4 9F       		.byte	0x9f
 4745 02d5 00000000 		.4byte	0
 4746 02d9 00000000 		.4byte	0
 4747              	.LLST18:
 4748 02dd 00000000 		.4byte	.LVL28
 4749 02e1 12000000 		.4byte	.LVL30
 4750 02e5 0100     		.2byte	0x1
 4751 02e7 51       		.byte	0x51
 4752 02e8 12000000 		.4byte	.LVL30
 4753 02ec 1C000000 		.4byte	.LVL32
 4754 02f0 0600     		.2byte	0x6
 4755 02f2 71       		.byte	0x71
 4756 02f3 00       		.sleb128 0
 4757 02f4 73       		.byte	0x73
 4758 02f5 00       		.sleb128 0
 4759 02f6 22       		.byte	0x22
 4760 02f7 9F       		.byte	0x9f
 4761 02f8 1C000000 		.4byte	.LVL32
 4762 02fc 1E000000 		.4byte	.LVL33
 4763 0300 0800     		.2byte	0x8
ARM GAS  /var/folders/f9/8bk2lnw15zn4cbgn6wrnb4lm0000gn/T//ccyV4EJ6.s 			page 108


 4764 0302 71       		.byte	0x71
 4765 0303 00       		.sleb128 0
 4766 0304 73       		.byte	0x73
 4767 0305 00       		.sleb128 0
 4768 0306 22       		.byte	0x22
 4769 0307 23       		.byte	0x23
 4770 0308 01       		.uleb128 0x1
 4771 0309 9F       		.byte	0x9f
 4772 030a 1E000000 		.4byte	.LVL33
 4773 030e 22000000 		.4byte	.LVL34
 4774 0312 0600     		.2byte	0x6
 4775 0314 71       		.byte	0x71
 4776 0315 00       		.sleb128 0
 4777 0316 73       		.byte	0x73
 4778 0317 00       		.sleb128 0
 4779 0318 22       		.byte	0x22
 4780 0319 9F       		.byte	0x9f
 4781 031a 26000000 		.4byte	.LVL36
 4782 031e 2A000000 		.4byte	.LFE202
 4783 0322 0100     		.2byte	0x1
 4784 0324 51       		.byte	0x51
 4785 0325 00000000 		.4byte	0
 4786 0329 00000000 		.4byte	0
 4787              	.LLST19:
 4788 032d 06000000 		.4byte	.LVL29
 4789 0331 22000000 		.4byte	.LVL34
 4790 0335 0100     		.2byte	0x1
 4791 0337 50       		.byte	0x50
 4792 0338 00000000 		.4byte	0
 4793 033c 00000000 		.4byte	0
 4794              	.LLST20:
 4795 0340 12000000 		.4byte	.LVL30
 4796 0344 22000000 		.4byte	.LVL34
 4797 0348 0100     		.2byte	0x1
 4798 034a 50       		.byte	0x50
 4799 034b 00000000 		.4byte	0
 4800 034f 00000000 		.4byte	0
 4801              	.LLST21:
 4802 0353 00000000 		.4byte	.LVL37
 4803 0357 28000000 		.4byte	.LVL48
 4804 035b 0100     		.2byte	0x1
 4805 035d 50       		.byte	0x50
 4806 035e 28000000 		.4byte	.LVL48
 4807 0362 2A000000 		.4byte	.LFE203
 4808 0366 0400     		.2byte	0x4
 4809 0368 F3       		.byte	0xf3
 4810 0369 01       		.uleb128 0x1
 4811 036a 50       		.byte	0x50
 4812 036b 9F       		.byte	0x9f
 4813 036c 00000000 		.4byte	0
 4814 0370 00000000 		.4byte	0
 4815              	.LLST22:
 4816 0374 00000000 		.4byte	.LVL37
 4817 0378 0A000000 		.4byte	.LVL38
 4818 037c 0100     		.2byte	0x1
 4819 037e 51       		.byte	0x51
 4820 037f 0A000000 		.4byte	.LVL38
ARM GAS  /var/folders/f9/8bk2lnw15zn4cbgn6wrnb4lm0000gn/T//ccyV4EJ6.s 			page 109


 4821 0383 2A000000 		.4byte	.LFE203
 4822 0387 0400     		.2byte	0x4
 4823 0389 F3       		.byte	0xf3
 4824 038a 01       		.uleb128 0x1
 4825 038b 51       		.byte	0x51
 4826 038c 9F       		.byte	0x9f
 4827 038d 00000000 		.4byte	0
 4828 0391 00000000 		.4byte	0
 4829              	.LLST23:
 4830 0395 00000000 		.4byte	.LVL37
 4831 0399 20000000 		.4byte	.LVL45
 4832 039d 0100     		.2byte	0x1
 4833 039f 52       		.byte	0x52
 4834 03a0 20000000 		.4byte	.LVL45
 4835 03a4 2A000000 		.4byte	.LFE203
 4836 03a8 0100     		.2byte	0x1
 4837 03aa 52       		.byte	0x52
 4838 03ab 00000000 		.4byte	0
 4839 03af 00000000 		.4byte	0
 4840              	.LLST24:
 4841 03b3 00000000 		.4byte	.LVL37
 4842 03b7 0A000000 		.4byte	.LVL38
 4843 03bb 0200     		.2byte	0x2
 4844 03bd 30       		.byte	0x30
 4845 03be 9F       		.byte	0x9f
 4846 03bf 0A000000 		.4byte	.LVL38
 4847 03c3 1E000000 		.4byte	.LVL44
 4848 03c7 0100     		.2byte	0x1
 4849 03c9 56       		.byte	0x56
 4850 03ca 20000000 		.4byte	.LVL45
 4851 03ce 26000000 		.4byte	.LVL47
 4852 03d2 0100     		.2byte	0x1
 4853 03d4 56       		.byte	0x56
 4854 03d5 00000000 		.4byte	0
 4855 03d9 00000000 		.4byte	0
 4856              	.LLST25:
 4857 03dd 0A000000 		.4byte	.LVL38
 4858 03e1 0C000000 		.4byte	.LVL39
 4859 03e5 0200     		.2byte	0x2
 4860 03e7 30       		.byte	0x30
 4861 03e8 9F       		.byte	0x9f
 4862 03e9 0C000000 		.4byte	.LVL39
 4863 03ed 26000000 		.4byte	.LVL47
 4864 03f1 0100     		.2byte	0x1
 4865 03f3 53       		.byte	0x53
 4866 03f4 00000000 		.4byte	0
 4867 03f8 00000000 		.4byte	0
 4868              	.LLST26:
 4869 03fc 0A000000 		.4byte	.LVL38
 4870 0400 0C000000 		.4byte	.LVL39
 4871 0404 0100     		.2byte	0x1
 4872 0406 51       		.byte	0x51
 4873 0407 0C000000 		.4byte	.LVL39
 4874 040b 16000000 		.4byte	.LVL41
 4875 040f 0600     		.2byte	0x6
 4876 0411 71       		.byte	0x71
 4877 0412 00       		.sleb128 0
ARM GAS  /var/folders/f9/8bk2lnw15zn4cbgn6wrnb4lm0000gn/T//ccyV4EJ6.s 			page 110


 4878 0413 73       		.byte	0x73
 4879 0414 00       		.sleb128 0
 4880 0415 22       		.byte	0x22
 4881 0416 9F       		.byte	0x9f
 4882 0417 16000000 		.4byte	.LVL41
 4883 041b 18000000 		.4byte	.LVL42
 4884 041f 0800     		.2byte	0x8
 4885 0421 71       		.byte	0x71
 4886 0422 00       		.sleb128 0
 4887 0423 73       		.byte	0x73
 4888 0424 00       		.sleb128 0
 4889 0425 22       		.byte	0x22
 4890 0426 23       		.byte	0x23
 4891 0427 01       		.uleb128 0x1
 4892 0428 9F       		.byte	0x9f
 4893 0429 18000000 		.4byte	.LVL42
 4894 042d 1C000000 		.4byte	.LVL43
 4895 0431 0600     		.2byte	0x6
 4896 0433 71       		.byte	0x71
 4897 0434 00       		.sleb128 0
 4898 0435 73       		.byte	0x73
 4899 0436 00       		.sleb128 0
 4900 0437 22       		.byte	0x22
 4901 0438 9F       		.byte	0x9f
 4902 0439 00000000 		.4byte	0
 4903 043d 00000000 		.4byte	0
 4904              	.LLST27:
 4905 0441 0C000000 		.4byte	.LVL39
 4906 0445 26000000 		.4byte	.LVL47
 4907 0449 0100     		.2byte	0x1
 4908 044b 50       		.byte	0x50
 4909 044c 00000000 		.4byte	0
 4910 0450 00000000 		.4byte	0
 4911              	.LLST28:
 4912 0454 12000000 		.4byte	.LVL40
 4913 0458 1C000000 		.4byte	.LVL43
 4914 045c 0100     		.2byte	0x1
 4915 045e 50       		.byte	0x50
 4916 045f 00000000 		.4byte	0
 4917 0463 00000000 		.4byte	0
 4918              	.LLST29:
 4919 0467 00000000 		.4byte	.LVL49
 4920 046b 09000000 		.4byte	.LVL50-1
 4921 046f 0100     		.2byte	0x1
 4922 0471 50       		.byte	0x50
 4923 0472 09000000 		.4byte	.LVL50-1
 4924 0476 36000000 		.4byte	.LVL60
 4925 047a 0100     		.2byte	0x1
 4926 047c 54       		.byte	0x54
 4927 047d 36000000 		.4byte	.LVL60
 4928 0481 38000000 		.4byte	.LFE204
 4929 0485 0400     		.2byte	0x4
 4930 0487 F3       		.byte	0xf3
 4931 0488 01       		.uleb128 0x1
 4932 0489 50       		.byte	0x50
 4933 048a 9F       		.byte	0x9f
 4934 048b 00000000 		.4byte	0
ARM GAS  /var/folders/f9/8bk2lnw15zn4cbgn6wrnb4lm0000gn/T//ccyV4EJ6.s 			page 111


 4935 048f 00000000 		.4byte	0
 4936              	.LLST30:
 4937 0493 00000000 		.4byte	.LVL49
 4938 0497 09000000 		.4byte	.LVL50-1
 4939 049b 0100     		.2byte	0x1
 4940 049d 51       		.byte	0x51
 4941 049e 09000000 		.4byte	.LVL50-1
 4942 04a2 1E000000 		.4byte	.LVL55
 4943 04a6 0100     		.2byte	0x1
 4944 04a8 56       		.byte	0x56
 4945 04a9 1E000000 		.4byte	.LVL55
 4946 04ad 38000000 		.4byte	.LFE204
 4947 04b1 0400     		.2byte	0x4
 4948 04b3 F3       		.byte	0xf3
 4949 04b4 01       		.uleb128 0x1
 4950 04b5 51       		.byte	0x51
 4951 04b6 9F       		.byte	0x9f
 4952 04b7 00000000 		.4byte	0
 4953 04bb 00000000 		.4byte	0
 4954              	.LLST31:
 4955 04bf 18000000 		.4byte	.LVL53
 4956 04c3 20000000 		.4byte	.LVL56
 4957 04c7 0100     		.2byte	0x1
 4958 04c9 50       		.byte	0x50
 4959 04ca 20000000 		.4byte	.LVL56
 4960 04ce 35000000 		.4byte	.LVL59-1
 4961 04d2 0100     		.2byte	0x1
 4962 04d4 51       		.byte	0x51
 4963 04d5 00000000 		.4byte	0
 4964 04d9 00000000 		.4byte	0
 4965              	.LLST32:
 4966 04dd 18000000 		.4byte	.LVL53
 4967 04e1 20000000 		.4byte	.LVL56
 4968 04e5 0500     		.2byte	0x5
 4969 04e7 70       		.byte	0x70
 4970 04e8 00       		.sleb128 0
 4971 04e9 38       		.byte	0x38
 4972 04ea 25       		.byte	0x25
 4973 04eb 9F       		.byte	0x9f
 4974 04ec 20000000 		.4byte	.LVL56
 4975 04f0 2E000000 		.4byte	.LVL58
 4976 04f4 0100     		.2byte	0x1
 4977 04f6 50       		.byte	0x50
 4978 04f7 2E000000 		.4byte	.LVL58
 4979 04fb 35000000 		.4byte	.LVL59-1
 4980 04ff 0500     		.2byte	0x5
 4981 0501 71       		.byte	0x71
 4982 0502 00       		.sleb128 0
 4983 0503 38       		.byte	0x38
 4984 0504 25       		.byte	0x25
 4985 0505 9F       		.byte	0x9f
 4986 0506 00000000 		.4byte	0
 4987 050a 00000000 		.4byte	0
 4988              	.LLST33:
 4989 050e 18000000 		.4byte	.LVL53
 4990 0512 20000000 		.4byte	.LVL56
 4991 0516 0A00     		.2byte	0xa
ARM GAS  /var/folders/f9/8bk2lnw15zn4cbgn6wrnb4lm0000gn/T//ccyV4EJ6.s 			page 112


 4992 0518 70       		.byte	0x70
 4993 0519 00       		.sleb128 0
 4994 051a 70       		.byte	0x70
 4995 051b 00       		.sleb128 0
 4996 051c 38       		.byte	0x38
 4997 051d 25       		.byte	0x25
 4998 051e 38       		.byte	0x38
 4999 051f 24       		.byte	0x24
 5000 0520 1C       		.byte	0x1c
 5001 0521 9F       		.byte	0x9f
 5002 0522 20000000 		.4byte	.LVL56
 5003 0526 35000000 		.4byte	.LVL59-1
 5004 052a 0A00     		.2byte	0xa
 5005 052c 71       		.byte	0x71
 5006 052d 00       		.sleb128 0
 5007 052e 71       		.byte	0x71
 5008 052f 00       		.sleb128 0
 5009 0530 38       		.byte	0x38
 5010 0531 25       		.byte	0x25
 5011 0532 38       		.byte	0x38
 5012 0533 24       		.byte	0x24
 5013 0534 1C       		.byte	0x1c
 5014 0535 9F       		.byte	0x9f
 5015 0536 00000000 		.4byte	0
 5016 053a 00000000 		.4byte	0
 5017              	.LLST34:
 5018 053e 0E000000 		.4byte	.LVL51
 5019 0542 11000000 		.4byte	.LVL52-1
 5020 0546 0100     		.2byte	0x1
 5021 0548 50       		.byte	0x50
 5022 0549 11000000 		.4byte	.LVL52-1
 5023 054d 36000000 		.4byte	.LVL61
 5024 0551 0100     		.2byte	0x1
 5025 0553 55       		.byte	0x55
 5026 0554 00000000 		.4byte	0
 5027 0558 00000000 		.4byte	0
 5028              	.LLST35:
 5029 055c 18000000 		.4byte	.LVL53
 5030 0560 36000000 		.4byte	.LVL60
 5031 0564 0100     		.2byte	0x1
 5032 0566 54       		.byte	0x54
 5033 0567 36000000 		.4byte	.LVL60
 5034 056b 38000000 		.4byte	.LFE204
 5035 056f 0400     		.2byte	0x4
 5036 0571 F3       		.byte	0xf3
 5037 0572 01       		.uleb128 0x1
 5038 0573 50       		.byte	0x50
 5039 0574 9F       		.byte	0x9f
 5040 0575 00000000 		.4byte	0
 5041 0579 00000000 		.4byte	0
 5042              	.LLST36:
 5043 057d 1C000000 		.4byte	.LVL54
 5044 0581 20000000 		.4byte	.LVL56
 5045 0585 0500     		.2byte	0x5
 5046 0587 70       		.byte	0x70
 5047 0588 00       		.sleb128 0
 5048 0589 38       		.byte	0x38
ARM GAS  /var/folders/f9/8bk2lnw15zn4cbgn6wrnb4lm0000gn/T//ccyV4EJ6.s 			page 113


 5049 058a 25       		.byte	0x25
 5050 058b 9F       		.byte	0x9f
 5051 058c 20000000 		.4byte	.LVL56
 5052 0590 35000000 		.4byte	.LVL59-1
 5053 0594 0500     		.2byte	0x5
 5054 0596 71       		.byte	0x71
 5055 0597 00       		.sleb128 0
 5056 0598 38       		.byte	0x38
 5057 0599 25       		.byte	0x25
 5058 059a 9F       		.byte	0x9f
 5059 059b 00000000 		.4byte	0
 5060 059f 00000000 		.4byte	0
 5061              	.LLST37:
 5062 05a3 1C000000 		.4byte	.LVL54
 5063 05a7 20000000 		.4byte	.LVL56
 5064 05ab 0A00     		.2byte	0xa
 5065 05ad 70       		.byte	0x70
 5066 05ae 00       		.sleb128 0
 5067 05af 70       		.byte	0x70
 5068 05b0 00       		.sleb128 0
 5069 05b1 38       		.byte	0x38
 5070 05b2 25       		.byte	0x25
 5071 05b3 38       		.byte	0x38
 5072 05b4 24       		.byte	0x24
 5073 05b5 1C       		.byte	0x1c
 5074 05b6 9F       		.byte	0x9f
 5075 05b7 20000000 		.4byte	.LVL56
 5076 05bb 35000000 		.4byte	.LVL59-1
 5077 05bf 0A00     		.2byte	0xa
 5078 05c1 71       		.byte	0x71
 5079 05c2 00       		.sleb128 0
 5080 05c3 71       		.byte	0x71
 5081 05c4 00       		.sleb128 0
 5082 05c5 38       		.byte	0x38
 5083 05c6 25       		.byte	0x25
 5084 05c7 38       		.byte	0x38
 5085 05c8 24       		.byte	0x24
 5086 05c9 1C       		.byte	0x1c
 5087 05ca 9F       		.byte	0x9f
 5088 05cb 00000000 		.4byte	0
 5089 05cf 00000000 		.4byte	0
 5090              	.LLST38:
 5091 05d3 1C000000 		.4byte	.LVL54
 5092 05d7 36000000 		.4byte	.LVL60
 5093 05db 0100     		.2byte	0x1
 5094 05dd 54       		.byte	0x54
 5095 05de 36000000 		.4byte	.LVL60
 5096 05e2 38000000 		.4byte	.LFE204
 5097 05e6 0400     		.2byte	0x4
 5098 05e8 F3       		.byte	0xf3
 5099 05e9 01       		.uleb128 0x1
 5100 05ea 50       		.byte	0x50
 5101 05eb 9F       		.byte	0x9f
 5102 05ec 00000000 		.4byte	0
 5103 05f0 00000000 		.4byte	0
 5104              	.LLST39:
 5105 05f4 2A000000 		.4byte	.LVL57
ARM GAS  /var/folders/f9/8bk2lnw15zn4cbgn6wrnb4lm0000gn/T//ccyV4EJ6.s 			page 114


 5106 05f8 36000000 		.4byte	.LVL60
 5107 05fc 0100     		.2byte	0x1
 5108 05fe 54       		.byte	0x54
 5109 05ff 36000000 		.4byte	.LVL60
 5110 0603 38000000 		.4byte	.LFE204
 5111 0607 0400     		.2byte	0x4
 5112 0609 F3       		.byte	0xf3
 5113 060a 01       		.uleb128 0x1
 5114 060b 50       		.byte	0x50
 5115 060c 9F       		.byte	0x9f
 5116 060d 00000000 		.4byte	0
 5117 0611 00000000 		.4byte	0
 5118              	.LLST40:
 5119 0615 00000000 		.4byte	.LVL62
 5120 0619 14000000 		.4byte	.LVL63
 5121 061d 0100     		.2byte	0x1
 5122 061f 50       		.byte	0x50
 5123 0620 14000000 		.4byte	.LVL63
 5124 0624 28000000 		.4byte	.LVL66
 5125 0628 0100     		.2byte	0x1
 5126 062a 54       		.byte	0x54
 5127 062b 28000000 		.4byte	.LVL66
 5128 062f 2A000000 		.4byte	.LFE205
 5129 0633 0400     		.2byte	0x4
 5130 0635 F3       		.byte	0xf3
 5131 0636 01       		.uleb128 0x1
 5132 0637 50       		.byte	0x50
 5133 0638 9F       		.byte	0x9f
 5134 0639 00000000 		.4byte	0
 5135 063d 00000000 		.4byte	0
 5136              	.LLST41:
 5137 0641 00000000 		.4byte	.LVL62
 5138 0645 14000000 		.4byte	.LVL63
 5139 0649 0100     		.2byte	0x1
 5140 064b 51       		.byte	0x51
 5141 064c 14000000 		.4byte	.LVL63
 5142 0650 28000000 		.4byte	.LVL67
 5143 0654 0100     		.2byte	0x1
 5144 0656 57       		.byte	0x57
 5145 0657 28000000 		.4byte	.LVL67
 5146 065b 2A000000 		.4byte	.LFE205
 5147 065f 0400     		.2byte	0x4
 5148 0661 F3       		.byte	0xf3
 5149 0662 01       		.uleb128 0x1
 5150 0663 51       		.byte	0x51
 5151 0664 9F       		.byte	0x9f
 5152 0665 00000000 		.4byte	0
 5153 0669 00000000 		.4byte	0
 5154              	.LLST43:
 5155 066d 14000000 		.4byte	.LVL63
 5156 0671 26000000 		.4byte	.LVL65
 5157 0675 0100     		.2byte	0x1
 5158 0677 54       		.byte	0x54
 5159 0678 00000000 		.4byte	0
 5160 067c 00000000 		.4byte	0
 5161              	.LLST44:
 5162 0680 00000000 		.4byte	.LVL68
ARM GAS  /var/folders/f9/8bk2lnw15zn4cbgn6wrnb4lm0000gn/T//ccyV4EJ6.s 			page 115


 5163 0684 16000000 		.4byte	.LVL69
 5164 0688 0100     		.2byte	0x1
 5165 068a 50       		.byte	0x50
 5166 068b 16000000 		.4byte	.LVL69
 5167 068f 2E000000 		.4byte	.LVL72
 5168 0693 0100     		.2byte	0x1
 5169 0695 54       		.byte	0x54
 5170 0696 2E000000 		.4byte	.LVL72
 5171 069a 30000000 		.4byte	.LFE206
 5172 069e 0400     		.2byte	0x4
 5173 06a0 F3       		.byte	0xf3
 5174 06a1 01       		.uleb128 0x1
 5175 06a2 50       		.byte	0x50
 5176 06a3 9F       		.byte	0x9f
 5177 06a4 00000000 		.4byte	0
 5178 06a8 00000000 		.4byte	0
 5179              	.LLST45:
 5180 06ac 00000000 		.4byte	.LVL68
 5181 06b0 16000000 		.4byte	.LVL69
 5182 06b4 0100     		.2byte	0x1
 5183 06b6 51       		.byte	0x51
 5184 06b7 16000000 		.4byte	.LVL69
 5185 06bb 2E000000 		.4byte	.LVL73
 5186 06bf 0100     		.2byte	0x1
 5187 06c1 56       		.byte	0x56
 5188 06c2 2E000000 		.4byte	.LVL73
 5189 06c6 30000000 		.4byte	.LFE206
 5190 06ca 0400     		.2byte	0x4
 5191 06cc F3       		.byte	0xf3
 5192 06cd 01       		.uleb128 0x1
 5193 06ce 51       		.byte	0x51
 5194 06cf 9F       		.byte	0x9f
 5195 06d0 00000000 		.4byte	0
 5196 06d4 00000000 		.4byte	0
 5197              	.LLST47:
 5198 06d8 16000000 		.4byte	.LVL69
 5199 06dc 20000000 		.4byte	.LVL70
 5200 06e0 0200     		.2byte	0x2
 5201 06e2 91       		.byte	0x91
 5202 06e3 67       		.sleb128 -25
 5203 06e4 00000000 		.4byte	0
 5204 06e8 00000000 		.4byte	0
 5205              	.LLST48:
 5206 06ec 16000000 		.4byte	.LVL69
 5207 06f0 20000000 		.4byte	.LVL70
 5208 06f4 0100     		.2byte	0x1
 5209 06f6 54       		.byte	0x54
 5210 06f7 00000000 		.4byte	0
 5211 06fb 00000000 		.4byte	0
 5212              	.LLST49:
 5213 06ff 00000000 		.4byte	.LVL74
 5214 0703 1A000000 		.4byte	.LVL76
 5215 0707 0100     		.2byte	0x1
 5216 0709 50       		.byte	0x50
 5217 070a 1A000000 		.4byte	.LVL76
 5218 070e 42000000 		.4byte	.LVL85
 5219 0712 0100     		.2byte	0x1
ARM GAS  /var/folders/f9/8bk2lnw15zn4cbgn6wrnb4lm0000gn/T//ccyV4EJ6.s 			page 116


 5220 0714 54       		.byte	0x54
 5221 0715 42000000 		.4byte	.LVL85
 5222 0719 4A000000 		.4byte	.LFE207
 5223 071d 0400     		.2byte	0x4
 5224 071f F3       		.byte	0xf3
 5225 0720 01       		.uleb128 0x1
 5226 0721 50       		.byte	0x50
 5227 0722 9F       		.byte	0x9f
 5228 0723 00000000 		.4byte	0
 5229 0727 00000000 		.4byte	0
 5230              	.LLST50:
 5231 072b 00000000 		.4byte	.LVL74
 5232 072f 1C000000 		.4byte	.LVL77
 5233 0733 0100     		.2byte	0x1
 5234 0735 51       		.byte	0x51
 5235 0736 1C000000 		.4byte	.LVL77
 5236 073a 21000000 		.4byte	.LVL79-1
 5237 073e 0100     		.2byte	0x1
 5238 0740 50       		.byte	0x50
 5239 0741 21000000 		.4byte	.LVL79-1
 5240 0745 42000000 		.4byte	.LVL86
 5241 0749 0100     		.2byte	0x1
 5242 074b 56       		.byte	0x56
 5243 074c 42000000 		.4byte	.LVL86
 5244 0750 4A000000 		.4byte	.LFE207
 5245 0754 0400     		.2byte	0x4
 5246 0756 F3       		.byte	0xf3
 5247 0757 01       		.uleb128 0x1
 5248 0758 51       		.byte	0x51
 5249 0759 9F       		.byte	0x9f
 5250 075a 00000000 		.4byte	0
 5251 075e 00000000 		.4byte	0
 5252              	.LLST51:
 5253 0762 00000000 		.4byte	.LVL74
 5254 0766 1E000000 		.4byte	.LVL78
 5255 076a 0100     		.2byte	0x1
 5256 076c 52       		.byte	0x52
 5257 076d 1E000000 		.4byte	.LVL78
 5258 0771 21000000 		.4byte	.LVL79-1
 5259 0775 0100     		.2byte	0x1
 5260 0777 51       		.byte	0x51
 5261 0778 21000000 		.4byte	.LVL79-1
 5262 077c 42000000 		.4byte	.LVL88
 5263 0780 0100     		.2byte	0x1
 5264 0782 59       		.byte	0x59
 5265 0783 42000000 		.4byte	.LVL88
 5266 0787 4A000000 		.4byte	.LFE207
 5267 078b 0400     		.2byte	0x4
 5268 078d F3       		.byte	0xf3
 5269 078e 01       		.uleb128 0x1
 5270 078f 52       		.byte	0x52
 5271 0790 9F       		.byte	0x9f
 5272 0791 00000000 		.4byte	0
 5273 0795 00000000 		.4byte	0
 5274              	.LLST52:
 5275 0799 00000000 		.4byte	.LVL74
 5276 079d 0C000000 		.4byte	.LVL75
ARM GAS  /var/folders/f9/8bk2lnw15zn4cbgn6wrnb4lm0000gn/T//ccyV4EJ6.s 			page 117


 5277 07a1 0100     		.2byte	0x1
 5278 07a3 53       		.byte	0x53
 5279 07a4 0C000000 		.4byte	.LVL75
 5280 07a8 42000000 		.4byte	.LVL87
 5281 07ac 0100     		.2byte	0x1
 5282 07ae 58       		.byte	0x58
 5283 07af 42000000 		.4byte	.LVL87
 5284 07b3 4A000000 		.4byte	.LFE207
 5285 07b7 0400     		.2byte	0x4
 5286 07b9 F3       		.byte	0xf3
 5287 07ba 01       		.uleb128 0x1
 5288 07bb 53       		.byte	0x53
 5289 07bc 9F       		.byte	0x9f
 5290 07bd 00000000 		.4byte	0
 5291 07c1 00000000 		.4byte	0
 5292              	.LLST53:
 5293 07c5 26000000 		.4byte	.LVL80
 5294 07c9 28000000 		.4byte	.LVL81
 5295 07cd 0100     		.2byte	0x1
 5296 07cf 50       		.byte	0x50
 5297 07d0 28000000 		.4byte	.LVL81
 5298 07d4 3A000000 		.4byte	.LVL83
 5299 07d8 0100     		.2byte	0x1
 5300 07da 55       		.byte	0x55
 5301 07db 3A000000 		.4byte	.LVL83
 5302 07df 3E000000 		.4byte	.LVL84
 5303 07e3 0600     		.2byte	0x6
 5304 07e5 70       		.byte	0x70
 5305 07e6 00       		.sleb128 0
 5306 07e7 75       		.byte	0x75
 5307 07e8 00       		.sleb128 0
 5308 07e9 22       		.byte	0x22
 5309 07ea 9F       		.byte	0x9f
 5310 07eb 3E000000 		.4byte	.LVL84
 5311 07ef 4A000000 		.4byte	.LFE207
 5312 07f3 0100     		.2byte	0x1
 5313 07f5 50       		.byte	0x50
 5314 07f6 00000000 		.4byte	0
 5315 07fa 00000000 		.4byte	0
 5316              	.LLST56:
 5317 07fe 3A000000 		.4byte	.LVL83
 5318 0802 42000000 		.4byte	.LVL85
 5319 0806 0100     		.2byte	0x1
 5320 0808 54       		.byte	0x54
 5321 0809 42000000 		.4byte	.LVL85
 5322 080d 4A000000 		.4byte	.LFE207
 5323 0811 0400     		.2byte	0x4
 5324 0813 F3       		.byte	0xf3
 5325 0814 01       		.uleb128 0x1
 5326 0815 50       		.byte	0x50
 5327 0816 9F       		.byte	0x9f
 5328 0817 00000000 		.4byte	0
 5329 081b 00000000 		.4byte	0
 5330              	.LLST57:
 5331 081f 00000000 		.4byte	.LVL89
 5332 0823 04000000 		.4byte	.LVL90
 5333 0827 0100     		.2byte	0x1
ARM GAS  /var/folders/f9/8bk2lnw15zn4cbgn6wrnb4lm0000gn/T//ccyV4EJ6.s 			page 118


 5334 0829 50       		.byte	0x50
 5335 082a 04000000 		.4byte	.LVL90
 5336 082e 0E000000 		.4byte	.LFE208
 5337 0832 0400     		.2byte	0x4
 5338 0834 F3       		.byte	0xf3
 5339 0835 01       		.uleb128 0x1
 5340 0836 50       		.byte	0x50
 5341 0837 9F       		.byte	0x9f
 5342 0838 00000000 		.4byte	0
 5343 083c 00000000 		.4byte	0
 5344              	.LLST58:
 5345 0840 00000000 		.4byte	.LVL89
 5346 0844 06000000 		.4byte	.LVL91
 5347 0848 0100     		.2byte	0x1
 5348 084a 51       		.byte	0x51
 5349 084b 06000000 		.4byte	.LVL91
 5350 084f 0B000000 		.4byte	.LVL93-1
 5351 0853 0100     		.2byte	0x1
 5352 0855 50       		.byte	0x50
 5353 0856 0B000000 		.4byte	.LVL93-1
 5354 085a 0E000000 		.4byte	.LFE208
 5355 085e 0400     		.2byte	0x4
 5356 0860 F3       		.byte	0xf3
 5357 0861 01       		.uleb128 0x1
 5358 0862 51       		.byte	0x51
 5359 0863 9F       		.byte	0x9f
 5360 0864 00000000 		.4byte	0
 5361 0868 00000000 		.4byte	0
 5362              	.LLST59:
 5363 086c 00000000 		.4byte	.LVL89
 5364 0870 08000000 		.4byte	.LVL92
 5365 0874 0100     		.2byte	0x1
 5366 0876 52       		.byte	0x52
 5367 0877 08000000 		.4byte	.LVL92
 5368 087b 0B000000 		.4byte	.LVL93-1
 5369 087f 0100     		.2byte	0x1
 5370 0881 51       		.byte	0x51
 5371 0882 0B000000 		.4byte	.LVL93-1
 5372 0886 0E000000 		.4byte	.LFE208
 5373 088a 0400     		.2byte	0x4
 5374 088c F3       		.byte	0xf3
 5375 088d 01       		.uleb128 0x1
 5376 088e 52       		.byte	0x52
 5377 088f 9F       		.byte	0x9f
 5378 0890 00000000 		.4byte	0
 5379 0894 00000000 		.4byte	0
 5380              	.LLST60:
 5381 0898 00000000 		.4byte	.LVL89
 5382 089c 0B000000 		.4byte	.LVL93-1
 5383 08a0 0100     		.2byte	0x1
 5384 08a2 53       		.byte	0x53
 5385 08a3 0B000000 		.4byte	.LVL93-1
 5386 08a7 0E000000 		.4byte	.LFE208
 5387 08ab 0400     		.2byte	0x4
 5388 08ad F3       		.byte	0xf3
 5389 08ae 01       		.uleb128 0x1
 5390 08af 53       		.byte	0x53
ARM GAS  /var/folders/f9/8bk2lnw15zn4cbgn6wrnb4lm0000gn/T//ccyV4EJ6.s 			page 119


 5391 08b0 9F       		.byte	0x9f
 5392 08b1 00000000 		.4byte	0
 5393 08b5 00000000 		.4byte	0
 5394              	.LLST61:
 5395 08b9 00000000 		.4byte	.LVL94
 5396 08bd 12000000 		.4byte	.LVL95
 5397 08c1 0100     		.2byte	0x1
 5398 08c3 50       		.byte	0x50
 5399 08c4 12000000 		.4byte	.LVL95
 5400 08c8 32000000 		.4byte	.LVL100
 5401 08cc 0100     		.2byte	0x1
 5402 08ce 54       		.byte	0x54
 5403 08cf 32000000 		.4byte	.LVL100
 5404 08d3 34000000 		.4byte	.LVL102
 5405 08d7 0400     		.2byte	0x4
 5406 08d9 F3       		.byte	0xf3
 5407 08da 01       		.uleb128 0x1
 5408 08db 50       		.byte	0x50
 5409 08dc 9F       		.byte	0x9f
 5410 08dd 34000000 		.4byte	.LVL102
 5411 08e1 39000000 		.4byte	.LVL104-1
 5412 08e5 0100     		.2byte	0x1
 5413 08e7 50       		.byte	0x50
 5414 08e8 39000000 		.4byte	.LVL104-1
 5415 08ec 4A000000 		.4byte	.LFE209
 5416 08f0 0100     		.2byte	0x1
 5417 08f2 54       		.byte	0x54
 5418 08f3 00000000 		.4byte	0
 5419 08f7 00000000 		.4byte	0
 5420              	.LLST62:
 5421 08fb 00000000 		.4byte	.LVL94
 5422 08ff 12000000 		.4byte	.LVL95
 5423 0903 0100     		.2byte	0x1
 5424 0905 51       		.byte	0x51
 5425 0906 12000000 		.4byte	.LVL95
 5426 090a 32000000 		.4byte	.LVL101
 5427 090e 0100     		.2byte	0x1
 5428 0910 57       		.byte	0x57
 5429 0911 32000000 		.4byte	.LVL101
 5430 0915 34000000 		.4byte	.LVL102
 5431 0919 0400     		.2byte	0x4
 5432 091b F3       		.byte	0xf3
 5433 091c 01       		.uleb128 0x1
 5434 091d 51       		.byte	0x51
 5435 091e 9F       		.byte	0x9f
 5436 091f 34000000 		.4byte	.LVL102
 5437 0923 36000000 		.4byte	.LVL103
 5438 0927 0100     		.2byte	0x1
 5439 0929 51       		.byte	0x51
 5440 092a 36000000 		.4byte	.LVL103
 5441 092e 4A000000 		.4byte	.LFE209
 5442 0932 0100     		.2byte	0x1
 5443 0934 57       		.byte	0x57
 5444 0935 00000000 		.4byte	0
 5445 0939 00000000 		.4byte	0
 5446              	.LLST63:
 5447 093d 00000000 		.4byte	.LVL94
ARM GAS  /var/folders/f9/8bk2lnw15zn4cbgn6wrnb4lm0000gn/T//ccyV4EJ6.s 			page 120


 5448 0941 12000000 		.4byte	.LVL95
 5449 0945 0100     		.2byte	0x1
 5450 0947 52       		.byte	0x52
 5451 0948 12000000 		.4byte	.LVL95
 5452 094c 1A000000 		.4byte	.LVL96
 5453 0950 0100     		.2byte	0x1
 5454 0952 56       		.byte	0x56
 5455 0953 1A000000 		.4byte	.LVL96
 5456 0957 34000000 		.4byte	.LVL102
 5457 095b 0400     		.2byte	0x4
 5458 095d F3       		.byte	0xf3
 5459 095e 01       		.uleb128 0x1
 5460 095f 52       		.byte	0x52
 5461 0960 9F       		.byte	0x9f
 5462 0961 34000000 		.4byte	.LVL102
 5463 0965 39000000 		.4byte	.LVL104-1
 5464 0969 0100     		.2byte	0x1
 5465 096b 52       		.byte	0x52
 5466 096c 39000000 		.4byte	.LVL104-1
 5467 0970 4A000000 		.4byte	.LFE209
 5468 0974 0100     		.2byte	0x1
 5469 0976 56       		.byte	0x56
 5470 0977 00000000 		.4byte	0
 5471 097b 00000000 		.4byte	0
 5472              	.LLST64:
 5473 097f 12000000 		.4byte	.LVL95
 5474 0983 32000000 		.4byte	.LVL100
 5475 0987 0100     		.2byte	0x1
 5476 0989 54       		.byte	0x54
 5477 098a 32000000 		.4byte	.LVL100
 5478 098e 34000000 		.4byte	.LVL102
 5479 0992 0400     		.2byte	0x4
 5480 0994 F3       		.byte	0xf3
 5481 0995 01       		.uleb128 0x1
 5482 0996 50       		.byte	0x50
 5483 0997 9F       		.byte	0x9f
 5484 0998 00000000 		.4byte	0
 5485 099c 00000000 		.4byte	0
 5486              	.LLST65:
 5487 09a0 1E000000 		.4byte	.LVL97
 5488 09a4 30000000 		.4byte	.LVL99
 5489 09a8 0100     		.2byte	0x1
 5490 09aa 54       		.byte	0x54
 5491 09ab 00000000 		.4byte	0
 5492 09af 00000000 		.4byte	0
 5493              	.LLST66:
 5494 09b3 00000000 		.4byte	.LVL106
 5495 09b7 0F000000 		.4byte	.LVL108-1
 5496 09bb 0100     		.2byte	0x1
 5497 09bd 50       		.byte	0x50
 5498 09be 0F000000 		.4byte	.LVL108-1
 5499 09c2 82000000 		.4byte	.LVL122
 5500 09c6 0100     		.2byte	0x1
 5501 09c8 54       		.byte	0x54
 5502 09c9 82000000 		.4byte	.LVL122
 5503 09cd 8A000000 		.4byte	.LVL124
 5504 09d1 0400     		.2byte	0x4
ARM GAS  /var/folders/f9/8bk2lnw15zn4cbgn6wrnb4lm0000gn/T//ccyV4EJ6.s 			page 121


 5505 09d3 F3       		.byte	0xf3
 5506 09d4 01       		.uleb128 0x1
 5507 09d5 50       		.byte	0x50
 5508 09d6 9F       		.byte	0x9f
 5509 09d7 8A000000 		.4byte	.LVL124
 5510 09db 9A000000 		.4byte	.LFE210
 5511 09df 0100     		.2byte	0x1
 5512 09e1 54       		.byte	0x54
 5513 09e2 00000000 		.4byte	0
 5514 09e6 00000000 		.4byte	0
 5515              	.LLST67:
 5516 09ea 00000000 		.4byte	.LVL106
 5517 09ee 0F000000 		.4byte	.LVL108-1
 5518 09f2 0100     		.2byte	0x1
 5519 09f4 51       		.byte	0x51
 5520 09f5 0F000000 		.4byte	.LVL108-1
 5521 09f9 9A000000 		.4byte	.LFE210
 5522 09fd 0400     		.2byte	0x4
 5523 09ff F3       		.byte	0xf3
 5524 0a00 01       		.uleb128 0x1
 5525 0a01 51       		.byte	0x51
 5526 0a02 9F       		.byte	0x9f
 5527 0a03 00000000 		.4byte	0
 5528 0a07 00000000 		.4byte	0
 5529              	.LLST68:
 5530 0a0b 14000000 		.4byte	.LVL109
 5531 0a0f 17000000 		.4byte	.LVL110-1
 5532 0a13 0100     		.2byte	0x1
 5533 0a15 50       		.byte	0x50
 5534 0a16 17000000 		.4byte	.LVL110-1
 5535 0a1a 82000000 		.4byte	.LVL123
 5536 0a1e 0100     		.2byte	0x1
 5537 0a20 56       		.byte	0x56
 5538 0a21 8A000000 		.4byte	.LVL124
 5539 0a25 9A000000 		.4byte	.LFE210
 5540 0a29 0100     		.2byte	0x1
 5541 0a2b 56       		.byte	0x56
 5542 0a2c 00000000 		.4byte	0
 5543 0a30 00000000 		.4byte	0
 5544              	.LLST69:
 5545 0a34 18000000 		.4byte	.LVL110
 5546 0a38 21000000 		.4byte	.LVL111-1
 5547 0a3c 0100     		.2byte	0x1
 5548 0a3e 51       		.byte	0x51
 5549 0a3f 22000000 		.4byte	.LVL111
 5550 0a43 58000000 		.4byte	.LVL116
 5551 0a47 0200     		.2byte	0x2
 5552 0a49 31       		.byte	0x31
 5553 0a4a 9F       		.byte	0x9f
 5554 0a4b 8A000000 		.4byte	.LVL124
 5555 0a4f 8C000000 		.4byte	.LVL125
 5556 0a53 0100     		.2byte	0x1
 5557 0a55 51       		.byte	0x51
 5558 0a56 00000000 		.4byte	0
 5559 0a5a 00000000 		.4byte	0
 5560              	.LLST70:
 5561 0a5e 00000000 		.4byte	.LVL106
ARM GAS  /var/folders/f9/8bk2lnw15zn4cbgn6wrnb4lm0000gn/T//ccyV4EJ6.s 			page 122


 5562 0a62 22000000 		.4byte	.LVL111
 5563 0a66 0200     		.2byte	0x2
 5564 0a68 30       		.byte	0x30
 5565 0a69 9F       		.byte	0x9f
 5566 0a6a 22000000 		.4byte	.LVL111
 5567 0a6e 36000000 		.4byte	.LVL112
 5568 0a72 0100     		.2byte	0x1
 5569 0a74 50       		.byte	0x50
 5570 0a75 8A000000 		.4byte	.LVL124
 5571 0a79 9A000000 		.4byte	.LFE210
 5572 0a7d 0200     		.2byte	0x2
 5573 0a7f 30       		.byte	0x30
 5574 0a80 9F       		.byte	0x9f
 5575 0a81 00000000 		.4byte	0
 5576 0a85 00000000 		.4byte	0
 5577              	.LLST71:
 5578 0a89 58000000 		.4byte	.LVL116
 5579 0a8d 72000000 		.4byte	.LVL119
 5580 0a91 0100     		.2byte	0x1
 5581 0a93 55       		.byte	0x55
 5582 0a94 00000000 		.4byte	0
 5583 0a98 00000000 		.4byte	0
 5584              	.LLST72:
 5585 0a9c 0A000000 		.4byte	.LVL107
 5586 0aa0 4E000000 		.4byte	.LVL115
 5587 0aa4 0100     		.2byte	0x1
 5588 0aa6 55       		.byte	0x55
 5589 0aa7 4E000000 		.4byte	.LVL115
 5590 0aab 8A000000 		.4byte	.LVL124
 5591 0aaf 0600     		.2byte	0x6
 5592 0ab1 F3       		.byte	0xf3
 5593 0ab2 01       		.uleb128 0x1
 5594 0ab3 51       		.byte	0x51
 5595 0ab4 34       		.byte	0x34
 5596 0ab5 24       		.byte	0x24
 5597 0ab6 9F       		.byte	0x9f
 5598 0ab7 8A000000 		.4byte	.LVL124
 5599 0abb 94000000 		.4byte	.LVL127
 5600 0abf 0100     		.2byte	0x1
 5601 0ac1 55       		.byte	0x55
 5602 0ac2 94000000 		.4byte	.LVL127
 5603 0ac6 9A000000 		.4byte	.LFE210
 5604 0aca 0600     		.2byte	0x6
 5605 0acc F3       		.byte	0xf3
 5606 0acd 01       		.uleb128 0x1
 5607 0ace 51       		.byte	0x51
 5608 0acf 34       		.byte	0x34
 5609 0ad0 24       		.byte	0x24
 5610 0ad1 9F       		.byte	0x9f
 5611 0ad2 00000000 		.4byte	0
 5612 0ad6 00000000 		.4byte	0
 5613              	.LLST73:
 5614 0ada 0A000000 		.4byte	.LVL107
 5615 0ade 7C000000 		.4byte	.LVL120
 5616 0ae2 0200     		.2byte	0x2
 5617 0ae4 30       		.byte	0x30
 5618 0ae5 9F       		.byte	0x9f
ARM GAS  /var/folders/f9/8bk2lnw15zn4cbgn6wrnb4lm0000gn/T//ccyV4EJ6.s 			page 123


 5619 0ae6 8A000000 		.4byte	.LVL124
 5620 0aea 9A000000 		.4byte	.LFE210
 5621 0aee 0200     		.2byte	0x2
 5622 0af0 30       		.byte	0x30
 5623 0af1 9F       		.byte	0x9f
 5624 0af2 00000000 		.4byte	0
 5625 0af6 00000000 		.4byte	0
 5626              	.LLST74:
 5627 0afa 58000000 		.4byte	.LVL116
 5628 0afe 82000000 		.4byte	.LVL122
 5629 0b02 0100     		.2byte	0x1
 5630 0b04 54       		.byte	0x54
 5631 0b05 82000000 		.4byte	.LVL122
 5632 0b09 8A000000 		.4byte	.LVL124
 5633 0b0d 0400     		.2byte	0x4
 5634 0b0f F3       		.byte	0xf3
 5635 0b10 01       		.uleb128 0x1
 5636 0b11 50       		.byte	0x50
 5637 0b12 9F       		.byte	0x9f
 5638 0b13 00000000 		.4byte	0
 5639 0b17 00000000 		.4byte	0
 5640              	.LLST75:
 5641 0b1b 60000000 		.4byte	.LVL117
 5642 0b1f 72000000 		.4byte	.LVL119
 5643 0b23 0500     		.2byte	0x5
 5644 0b25 75       		.byte	0x75
 5645 0b26 00       		.sleb128 0
 5646 0b27 38       		.byte	0x38
 5647 0b28 25       		.byte	0x25
 5648 0b29 9F       		.byte	0x9f
 5649 0b2a 00000000 		.4byte	0
 5650 0b2e 00000000 		.4byte	0
 5651              	.LLST76:
 5652 0b32 60000000 		.4byte	.LVL117
 5653 0b36 72000000 		.4byte	.LVL119
 5654 0b3a 0100     		.2byte	0x1
 5655 0b3c 55       		.byte	0x55
 5656 0b3d 00000000 		.4byte	0
 5657 0b41 00000000 		.4byte	0
 5658              	.LLST77:
 5659 0b45 60000000 		.4byte	.LVL117
 5660 0b49 82000000 		.4byte	.LVL122
 5661 0b4d 0100     		.2byte	0x1
 5662 0b4f 54       		.byte	0x54
 5663 0b50 82000000 		.4byte	.LVL122
 5664 0b54 8A000000 		.4byte	.LVL124
 5665 0b58 0400     		.2byte	0x4
 5666 0b5a F3       		.byte	0xf3
 5667 0b5b 01       		.uleb128 0x1
 5668 0b5c 50       		.byte	0x50
 5669 0b5d 9F       		.byte	0x9f
 5670 0b5e 00000000 		.4byte	0
 5671 0b62 00000000 		.4byte	0
 5672              	.LLST78:
 5673 0b66 6E000000 		.4byte	.LVL118
 5674 0b6a 82000000 		.4byte	.LVL122
 5675 0b6e 0100     		.2byte	0x1
ARM GAS  /var/folders/f9/8bk2lnw15zn4cbgn6wrnb4lm0000gn/T//ccyV4EJ6.s 			page 124


 5676 0b70 54       		.byte	0x54
 5677 0b71 82000000 		.4byte	.LVL122
 5678 0b75 8A000000 		.4byte	.LVL124
 5679 0b79 0400     		.2byte	0x4
 5680 0b7b F3       		.byte	0xf3
 5681 0b7c 01       		.uleb128 0x1
 5682 0b7d 50       		.byte	0x50
 5683 0b7e 9F       		.byte	0x9f
 5684 0b7f 00000000 		.4byte	0
 5685 0b83 00000000 		.4byte	0
 5686              		.section	.debug_aranges,"",%progbits
 5687 0000 7C000000 		.4byte	0x7c
 5688 0004 0200     		.2byte	0x2
 5689 0006 00000000 		.4byte	.Ldebug_info0
 5690 000a 04       		.byte	0x4
 5691 000b 00       		.byte	0
 5692 000c 0000     		.2byte	0
 5693 000e 0000     		.2byte	0
 5694 0010 00000000 		.4byte	.LFB198
 5695 0014 28000000 		.4byte	.LFE198-.LFB198
 5696 0018 00000000 		.4byte	.LFB199
 5697 001c 18000000 		.4byte	.LFE199-.LFB199
 5698 0020 00000000 		.4byte	.LFB200
 5699 0024 2A000000 		.4byte	.LFE200-.LFB200
 5700 0028 00000000 		.4byte	.LFB201
 5701 002c 2A000000 		.4byte	.LFE201-.LFB201
 5702 0030 00000000 		.4byte	.LFB202
 5703 0034 2A000000 		.4byte	.LFE202-.LFB202
 5704 0038 00000000 		.4byte	.LFB203
 5705 003c 2A000000 		.4byte	.LFE203-.LFB203
 5706 0040 00000000 		.4byte	.LFB204
 5707 0044 38000000 		.4byte	.LFE204-.LFB204
 5708 0048 00000000 		.4byte	.LFB205
 5709 004c 2A000000 		.4byte	.LFE205-.LFB205
 5710 0050 00000000 		.4byte	.LFB206
 5711 0054 30000000 		.4byte	.LFE206-.LFB206
 5712 0058 00000000 		.4byte	.LFB207
 5713 005c 4A000000 		.4byte	.LFE207-.LFB207
 5714 0060 00000000 		.4byte	.LFB208
 5715 0064 0E000000 		.4byte	.LFE208-.LFB208
 5716 0068 00000000 		.4byte	.LFB209
 5717 006c 4A000000 		.4byte	.LFE209-.LFB209
 5718 0070 00000000 		.4byte	.LFB210
 5719 0074 9A000000 		.4byte	.LFE210-.LFB210
 5720 0078 00000000 		.4byte	0
 5721 007c 00000000 		.4byte	0
 5722              		.section	.debug_ranges,"",%progbits
 5723              	.Ldebug_ranges0:
 5724 0000 00000000 		.4byte	.LBB68
 5725 0004 04000000 		.4byte	.LBE68
 5726 0008 06000000 		.4byte	.LBB71
 5727 000c 10000000 		.4byte	.LBE71
 5728 0010 00000000 		.4byte	0
 5729 0014 00000000 		.4byte	0
 5730 0018 00000000 		.4byte	.LBB78
 5731 001c 08000000 		.4byte	.LBE78
 5732 0020 08000000 		.4byte	.LBB81
ARM GAS  /var/folders/f9/8bk2lnw15zn4cbgn6wrnb4lm0000gn/T//ccyV4EJ6.s 			page 125


 5733 0024 0C000000 		.4byte	.LBE81
 5734 0028 00000000 		.4byte	0
 5735 002c 00000000 		.4byte	0
 5736 0030 06000000 		.4byte	.LBB82
 5737 0034 08000000 		.4byte	.LBE82
 5738 0038 12000000 		.4byte	.LBB85
 5739 003c 14000000 		.4byte	.LBE85
 5740 0040 00000000 		.4byte	0
 5741 0044 00000000 		.4byte	0
 5742 0048 18000000 		.4byte	.LBB86
 5743 004c 1A000000 		.4byte	.LBE86
 5744 0050 1C000000 		.4byte	.LBB89
 5745 0054 1E000000 		.4byte	.LBE89
 5746 0058 00000000 		.4byte	0
 5747 005c 00000000 		.4byte	0
 5748 0060 08000000 		.4byte	.LBB90
 5749 0064 0A000000 		.4byte	.LBE90
 5750 0068 0C000000 		.4byte	.LBB99
 5751 006c 1C000000 		.4byte	.LBE99
 5752 0070 00000000 		.4byte	0
 5753 0074 00000000 		.4byte	0
 5754 0078 12000000 		.4byte	.LBB94
 5755 007c 14000000 		.4byte	.LBE94
 5756 0080 16000000 		.4byte	.LBB97
 5757 0084 18000000 		.4byte	.LBE97
 5758 0088 00000000 		.4byte	0
 5759 008c 00000000 		.4byte	0
 5760 0090 06000000 		.4byte	.LBB100
 5761 0094 08000000 		.4byte	.LBE100
 5762 0098 12000000 		.4byte	.LBB103
 5763 009c 14000000 		.4byte	.LBE103
 5764 00a0 00000000 		.4byte	0
 5765 00a4 00000000 		.4byte	0
 5766 00a8 08000000 		.4byte	.LBB106
 5767 00ac 0A000000 		.4byte	.LBE106
 5768 00b0 0C000000 		.4byte	.LBB113
 5769 00b4 1C000000 		.4byte	.LBE113
 5770 00b8 00000000 		.4byte	0
 5771 00bc 00000000 		.4byte	0
 5772 00c0 12000000 		.4byte	.LBB114
 5773 00c4 16000000 		.4byte	.LBE114
 5774 00c8 18000000 		.4byte	.LBB117
 5775 00cc 1C000000 		.4byte	.LBE117
 5776 00d0 00000000 		.4byte	0
 5777 00d4 00000000 		.4byte	0
 5778 00d8 1C000000 		.4byte	.LBB118
 5779 00dc 1E000000 		.4byte	.LBE118
 5780 00e0 20000000 		.4byte	.LBB121
 5781 00e4 2A000000 		.4byte	.LBE121
 5782 00e8 00000000 		.4byte	0
 5783 00ec 00000000 		.4byte	0
 5784 00f0 2A000000 		.4byte	.LBB122
 5785 00f4 2C000000 		.4byte	.LBE122
 5786 00f8 2E000000 		.4byte	.LBB125
 5787 00fc 32000000 		.4byte	.LBE125
 5788 0100 00000000 		.4byte	0
 5789 0104 00000000 		.4byte	0
ARM GAS  /var/folders/f9/8bk2lnw15zn4cbgn6wrnb4lm0000gn/T//ccyV4EJ6.s 			page 126


 5790 0108 02000000 		.4byte	.LBB126
 5791 010c 04000000 		.4byte	.LBE126
 5792 0110 20000000 		.4byte	.LBB134
 5793 0114 22000000 		.4byte	.LBE134
 5794 0118 00000000 		.4byte	0
 5795 011c 00000000 		.4byte	0
 5796 0120 14000000 		.4byte	.LBB130
 5797 0124 16000000 		.4byte	.LBE130
 5798 0128 1A000000 		.4byte	.LBB133
 5799 012c 1C000000 		.4byte	.LBE133
 5800 0130 00000000 		.4byte	0
 5801 0134 00000000 		.4byte	0
 5802 0138 02000000 		.4byte	.LBB135
 5803 013c 04000000 		.4byte	.LBE135
 5804 0140 1A000000 		.4byte	.LBB140
 5805 0144 1C000000 		.4byte	.LBE140
 5806 0148 00000000 		.4byte	0
 5807 014c 00000000 		.4byte	0
 5808 0150 0A000000 		.4byte	.LBB141
 5809 0154 10000000 		.4byte	.LBE141
 5810 0158 16000000 		.4byte	.LBB144
 5811 015c 18000000 		.4byte	.LBE144
 5812 0160 00000000 		.4byte	0
 5813 0164 00000000 		.4byte	0
 5814 0168 3A000000 		.4byte	.LBB145
 5815 016c 3C000000 		.4byte	.LBE145
 5816 0170 3E000000 		.4byte	.LBB148
 5817 0174 42000000 		.4byte	.LBE148
 5818 0178 00000000 		.4byte	0
 5819 017c 00000000 		.4byte	0
 5820 0180 12000000 		.4byte	.LBB151
 5821 0184 18000000 		.4byte	.LBE151
 5822 0188 2A000000 		.4byte	.LBB159
 5823 018c 2C000000 		.4byte	.LBE159
 5824 0190 00000000 		.4byte	0
 5825 0194 00000000 		.4byte	0
 5826 0198 1E000000 		.4byte	.LBB155
 5827 019c 20000000 		.4byte	.LBE155
 5828 01a0 24000000 		.4byte	.LBB158
 5829 01a4 26000000 		.4byte	.LBE158
 5830 01a8 00000000 		.4byte	0
 5831 01ac 00000000 		.4byte	0
 5832 01b0 60000000 		.4byte	.LBB166
 5833 01b4 68000000 		.4byte	.LBE166
 5834 01b8 6A000000 		.4byte	.LBB169
 5835 01bc 6E000000 		.4byte	.LBE169
 5836 01c0 00000000 		.4byte	0
 5837 01c4 00000000 		.4byte	0
 5838 01c8 6E000000 		.4byte	.LBB170
 5839 01cc 70000000 		.4byte	.LBE170
 5840 01d0 72000000 		.4byte	.LBB173
 5841 01d4 76000000 		.4byte	.LBE173
 5842 01d8 00000000 		.4byte	0
 5843 01dc 00000000 		.4byte	0
 5844 01e0 00000000 		.4byte	.LFB198
 5845 01e4 28000000 		.4byte	.LFE198
 5846 01e8 00000000 		.4byte	.LFB199
ARM GAS  /var/folders/f9/8bk2lnw15zn4cbgn6wrnb4lm0000gn/T//ccyV4EJ6.s 			page 127


 5847 01ec 18000000 		.4byte	.LFE199
 5848 01f0 00000000 		.4byte	.LFB200
 5849 01f4 2A000000 		.4byte	.LFE200
 5850 01f8 00000000 		.4byte	.LFB201
 5851 01fc 2A000000 		.4byte	.LFE201
 5852 0200 00000000 		.4byte	.LFB202
 5853 0204 2A000000 		.4byte	.LFE202
 5854 0208 00000000 		.4byte	.LFB203
 5855 020c 2A000000 		.4byte	.LFE203
 5856 0210 00000000 		.4byte	.LFB204
 5857 0214 38000000 		.4byte	.LFE204
 5858 0218 00000000 		.4byte	.LFB205
 5859 021c 2A000000 		.4byte	.LFE205
 5860 0220 00000000 		.4byte	.LFB206
 5861 0224 30000000 		.4byte	.LFE206
 5862 0228 00000000 		.4byte	.LFB207
 5863 022c 4A000000 		.4byte	.LFE207
 5864 0230 00000000 		.4byte	.LFB208
 5865 0234 0E000000 		.4byte	.LFE208
 5866 0238 00000000 		.4byte	.LFB209
 5867 023c 4A000000 		.4byte	.LFE209
 5868 0240 00000000 		.4byte	.LFB210
 5869 0244 9A000000 		.4byte	.LFE210
 5870 0248 00000000 		.4byte	0
 5871 024c 00000000 		.4byte	0
 5872              		.section	.debug_macro,"",%progbits
 5873              	.Ldebug_macro0:
 5874 0000 0400     		.2byte	0x4
 5875 0002 02       		.byte	0x2
 5876 0003 00000000 		.4byte	.Ldebug_line0
 5877 0007 07       		.byte	0x7
 5878 0008 00000000 		.4byte	.Ldebug_macro1
 5879 000c 03       		.byte	0x3
 5880 000d 00       		.uleb128 0
 5881 000e 01       		.uleb128 0x1
 5882 000f 03       		.byte	0x3
 5883 0010 20       		.uleb128 0x20
 5884 0011 08       		.uleb128 0x8
 5885 0012 05       		.byte	0x5
 5886 0013 1E       		.uleb128 0x1e
 5887 0014 6B750000 		.4byte	.LASF341
 5888              		.file 9 "../../lpc_chip_11cxx_lib/inc/lpc_types.h"
 5889 0018 03       		.byte	0x3
 5890 0019 20       		.uleb128 0x20
 5891 001a 09       		.uleb128 0x9
 5892 001b 05       		.byte	0x5
 5893 001c 21       		.uleb128 0x21
 5894 001d C7220000 		.4byte	.LASF342
 5895              		.file 10 "/usr/local/Cellar/gcc-arm-none-eabi/20140805/lib/gcc/arm-none-eabi/4.8.4/include/stdint.
 5896 0021 03       		.byte	0x3
 5897 0022 23       		.uleb128 0x23
 5898 0023 0A       		.uleb128 0xa
 5899 0024 03       		.byte	0x3
 5900 0025 09       		.uleb128 0x9
 5901 0026 06       		.uleb128 0x6
 5902 0027 05       		.byte	0x5
 5903 0028 0A       		.uleb128 0xa
ARM GAS  /var/folders/f9/8bk2lnw15zn4cbgn6wrnb4lm0000gn/T//ccyV4EJ6.s 			page 128


 5904 0029 CC1D0000 		.4byte	.LASF343
 5905 002d 03       		.byte	0x3
 5906 002e 0C       		.uleb128 0xc
 5907 002f 05       		.uleb128 0x5
 5908 0030 05       		.byte	0x5
 5909 0031 06       		.uleb128 0x6
 5910 0032 624E0000 		.4byte	.LASF344
 5911              		.file 11 "/usr/local/Cellar/gcc-arm-none-eabi/20140805/arm-none-eabi/include/sys/features.h"
 5912 0036 03       		.byte	0x3
 5913 0037 08       		.uleb128 0x8
 5914 0038 0B       		.uleb128 0xb
 5915 0039 07       		.byte	0x7
 5916 003a 00000000 		.4byte	.Ldebug_macro2
 5917 003e 04       		.byte	0x4
 5918 003f 07       		.byte	0x7
 5919 0040 00000000 		.4byte	.Ldebug_macro3
 5920 0044 04       		.byte	0x4
 5921 0045 07       		.byte	0x7
 5922 0046 00000000 		.4byte	.Ldebug_macro4
 5923 004a 04       		.byte	0x4
 5924 004b 05       		.byte	0x5
 5925 004c 0D       		.uleb128 0xd
 5926 004d 65630000 		.4byte	.LASF434
 5927 0051 04       		.byte	0x4
 5928              		.file 12 "/usr/local/Cellar/gcc-arm-none-eabi/20140805/lib/gcc/arm-none-eabi/4.8.4/include/stdbool
 5929 0052 03       		.byte	0x3
 5930 0053 24       		.uleb128 0x24
 5931 0054 0C       		.uleb128 0xc
 5932 0055 07       		.byte	0x7
 5933 0056 00000000 		.4byte	.Ldebug_macro5
 5934 005a 04       		.byte	0x4
 5935 005b 07       		.byte	0x7
 5936 005c 00000000 		.4byte	.Ldebug_macro6
 5937 0060 04       		.byte	0x4
 5938              		.file 13 "../../lpc_chip_11cxx_lib/inc/sys_config.h"
 5939 0061 03       		.byte	0x3
 5940 0062 21       		.uleb128 0x21
 5941 0063 0D       		.uleb128 0xd
 5942 0064 07       		.byte	0x7
 5943 0065 00000000 		.4byte	.Ldebug_macro7
 5944 0069 04       		.byte	0x4
 5945              		.file 14 "../../lpc_chip_11cxx_lib/inc/cmsis.h"
 5946 006a 03       		.byte	0x3
 5947 006b 22       		.uleb128 0x22
 5948 006c 0E       		.uleb128 0xe
 5949 006d 05       		.byte	0x5
 5950 006e 1E       		.uleb128 0x1e
 5951 006f AB4D0000 		.4byte	.LASF458
 5952              		.file 15 "../../lpc_chip_11cxx_lib/inc/cmsis_11cxx.h"
 5953 0073 03       		.byte	0x3
 5954 0074 2E       		.uleb128 0x2e
 5955 0075 0F       		.uleb128 0xf
 5956 0076 07       		.byte	0x7
 5957 0077 00000000 		.4byte	.Ldebug_macro8
 5958 007b 04       		.byte	0x4
 5959              		.file 16 "../../lpc_chip_11cxx_lib/inc/core_cm0.h"
 5960 007c 03       		.byte	0x3
ARM GAS  /var/folders/f9/8bk2lnw15zn4cbgn6wrnb4lm0000gn/T//ccyV4EJ6.s 			page 129


 5961 007d 3E       		.uleb128 0x3e
 5962 007e 10       		.uleb128 0x10
 5963 007f 07       		.byte	0x7
 5964 0080 00000000 		.4byte	.Ldebug_macro9
 5965              		.file 17 "../../lpc_chip_11cxx_lib/inc/core_cmInstr.h"
 5966 0084 03       		.byte	0x3
 5967 0085 70       		.uleb128 0x70
 5968 0086 11       		.uleb128 0x11
 5969 0087 05       		.byte	0x5
 5970 0088 19       		.uleb128 0x19
 5971 0089 3A1E0000 		.4byte	.LASF472
 5972 008d 04       		.byte	0x4
 5973              		.file 18 "../../lpc_chip_11cxx_lib/inc/core_cmFunc.h"
 5974 008e 03       		.byte	0x3
 5975 008f 71       		.uleb128 0x71
 5976 0090 12       		.uleb128 0x12
 5977 0091 05       		.byte	0x5
 5978 0092 19       		.uleb128 0x19
 5979 0093 810C0000 		.4byte	.LASF473
 5980 0097 04       		.byte	0x4
 5981 0098 07       		.byte	0x7
 5982 0099 00000000 		.4byte	.Ldebug_macro10
 5983 009d 04       		.byte	0x4
 5984 009e 04       		.byte	0x4
 5985 009f 07       		.byte	0x7
 5986 00a0 00000000 		.4byte	.Ldebug_macro11
 5987              		.file 19 "../../lpc_chip_11cxx_lib/inc/pmu_11xx.h"
 5988 00a4 03       		.byte	0x3
 5989 00a5 E901     		.uleb128 0xe9
 5990 00a7 13       		.uleb128 0x13
 5991 00a8 07       		.byte	0x7
 5992 00a9 00000000 		.4byte	.Ldebug_macro12
 5993 00ad 04       		.byte	0x4
 5994              		.file 20 "../../lpc_chip_11cxx_lib/inc/fmc_11xx.h"
 5995 00ae 03       		.byte	0x3
 5996 00af EA01     		.uleb128 0xea
 5997 00b1 14       		.uleb128 0x14
 5998 00b2 05       		.byte	0x5
 5999 00b3 21       		.uleb128 0x21
 6000 00b4 39650000 		.4byte	.LASF603
 6001 00b8 04       		.byte	0x4
 6002 00b9 03       		.byte	0x3
 6003 00ba EB01     		.uleb128 0xeb
 6004 00bc 07       		.uleb128 0x7
 6005 00bd 07       		.byte	0x7
 6006 00be 00000000 		.4byte	.Ldebug_macro13
 6007 00c2 04       		.byte	0x4
 6008 00c3 03       		.byte	0x3
 6009 00c4 EC01     		.uleb128 0xec
 6010 00c6 02       		.uleb128 0x2
 6011 00c7 07       		.byte	0x7
 6012 00c8 00000000 		.4byte	.Ldebug_macro14
 6013 00cc 04       		.byte	0x4
 6014              		.file 21 "../../lpc_chip_11cxx_lib/inc/iocon_11xx.h"
 6015 00cd 03       		.byte	0x3
 6016 00ce ED01     		.uleb128 0xed
 6017 00d0 15       		.uleb128 0x15
ARM GAS  /var/folders/f9/8bk2lnw15zn4cbgn6wrnb4lm0000gn/T//ccyV4EJ6.s 			page 130


 6018 00d1 07       		.byte	0x7
 6019 00d2 00000000 		.4byte	.Ldebug_macro15
 6020 00d6 04       		.byte	0x4
 6021              		.file 22 "../../lpc_chip_11cxx_lib/inc/timer_11xx.h"
 6022 00d7 03       		.byte	0x3
 6023 00d8 EE01     		.uleb128 0xee
 6024 00da 16       		.uleb128 0x16
 6025 00db 07       		.byte	0x7
 6026 00dc 00000000 		.4byte	.Ldebug_macro16
 6027 00e0 04       		.byte	0x4
 6028 00e1 03       		.byte	0x3
 6029 00e2 EF01     		.uleb128 0xef
 6030 00e4 03       		.uleb128 0x3
 6031 00e5 05       		.byte	0x5
 6032 00e6 21       		.uleb128 0x21
 6033 00e7 36250000 		.4byte	.LASF687
 6034 00eb 03       		.byte	0x3
 6035 00ec 23       		.uleb128 0x23
 6036 00ed 04       		.uleb128 0x4
 6037 00ee 07       		.byte	0x7
 6038 00ef 00000000 		.4byte	.Ldebug_macro17
 6039 00f3 04       		.byte	0x4
 6040 00f4 07       		.byte	0x7
 6041 00f5 00000000 		.4byte	.Ldebug_macro18
 6042 00f9 04       		.byte	0x4
 6043              		.file 23 "../../lpc_chip_11cxx_lib/inc/wwdt_11xx.h"
 6044 00fa 03       		.byte	0x3
 6045 00fb F001     		.uleb128 0xf0
 6046 00fd 17       		.uleb128 0x17
 6047 00fe 07       		.byte	0x7
 6048 00ff 00000000 		.4byte	.Ldebug_macro19
 6049 0103 04       		.byte	0x4
 6050              		.file 24 "../../lpc_chip_11cxx_lib/inc/ssp_11xx.h"
 6051 0104 03       		.byte	0x3
 6052 0105 F101     		.uleb128 0xf1
 6053 0107 18       		.uleb128 0x18
 6054 0108 07       		.byte	0x7
 6055 0109 00000000 		.4byte	.Ldebug_macro20
 6056 010d 04       		.byte	0x4
 6057              		.file 25 "../../lpc_chip_11cxx_lib/inc/romapi_11xx.h"
 6058 010e 03       		.byte	0x3
 6059 010f F201     		.uleb128 0xf2
 6060 0111 19       		.uleb128 0x19
 6061 0112 05       		.byte	0x5
 6062 0113 21       		.uleb128 0x21
 6063 0114 462D0000 		.4byte	.LASF840
 6064              		.file 26 "../../lpc_chip_11cxx_lib/inc/error.h"
 6065 0118 03       		.byte	0x3
 6066 0119 23       		.uleb128 0x23
 6067 011a 1A       		.uleb128 0x1a
 6068 011b 07       		.byte	0x7
 6069 011c 00000000 		.4byte	.Ldebug_macro21
 6070 0120 04       		.byte	0x4
 6071 0121 04       		.byte	0x4
 6072              		.file 27 "../../lpc_chip_11cxx_lib/inc/adc_11xx.h"
 6073 0122 03       		.byte	0x3
 6074 0123 F601     		.uleb128 0xf6
ARM GAS  /var/folders/f9/8bk2lnw15zn4cbgn6wrnb4lm0000gn/T//ccyV4EJ6.s 			page 131


 6075 0125 1B       		.uleb128 0x1b
 6076 0126 07       		.byte	0x7
 6077 0127 00000000 		.4byte	.Ldebug_macro22
 6078 012b 04       		.byte	0x4
 6079              		.file 28 "../../lpc_chip_11cxx_lib/inc/gpio_11xx_2.h"
 6080 012c 03       		.byte	0x3
 6081 012d FF01     		.uleb128 0xff
 6082 012f 1C       		.uleb128 0x1c
 6083 0130 05       		.byte	0x5
 6084 0131 22       		.uleb128 0x22
 6085 0132 82370000 		.4byte	.LASF863
 6086 0136 04       		.byte	0x4
 6087              		.file 29 "../../lpc_chip_11cxx_lib/inc/i2c_11xx.h"
 6088 0137 03       		.byte	0x3
 6089 0138 8C02     		.uleb128 0x10c
 6090 013a 1D       		.uleb128 0x1d
 6091 013b 07       		.byte	0x7
 6092 013c 00000000 		.4byte	.Ldebug_macro23
 6093 0140 04       		.byte	0x4
 6094              		.file 30 "../../lpc_chip_11cxx_lib/inc/ccand_11xx.h"
 6095 0141 03       		.byte	0x3
 6096 0142 8F02     		.uleb128 0x10f
 6097 0144 1E       		.uleb128 0x1e
 6098 0145 07       		.byte	0x7
 6099 0146 00000000 		.4byte	.Ldebug_macro24
 6100 014a 04       		.byte	0x4
 6101 014b 04       		.byte	0x4
 6102 014c 04       		.byte	0x4
 6103 014d 00       		.byte	0
 6104              		.section	.debug_macro,"G",%progbits,wm4.0.121fbee677f1a8a7d8c40a6e8762ca43,comdat
 6105              	.Ldebug_macro1:
 6106 0000 0400     		.2byte	0x4
 6107 0002 00       		.byte	0
 6108 0003 05       		.byte	0x5
 6109 0004 00       		.uleb128 0
 6110 0005 76490000 		.4byte	.LASF0
 6111 0009 05       		.byte	0x5
 6112 000a 00       		.uleb128 0
 6113 000b F7090000 		.4byte	.LASF1
 6114 000f 05       		.byte	0x5
 6115 0010 00       		.uleb128 0
 6116 0011 1B360000 		.4byte	.LASF2
 6117 0015 05       		.byte	0x5
 6118 0016 00       		.uleb128 0
 6119 0017 9E5E0000 		.4byte	.LASF3
 6120 001b 05       		.byte	0x5
 6121 001c 00       		.uleb128 0
 6122 001d 65660000 		.4byte	.LASF4
 6123 0021 05       		.byte	0x5
 6124 0022 00       		.uleb128 0
 6125 0023 D5460000 		.4byte	.LASF5
 6126 0027 05       		.byte	0x5
 6127 0028 00       		.uleb128 0
 6128 0029 0E650000 		.4byte	.LASF6
 6129 002d 05       		.byte	0x5
 6130 002e 00       		.uleb128 0
 6131 002f 12200000 		.4byte	.LASF7
ARM GAS  /var/folders/f9/8bk2lnw15zn4cbgn6wrnb4lm0000gn/T//ccyV4EJ6.s 			page 132


 6132 0033 05       		.byte	0x5
 6133 0034 00       		.uleb128 0
 6134 0035 39330000 		.4byte	.LASF8
 6135 0039 05       		.byte	0x5
 6136 003a 00       		.uleb128 0
 6137 003b FE390000 		.4byte	.LASF9
 6138 003f 05       		.byte	0x5
 6139 0040 00       		.uleb128 0
 6140 0041 40750000 		.4byte	.LASF10
 6141 0045 05       		.byte	0x5
 6142 0046 00       		.uleb128 0
 6143 0047 01040000 		.4byte	.LASF11
 6144 004b 05       		.byte	0x5
 6145 004c 00       		.uleb128 0
 6146 004d E73A0000 		.4byte	.LASF12
 6147 0051 05       		.byte	0x5
 6148 0052 00       		.uleb128 0
 6149 0053 80580000 		.4byte	.LASF13
 6150 0057 05       		.byte	0x5
 6151 0058 00       		.uleb128 0
 6152 0059 BF6C0000 		.4byte	.LASF14
 6153 005d 05       		.byte	0x5
 6154 005e 00       		.uleb128 0
 6155 005f 751E0000 		.4byte	.LASF15
 6156 0063 05       		.byte	0x5
 6157 0064 00       		.uleb128 0
 6158 0065 1C050000 		.4byte	.LASF16
 6159 0069 05       		.byte	0x5
 6160 006a 00       		.uleb128 0
 6161 006b 4D220000 		.4byte	.LASF17
 6162 006f 05       		.byte	0x5
 6163 0070 00       		.uleb128 0
 6164 0071 7B660000 		.4byte	.LASF18
 6165 0075 05       		.byte	0x5
 6166 0076 00       		.uleb128 0
 6167 0077 E7180000 		.4byte	.LASF19
 6168 007b 05       		.byte	0x5
 6169 007c 00       		.uleb128 0
 6170 007d 53730000 		.4byte	.LASF20
 6171 0081 05       		.byte	0x5
 6172 0082 00       		.uleb128 0
 6173 0083 6D620000 		.4byte	.LASF21
 6174 0087 05       		.byte	0x5
 6175 0088 00       		.uleb128 0
 6176 0089 36410000 		.4byte	.LASF22
 6177 008d 05       		.byte	0x5
 6178 008e 00       		.uleb128 0
 6179 008f 7D4E0000 		.4byte	.LASF23
 6180 0093 05       		.byte	0x5
 6181 0094 00       		.uleb128 0
 6182 0095 26550000 		.4byte	.LASF24
 6183 0099 05       		.byte	0x5
 6184 009a 00       		.uleb128 0
 6185 009b 6C510000 		.4byte	.LASF25
 6186 009f 05       		.byte	0x5
 6187 00a0 00       		.uleb128 0
 6188 00a1 6C060000 		.4byte	.LASF26
ARM GAS  /var/folders/f9/8bk2lnw15zn4cbgn6wrnb4lm0000gn/T//ccyV4EJ6.s 			page 133


 6189 00a5 05       		.byte	0x5
 6190 00a6 00       		.uleb128 0
 6191 00a7 5E400000 		.4byte	.LASF27
 6192 00ab 05       		.byte	0x5
 6193 00ac 00       		.uleb128 0
 6194 00ad C1490000 		.4byte	.LASF28
 6195 00b1 05       		.byte	0x5
 6196 00b2 00       		.uleb128 0
 6197 00b3 B9150000 		.4byte	.LASF29
 6198 00b7 05       		.byte	0x5
 6199 00b8 00       		.uleb128 0
 6200 00b9 91730000 		.4byte	.LASF30
 6201 00bd 05       		.byte	0x5
 6202 00be 00       		.uleb128 0
 6203 00bf BE550000 		.4byte	.LASF31
 6204 00c3 05       		.byte	0x5
 6205 00c4 00       		.uleb128 0
 6206 00c5 88230000 		.4byte	.LASF32
 6207 00c9 05       		.byte	0x5
 6208 00ca 00       		.uleb128 0
 6209 00cb 64440000 		.4byte	.LASF33
 6210 00cf 05       		.byte	0x5
 6211 00d0 00       		.uleb128 0
 6212 00d1 AF5E0000 		.4byte	.LASF34
 6213 00d5 05       		.byte	0x5
 6214 00d6 00       		.uleb128 0
 6215 00d7 64470000 		.4byte	.LASF35
 6216 00db 05       		.byte	0x5
 6217 00dc 00       		.uleb128 0
 6218 00dd 44610000 		.4byte	.LASF36
 6219 00e1 05       		.byte	0x5
 6220 00e2 00       		.uleb128 0
 6221 00e3 D1170000 		.4byte	.LASF37
 6222 00e7 05       		.byte	0x5
 6223 00e8 00       		.uleb128 0
 6224 00e9 CE380000 		.4byte	.LASF38
 6225 00ed 05       		.byte	0x5
 6226 00ee 00       		.uleb128 0
 6227 00ef 06070000 		.4byte	.LASF39
 6228 00f3 05       		.byte	0x5
 6229 00f4 00       		.uleb128 0
 6230 00f5 41080000 		.4byte	.LASF40
 6231 00f9 05       		.byte	0x5
 6232 00fa 00       		.uleb128 0
 6233 00fb 53750000 		.4byte	.LASF41
 6234 00ff 05       		.byte	0x5
 6235 0100 00       		.uleb128 0
 6236 0101 06410000 		.4byte	.LASF42
 6237 0105 05       		.byte	0x5
 6238 0106 00       		.uleb128 0
 6239 0107 1B4A0000 		.4byte	.LASF43
 6240 010b 05       		.byte	0x5
 6241 010c 00       		.uleb128 0
 6242 010d 87360000 		.4byte	.LASF44
 6243 0111 05       		.byte	0x5
 6244 0112 00       		.uleb128 0
 6245 0113 9C6B0000 		.4byte	.LASF45
ARM GAS  /var/folders/f9/8bk2lnw15zn4cbgn6wrnb4lm0000gn/T//ccyV4EJ6.s 			page 134


 6246 0117 05       		.byte	0x5
 6247 0118 00       		.uleb128 0
 6248 0119 AE620000 		.4byte	.LASF46
 6249 011d 05       		.byte	0x5
 6250 011e 00       		.uleb128 0
 6251 011f CE150000 		.4byte	.LASF47
 6252 0123 05       		.byte	0x5
 6253 0124 00       		.uleb128 0
 6254 0125 F16F0000 		.4byte	.LASF48
 6255 0129 05       		.byte	0x5
 6256 012a 00       		.uleb128 0
 6257 012b 5D540000 		.4byte	.LASF49
 6258 012f 05       		.byte	0x5
 6259 0130 00       		.uleb128 0
 6260 0131 33770000 		.4byte	.LASF50
 6261 0135 05       		.byte	0x5
 6262 0136 00       		.uleb128 0
 6263 0137 EC120000 		.4byte	.LASF51
 6264 013b 05       		.byte	0x5
 6265 013c 00       		.uleb128 0
 6266 013d 13570000 		.4byte	.LASF52
 6267 0141 05       		.byte	0x5
 6268 0142 00       		.uleb128 0
 6269 0143 675E0000 		.4byte	.LASF53
 6270 0147 05       		.byte	0x5
 6271 0148 00       		.uleb128 0
 6272 0149 30390000 		.4byte	.LASF54
 6273 014d 05       		.byte	0x5
 6274 014e 00       		.uleb128 0
 6275 014f 16150000 		.4byte	.LASF55
 6276 0153 05       		.byte	0x5
 6277 0154 00       		.uleb128 0
 6278 0155 98560000 		.4byte	.LASF56
 6279 0159 05       		.byte	0x5
 6280 015a 00       		.uleb128 0
 6281 015b 643A0000 		.4byte	.LASF57
 6282 015f 05       		.byte	0x5
 6283 0160 00       		.uleb128 0
 6284 0161 570A0000 		.4byte	.LASF58
 6285 0165 05       		.byte	0x5
 6286 0166 00       		.uleb128 0
 6287 0167 CD370000 		.4byte	.LASF59
 6288 016b 05       		.byte	0x5
 6289 016c 00       		.uleb128 0
 6290 016d 3F6E0000 		.4byte	.LASF60
 6291 0171 05       		.byte	0x5
 6292 0172 00       		.uleb128 0
 6293 0173 76560000 		.4byte	.LASF61
 6294 0177 05       		.byte	0x5
 6295 0178 00       		.uleb128 0
 6296 0179 40240000 		.4byte	.LASF62
 6297 017d 05       		.byte	0x5
 6298 017e 00       		.uleb128 0
 6299 017f 30610000 		.4byte	.LASF63
 6300 0183 05       		.byte	0x5
 6301 0184 00       		.uleb128 0
 6302 0185 67610000 		.4byte	.LASF64
ARM GAS  /var/folders/f9/8bk2lnw15zn4cbgn6wrnb4lm0000gn/T//ccyV4EJ6.s 			page 135


 6303 0189 05       		.byte	0x5
 6304 018a 00       		.uleb128 0
 6305 018b 29240000 		.4byte	.LASF65
 6306 018f 05       		.byte	0x5
 6307 0190 00       		.uleb128 0
 6308 0191 8A0F0000 		.4byte	.LASF66
 6309 0195 05       		.byte	0x5
 6310 0196 00       		.uleb128 0
 6311 0197 A6660000 		.4byte	.LASF67
 6312 019b 05       		.byte	0x5
 6313 019c 00       		.uleb128 0
 6314 019d 19390000 		.4byte	.LASF68
 6315 01a1 05       		.byte	0x5
 6316 01a2 00       		.uleb128 0
 6317 01a3 21680000 		.4byte	.LASF69
 6318 01a7 05       		.byte	0x5
 6319 01a8 00       		.uleb128 0
 6320 01a9 A9010000 		.4byte	.LASF70
 6321 01ad 05       		.byte	0x5
 6322 01ae 00       		.uleb128 0
 6323 01af C2140000 		.4byte	.LASF71
 6324 01b3 05       		.byte	0x5
 6325 01b4 00       		.uleb128 0
 6326 01b5 C33D0000 		.4byte	.LASF72
 6327 01b9 05       		.byte	0x5
 6328 01ba 00       		.uleb128 0
 6329 01bb D83E0000 		.4byte	.LASF73
 6330 01bf 05       		.byte	0x5
 6331 01c0 00       		.uleb128 0
 6332 01c1 596F0000 		.4byte	.LASF74
 6333 01c5 05       		.byte	0x5
 6334 01c6 00       		.uleb128 0
 6335 01c7 A8600000 		.4byte	.LASF75
 6336 01cb 05       		.byte	0x5
 6337 01cc 00       		.uleb128 0
 6338 01cd 0B5C0000 		.4byte	.LASF76
 6339 01d1 05       		.byte	0x5
 6340 01d2 00       		.uleb128 0
 6341 01d3 17110000 		.4byte	.LASF77
 6342 01d7 05       		.byte	0x5
 6343 01d8 00       		.uleb128 0
 6344 01d9 DF020000 		.4byte	.LASF78
 6345 01dd 05       		.byte	0x5
 6346 01de 00       		.uleb128 0
 6347 01df 1A5E0000 		.4byte	.LASF79
 6348 01e3 05       		.byte	0x5
 6349 01e4 00       		.uleb128 0
 6350 01e5 A1150000 		.4byte	.LASF80
 6351 01e9 05       		.byte	0x5
 6352 01ea 00       		.uleb128 0
 6353 01eb 214B0000 		.4byte	.LASF81
 6354 01ef 05       		.byte	0x5
 6355 01f0 00       		.uleb128 0
 6356 01f1 53120000 		.4byte	.LASF82
 6357 01f5 05       		.byte	0x5
 6358 01f6 00       		.uleb128 0
 6359 01f7 20170000 		.4byte	.LASF83
ARM GAS  /var/folders/f9/8bk2lnw15zn4cbgn6wrnb4lm0000gn/T//ccyV4EJ6.s 			page 136


 6360 01fb 05       		.byte	0x5
 6361 01fc 00       		.uleb128 0
 6362 01fd 62100000 		.4byte	.LASF84
 6363 0201 05       		.byte	0x5
 6364 0202 00       		.uleb128 0
 6365 0203 5C520000 		.4byte	.LASF85
 6366 0207 05       		.byte	0x5
 6367 0208 00       		.uleb128 0
 6368 0209 CB290000 		.4byte	.LASF86
 6369 020d 05       		.byte	0x5
 6370 020e 00       		.uleb128 0
 6371 020f 4F760000 		.4byte	.LASF87
 6372 0213 05       		.byte	0x5
 6373 0214 00       		.uleb128 0
 6374 0215 D3630000 		.4byte	.LASF88
 6375 0219 05       		.byte	0x5
 6376 021a 00       		.uleb128 0
 6377 021b D43D0000 		.4byte	.LASF89
 6378 021f 05       		.byte	0x5
 6379 0220 00       		.uleb128 0
 6380 0221 3A0B0000 		.4byte	.LASF90
 6381 0225 05       		.byte	0x5
 6382 0226 00       		.uleb128 0
 6383 0227 984C0000 		.4byte	.LASF91
 6384 022b 05       		.byte	0x5
 6385 022c 00       		.uleb128 0
 6386 022d 5E510000 		.4byte	.LASF92
 6387 0231 05       		.byte	0x5
 6388 0232 00       		.uleb128 0
 6389 0233 89280000 		.4byte	.LASF93
 6390 0237 05       		.byte	0x5
 6391 0238 00       		.uleb128 0
 6392 0239 83740000 		.4byte	.LASF94
 6393 023d 05       		.byte	0x5
 6394 023e 00       		.uleb128 0
 6395 023f E65E0000 		.4byte	.LASF95
 6396 0243 05       		.byte	0x5
 6397 0244 00       		.uleb128 0
 6398 0245 650E0000 		.4byte	.LASF96
 6399 0249 05       		.byte	0x5
 6400 024a 00       		.uleb128 0
 6401 024b C65A0000 		.4byte	.LASF97
 6402 024f 05       		.byte	0x5
 6403 0250 00       		.uleb128 0
 6404 0251 EE620000 		.4byte	.LASF98
 6405 0255 05       		.byte	0x5
 6406 0256 00       		.uleb128 0
 6407 0257 97760000 		.4byte	.LASF99
 6408 025b 05       		.byte	0x5
 6409 025c 00       		.uleb128 0
 6410 025d 32080000 		.4byte	.LASF100
 6411 0261 05       		.byte	0x5
 6412 0262 00       		.uleb128 0
 6413 0263 D5570000 		.4byte	.LASF101
 6414 0267 05       		.byte	0x5
 6415 0268 00       		.uleb128 0
 6416 0269 90640000 		.4byte	.LASF102
ARM GAS  /var/folders/f9/8bk2lnw15zn4cbgn6wrnb4lm0000gn/T//ccyV4EJ6.s 			page 137


 6417 026d 05       		.byte	0x5
 6418 026e 00       		.uleb128 0
 6419 026f 4C670000 		.4byte	.LASF103
 6420 0273 05       		.byte	0x5
 6421 0274 00       		.uleb128 0
 6422 0275 48290000 		.4byte	.LASF104
 6423 0279 05       		.byte	0x5
 6424 027a 00       		.uleb128 0
 6425 027b EE490000 		.4byte	.LASF105
 6426 027f 05       		.byte	0x5
 6427 0280 00       		.uleb128 0
 6428 0281 E2530000 		.4byte	.LASF106
 6429 0285 05       		.byte	0x5
 6430 0286 00       		.uleb128 0
 6431 0287 7C500000 		.4byte	.LASF107
 6432 028b 05       		.byte	0x5
 6433 028c 00       		.uleb128 0
 6434 028d 5A160000 		.4byte	.LASF108
 6435 0291 05       		.byte	0x5
 6436 0292 00       		.uleb128 0
 6437 0293 C1000000 		.4byte	.LASF109
 6438 0297 05       		.byte	0x5
 6439 0298 00       		.uleb128 0
 6440 0299 EA300000 		.4byte	.LASF110
 6441 029d 05       		.byte	0x5
 6442 029e 00       		.uleb128 0
 6443 029f 2C210000 		.4byte	.LASF111
 6444 02a3 05       		.byte	0x5
 6445 02a4 00       		.uleb128 0
 6446 02a5 17710000 		.4byte	.LASF112
 6447 02a9 05       		.byte	0x5
 6448 02aa 00       		.uleb128 0
 6449 02ab 77760000 		.4byte	.LASF113
 6450 02af 05       		.byte	0x5
 6451 02b0 00       		.uleb128 0
 6452 02b1 E7130000 		.4byte	.LASF114
 6453 02b5 05       		.byte	0x5
 6454 02b6 00       		.uleb128 0
 6455 02b7 F3470000 		.4byte	.LASF115
 6456 02bb 05       		.byte	0x5
 6457 02bc 00       		.uleb128 0
 6458 02bd 26470000 		.4byte	.LASF116
 6459 02c1 05       		.byte	0x5
 6460 02c2 00       		.uleb128 0
 6461 02c3 8C470000 		.4byte	.LASF117
 6462 02c7 05       		.byte	0x5
 6463 02c8 00       		.uleb128 0
 6464 02c9 EB450000 		.4byte	.LASF118
 6465 02cd 05       		.byte	0x5
 6466 02ce 00       		.uleb128 0
 6467 02cf 6A3E0000 		.4byte	.LASF119
 6468 02d3 05       		.byte	0x5
 6469 02d4 00       		.uleb128 0
 6470 02d5 333A0000 		.4byte	.LASF120
 6471 02d9 05       		.byte	0x5
 6472 02da 00       		.uleb128 0
 6473 02db 56470000 		.4byte	.LASF121
ARM GAS  /var/folders/f9/8bk2lnw15zn4cbgn6wrnb4lm0000gn/T//ccyV4EJ6.s 			page 138


 6474 02df 05       		.byte	0x5
 6475 02e0 00       		.uleb128 0
 6476 02e1 D4450000 		.4byte	.LASF122
 6477 02e5 05       		.byte	0x5
 6478 02e6 00       		.uleb128 0
 6479 02e7 F01A0000 		.4byte	.LASF123
 6480 02eb 05       		.byte	0x5
 6481 02ec 00       		.uleb128 0
 6482 02ed 8C180000 		.4byte	.LASF124
 6483 02f1 05       		.byte	0x5
 6484 02f2 00       		.uleb128 0
 6485 02f3 425E0000 		.4byte	.LASF125
 6486 02f7 05       		.byte	0x5
 6487 02f8 00       		.uleb128 0
 6488 02f9 4C1B0000 		.4byte	.LASF126
 6489 02fd 05       		.byte	0x5
 6490 02fe 00       		.uleb128 0
 6491 02ff 573D0000 		.4byte	.LASF127
 6492 0303 05       		.byte	0x5
 6493 0304 00       		.uleb128 0
 6494 0305 B7240000 		.4byte	.LASF128
 6495 0309 05       		.byte	0x5
 6496 030a 00       		.uleb128 0
 6497 030b EF290000 		.4byte	.LASF129
 6498 030f 05       		.byte	0x5
 6499 0310 00       		.uleb128 0
 6500 0311 5E280000 		.4byte	.LASF130
 6501 0315 05       		.byte	0x5
 6502 0316 00       		.uleb128 0
 6503 0317 F1060000 		.4byte	.LASF131
 6504 031b 05       		.byte	0x5
 6505 031c 00       		.uleb128 0
 6506 031d A0340000 		.4byte	.LASF132
 6507 0321 05       		.byte	0x5
 6508 0322 00       		.uleb128 0
 6509 0323 DB1C0000 		.4byte	.LASF133
 6510 0327 05       		.byte	0x5
 6511 0328 00       		.uleb128 0
 6512 0329 E0760000 		.4byte	.LASF134
 6513 032d 05       		.byte	0x5
 6514 032e 00       		.uleb128 0
 6515 032f 0C360000 		.4byte	.LASF135
 6516 0333 05       		.byte	0x5
 6517 0334 00       		.uleb128 0
 6518 0335 0B520000 		.4byte	.LASF136
 6519 0339 05       		.byte	0x5
 6520 033a 00       		.uleb128 0
 6521 033b 76750000 		.4byte	.LASF137
 6522 033f 05       		.byte	0x5
 6523 0340 00       		.uleb128 0
 6524 0341 17210000 		.4byte	.LASF138
 6525 0345 05       		.byte	0x5
 6526 0346 00       		.uleb128 0
 6527 0347 33050000 		.4byte	.LASF139
 6528 034b 05       		.byte	0x5
 6529 034c 00       		.uleb128 0
 6530 034d E2660000 		.4byte	.LASF140
ARM GAS  /var/folders/f9/8bk2lnw15zn4cbgn6wrnb4lm0000gn/T//ccyV4EJ6.s 			page 139


 6531 0351 05       		.byte	0x5
 6532 0352 00       		.uleb128 0
 6533 0353 3A700000 		.4byte	.LASF141
 6534 0357 05       		.byte	0x5
 6535 0358 00       		.uleb128 0
 6536 0359 7A140000 		.4byte	.LASF142
 6537 035d 05       		.byte	0x5
 6538 035e 00       		.uleb128 0
 6539 035f 59340000 		.4byte	.LASF143
 6540 0363 05       		.byte	0x5
 6541 0364 00       		.uleb128 0
 6542 0365 996A0000 		.4byte	.LASF144
 6543 0369 05       		.byte	0x5
 6544 036a 00       		.uleb128 0
 6545 036b E1260000 		.4byte	.LASF145
 6546 036f 05       		.byte	0x5
 6547 0370 00       		.uleb128 0
 6548 0371 61650000 		.4byte	.LASF146
 6549 0375 05       		.byte	0x5
 6550 0376 00       		.uleb128 0
 6551 0377 D05F0000 		.4byte	.LASF147
 6552 037b 05       		.byte	0x5
 6553 037c 00       		.uleb128 0
 6554 037d D4070000 		.4byte	.LASF148
 6555 0381 05       		.byte	0x5
 6556 0382 00       		.uleb128 0
 6557 0383 FF6E0000 		.4byte	.LASF149
 6558 0387 05       		.byte	0x5
 6559 0388 00       		.uleb128 0
 6560 0389 9F070000 		.4byte	.LASF150
 6561 038d 05       		.byte	0x5
 6562 038e 00       		.uleb128 0
 6563 038f 29350000 		.4byte	.LASF151
 6564 0393 05       		.byte	0x5
 6565 0394 00       		.uleb128 0
 6566 0395 6B260000 		.4byte	.LASF152
 6567 0399 05       		.byte	0x5
 6568 039a 00       		.uleb128 0
 6569 039b 08450000 		.4byte	.LASF153
 6570 039f 05       		.byte	0x5
 6571 03a0 00       		.uleb128 0
 6572 03a1 5E000000 		.4byte	.LASF154
 6573 03a5 05       		.byte	0x5
 6574 03a6 00       		.uleb128 0
 6575 03a7 3F3E0000 		.4byte	.LASF155
 6576 03ab 05       		.byte	0x5
 6577 03ac 00       		.uleb128 0
 6578 03ad 9B630000 		.4byte	.LASF156
 6579 03b1 05       		.byte	0x5
 6580 03b2 00       		.uleb128 0
 6581 03b3 94390000 		.4byte	.LASF157
 6582 03b7 05       		.byte	0x5
 6583 03b8 00       		.uleb128 0
 6584 03b9 BA3B0000 		.4byte	.LASF158
 6585 03bd 05       		.byte	0x5
 6586 03be 00       		.uleb128 0
 6587 03bf 67530000 		.4byte	.LASF159
ARM GAS  /var/folders/f9/8bk2lnw15zn4cbgn6wrnb4lm0000gn/T//ccyV4EJ6.s 			page 140


 6588 03c3 05       		.byte	0x5
 6589 03c4 00       		.uleb128 0
 6590 03c5 6E450000 		.4byte	.LASF160
 6591 03c9 05       		.byte	0x5
 6592 03ca 00       		.uleb128 0
 6593 03cb CD5E0000 		.4byte	.LASF161
 6594 03cf 05       		.byte	0x5
 6595 03d0 00       		.uleb128 0
 6596 03d1 244E0000 		.4byte	.LASF162
 6597 03d5 05       		.byte	0x5
 6598 03d6 00       		.uleb128 0
 6599 03d7 8E550000 		.4byte	.LASF163
 6600 03db 05       		.byte	0x5
 6601 03dc 00       		.uleb128 0
 6602 03dd EC360000 		.4byte	.LASF164
 6603 03e1 05       		.byte	0x5
 6604 03e2 00       		.uleb128 0
 6605 03e3 1A060000 		.4byte	.LASF165
 6606 03e7 05       		.byte	0x5
 6607 03e8 00       		.uleb128 0
 6608 03e9 0C120000 		.4byte	.LASF166
 6609 03ed 05       		.byte	0x5
 6610 03ee 00       		.uleb128 0
 6611 03ef 9C0F0000 		.4byte	.LASF167
 6612 03f3 05       		.byte	0x5
 6613 03f4 00       		.uleb128 0
 6614 03f5 4C030000 		.4byte	.LASF168
 6615 03f9 05       		.byte	0x5
 6616 03fa 00       		.uleb128 0
 6617 03fb 46520000 		.4byte	.LASF169
 6618 03ff 05       		.byte	0x5
 6619 0400 00       		.uleb128 0
 6620 0401 99480000 		.4byte	.LASF170
 6621 0405 05       		.byte	0x5
 6622 0406 00       		.uleb128 0
 6623 0407 9A060000 		.4byte	.LASF171
 6624 040b 05       		.byte	0x5
 6625 040c 00       		.uleb128 0
 6626 040d A7520000 		.4byte	.LASF172
 6627 0411 05       		.byte	0x5
 6628 0412 00       		.uleb128 0
 6629 0413 761A0000 		.4byte	.LASF173
 6630 0417 05       		.byte	0x5
 6631 0418 00       		.uleb128 0
 6632 0419 976F0000 		.4byte	.LASF174
 6633 041d 05       		.byte	0x5
 6634 041e 00       		.uleb128 0
 6635 041f 7C300000 		.4byte	.LASF175
 6636 0423 05       		.byte	0x5
 6637 0424 00       		.uleb128 0
 6638 0425 0A4B0000 		.4byte	.LASF176
 6639 0429 05       		.byte	0x5
 6640 042a 00       		.uleb128 0
 6641 042b DC140000 		.4byte	.LASF177
 6642 042f 05       		.byte	0x5
 6643 0430 00       		.uleb128 0
 6644 0431 3B1F0000 		.4byte	.LASF178
ARM GAS  /var/folders/f9/8bk2lnw15zn4cbgn6wrnb4lm0000gn/T//ccyV4EJ6.s 			page 141


 6645 0435 05       		.byte	0x5
 6646 0436 00       		.uleb128 0
 6647 0437 D5620000 		.4byte	.LASF179
 6648 043b 05       		.byte	0x5
 6649 043c 00       		.uleb128 0
 6650 043d 6C020000 		.4byte	.LASF180
 6651 0441 05       		.byte	0x5
 6652 0442 00       		.uleb128 0
 6653 0443 5D390000 		.4byte	.LASF181
 6654 0447 05       		.byte	0x5
 6655 0448 00       		.uleb128 0
 6656 0449 D3610000 		.4byte	.LASF182
 6657 044d 05       		.byte	0x5
 6658 044e 00       		.uleb128 0
 6659 044f 8E010000 		.4byte	.LASF183
 6660 0453 05       		.byte	0x5
 6661 0454 00       		.uleb128 0
 6662 0455 52720000 		.4byte	.LASF184
 6663 0459 05       		.byte	0x5
 6664 045a 00       		.uleb128 0
 6665 045b CD350000 		.4byte	.LASF185
 6666 045f 05       		.byte	0x5
 6667 0460 00       		.uleb128 0
 6668 0461 FE730000 		.4byte	.LASF186
 6669 0465 05       		.byte	0x5
 6670 0466 00       		.uleb128 0
 6671 0467 F86A0000 		.4byte	.LASF187
 6672 046b 05       		.byte	0x5
 6673 046c 00       		.uleb128 0
 6674 046d 3A310000 		.4byte	.LASF188
 6675 0471 05       		.byte	0x5
 6676 0472 00       		.uleb128 0
 6677 0473 C6250000 		.4byte	.LASF189
 6678 0477 05       		.byte	0x5
 6679 0478 00       		.uleb128 0
 6680 0479 F7250000 		.4byte	.LASF190
 6681 047d 05       		.byte	0x5
 6682 047e 00       		.uleb128 0
 6683 047f 750B0000 		.4byte	.LASF191
 6684 0483 05       		.byte	0x5
 6685 0484 00       		.uleb128 0
 6686 0485 AD300000 		.4byte	.LASF192
 6687 0489 05       		.byte	0x5
 6688 048a 00       		.uleb128 0
 6689 048b BF1C0000 		.4byte	.LASF193
 6690 048f 05       		.byte	0x5
 6691 0490 00       		.uleb128 0
 6692 0491 CB540000 		.4byte	.LASF194
 6693 0495 05       		.byte	0x5
 6694 0496 00       		.uleb128 0
 6695 0497 9A320000 		.4byte	.LASF195
 6696 049b 05       		.byte	0x5
 6697 049c 00       		.uleb128 0
 6698 049d AD450000 		.4byte	.LASF196
 6699 04a1 05       		.byte	0x5
 6700 04a2 00       		.uleb128 0
 6701 04a3 3F380000 		.4byte	.LASF197
ARM GAS  /var/folders/f9/8bk2lnw15zn4cbgn6wrnb4lm0000gn/T//ccyV4EJ6.s 			page 142


 6702 04a7 05       		.byte	0x5
 6703 04a8 00       		.uleb128 0
 6704 04a9 7D640000 		.4byte	.LASF198
 6705 04ad 05       		.byte	0x5
 6706 04ae 00       		.uleb128 0
 6707 04af 17510000 		.4byte	.LASF199
 6708 04b3 05       		.byte	0x5
 6709 04b4 00       		.uleb128 0
 6710 04b5 1E770000 		.4byte	.LASF200
 6711 04b9 05       		.byte	0x5
 6712 04ba 00       		.uleb128 0
 6713 04bb 3B420000 		.4byte	.LASF201
 6714 04bf 05       		.byte	0x5
 6715 04c0 00       		.uleb128 0
 6716 04c1 A63D0000 		.4byte	.LASF202
 6717 04c5 05       		.byte	0x5
 6718 04c6 00       		.uleb128 0
 6719 04c7 23410000 		.4byte	.LASF203
 6720 04cb 05       		.byte	0x5
 6721 04cc 00       		.uleb128 0
 6722 04cd 284C0000 		.4byte	.LASF204
 6723 04d1 05       		.byte	0x5
 6724 04d2 00       		.uleb128 0
 6725 04d3 14040000 		.4byte	.LASF205
 6726 04d7 05       		.byte	0x5
 6727 04d8 00       		.uleb128 0
 6728 04d9 1C490000 		.4byte	.LASF206
 6729 04dd 05       		.byte	0x5
 6730 04de 00       		.uleb128 0
 6731 04df 3A4C0000 		.4byte	.LASF207
 6732 04e3 05       		.byte	0x5
 6733 04e4 00       		.uleb128 0
 6734 04e5 470D0000 		.4byte	.LASF208
 6735 04e9 05       		.byte	0x5
 6736 04ea 00       		.uleb128 0
 6737 04eb 070E0000 		.4byte	.LASF209
 6738 04ef 05       		.byte	0x5
 6739 04f0 00       		.uleb128 0
 6740 04f1 EC590000 		.4byte	.LASF210
 6741 04f5 05       		.byte	0x5
 6742 04f6 00       		.uleb128 0
 6743 04f7 F1560000 		.4byte	.LASF211
 6744 04fb 05       		.byte	0x5
 6745 04fc 00       		.uleb128 0
 6746 04fd 22620000 		.4byte	.LASF212
 6747 0501 05       		.byte	0x5
 6748 0502 00       		.uleb128 0
 6749 0503 7C700000 		.4byte	.LASF213
 6750 0507 05       		.byte	0x5
 6751 0508 00       		.uleb128 0
 6752 0509 D06C0000 		.4byte	.LASF214
 6753 050d 05       		.byte	0x5
 6754 050e 00       		.uleb128 0
 6755 050f EA690000 		.4byte	.LASF215
 6756 0513 05       		.byte	0x5
 6757 0514 00       		.uleb128 0
 6758 0515 05600000 		.4byte	.LASF216
ARM GAS  /var/folders/f9/8bk2lnw15zn4cbgn6wrnb4lm0000gn/T//ccyV4EJ6.s 			page 143


 6759 0519 05       		.byte	0x5
 6760 051a 00       		.uleb128 0
 6761 051b 815C0000 		.4byte	.LASF217
 6762 051f 05       		.byte	0x5
 6763 0520 00       		.uleb128 0
 6764 0521 090A0000 		.4byte	.LASF218
 6765 0525 05       		.byte	0x5
 6766 0526 00       		.uleb128 0
 6767 0527 283C0000 		.4byte	.LASF219
 6768 052b 05       		.byte	0x5
 6769 052c 00       		.uleb128 0
 6770 052d 4A6C0000 		.4byte	.LASF220
 6771 0531 05       		.byte	0x5
 6772 0532 00       		.uleb128 0
 6773 0533 A7160000 		.4byte	.LASF221
 6774 0537 05       		.byte	0x5
 6775 0538 00       		.uleb128 0
 6776 0539 32690000 		.4byte	.LASF222
 6777 053d 05       		.byte	0x5
 6778 053e 00       		.uleb128 0
 6779 053f B7770000 		.4byte	.LASF223
 6780 0543 05       		.byte	0x5
 6781 0544 00       		.uleb128 0
 6782 0545 31560000 		.4byte	.LASF224
 6783 0549 05       		.byte	0x5
 6784 054a 00       		.uleb128 0
 6785 054b CF560000 		.4byte	.LASF225
 6786 054f 05       		.byte	0x5
 6787 0550 00       		.uleb128 0
 6788 0551 15610000 		.4byte	.LASF226
 6789 0555 05       		.byte	0x5
 6790 0556 00       		.uleb128 0
 6791 0557 846D0000 		.4byte	.LASF227
 6792 055b 05       		.byte	0x5
 6793 055c 00       		.uleb128 0
 6794 055d E52B0000 		.4byte	.LASF228
 6795 0561 05       		.byte	0x5
 6796 0562 00       		.uleb128 0
 6797 0563 8C460000 		.4byte	.LASF229
 6798 0567 05       		.byte	0x5
 6799 0568 00       		.uleb128 0
 6800 0569 B74E0000 		.4byte	.LASF230
 6801 056d 05       		.byte	0x5
 6802 056e 00       		.uleb128 0
 6803 056f FD050000 		.4byte	.LASF231
 6804 0573 05       		.byte	0x5
 6805 0574 00       		.uleb128 0
 6806 0575 B25F0000 		.4byte	.LASF232
 6807 0579 05       		.byte	0x5
 6808 057a 00       		.uleb128 0
 6809 057b 3D130000 		.4byte	.LASF233
 6810 057f 05       		.byte	0x5
 6811 0580 00       		.uleb128 0
 6812 0581 C1630000 		.4byte	.LASF234
 6813 0585 05       		.byte	0x5
 6814 0586 00       		.uleb128 0
 6815 0587 73040000 		.4byte	.LASF235
ARM GAS  /var/folders/f9/8bk2lnw15zn4cbgn6wrnb4lm0000gn/T//ccyV4EJ6.s 			page 144


 6816 058b 05       		.byte	0x5
 6817 058c 00       		.uleb128 0
 6818 058d D2340000 		.4byte	.LASF236
 6819 0591 05       		.byte	0x5
 6820 0592 00       		.uleb128 0
 6821 0593 C56E0000 		.4byte	.LASF237
 6822 0597 05       		.byte	0x5
 6823 0598 00       		.uleb128 0
 6824 0599 933D0000 		.4byte	.LASF238
 6825 059d 05       		.byte	0x5
 6826 059e 00       		.uleb128 0
 6827 059f CB130000 		.4byte	.LASF239
 6828 05a3 05       		.byte	0x5
 6829 05a4 00       		.uleb128 0
 6830 05a5 992E0000 		.4byte	.LASF240
 6831 05a9 05       		.byte	0x5
 6832 05aa 00       		.uleb128 0
 6833 05ab 2C030000 		.4byte	.LASF241
 6834 05af 05       		.byte	0x5
 6835 05b0 00       		.uleb128 0
 6836 05b1 222B0000 		.4byte	.LASF242
 6837 05b5 05       		.byte	0x5
 6838 05b6 00       		.uleb128 0
 6839 05b7 BC2C0000 		.4byte	.LASF243
 6840 05bb 05       		.byte	0x5
 6841 05bc 00       		.uleb128 0
 6842 05bd 03630000 		.4byte	.LASF244
 6843 05c1 05       		.byte	0x5
 6844 05c2 00       		.uleb128 0
 6845 05c3 2F6A0000 		.4byte	.LASF245
 6846 05c7 05       		.byte	0x5
 6847 05c8 00       		.uleb128 0
 6848 05c9 91350000 		.4byte	.LASF246
 6849 05cd 05       		.byte	0x5
 6850 05ce 00       		.uleb128 0
 6851 05cf 37020000 		.4byte	.LASF247
 6852 05d3 05       		.byte	0x5
 6853 05d4 00       		.uleb128 0
 6854 05d5 6E670000 		.4byte	.LASF248
 6855 05d9 05       		.byte	0x5
 6856 05da 00       		.uleb128 0
 6857 05db 7A550000 		.4byte	.LASF249
 6858 05df 05       		.byte	0x5
 6859 05e0 00       		.uleb128 0
 6860 05e1 1D3E0000 		.4byte	.LASF250
 6861 05e5 05       		.byte	0x5
 6862 05e6 00       		.uleb128 0
 6863 05e7 98590000 		.4byte	.LASF251
 6864 05eb 05       		.byte	0x5
 6865 05ec 00       		.uleb128 0
 6866 05ed E06E0000 		.4byte	.LASF252
 6867 05f1 05       		.byte	0x5
 6868 05f2 00       		.uleb128 0
 6869 05f3 065E0000 		.4byte	.LASF253
 6870 05f7 05       		.byte	0x5
 6871 05f8 00       		.uleb128 0
 6872 05f9 EE370000 		.4byte	.LASF254
ARM GAS  /var/folders/f9/8bk2lnw15zn4cbgn6wrnb4lm0000gn/T//ccyV4EJ6.s 			page 145


 6873 05fd 05       		.byte	0x5
 6874 05fe 00       		.uleb128 0
 6875 05ff 10020000 		.4byte	.LASF255
 6876 0603 05       		.byte	0x5
 6877 0604 00       		.uleb128 0
 6878 0605 4D310000 		.4byte	.LASF256
 6879 0609 05       		.byte	0x5
 6880 060a 00       		.uleb128 0
 6881 060b 61580000 		.4byte	.LASF257
 6882 060f 05       		.byte	0x5
 6883 0610 00       		.uleb128 0
 6884 0611 60220000 		.4byte	.LASF258
 6885 0615 05       		.byte	0x5
 6886 0616 00       		.uleb128 0
 6887 0617 10690000 		.4byte	.LASF259
 6888 061b 05       		.byte	0x5
 6889 061c 00       		.uleb128 0
 6890 061d C9770000 		.4byte	.LASF260
 6891 0621 05       		.byte	0x5
 6892 0622 00       		.uleb128 0
 6893 0623 92050000 		.4byte	.LASF261
 6894 0627 05       		.byte	0x5
 6895 0628 00       		.uleb128 0
 6896 0629 A3280000 		.4byte	.LASF262
 6897 062d 05       		.byte	0x5
 6898 062e 00       		.uleb128 0
 6899 062f 3A680000 		.4byte	.LASF263
 6900 0633 05       		.byte	0x5
 6901 0634 00       		.uleb128 0
 6902 0635 1E0A0000 		.4byte	.LASF264
 6903 0639 05       		.byte	0x5
 6904 063a 00       		.uleb128 0
 6905 063b 54710000 		.4byte	.LASF265
 6906 063f 05       		.byte	0x5
 6907 0640 00       		.uleb128 0
 6908 0641 C52B0000 		.4byte	.LASF266
 6909 0645 05       		.byte	0x5
 6910 0646 00       		.uleb128 0
 6911 0647 B10E0000 		.4byte	.LASF267
 6912 064b 05       		.byte	0x5
 6913 064c 00       		.uleb128 0
 6914 064d 5E060000 		.4byte	.LASF268
 6915 0651 05       		.byte	0x5
 6916 0652 00       		.uleb128 0
 6917 0653 43560000 		.4byte	.LASF269
 6918 0657 05       		.byte	0x5
 6919 0658 00       		.uleb128 0
 6920 0659 0D5A0000 		.4byte	.LASF270
 6921 065d 05       		.byte	0x5
 6922 065e 00       		.uleb128 0
 6923 065f 62210000 		.4byte	.LASF271
 6924 0663 05       		.byte	0x5
 6925 0664 00       		.uleb128 0
 6926 0665 A51A0000 		.4byte	.LASF272
 6927 0669 05       		.byte	0x5
 6928 066a 00       		.uleb128 0
 6929 066b 39480000 		.4byte	.LASF273
ARM GAS  /var/folders/f9/8bk2lnw15zn4cbgn6wrnb4lm0000gn/T//ccyV4EJ6.s 			page 146


 6930 066f 05       		.byte	0x5
 6931 0670 00       		.uleb128 0
 6932 0671 F03D0000 		.4byte	.LASF274
 6933 0675 05       		.byte	0x5
 6934 0676 00       		.uleb128 0
 6935 0677 0E0F0000 		.4byte	.LASF275
 6936 067b 05       		.byte	0x5
 6937 067c 00       		.uleb128 0
 6938 067d 8F5E0000 		.4byte	.LASF276
 6939 0681 05       		.byte	0x5
 6940 0682 00       		.uleb128 0
 6941 0683 790E0000 		.4byte	.LASF277
 6942 0687 05       		.byte	0x5
 6943 0688 00       		.uleb128 0
 6944 0689 585E0000 		.4byte	.LASF278
 6945 068d 05       		.byte	0x5
 6946 068e 00       		.uleb128 0
 6947 068f 9C440000 		.4byte	.LASF279
 6948 0693 05       		.byte	0x5
 6949 0694 00       		.uleb128 0
 6950 0695 B06C0000 		.4byte	.LASF280
 6951 0699 05       		.byte	0x5
 6952 069a 00       		.uleb128 0
 6953 069b F0570000 		.4byte	.LASF281
 6954 069f 05       		.byte	0x5
 6955 06a0 00       		.uleb128 0
 6956 06a1 415C0000 		.4byte	.LASF282
 6957 06a5 05       		.byte	0x5
 6958 06a6 00       		.uleb128 0
 6959 06a7 DB240000 		.4byte	.LASF283
 6960 06ab 05       		.byte	0x5
 6961 06ac 00       		.uleb128 0
 6962 06ad 963F0000 		.4byte	.LASF284
 6963 06b1 05       		.byte	0x5
 6964 06b2 00       		.uleb128 0
 6965 06b3 725C0000 		.4byte	.LASF285
 6966 06b7 05       		.byte	0x5
 6967 06b8 00       		.uleb128 0
 6968 06b9 FD350000 		.4byte	.LASF286
 6969 06bd 05       		.byte	0x5
 6970 06be 00       		.uleb128 0
 6971 06bf D3270000 		.4byte	.LASF287
 6972 06c3 05       		.byte	0x5
 6973 06c4 00       		.uleb128 0
 6974 06c5 A11D0000 		.4byte	.LASF288
 6975 06c9 05       		.byte	0x5
 6976 06ca 00       		.uleb128 0
 6977 06cb 632D0000 		.4byte	.LASF289
 6978 06cf 05       		.byte	0x5
 6979 06d0 00       		.uleb128 0
 6980 06d1 3A010000 		.4byte	.LASF290
 6981 06d5 05       		.byte	0x5
 6982 06d6 00       		.uleb128 0
 6983 06d7 90000000 		.4byte	.LASF291
 6984 06db 05       		.byte	0x5
 6985 06dc 00       		.uleb128 0
 6986 06dd 986E0000 		.4byte	.LASF292
ARM GAS  /var/folders/f9/8bk2lnw15zn4cbgn6wrnb4lm0000gn/T//ccyV4EJ6.s 			page 147


 6987 06e1 05       		.byte	0x5
 6988 06e2 00       		.uleb128 0
 6989 06e3 6E4B0000 		.4byte	.LASF293
 6990 06e7 05       		.byte	0x5
 6991 06e8 00       		.uleb128 0
 6992 06e9 BF230000 		.4byte	.LASF294
 6993 06ed 05       		.byte	0x5
 6994 06ee 00       		.uleb128 0
 6995 06ef 3A150000 		.4byte	.LASF295
 6996 06f3 05       		.byte	0x5
 6997 06f4 00       		.uleb128 0
 6998 06f5 BA640000 		.4byte	.LASF296
 6999 06f9 05       		.byte	0x5
 7000 06fa 00       		.uleb128 0
 7001 06fb CF0E0000 		.4byte	.LASF297
 7002 06ff 05       		.byte	0x5
 7003 0700 00       		.uleb128 0
 7004 0701 00690000 		.4byte	.LASF298
 7005 0705 05       		.byte	0x5
 7006 0706 00       		.uleb128 0
 7007 0707 BE610000 		.4byte	.LASF299
 7008 070b 05       		.byte	0x5
 7009 070c 00       		.uleb128 0
 7010 070d B5310000 		.4byte	.LASF300
 7011 0711 05       		.byte	0x5
 7012 0712 00       		.uleb128 0
 7013 0713 A43F0000 		.4byte	.LASF301
 7014 0717 05       		.byte	0x5
 7015 0718 00       		.uleb128 0
 7016 0719 065F0000 		.4byte	.LASF302
 7017 071d 05       		.byte	0x5
 7018 071e 00       		.uleb128 0
 7019 071f EE150000 		.4byte	.LASF303
 7020 0723 05       		.byte	0x5
 7021 0724 00       		.uleb128 0
 7022 0725 FD4B0000 		.4byte	.LASF304
 7023 0729 05       		.byte	0x5
 7024 072a 00       		.uleb128 0
 7025 072b DC390000 		.4byte	.LASF305
 7026 072f 05       		.byte	0x5
 7027 0730 00       		.uleb128 0
 7028 0731 0A1D0000 		.4byte	.LASF306
 7029 0735 05       		.byte	0x5
 7030 0736 00       		.uleb128 0
 7031 0737 19010000 		.4byte	.LASF307
 7032 073b 05       		.byte	0x5
 7033 073c 00       		.uleb128 0
 7034 073d 772B0000 		.4byte	.LASF308
 7035 0741 05       		.byte	0x5
 7036 0742 00       		.uleb128 0
 7037 0743 CA3A0000 		.4byte	.LASF309
 7038 0747 05       		.byte	0x5
 7039 0748 00       		.uleb128 0
 7040 0749 FF3D0000 		.4byte	.LASF310
 7041 074d 05       		.byte	0x5
 7042 074e 00       		.uleb128 0
 7043 074f 17250000 		.4byte	.LASF311
ARM GAS  /var/folders/f9/8bk2lnw15zn4cbgn6wrnb4lm0000gn/T//ccyV4EJ6.s 			page 148


 7044 0753 05       		.byte	0x5
 7045 0754 00       		.uleb128 0
 7046 0755 5D680000 		.4byte	.LASF312
 7047 0759 05       		.byte	0x5
 7048 075a 00       		.uleb128 0
 7049 075b EA510000 		.4byte	.LASF313
 7050 075f 05       		.byte	0x5
 7051 0760 00       		.uleb128 0
 7052 0761 0C160000 		.4byte	.LASF314
 7053 0765 05       		.byte	0x5
 7054 0766 00       		.uleb128 0
 7055 0767 6C230000 		.4byte	.LASF315
 7056 076b 05       		.byte	0x5
 7057 076c 00       		.uleb128 0
 7058 076d 45410000 		.4byte	.LASF316
 7059 0771 05       		.byte	0x5
 7060 0772 00       		.uleb128 0
 7061 0773 7C690000 		.4byte	.LASF317
 7062 0777 05       		.byte	0x5
 7063 0778 00       		.uleb128 0
 7064 0779 3C490000 		.4byte	.LASF318
 7065 077d 05       		.byte	0x5
 7066 077e 00       		.uleb128 0
 7067 077f 7C4C0000 		.4byte	.LASF319
 7068 0783 05       		.byte	0x5
 7069 0784 00       		.uleb128 0
 7070 0785 B9120000 		.4byte	.LASF320
 7071 0789 05       		.byte	0x5
 7072 078a 00       		.uleb128 0
 7073 078b 20070000 		.4byte	.LASF321
 7074 078f 05       		.byte	0x5
 7075 0790 00       		.uleb128 0
 7076 0791 EE4C0000 		.4byte	.LASF322
 7077 0795 05       		.byte	0x5
 7078 0796 00       		.uleb128 0
 7079 0797 58590000 		.4byte	.LASF323
 7080 079b 05       		.byte	0x5
 7081 079c 00       		.uleb128 0
 7082 079d D3550000 		.4byte	.LASF324
 7083 07a1 05       		.byte	0x5
 7084 07a2 00       		.uleb128 0
 7085 07a3 D0700000 		.4byte	.LASF325
 7086 07a7 05       		.byte	0x5
 7087 07a8 00       		.uleb128 0
 7088 07a9 16500000 		.4byte	.LASF326
 7089 07ad 05       		.byte	0x5
 7090 07ae 00       		.uleb128 0
 7091 07af 935D0000 		.4byte	.LASF327
 7092 07b3 05       		.byte	0x5
 7093 07b4 00       		.uleb128 0
 7094 07b5 405D0000 		.4byte	.LASF328
 7095 07b9 05       		.byte	0x5
 7096 07ba 00       		.uleb128 0
 7097 07bb CB360000 		.4byte	.LASF329
 7098 07bf 05       		.byte	0x5
 7099 07c0 00       		.uleb128 0
 7100 07c1 A6100000 		.4byte	.LASF330
ARM GAS  /var/folders/f9/8bk2lnw15zn4cbgn6wrnb4lm0000gn/T//ccyV4EJ6.s 			page 149


 7101 07c5 05       		.byte	0x5
 7102 07c6 00       		.uleb128 0
 7103 07c7 FF5B0000 		.4byte	.LASF331
 7104 07cb 05       		.byte	0x5
 7105 07cc 00       		.uleb128 0
 7106 07cd 30060000 		.4byte	.LASF332
 7107 07d1 05       		.byte	0x5
 7108 07d2 00       		.uleb128 0
 7109 07d3 91160000 		.4byte	.LASF333
 7110 07d7 05       		.byte	0x5
 7111 07d8 00       		.uleb128 0
 7112 07d9 5B620000 		.4byte	.LASF334
 7113 07dd 05       		.byte	0x5
 7114 07de 00       		.uleb128 0
 7115 07df F42D0000 		.4byte	.LASF335
 7116 07e3 05       		.byte	0x5
 7117 07e4 00       		.uleb128 0
 7118 07e5 716A0000 		.4byte	.LASF336
 7119 07e9 05       		.byte	0x5
 7120 07ea 00       		.uleb128 0
 7121 07eb 1A000000 		.4byte	.LASF337
 7122 07ef 05       		.byte	0x5
 7123 07f0 00       		.uleb128 0
 7124 07f1 175D0000 		.4byte	.LASF338
 7125 07f5 05       		.byte	0x5
 7126 07f6 00       		.uleb128 0
 7127 07f7 F7210000 		.4byte	.LASF339
 7128 07fb 05       		.byte	0x5
 7129 07fc 00       		.uleb128 0
 7130 07fd D86B0000 		.4byte	.LASF340
 7131 0801 00       		.byte	0
 7132              		.section	.debug_macro,"G",%progbits,wm4.features.h.22.6a4ca7cd053637cc1d0db6c16f39b2d7,comdat
 7133              	.Ldebug_macro2:
 7134 0000 0400     		.2byte	0x4
 7135 0002 00       		.byte	0
 7136 0003 05       		.byte	0x5
 7137 0004 16       		.uleb128 0x16
 7138 0005 D7220000 		.4byte	.LASF345
 7139 0009 05       		.byte	0x5
 7140 000a 1F       		.uleb128 0x1f
 7141 000b 4F130000 		.4byte	.LASF346
 7142 000f 05       		.byte	0x5
 7143 0010 26       		.uleb128 0x26
 7144 0011 CA680000 		.4byte	.LASF347
 7145 0015 00       		.byte	0
 7146              		.section	.debug_macro,"G",%progbits,wm4._default_types.h.15.8b2cb27e528498f8ff711db085d6e489,comda
 7147              	.Ldebug_macro3:
 7148 0000 0400     		.2byte	0x4
 7149 0002 00       		.byte	0
 7150 0003 05       		.byte	0x5
 7151 0004 0F       		.uleb128 0xf
 7152 0005 3E430000 		.4byte	.LASF348
 7153 0009 05       		.byte	0x5
 7154 000a 1D       		.uleb128 0x1d
 7155 000b B9350000 		.4byte	.LASF349
 7156 000f 05       		.byte	0x5
 7157 0010 27       		.uleb128 0x27
ARM GAS  /var/folders/f9/8bk2lnw15zn4cbgn6wrnb4lm0000gn/T//ccyV4EJ6.s 			page 150


 7158 0011 56260000 		.4byte	.LASF350
 7159 0015 05       		.byte	0x5
 7160 0016 39       		.uleb128 0x39
 7161 0017 90400000 		.4byte	.LASF351
 7162 001b 05       		.byte	0x5
 7163 001c 4F       		.uleb128 0x4f
 7164 001d 52530000 		.4byte	.LASF352
 7165 0021 05       		.byte	0x5
 7166 0022 6A       		.uleb128 0x6a
 7167 0023 A2490000 		.4byte	.LASF353
 7168 0027 05       		.byte	0x5
 7169 0028 8001     		.uleb128 0x80
 7170 002a 0C280000 		.4byte	.LASF354
 7171 002e 05       		.byte	0x5
 7172 002f 9201     		.uleb128 0x92
 7173 0031 975F0000 		.4byte	.LASF355
 7174 0035 05       		.byte	0x5
 7175 0036 A001     		.uleb128 0xa0
 7176 0038 66420000 		.4byte	.LASF356
 7177 003c 06       		.byte	0x6
 7178 003d B201     		.uleb128 0xb2
 7179 003f 31530000 		.4byte	.LASF357
 7180 0043 00       		.byte	0
 7181              		.section	.debug_macro,"G",%progbits,wm4.stdint.h.20.796e373797e732130a803d4c0338fa1b,comdat
 7182              	.Ldebug_macro4:
 7183 0000 0400     		.2byte	0x4
 7184 0002 00       		.byte	0
 7185 0003 05       		.byte	0x5
 7186 0004 14       		.uleb128 0x14
 7187 0005 22430000 		.4byte	.LASF358
 7188 0009 05       		.byte	0x5
 7189 000a 1E       		.uleb128 0x1e
 7190 000b B0580000 		.4byte	.LASF359
 7191 000f 05       		.byte	0x5
 7192 0010 25       		.uleb128 0x25
 7193 0011 13670000 		.4byte	.LASF360
 7194 0015 05       		.byte	0x5
 7195 0016 2B       		.uleb128 0x2b
 7196 0017 B2260000 		.4byte	.LASF361
 7197 001b 05       		.byte	0x5
 7198 001c 31       		.uleb128 0x31
 7199 001d 90720000 		.4byte	.LASF362
 7200 0021 05       		.byte	0x5
 7201 0022 37       		.uleb128 0x37
 7202 0023 64720000 		.4byte	.LASF363
 7203 0027 05       		.byte	0x5
 7204 0028 3D       		.uleb128 0x3d
 7205 0029 082B0000 		.4byte	.LASF364
 7206 002d 05       		.byte	0x5
 7207 002e 43       		.uleb128 0x43
 7208 002f D8360000 		.4byte	.LASF365
 7209 0033 05       		.byte	0x5
 7210 0034 49       		.uleb128 0x49
 7211 0035 9B310000 		.4byte	.LASF366
 7212 0039 05       		.byte	0x5
 7213 003a 4F       		.uleb128 0x4f
 7214 003b D5670000 		.4byte	.LASF367
ARM GAS  /var/folders/f9/8bk2lnw15zn4cbgn6wrnb4lm0000gn/T//ccyV4EJ6.s 			page 151


 7215 003f 05       		.byte	0x5
 7216 0040 55       		.uleb128 0x55
 7217 0041 3E300000 		.4byte	.LASF368
 7218 0045 05       		.byte	0x5
 7219 0046 61       		.uleb128 0x61
 7220 0047 764A0000 		.4byte	.LASF369
 7221 004b 05       		.byte	0x5
 7222 004c 6B       		.uleb128 0x6b
 7223 004d D6440000 		.4byte	.LASF370
 7224 0051 05       		.byte	0x5
 7225 0052 75       		.uleb128 0x75
 7226 0053 8F0D0000 		.4byte	.LASF371
 7227 0057 05       		.byte	0x5
 7228 0058 7F       		.uleb128 0x7f
 7229 0059 3E3D0000 		.4byte	.LASF372
 7230 005d 05       		.byte	0x5
 7231 005e C201     		.uleb128 0xc2
 7232 0060 AE2D0000 		.4byte	.LASF373
 7233 0064 05       		.byte	0x5
 7234 0065 C301     		.uleb128 0xc3
 7235 0067 BE6B0000 		.4byte	.LASF374
 7236 006b 05       		.byte	0x5
 7237 006c C401     		.uleb128 0xc4
 7238 006e B8070000 		.4byte	.LASF375
 7239 0072 05       		.byte	0x5
 7240 0073 DA01     		.uleb128 0xda
 7241 0075 B5320000 		.4byte	.LASF376
 7242 0079 05       		.byte	0x5
 7243 007a DB01     		.uleb128 0xdb
 7244 007c F4750000 		.4byte	.LASF377
 7245 0080 05       		.byte	0x5
 7246 0081 DC01     		.uleb128 0xdc
 7247 0083 AE250000 		.4byte	.LASF378
 7248 0087 05       		.byte	0x5
 7249 0088 E401     		.uleb128 0xe4
 7250 008a 23670000 		.4byte	.LASF379
 7251 008e 05       		.byte	0x5
 7252 008f E501     		.uleb128 0xe5
 7253 0091 E2280000 		.4byte	.LASF380
 7254 0095 05       		.byte	0x5
 7255 0096 E601     		.uleb128 0xe6
 7256 0098 C8500000 		.4byte	.LASF381
 7257 009c 05       		.byte	0x5
 7258 009d F001     		.uleb128 0xf0
 7259 009f B74D0000 		.4byte	.LASF382
 7260 00a3 05       		.byte	0x5
 7261 00a4 F101     		.uleb128 0xf1
 7262 00a6 F12E0000 		.4byte	.LASF383
 7263 00aa 05       		.byte	0x5
 7264 00ab F201     		.uleb128 0xf2
 7265 00ad 722D0000 		.4byte	.LASF384
 7266 00b1 05       		.byte	0x5
 7267 00b2 FA01     		.uleb128 0xfa
 7268 00b4 74410000 		.4byte	.LASF385
 7269 00b8 05       		.byte	0x5
 7270 00b9 FB01     		.uleb128 0xfb
 7271 00bb F8480000 		.4byte	.LASF386
ARM GAS  /var/folders/f9/8bk2lnw15zn4cbgn6wrnb4lm0000gn/T//ccyV4EJ6.s 			page 152


 7272 00bf 05       		.byte	0x5
 7273 00c0 FC01     		.uleb128 0xfc
 7274 00c2 F05A0000 		.4byte	.LASF387
 7275 00c6 05       		.byte	0x5
 7276 00c7 8602     		.uleb128 0x106
 7277 00c9 215D0000 		.4byte	.LASF388
 7278 00cd 05       		.byte	0x5
 7279 00ce 8702     		.uleb128 0x107
 7280 00d0 7B3D0000 		.4byte	.LASF389
 7281 00d4 05       		.byte	0x5
 7282 00d5 8802     		.uleb128 0x108
 7283 00d7 CB0C0000 		.4byte	.LASF390
 7284 00db 05       		.byte	0x5
 7285 00dc 9602     		.uleb128 0x116
 7286 00de 1F630000 		.4byte	.LASF391
 7287 00e2 05       		.byte	0x5
 7288 00e3 9702     		.uleb128 0x117
 7289 00e5 5E1F0000 		.4byte	.LASF392
 7290 00e9 05       		.byte	0x5
 7291 00ea 9802     		.uleb128 0x118
 7292 00ec 9E650000 		.4byte	.LASF393
 7293 00f0 05       		.byte	0x5
 7294 00f1 A802     		.uleb128 0x128
 7295 00f3 EF640000 		.4byte	.LASF394
 7296 00f7 05       		.byte	0x5
 7297 00f8 A902     		.uleb128 0x129
 7298 00fa 04050000 		.4byte	.LASF395
 7299 00fe 05       		.byte	0x5
 7300 00ff AA02     		.uleb128 0x12a
 7301 0101 8E4A0000 		.4byte	.LASF396
 7302 0105 05       		.byte	0x5
 7303 0106 B802     		.uleb128 0x138
 7304 0108 4C110000 		.4byte	.LASF397
 7305 010c 05       		.byte	0x5
 7306 010d B902     		.uleb128 0x139
 7307 010f CB0D0000 		.4byte	.LASF398
 7308 0113 05       		.byte	0x5
 7309 0114 BA02     		.uleb128 0x13a
 7310 0116 78650000 		.4byte	.LASF399
 7311 011a 05       		.byte	0x5
 7312 011b C802     		.uleb128 0x148
 7313 011d AE460000 		.4byte	.LASF400
 7314 0121 05       		.byte	0x5
 7315 0122 C902     		.uleb128 0x149
 7316 0124 0F320000 		.4byte	.LASF401
 7317 0128 05       		.byte	0x5
 7318 0129 CA02     		.uleb128 0x14a
 7319 012b 64170000 		.4byte	.LASF402
 7320 012f 05       		.byte	0x5
 7321 0130 D802     		.uleb128 0x158
 7322 0132 4C1E0000 		.4byte	.LASF403
 7323 0136 05       		.byte	0x5
 7324 0137 D902     		.uleb128 0x159
 7325 0139 F5700000 		.4byte	.LASF404
 7326 013d 05       		.byte	0x5
 7327 013e DA02     		.uleb128 0x15a
 7328 0140 CD6F0000 		.4byte	.LASF405
ARM GAS  /var/folders/f9/8bk2lnw15zn4cbgn6wrnb4lm0000gn/T//ccyV4EJ6.s 			page 153


 7329 0144 05       		.byte	0x5
 7330 0145 E802     		.uleb128 0x168
 7331 0147 90120000 		.4byte	.LASF406
 7332 014b 05       		.byte	0x5
 7333 014c E902     		.uleb128 0x169
 7334 014e 505C0000 		.4byte	.LASF407
 7335 0152 05       		.byte	0x5
 7336 0153 EA02     		.uleb128 0x16a
 7337 0155 39540000 		.4byte	.LASF408
 7338 0159 05       		.byte	0x5
 7339 015a F802     		.uleb128 0x178
 7340 015c 394E0000 		.4byte	.LASF409
 7341 0160 05       		.byte	0x5
 7342 0161 F902     		.uleb128 0x179
 7343 0163 92090000 		.4byte	.LASF410
 7344 0167 05       		.byte	0x5
 7345 0168 FA02     		.uleb128 0x17a
 7346 016a 72430000 		.4byte	.LASF411
 7347 016e 05       		.byte	0x5
 7348 016f 8803     		.uleb128 0x188
 7349 0171 F03F0000 		.4byte	.LASF412
 7350 0175 05       		.byte	0x5
 7351 0176 8903     		.uleb128 0x189
 7352 0178 D7750000 		.4byte	.LASF413
 7353 017c 05       		.byte	0x5
 7354 017d 9103     		.uleb128 0x191
 7355 017f 592E0000 		.4byte	.LASF414
 7356 0183 05       		.byte	0x5
 7357 0184 9903     		.uleb128 0x199
 7358 0186 40140000 		.4byte	.LASF415
 7359 018a 05       		.byte	0x5
 7360 018b 9F03     		.uleb128 0x19f
 7361 018d 092F0000 		.4byte	.LASF416
 7362 0191 05       		.byte	0x5
 7363 0192 A003     		.uleb128 0x1a0
 7364 0194 574C0000 		.4byte	.LASF417
 7365 0198 05       		.byte	0x5
 7366 0199 A403     		.uleb128 0x1a4
 7367 019b F1580000 		.4byte	.LASF418
 7368 019f 05       		.byte	0x5
 7369 01a0 A803     		.uleb128 0x1a8
 7370 01a2 E9230000 		.4byte	.LASF419
 7371 01a6 05       		.byte	0x5
 7372 01a7 AB03     		.uleb128 0x1ab
 7373 01a9 0C4E0000 		.4byte	.LASF420
 7374 01ad 05       		.byte	0x5
 7375 01ae AE03     		.uleb128 0x1ae
 7376 01b0 64500000 		.4byte	.LASF421
 7377 01b4 05       		.byte	0x5
 7378 01b5 B303     		.uleb128 0x1b3
 7379 01b7 A4230000 		.4byte	.LASF422
 7380 01bb 05       		.byte	0x5
 7381 01bc B803     		.uleb128 0x1b8
 7382 01be 8F030000 		.4byte	.LASF423
 7383 01c2 05       		.byte	0x5
 7384 01c3 BF03     		.uleb128 0x1bf
 7385 01c5 94370000 		.4byte	.LASF424
ARM GAS  /var/folders/f9/8bk2lnw15zn4cbgn6wrnb4lm0000gn/T//ccyV4EJ6.s 			page 154


 7386 01c9 05       		.byte	0x5
 7387 01ca C003     		.uleb128 0x1c0
 7388 01cc 8E660000 		.4byte	.LASF425
 7389 01d0 05       		.byte	0x5
 7390 01d1 CB03     		.uleb128 0x1cb
 7391 01d3 1A0E0000 		.4byte	.LASF426
 7392 01d7 05       		.byte	0x5
 7393 01d8 CC03     		.uleb128 0x1cc
 7394 01da E36C0000 		.4byte	.LASF427
 7395 01de 05       		.byte	0x5
 7396 01df D703     		.uleb128 0x1d7
 7397 01e1 ED5F0000 		.4byte	.LASF428
 7398 01e5 05       		.byte	0x5
 7399 01e6 D803     		.uleb128 0x1d8
 7400 01e8 01460000 		.4byte	.LASF429
 7401 01ec 05       		.byte	0x5
 7402 01ed E403     		.uleb128 0x1e4
 7403 01ef 82320000 		.4byte	.LASF430
 7404 01f3 05       		.byte	0x5
 7405 01f4 E503     		.uleb128 0x1e5
 7406 01f6 EC5D0000 		.4byte	.LASF431
 7407 01fa 05       		.byte	0x5
 7408 01fb F403     		.uleb128 0x1f4
 7409 01fd CF230000 		.4byte	.LASF432
 7410 0201 05       		.byte	0x5
 7411 0202 F503     		.uleb128 0x1f5
 7412 0204 0B530000 		.4byte	.LASF433
 7413 0208 00       		.byte	0
 7414              		.section	.debug_macro,"G",%progbits,wm4.stdbool.h.29.1c9ee6859ce8145f7838a4f2549ccec2,comdat
 7415              	.Ldebug_macro5:
 7416 0000 0400     		.2byte	0x4
 7417 0002 00       		.byte	0
 7418 0003 05       		.byte	0x5
 7419 0004 1D       		.uleb128 0x1d
 7420 0005 141E0000 		.4byte	.LASF435
 7421 0009 05       		.byte	0x5
 7422 000a 21       		.uleb128 0x21
 7423 000b 002E0000 		.4byte	.LASF436
 7424 000f 05       		.byte	0x5
 7425 0010 22       		.uleb128 0x22
 7426 0011 574B0000 		.4byte	.LASF437
 7427 0015 05       		.byte	0x5
 7428 0016 23       		.uleb128 0x23
 7429 0017 962B0000 		.4byte	.LASF438
 7430 001b 05       		.byte	0x5
 7431 001c 30       		.uleb128 0x30
 7432 001d 63710000 		.4byte	.LASF439
 7433 0021 00       		.byte	0
 7434              		.section	.debug_macro,"G",%progbits,wm4.lpc_types.h.63.860ba57581a002825766a7c2ac00d549,comdat
 7435              	.Ldebug_macro6:
 7436 0000 0400     		.2byte	0x4
 7437 0002 00       		.byte	0
 7438 0003 05       		.byte	0x5
 7439 0004 3F       		.uleb128 0x3f
 7440 0005 15180000 		.4byte	.LASF440
 7441 0009 05       		.byte	0x5
 7442 000a 45       		.uleb128 0x45
ARM GAS  /var/folders/f9/8bk2lnw15zn4cbgn6wrnb4lm0000gn/T//ccyV4EJ6.s 			page 155


 7443 000b F2080000 		.4byte	.LASF441
 7444 000f 06       		.byte	0x6
 7445 0010 66       		.uleb128 0x66
 7446 0011 E85F0000 		.4byte	.LASF442
 7447 0015 05       		.byte	0x5
 7448 0016 68       		.uleb128 0x68
 7449 0017 3F2B0000 		.4byte	.LASF443
 7450 001b 06       		.byte	0x6
 7451 001c 6E       		.uleb128 0x6e
 7452 001d C6290000 		.4byte	.LASF444
 7453 0021 05       		.byte	0x5
 7454 0022 70       		.uleb128 0x70
 7455 0023 F31C0000 		.4byte	.LASF445
 7456 0027 06       		.byte	0x6
 7457 0028 7F       		.uleb128 0x7f
 7458 0029 E1300000 		.4byte	.LASF446
 7459 002d 05       		.byte	0x5
 7460 002e 8101     		.uleb128 0x81
 7461 0030 436B0000 		.4byte	.LASF447
 7462 0034 05       		.byte	0x5
 7463 0035 8501     		.uleb128 0x85
 7464 0037 23520000 		.4byte	.LASF448
 7465 003b 05       		.byte	0x5
 7466 003c 8901     		.uleb128 0x89
 7467 003e 30440000 		.4byte	.LASF449
 7468 0042 05       		.byte	0x5
 7469 0043 8C01     		.uleb128 0x8c
 7470 0045 F7220000 		.4byte	.LASF450
 7471 0049 05       		.byte	0x5
 7472 004a 8E01     		.uleb128 0x8e
 7473 004c 5A380000 		.4byte	.LASF451
 7474 0050 05       		.byte	0x5
 7475 0051 9101     		.uleb128 0x91
 7476 0053 610B0000 		.4byte	.LASF452
 7477 0057 05       		.byte	0x5
 7478 0058 9401     		.uleb128 0x94
 7479 005a AA370000 		.4byte	.LASF453
 7480 005e 05       		.byte	0x5
 7481 005f 9701     		.uleb128 0x97
 7482 0061 53490000 		.4byte	.LASF454
 7483 0065 05       		.byte	0x5
 7484 0066 D001     		.uleb128 0xd0
 7485 0068 81680000 		.4byte	.LASF455
 7486 006c 00       		.byte	0
 7487              		.section	.debug_macro,"G",%progbits,wm4.sys_config.h.31.9f234e9c90333d233c7e647ebe63e928,comdat
 7488              	.Ldebug_macro7:
 7489 0000 0400     		.2byte	0x4
 7490 0002 00       		.byte	0
 7491 0003 05       		.byte	0x5
 7492 0004 1F       		.uleb128 0x1f
 7493 0005 4B3B0000 		.4byte	.LASF456
 7494 0009 05       		.byte	0x5
 7495 000a 26       		.uleb128 0x26
 7496 000b 431C0000 		.4byte	.LASF457
 7497 000f 00       		.byte	0
 7498              		.section	.debug_macro,"G",%progbits,wm4.cmsis_11cxx.h.33.407e9bbb5d170cd1552d3f7dc3fd5c42,comdat
 7499              	.Ldebug_macro8:
ARM GAS  /var/folders/f9/8bk2lnw15zn4cbgn6wrnb4lm0000gn/T//ccyV4EJ6.s 			page 156


 7500 0000 0400     		.2byte	0x4
 7501 0002 00       		.byte	0
 7502 0003 05       		.byte	0x5
 7503 0004 21       		.uleb128 0x21
 7504 0005 E8710000 		.4byte	.LASF459
 7505 0009 05       		.byte	0x5
 7506 000a 8801     		.uleb128 0x88
 7507 000c BE380000 		.4byte	.LASF460
 7508 0010 05       		.byte	0x5
 7509 0011 8901     		.uleb128 0x89
 7510 0013 046E0000 		.4byte	.LASF461
 7511 0017 05       		.byte	0x5
 7512 0018 8A01     		.uleb128 0x8a
 7513 001a A0510000 		.4byte	.LASF462
 7514 001e 00       		.byte	0
 7515              		.section	.debug_macro,"G",%progbits,wm4.core_cm0.h.32.192d13cfa8b31e63c86621de62eb153f,comdat
 7516              	.Ldebug_macro9:
 7517 0000 0400     		.2byte	0x4
 7518 0002 00       		.byte	0
 7519 0003 05       		.byte	0x5
 7520 0004 20       		.uleb128 0x20
 7521 0005 DB580000 		.4byte	.LASF463
 7522 0009 05       		.byte	0x5
 7523 000a 38       		.uleb128 0x38
 7524 000b 44500000 		.4byte	.LASF464
 7525 000f 05       		.byte	0x5
 7526 0010 39       		.uleb128 0x39
 7527 0011 5D690000 		.4byte	.LASF465
 7528 0015 05       		.byte	0x5
 7529 0016 3A       		.uleb128 0x3a
 7530 0017 821F0000 		.4byte	.LASF466
 7531 001b 05       		.byte	0x5
 7532 001c 3D       		.uleb128 0x3d
 7533 001d D32B0000 		.4byte	.LASF467
 7534 0021 05       		.byte	0x5
 7535 0022 4B       		.uleb128 0x4b
 7536 0023 15100000 		.4byte	.LASF468
 7537 0027 05       		.byte	0x5
 7538 0028 4C       		.uleb128 0x4c
 7539 0029 3F760000 		.4byte	.LASF469
 7540 002d 05       		.byte	0x5
 7541 002e 4D       		.uleb128 0x4d
 7542 002f 083D0000 		.4byte	.LASF470
 7543 0033 05       		.byte	0x5
 7544 0034 58       		.uleb128 0x58
 7545 0035 25690000 		.4byte	.LASF471
 7546 0039 00       		.byte	0
 7547              		.section	.debug_macro,"G",%progbits,wm4.core_cm0.h.120.f4257ea7d0bce0cbabffe223e23b2fd4,comdat
 7548              	.Ldebug_macro10:
 7549 0000 0400     		.2byte	0x4
 7550 0002 00       		.byte	0
 7551 0003 05       		.byte	0x5
 7552 0004 78       		.uleb128 0x78
 7553 0005 78720000 		.4byte	.LASF474
 7554 0009 05       		.byte	0x5
 7555 000a 9701     		.uleb128 0x97
 7556 000c 5C3B0000 		.4byte	.LASF475
ARM GAS  /var/folders/f9/8bk2lnw15zn4cbgn6wrnb4lm0000gn/T//ccyV4EJ6.s 			page 157


 7557 0010 05       		.byte	0x5
 7558 0011 9901     		.uleb128 0x99
 7559 0013 E42E0000 		.4byte	.LASF476
 7560 0017 05       		.byte	0x5
 7561 0018 9A01     		.uleb128 0x9a
 7562 001a 2B660000 		.4byte	.LASF477
 7563 001e 05       		.byte	0x5
 7564 001f B002     		.uleb128 0x130
 7565 0021 D0420000 		.4byte	.LASF478
 7566 0025 05       		.byte	0x5
 7567 0026 B102     		.uleb128 0x131
 7568 0028 90700000 		.4byte	.LASF479
 7569 002c 05       		.byte	0x5
 7570 002d B302     		.uleb128 0x133
 7571 002f 515A0000 		.4byte	.LASF480
 7572 0033 05       		.byte	0x5
 7573 0034 B402     		.uleb128 0x134
 7574 0036 1B460000 		.4byte	.LASF481
 7575 003a 05       		.byte	0x5
 7576 003b B602     		.uleb128 0x136
 7577 003d 0B220000 		.4byte	.LASF482
 7578 0041 05       		.byte	0x5
 7579 0042 B702     		.uleb128 0x137
 7580 0044 32040000 		.4byte	.LASF483
 7581 0048 05       		.byte	0x5
 7582 0049 B902     		.uleb128 0x139
 7583 004b 5E290000 		.4byte	.LASF484
 7584 004f 05       		.byte	0x5
 7585 0050 BA02     		.uleb128 0x13a
 7586 0052 7E1B0000 		.4byte	.LASF485
 7587 0056 05       		.byte	0x5
 7588 0057 BC02     		.uleb128 0x13c
 7589 0059 A5180000 		.4byte	.LASF486
 7590 005d 05       		.byte	0x5
 7591 005e BD02     		.uleb128 0x13d
 7592 0060 F8330000 		.4byte	.LASF487
 7593 0064 05       		.byte	0x5
 7594 0065 C002     		.uleb128 0x140
 7595 0067 CC4F0000 		.4byte	.LASF488
 7596 006b 05       		.byte	0x5
 7597 006c C102     		.uleb128 0x141
 7598 006e 75290000 		.4byte	.LASF489
 7599 0072 05       		.byte	0x5
 7600 0073 C302     		.uleb128 0x143
 7601 0075 AE2E0000 		.4byte	.LASF490
 7602 0079 05       		.byte	0x5
 7603 007a C402     		.uleb128 0x144
 7604 007c C3600000 		.4byte	.LASF491
 7605 0080 05       		.byte	0x5
 7606 0081 C602     		.uleb128 0x146
 7607 0083 F9660000 		.4byte	.LASF492
 7608 0087 05       		.byte	0x5
 7609 0088 C702     		.uleb128 0x147
 7610 008a 27280000 		.4byte	.LASF493
 7611 008e 05       		.byte	0x5
 7612 008f C902     		.uleb128 0x149
 7613 0091 790A0000 		.4byte	.LASF494
ARM GAS  /var/folders/f9/8bk2lnw15zn4cbgn6wrnb4lm0000gn/T//ccyV4EJ6.s 			page 158


 7614 0095 05       		.byte	0x5
 7615 0096 CA02     		.uleb128 0x14a
 7616 0098 1A4F0000 		.4byte	.LASF495
 7617 009c 05       		.byte	0x5
 7618 009d CC02     		.uleb128 0x14c
 7619 009f 86450000 		.4byte	.LASF496
 7620 00a3 05       		.byte	0x5
 7621 00a4 CD02     		.uleb128 0x14d
 7622 00a6 F5020000 		.4byte	.LASF497
 7623 00aa 05       		.byte	0x5
 7624 00ab CF02     		.uleb128 0x14f
 7625 00ad B14F0000 		.4byte	.LASF498
 7626 00b1 05       		.byte	0x5
 7627 00b2 D002     		.uleb128 0x150
 7628 00b4 68380000 		.4byte	.LASF499
 7629 00b8 05       		.byte	0x5
 7630 00b9 D202     		.uleb128 0x152
 7631 00bb E9040000 		.4byte	.LASF500
 7632 00bf 05       		.byte	0x5
 7633 00c0 D302     		.uleb128 0x153
 7634 00c2 F0340000 		.4byte	.LASF501
 7635 00c6 05       		.byte	0x5
 7636 00c7 D502     		.uleb128 0x155
 7637 00c9 FC410000 		.4byte	.LASF502
 7638 00cd 05       		.byte	0x5
 7639 00ce D602     		.uleb128 0x156
 7640 00d0 232C0000 		.4byte	.LASF503
 7641 00d4 05       		.byte	0x5
 7642 00d5 D802     		.uleb128 0x158
 7643 00d7 F6260000 		.4byte	.LASF504
 7644 00db 05       		.byte	0x5
 7645 00dc D902     		.uleb128 0x159
 7646 00de D71D0000 		.4byte	.LASF505
 7647 00e2 05       		.byte	0x5
 7648 00e3 DC02     		.uleb128 0x15c
 7649 00e5 41160000 		.4byte	.LASF506
 7650 00e9 05       		.byte	0x5
 7651 00ea DD02     		.uleb128 0x15d
 7652 00ec FF320000 		.4byte	.LASF507
 7653 00f0 05       		.byte	0x5
 7654 00f1 DF02     		.uleb128 0x15f
 7655 00f3 920C0000 		.4byte	.LASF508
 7656 00f7 05       		.byte	0x5
 7657 00f8 E002     		.uleb128 0x160
 7658 00fa 95750000 		.4byte	.LASF509
 7659 00fe 05       		.byte	0x5
 7660 00ff E202     		.uleb128 0x162
 7661 0101 82670000 		.4byte	.LASF510
 7662 0105 05       		.byte	0x5
 7663 0106 E302     		.uleb128 0x163
 7664 0108 2C1D0000 		.4byte	.LASF511
 7665 010c 05       		.byte	0x5
 7666 010d E502     		.uleb128 0x165
 7667 010f C82E0000 		.4byte	.LASF512
 7668 0113 05       		.byte	0x5
 7669 0114 E602     		.uleb128 0x166
 7670 0116 02380000 		.4byte	.LASF513
ARM GAS  /var/folders/f9/8bk2lnw15zn4cbgn6wrnb4lm0000gn/T//ccyV4EJ6.s 			page 159


 7671 011a 05       		.byte	0x5
 7672 011b E802     		.uleb128 0x168
 7673 011d AB710000 		.4byte	.LASF514
 7674 0121 05       		.byte	0x5
 7675 0122 E902     		.uleb128 0x169
 7676 0124 C0030000 		.4byte	.LASF515
 7677 0128 05       		.byte	0x5
 7678 0129 EC02     		.uleb128 0x16c
 7679 012b CE4E0000 		.4byte	.LASF516
 7680 012f 05       		.byte	0x5
 7681 0130 ED02     		.uleb128 0x16d
 7682 0132 EE740000 		.4byte	.LASF517
 7683 0136 05       		.byte	0x5
 7684 0137 EF02     		.uleb128 0x16f
 7685 0139 F4270000 		.4byte	.LASF518
 7686 013d 05       		.byte	0x5
 7687 013e F002     		.uleb128 0x170
 7688 0140 C4650000 		.4byte	.LASF519
 7689 0144 05       		.byte	0x5
 7690 0145 F202     		.uleb128 0x172
 7691 0147 C5020000 		.4byte	.LASF520
 7692 014b 05       		.byte	0x5
 7693 014c F302     		.uleb128 0x173
 7694 014e 25200000 		.4byte	.LASF521
 7695 0152 05       		.byte	0x5
 7696 0153 F602     		.uleb128 0x176
 7697 0155 8F680000 		.4byte	.LASF522
 7698 0159 05       		.byte	0x5
 7699 015a F702     		.uleb128 0x177
 7700 015c E20F0000 		.4byte	.LASF523
 7701 0160 05       		.byte	0x5
 7702 0161 F902     		.uleb128 0x179
 7703 0163 FD720000 		.4byte	.LASF524
 7704 0167 05       		.byte	0x5
 7705 0168 FA02     		.uleb128 0x17a
 7706 016a B8060000 		.4byte	.LASF525
 7707 016e 05       		.byte	0x5
 7708 016f FD02     		.uleb128 0x17d
 7709 0171 25640000 		.4byte	.LASF526
 7710 0175 05       		.byte	0x5
 7711 0176 FE02     		.uleb128 0x17e
 7712 0178 AF4C0000 		.4byte	.LASF527
 7713 017c 05       		.byte	0x5
 7714 017d 9403     		.uleb128 0x194
 7715 017f EA2A0000 		.4byte	.LASF528
 7716 0183 05       		.byte	0x5
 7717 0184 9503     		.uleb128 0x195
 7718 0186 AB690000 		.4byte	.LASF529
 7719 018a 05       		.byte	0x5
 7720 018b 9703     		.uleb128 0x197
 7721 018d 900B0000 		.4byte	.LASF530
 7722 0191 05       		.byte	0x5
 7723 0192 9803     		.uleb128 0x198
 7724 0194 BE050000 		.4byte	.LASF531
 7725 0198 05       		.byte	0x5
 7726 0199 9A03     		.uleb128 0x19a
 7727 019b D1120000 		.4byte	.LASF532
ARM GAS  /var/folders/f9/8bk2lnw15zn4cbgn6wrnb4lm0000gn/T//ccyV4EJ6.s 			page 160


 7728 019f 05       		.byte	0x5
 7729 01a0 9B03     		.uleb128 0x19b
 7730 01a2 AF5B0000 		.4byte	.LASF533
 7731 01a6 05       		.byte	0x5
 7732 01a7 9D03     		.uleb128 0x19d
 7733 01a9 5B270000 		.4byte	.LASF534
 7734 01ad 05       		.byte	0x5
 7735 01ae 9E03     		.uleb128 0x19e
 7736 01b0 85610000 		.4byte	.LASF535
 7737 01b4 05       		.byte	0x5
 7738 01b5 A103     		.uleb128 0x1a1
 7739 01b7 E9670000 		.4byte	.LASF536
 7740 01bb 05       		.byte	0x5
 7741 01bc A203     		.uleb128 0x1a2
 7742 01be 2F600000 		.4byte	.LASF537
 7743 01c2 05       		.byte	0x5
 7744 01c3 A503     		.uleb128 0x1a5
 7745 01c5 7D530000 		.4byte	.LASF538
 7746 01c9 05       		.byte	0x5
 7747 01ca A603     		.uleb128 0x1a6
 7748 01cc 59480000 		.4byte	.LASF539
 7749 01d0 05       		.byte	0x5
 7750 01d1 A903     		.uleb128 0x1a9
 7751 01d3 FA600000 		.4byte	.LASF540
 7752 01d7 05       		.byte	0x5
 7753 01d8 AA03     		.uleb128 0x1aa
 7754 01da AE200000 		.4byte	.LASF541
 7755 01de 05       		.byte	0x5
 7756 01df AC03     		.uleb128 0x1ac
 7757 01e1 580F0000 		.4byte	.LASF542
 7758 01e5 05       		.byte	0x5
 7759 01e6 AD03     		.uleb128 0x1ad
 7760 01e8 616E0000 		.4byte	.LASF543
 7761 01ec 05       		.byte	0x5
 7762 01ed AF03     		.uleb128 0x1af
 7763 01ef 01370000 		.4byte	.LASF544
 7764 01f3 05       		.byte	0x5
 7765 01f4 B003     		.uleb128 0x1b0
 7766 01f6 F9530000 		.4byte	.LASF545
 7767 01fa 05       		.byte	0x5
 7768 01fb C603     		.uleb128 0x1c6
 7769 01fd 46510000 		.4byte	.LASF546
 7770 0201 05       		.byte	0x5
 7771 0202 C703     		.uleb128 0x1c7
 7772 0204 5F370000 		.4byte	.LASF547
 7773 0208 05       		.byte	0x5
 7774 0209 C803     		.uleb128 0x1c8
 7775 020b F9000000 		.4byte	.LASF548
 7776 020f 05       		.byte	0x5
 7777 0210 C903     		.uleb128 0x1c9
 7778 0212 9F410000 		.4byte	.LASF549
 7779 0216 05       		.byte	0x5
 7780 0217 CB03     		.uleb128 0x1cb
 7781 0219 245C0000 		.4byte	.LASF550
 7782 021d 05       		.byte	0x5
 7783 021e CC03     		.uleb128 0x1cc
 7784 0220 B9660000 		.4byte	.LASF551
ARM GAS  /var/folders/f9/8bk2lnw15zn4cbgn6wrnb4lm0000gn/T//ccyV4EJ6.s 			page 161


 7785 0224 05       		.byte	0x5
 7786 0225 CD03     		.uleb128 0x1cd
 7787 0227 20450000 		.4byte	.LASF552
 7788 022b 05       		.byte	0x5
 7789 022c E903     		.uleb128 0x1e9
 7790 022e BA3F0000 		.4byte	.LASF553
 7791 0232 05       		.byte	0x5
 7792 0233 EA03     		.uleb128 0x1ea
 7793 0235 4F5B0000 		.4byte	.LASF554
 7794 0239 05       		.byte	0x5
 7795 023a EB03     		.uleb128 0x1eb
 7796 023c AC440000 		.4byte	.LASF555
 7797 0240 00       		.byte	0
 7798              		.section	.debug_macro,"G",%progbits,wm4.chip.h.116.857da603c399e979152c31968de4baae,comdat
 7799              	.Ldebug_macro11:
 7800 0000 0400     		.2byte	0x4
 7801 0002 00       		.byte	0
 7802 0003 05       		.byte	0x5
 7803 0004 74       		.uleb128 0x74
 7804 0005 1C720000 		.4byte	.LASF556
 7805 0009 05       		.byte	0x5
 7806 000a 75       		.uleb128 0x75
 7807 000b D1010000 		.4byte	.LASF557
 7808 000f 05       		.byte	0x5
 7809 0010 76       		.uleb128 0x76
 7810 0011 091B0000 		.4byte	.LASF558
 7811 0015 05       		.byte	0x5
 7812 0016 77       		.uleb128 0x77
 7813 0017 BF5D0000 		.4byte	.LASF559
 7814 001b 05       		.byte	0x5
 7815 001c 78       		.uleb128 0x78
 7816 001d 75270000 		.4byte	.LASF560
 7817 0021 05       		.byte	0x5
 7818 0022 79       		.uleb128 0x79
 7819 0023 B5080000 		.4byte	.LASF561
 7820 0027 05       		.byte	0x5
 7821 0028 7A       		.uleb128 0x7a
 7822 0029 40060000 		.4byte	.LASF562
 7823 002d 05       		.byte	0x5
 7824 002e 7B       		.uleb128 0x7b
 7825 002f 62250000 		.4byte	.LASF563
 7826 0033 05       		.byte	0x5
 7827 0034 7C       		.uleb128 0x7c
 7828 0035 2B6B0000 		.4byte	.LASF564
 7829 0039 05       		.byte	0x5
 7830 003a 7D       		.uleb128 0x7d
 7831 003b 28160000 		.4byte	.LASF565
 7832 003f 05       		.byte	0x5
 7833 0040 7E       		.uleb128 0x7e
 7834 0041 263D0000 		.4byte	.LASF566
 7835 0045 05       		.byte	0x5
 7836 0046 7F       		.uleb128 0x7f
 7837 0047 5A410000 		.4byte	.LASF567
 7838 004b 05       		.byte	0x5
 7839 004c 8001     		.uleb128 0x80
 7840 004e 264D0000 		.4byte	.LASF568
 7841 0052 05       		.byte	0x5
ARM GAS  /var/folders/f9/8bk2lnw15zn4cbgn6wrnb4lm0000gn/T//ccyV4EJ6.s 			page 162


 7842 0053 8101     		.uleb128 0x81
 7843 0055 DF000000 		.4byte	.LASF569
 7844 0059 05       		.byte	0x5
 7845 005a 8201     		.uleb128 0x82
 7846 005c 752E0000 		.4byte	.LASF570
 7847 0060 05       		.byte	0x5
 7848 0061 8301     		.uleb128 0x83
 7849 0063 C2590000 		.4byte	.LASF571
 7850 0067 05       		.byte	0x5
 7851 0068 8401     		.uleb128 0x84
 7852 006a DB2D0000 		.4byte	.LASF572
 7853 006e 05       		.byte	0x5
 7854 006f 8501     		.uleb128 0x85
 7855 0071 F00A0000 		.4byte	.LASF573
 7856 0075 05       		.byte	0x5
 7857 0076 9001     		.uleb128 0x90
 7858 0078 D95C0000 		.4byte	.LASF574
 7859 007c 05       		.byte	0x5
 7860 007d 9101     		.uleb128 0x91
 7861 007f D22F0000 		.4byte	.LASF575
 7862 0083 05       		.byte	0x5
 7863 0084 9301     		.uleb128 0x93
 7864 0086 E73B0000 		.4byte	.LASF576
 7865 008a 05       		.byte	0x5
 7866 008b 9401     		.uleb128 0x94
 7867 008d F0310000 		.4byte	.LASF577
 7868 0091 05       		.byte	0x5
 7869 0092 9701     		.uleb128 0x97
 7870 0094 536A0000 		.4byte	.LASF578
 7871 0098 05       		.byte	0x5
 7872 0099 9801     		.uleb128 0x98
 7873 009b D7210000 		.4byte	.LASF579
 7874 009f 05       		.byte	0x5
 7875 00a0 9B01     		.uleb128 0x9b
 7876 00a2 492A0000 		.4byte	.LASF580
 7877 00a6 05       		.byte	0x5
 7878 00a7 9E01     		.uleb128 0x9e
 7879 00a9 875B0000 		.4byte	.LASF581
 7880 00ad 05       		.byte	0x5
 7881 00ae 9F01     		.uleb128 0x9f
 7882 00b0 856C0000 		.4byte	.LASF582
 7883 00b4 05       		.byte	0x5
 7884 00b5 A001     		.uleb128 0xa0
 7885 00b7 5E350000 		.4byte	.LASF583
 7886 00bb 05       		.byte	0x5
 7887 00bc A101     		.uleb128 0xa1
 7888 00be E6380000 		.4byte	.LASF584
 7889 00c2 05       		.byte	0x5
 7890 00c3 A201     		.uleb128 0xa2
 7891 00c5 31170000 		.4byte	.LASF585
 7892 00c9 05       		.byte	0x5
 7893 00ca A301     		.uleb128 0xa3
 7894 00cc 871E0000 		.4byte	.LASF586
 7895 00d0 05       		.byte	0x5
 7896 00d1 A401     		.uleb128 0xa4
 7897 00d3 522B0000 		.4byte	.LASF587
 7898 00d7 05       		.byte	0x5
ARM GAS  /var/folders/f9/8bk2lnw15zn4cbgn6wrnb4lm0000gn/T//ccyV4EJ6.s 			page 163


 7899 00d8 B101     		.uleb128 0xb1
 7900 00da 1A760000 		.4byte	.LASF588
 7901 00de 05       		.byte	0x5
 7902 00df B201     		.uleb128 0xb2
 7903 00e1 0D590000 		.4byte	.LASF589
 7904 00e5 05       		.byte	0x5
 7905 00e6 B301     		.uleb128 0xb3
 7906 00e8 13310000 		.4byte	.LASF590
 7907 00ec 05       		.byte	0x5
 7908 00ed B401     		.uleb128 0xb4
 7909 00ef BE520000 		.4byte	.LASF591
 7910 00f3 05       		.byte	0x5
 7911 00f4 B501     		.uleb128 0xb5
 7912 00f6 E9240000 		.4byte	.LASF592
 7913 00fa 05       		.byte	0x5
 7914 00fb B701     		.uleb128 0xb7
 7915 00fd A53C0000 		.4byte	.LASF593
 7916 0101 05       		.byte	0x5
 7917 0102 B801     		.uleb128 0xb8
 7918 0104 A3130000 		.4byte	.LASF594
 7919 0108 05       		.byte	0x5
 7920 0109 BA01     		.uleb128 0xba
 7921 010b C66D0000 		.4byte	.LASF595
 7922 010f 05       		.byte	0x5
 7923 0110 C101     		.uleb128 0xc1
 7924 0112 99220000 		.4byte	.LASF596
 7925 0116 05       		.byte	0x5
 7926 0117 C401     		.uleb128 0xc4
 7927 0119 113B0000 		.4byte	.LASF597
 7928 011d 00       		.byte	0
 7929              		.section	.debug_macro,"G",%progbits,wm4.pmu_11xx.h.33.1d6b708881441cb98d19b8bab3caa180,comdat
 7930              	.Ldebug_macro12:
 7931 0000 0400     		.2byte	0x4
 7932 0002 00       		.byte	0
 7933 0003 05       		.byte	0x5
 7934 0004 21       		.uleb128 0x21
 7935 0005 57420000 		.4byte	.LASF598
 7936 0009 05       		.byte	0x5
 7937 000a 4D       		.uleb128 0x4d
 7938 000b 5E5D0000 		.4byte	.LASF599
 7939 000f 05       		.byte	0x5
 7940 0010 53       		.uleb128 0x53
 7941 0011 6A330000 		.4byte	.LASF600
 7942 0015 05       		.byte	0x5
 7943 0016 55       		.uleb128 0x55
 7944 0017 A06D0000 		.4byte	.LASF601
 7945 001b 05       		.byte	0x5
 7946 001c 56       		.uleb128 0x56
 7947 001d 90690000 		.4byte	.LASF602
 7948 0021 00       		.byte	0
 7949              		.section	.debug_macro,"G",%progbits,wm4.sysctl_11xx.h.33.ae61a1181e608f8409883008e291930c,comdat
 7950              	.Ldebug_macro13:
 7951 0000 0400     		.2byte	0x4
 7952 0002 00       		.byte	0
 7953 0003 05       		.byte	0x5
 7954 0004 21       		.uleb128 0x21
 7955 0005 8A6B0000 		.4byte	.LASF604
ARM GAS  /var/folders/f9/8bk2lnw15zn4cbgn6wrnb4lm0000gn/T//ccyV4EJ6.s 			page 164


 7956 0009 05       		.byte	0x5
 7957 000a BC01     		.uleb128 0xbc
 7958 000c 54020000 		.4byte	.LASF605
 7959 0010 05       		.byte	0x5
 7960 0011 BD01     		.uleb128 0xbd
 7961 0013 17080000 		.4byte	.LASF606
 7962 0017 05       		.byte	0x5
 7963 0018 BE01     		.uleb128 0xbe
 7964 001a 412E0000 		.4byte	.LASF607
 7965 001e 05       		.byte	0x5
 7966 001f BF01     		.uleb128 0xbf
 7967 0021 726B0000 		.4byte	.LASF608
 7968 0025 05       		.byte	0x5
 7969 0026 C001     		.uleb128 0xc0
 7970 0028 1A5F0000 		.4byte	.LASF609
 7971 002c 05       		.byte	0x5
 7972 002d C501     		.uleb128 0xc5
 7973 002f 50180000 		.4byte	.LASF610
 7974 0033 05       		.byte	0x5
 7975 0034 A904     		.uleb128 0x229
 7976 0036 3C270000 		.4byte	.LASF611
 7977 003a 05       		.byte	0x5
 7978 003b AA04     		.uleb128 0x22a
 7979 003d 885A0000 		.4byte	.LASF612
 7980 0041 05       		.byte	0x5
 7981 0042 C904     		.uleb128 0x249
 7982 0044 636C0000 		.4byte	.LASF613
 7983 0048 05       		.byte	0x5
 7984 0049 CA04     		.uleb128 0x24a
 7985 004b 1B700000 		.4byte	.LASF614
 7986 004f 05       		.byte	0x5
 7987 0050 CB04     		.uleb128 0x24b
 7988 0052 3E370000 		.4byte	.LASF615
 7989 0056 05       		.byte	0x5
 7990 0057 CC04     		.uleb128 0x24c
 7991 0059 43100000 		.4byte	.LASF616
 7992 005d 05       		.byte	0x5
 7993 005e CD04     		.uleb128 0x24d
 7994 0060 B0560000 		.4byte	.LASF617
 7995 0064 05       		.byte	0x5
 7996 0065 CE04     		.uleb128 0x24e
 7997 0067 113F0000 		.4byte	.LASF618
 7998 006b 05       		.byte	0x5
 7999 006c CF04     		.uleb128 0x24f
 8000 006e B3670000 		.4byte	.LASF619
 8001 0072 05       		.byte	0x5
 8002 0073 D004     		.uleb128 0x250
 8003 0075 2F5A0000 		.4byte	.LASF620
 8004 0079 05       		.byte	0x5
 8005 007a F104     		.uleb128 0x271
 8006 007c 52460000 		.4byte	.LASF621
 8007 0080 05       		.byte	0x5
 8008 0081 F204     		.uleb128 0x272
 8009 0083 BD4B0000 		.4byte	.LASF622
 8010 0087 05       		.byte	0x5
 8011 0088 F304     		.uleb128 0x273
 8012 008a 131C0000 		.4byte	.LASF623
ARM GAS  /var/folders/f9/8bk2lnw15zn4cbgn6wrnb4lm0000gn/T//ccyV4EJ6.s 			page 165


 8013 008e 05       		.byte	0x5
 8014 008f F504     		.uleb128 0x275
 8015 0091 0F440000 		.4byte	.LASF624
 8016 0095 05       		.byte	0x5
 8017 0096 F704     		.uleb128 0x277
 8018 0098 DC100000 		.4byte	.LASF625
 8019 009c 05       		.byte	0x5
 8020 009d F804     		.uleb128 0x278
 8021 009f B00A0000 		.4byte	.LASF626
 8022 00a3 05       		.byte	0x5
 8023 00a4 F904     		.uleb128 0x279
 8024 00a6 AF270000 		.4byte	.LASF627
 8025 00aa 05       		.byte	0x5
 8026 00ab FA04     		.uleb128 0x27a
 8027 00ad DB4A0000 		.4byte	.LASF628
 8028 00b1 00       		.byte	0
 8029              		.section	.debug_macro,"G",%progbits,wm4.clock_11xx.h.33.23290a9e2ed919e3a6958d25130bc848,comdat
 8030              	.Ldebug_macro14:
 8031 0000 0400     		.2byte	0x4
 8032 0002 00       		.byte	0
 8033 0003 05       		.byte	0x5
 8034 0004 21       		.uleb128 0x21
 8035 0005 09680000 		.4byte	.LASF629
 8036 0009 05       		.byte	0x5
 8037 000a 2D       		.uleb128 0x2d
 8038 000b 355F0000 		.4byte	.LASF630
 8039 000f 00       		.byte	0
 8040              		.section	.debug_macro,"G",%progbits,wm4.iocon_11xx.h.33.25e2b3cde122df23fb07b984cb4f3a93,comdat
 8041              	.Ldebug_macro15:
 8042 0000 0400     		.2byte	0x4
 8043 0002 00       		.byte	0
 8044 0003 05       		.byte	0x5
 8045 0004 21       		.uleb128 0x21
 8046 0005 EB2C0000 		.4byte	.LASF631
 8047 0009 05       		.byte	0x5
 8048 000a A601     		.uleb128 0xa6
 8049 000c 49340000 		.4byte	.LASF632
 8050 0010 05       		.byte	0x5
 8051 0011 A701     		.uleb128 0xa7
 8052 0013 B4090000 		.4byte	.LASF633
 8053 0017 05       		.byte	0x5
 8054 0018 A801     		.uleb128 0xa8
 8055 001a 161A0000 		.4byte	.LASF634
 8056 001e 05       		.byte	0x5
 8057 001f A901     		.uleb128 0xa9
 8058 0021 4E5D0000 		.4byte	.LASF635
 8059 0025 05       		.byte	0x5
 8060 0026 AA01     		.uleb128 0xaa
 8061 0028 5E4B0000 		.4byte	.LASF636
 8062 002c 05       		.byte	0x5
 8063 002d AB01     		.uleb128 0xab
 8064 002f CC390000 		.4byte	.LASF637
 8065 0033 05       		.byte	0x5
 8066 0034 AC01     		.uleb128 0xac
 8067 0036 81260000 		.4byte	.LASF638
 8068 003a 05       		.byte	0x5
 8069 003b AD01     		.uleb128 0xad
ARM GAS  /var/folders/f9/8bk2lnw15zn4cbgn6wrnb4lm0000gn/T//ccyV4EJ6.s 			page 166


 8070 003d 80120000 		.4byte	.LASF639
 8071 0041 05       		.byte	0x5
 8072 0042 AE01     		.uleb128 0xae
 8073 0044 43640000 		.4byte	.LASF640
 8074 0048 05       		.byte	0x5
 8075 0049 AF01     		.uleb128 0xaf
 8076 004b F84C0000 		.4byte	.LASF641
 8077 004f 05       		.byte	0x5
 8078 0050 B001     		.uleb128 0xb0
 8079 0052 505F0000 		.4byte	.LASF642
 8080 0056 05       		.byte	0x5
 8081 0057 B101     		.uleb128 0xb1
 8082 0059 696F0000 		.4byte	.LASF643
 8083 005d 05       		.byte	0x5
 8084 005e B201     		.uleb128 0xb2
 8085 0060 E64E0000 		.4byte	.LASF644
 8086 0064 05       		.byte	0x5
 8087 0065 B301     		.uleb128 0xb3
 8088 0067 0F230000 		.4byte	.LASF645
 8089 006b 05       		.byte	0x5
 8090 006c B401     		.uleb128 0xb4
 8091 006e 37530000 		.4byte	.LASF646
 8092 0072 05       		.byte	0x5
 8093 0073 B501     		.uleb128 0xb5
 8094 0075 5A080000 		.4byte	.LASF647
 8095 0079 05       		.byte	0x5
 8096 007a B601     		.uleb128 0xb6
 8097 007c FD100000 		.4byte	.LASF648
 8098 0080 05       		.byte	0x5
 8099 0081 B701     		.uleb128 0xb7
 8100 0083 4A630000 		.4byte	.LASF649
 8101 0087 05       		.byte	0x5
 8102 0088 B801     		.uleb128 0xb8
 8103 008a 09640000 		.4byte	.LASF650
 8104 008e 05       		.byte	0x5
 8105 008f B901     		.uleb128 0xb9
 8106 0091 A0640000 		.4byte	.LASF651
 8107 0095 05       		.byte	0x5
 8108 0096 BA01     		.uleb128 0xba
 8109 0098 F7140000 		.4byte	.LASF652
 8110 009c 05       		.byte	0x5
 8111 009d C001     		.uleb128 0xc0
 8112 009f AD0B0000 		.4byte	.LASF653
 8113 00a3 05       		.byte	0x5
 8114 00a4 C101     		.uleb128 0xc1
 8115 00a6 39660000 		.4byte	.LASF654
 8116 00aa 05       		.byte	0x5
 8117 00ab C201     		.uleb128 0xc2
 8118 00ad 855F0000 		.4byte	.LASF655
 8119 00b1 05       		.byte	0x5
 8120 00b2 C301     		.uleb128 0xc3
 8121 00b4 C0740000 		.4byte	.LASF656
 8122 00b8 05       		.byte	0x5
 8123 00b9 C401     		.uleb128 0xc4
 8124 00bb 5E200000 		.4byte	.LASF657
 8125 00bf 05       		.byte	0x5
 8126 00c0 C501     		.uleb128 0xc5
ARM GAS  /var/folders/f9/8bk2lnw15zn4cbgn6wrnb4lm0000gn/T//ccyV4EJ6.s 			page 167


 8127 00c2 7A180000 		.4byte	.LASF658
 8128 00c6 05       		.byte	0x5
 8129 00c7 C601     		.uleb128 0xc6
 8130 00c9 7A190000 		.4byte	.LASF659
 8131 00cd 05       		.byte	0x5
 8132 00ce C701     		.uleb128 0xc7
 8133 00d0 76460000 		.4byte	.LASF660
 8134 00d4 05       		.byte	0x5
 8135 00d5 C801     		.uleb128 0xc8
 8136 00d7 F4160000 		.4byte	.LASF661
 8137 00db 05       		.byte	0x5
 8138 00dc C901     		.uleb128 0xc9
 8139 00de 8C540000 		.4byte	.LASF662
 8140 00e2 05       		.byte	0x5
 8141 00e3 CA01     		.uleb128 0xca
 8142 00e5 42470000 		.4byte	.LASF663
 8143 00e9 05       		.byte	0x5
 8144 00ea CB01     		.uleb128 0xcb
 8145 00ec 08240000 		.4byte	.LASF664
 8146 00f0 05       		.byte	0x5
 8147 00f1 CC01     		.uleb128 0xcc
 8148 00f3 B2430000 		.4byte	.LASF665
 8149 00f7 05       		.byte	0x5
 8150 00f8 CD01     		.uleb128 0xcd
 8151 00fa 806A0000 		.4byte	.LASF666
 8152 00fe 05       		.byte	0x5
 8153 00ff CE01     		.uleb128 0xce
 8154 0101 026C0000 		.4byte	.LASF667
 8155 0105 05       		.byte	0x5
 8156 0106 CF01     		.uleb128 0xcf
 8157 0108 BC6D0000 		.4byte	.LASF668
 8158 010c 05       		.byte	0x5
 8159 010d D001     		.uleb128 0xd0
 8160 010f C55C0000 		.4byte	.LASF669
 8161 0113 05       		.byte	0x5
 8162 0114 D101     		.uleb128 0xd1
 8163 0116 A84A0000 		.4byte	.LASF670
 8164 011a 05       		.byte	0x5
 8165 011b D201     		.uleb128 0xd2
 8166 011d A93E0000 		.4byte	.LASF671
 8167 0121 05       		.byte	0x5
 8168 0122 D301     		.uleb128 0xd3
 8169 0124 0E260000 		.4byte	.LASF672
 8170 0128 05       		.byte	0x5
 8171 0129 D401     		.uleb128 0xd4
 8172 012b 91310000 		.4byte	.LASF673
 8173 012f 05       		.byte	0x5
 8174 0130 D501     		.uleb128 0xd5
 8175 0132 0A760000 		.4byte	.LASF674
 8176 0136 00       		.byte	0
 8177              		.section	.debug_macro,"G",%progbits,wm4.timer_11xx.h.33.c92f50a9325789ee6a8ffd6248980d70,comdat
 8178              	.Ldebug_macro16:
 8179 0000 0400     		.2byte	0x4
 8180 0002 00       		.byte	0
 8181 0003 05       		.byte	0x5
 8182 0004 21       		.uleb128 0x21
 8183 0005 F16B0000 		.4byte	.LASF675
ARM GAS  /var/folders/f9/8bk2lnw15zn4cbgn6wrnb4lm0000gn/T//ccyV4EJ6.s 			page 168


 8184 0009 05       		.byte	0x5
 8185 000a 40       		.uleb128 0x40
 8186 000b 54090000 		.4byte	.LASF676
 8187 000f 05       		.byte	0x5
 8188 0010 43       		.uleb128 0x43
 8189 0011 61360000 		.4byte	.LASF677
 8190 0015 05       		.byte	0x5
 8191 0016 45       		.uleb128 0x45
 8192 0017 1A2D0000 		.4byte	.LASF678
 8193 001b 05       		.byte	0x5
 8194 001c 48       		.uleb128 0x48
 8195 001d 83100000 		.4byte	.LASF679
 8196 0021 05       		.byte	0x5
 8197 0022 4A       		.uleb128 0x4a
 8198 0023 7E4B0000 		.4byte	.LASF680
 8199 0027 05       		.byte	0x5
 8200 0028 4D       		.uleb128 0x4d
 8201 0029 91210000 		.4byte	.LASF681
 8202 002d 05       		.byte	0x5
 8203 002e 4F       		.uleb128 0x4f
 8204 002f 8C2C0000 		.4byte	.LASF682
 8205 0033 05       		.byte	0x5
 8206 0034 51       		.uleb128 0x51
 8207 0035 01580000 		.4byte	.LASF683
 8208 0039 05       		.byte	0x5
 8209 003a 54       		.uleb128 0x54
 8210 003b C8430000 		.4byte	.LASF684
 8211 003f 05       		.byte	0x5
 8212 0040 56       		.uleb128 0x56
 8213 0041 A3420000 		.4byte	.LASF685
 8214 0045 05       		.byte	0x5
 8215 0046 58       		.uleb128 0x58
 8216 0047 17740000 		.4byte	.LASF686
 8217 004b 00       		.byte	0
 8218              		.section	.debug_macro,"G",%progbits,wm4.ring_buffer.h.33.ffd8153954783612f9c626df1ed9e770,comdat
 8219              	.Ldebug_macro17:
 8220 0000 0400     		.2byte	0x4
 8221 0002 00       		.byte	0
 8222 0003 05       		.byte	0x5
 8223 0004 21       		.uleb128 0x21
 8224 0005 04500000 		.4byte	.LASF688
 8225 0009 05       		.byte	0x5
 8226 000a 39       		.uleb128 0x39
 8227 000b 6F150000 		.4byte	.LASF689
 8228 000f 05       		.byte	0x5
 8229 0010 3F       		.uleb128 0x3f
 8230 0011 17730000 		.4byte	.LASF690
 8231 0015 00       		.byte	0
 8232              		.section	.debug_macro,"G",%progbits,wm4.uart_11xx.h.98.fe68b709973730a4fba3f3ce60c5c312,comdat
 8233              	.Ldebug_macro18:
 8234 0000 0400     		.2byte	0x4
 8235 0002 00       		.byte	0
 8236 0003 05       		.byte	0x5
 8237 0004 62       		.uleb128 0x62
 8238 0005 3F4D0000 		.4byte	.LASF691
 8239 0009 05       		.byte	0x5
 8240 000a 67       		.uleb128 0x67
ARM GAS  /var/folders/f9/8bk2lnw15zn4cbgn6wrnb4lm0000gn/T//ccyV4EJ6.s 			page 169


 8241 000b B9510000 		.4byte	.LASF692
 8242 000f 05       		.byte	0x5
 8243 0010 68       		.uleb128 0x68
 8244 0011 EC6D0000 		.4byte	.LASF693
 8245 0015 05       		.byte	0x5
 8246 0016 6D       		.uleb128 0x6d
 8247 0017 97530000 		.4byte	.LASF694
 8248 001b 05       		.byte	0x5
 8249 001c 6E       		.uleb128 0x6e
 8250 001d 9E2B0000 		.4byte	.LASF695
 8251 0021 05       		.byte	0x5
 8252 0022 73       		.uleb128 0x73
 8253 0023 C0530000 		.4byte	.LASF696
 8254 0027 05       		.byte	0x5
 8255 0028 74       		.uleb128 0x74
 8256 0029 DE480000 		.4byte	.LASF697
 8257 002d 05       		.byte	0x5
 8258 002e 75       		.uleb128 0x75
 8259 002f EF440000 		.4byte	.LASF698
 8260 0033 05       		.byte	0x5
 8261 0034 76       		.uleb128 0x76
 8262 0035 19560000 		.4byte	.LASF699
 8263 0039 05       		.byte	0x5
 8264 003a 77       		.uleb128 0x77
 8265 003b 48650000 		.4byte	.LASF700
 8266 003f 05       		.byte	0x5
 8267 0040 78       		.uleb128 0x78
 8268 0041 5C1A0000 		.4byte	.LASF701
 8269 0045 05       		.byte	0x5
 8270 0046 79       		.uleb128 0x79
 8271 0047 4B660000 		.4byte	.LASF702
 8272 004b 05       		.byte	0x5
 8273 004c 7A       		.uleb128 0x7a
 8274 004d 97580000 		.4byte	.LASF703
 8275 0051 05       		.byte	0x5
 8276 0052 7B       		.uleb128 0x7b
 8277 0053 87600000 		.4byte	.LASF704
 8278 0057 05       		.byte	0x5
 8279 0058 7C       		.uleb128 0x7c
 8280 0059 2C0A0000 		.4byte	.LASF705
 8281 005d 05       		.byte	0x5
 8282 005e 8101     		.uleb128 0x81
 8283 0060 29290000 		.4byte	.LASF706
 8284 0064 05       		.byte	0x5
 8285 0065 8201     		.uleb128 0x82
 8286 0067 77310000 		.4byte	.LASF707
 8287 006b 05       		.byte	0x5
 8288 006c 8301     		.uleb128 0x83
 8289 006e C4090000 		.4byte	.LASF708
 8290 0072 05       		.byte	0x5
 8291 0073 8401     		.uleb128 0x84
 8292 0075 56770000 		.4byte	.LASF709
 8293 0079 05       		.byte	0x5
 8294 007a 8501     		.uleb128 0x85
 8295 007c 99260000 		.4byte	.LASF710
 8296 0080 05       		.byte	0x5
 8297 0081 8801     		.uleb128 0x88
ARM GAS  /var/folders/f9/8bk2lnw15zn4cbgn6wrnb4lm0000gn/T//ccyV4EJ6.s 			page 170


 8298 0083 23750000 		.4byte	.LASF711
 8299 0087 05       		.byte	0x5
 8300 0088 8901     		.uleb128 0x89
 8301 008a AA5A0000 		.4byte	.LASF712
 8302 008e 05       		.byte	0x5
 8303 008f 8A01     		.uleb128 0x8a
 8304 0091 40450000 		.4byte	.LASF713
 8305 0095 05       		.byte	0x5
 8306 0096 8B01     		.uleb128 0x8b
 8307 0098 78390000 		.4byte	.LASF714
 8308 009c 05       		.byte	0x5
 8309 009d 8C01     		.uleb128 0x8c
 8310 009f 930A0000 		.4byte	.LASF715
 8311 00a3 05       		.byte	0x5
 8312 00a4 8D01     		.uleb128 0x8d
 8313 00a6 630C0000 		.4byte	.LASF716
 8314 00aa 05       		.byte	0x5
 8315 00ab 9201     		.uleb128 0x92
 8316 00ad FC190000 		.4byte	.LASF717
 8317 00b1 05       		.byte	0x5
 8318 00b2 9301     		.uleb128 0x93
 8319 00b4 21650000 		.4byte	.LASF718
 8320 00b8 05       		.byte	0x5
 8321 00b9 9401     		.uleb128 0x94
 8322 00bb 31340000 		.4byte	.LASF719
 8323 00bf 05       		.byte	0x5
 8324 00c0 9501     		.uleb128 0x95
 8325 00c2 5F640000 		.4byte	.LASF720
 8326 00c6 05       		.byte	0x5
 8327 00c7 9601     		.uleb128 0x96
 8328 00c9 7B220000 		.4byte	.LASF721
 8329 00cd 05       		.byte	0x5
 8330 00ce 9801     		.uleb128 0x98
 8331 00d0 F70E0000 		.4byte	.LASF722
 8332 00d4 05       		.byte	0x5
 8333 00d5 9B01     		.uleb128 0x9b
 8334 00d7 CB300000 		.4byte	.LASF723
 8335 00db 05       		.byte	0x5
 8336 00dc 9C01     		.uleb128 0x9c
 8337 00de B8110000 		.4byte	.LASF724
 8338 00e2 05       		.byte	0x5
 8339 00e3 9D01     		.uleb128 0x9d
 8340 00e5 8F2A0000 		.4byte	.LASF725
 8341 00e9 05       		.byte	0x5
 8342 00ea 9E01     		.uleb128 0x9e
 8343 00ec 673C0000 		.4byte	.LASF726
 8344 00f0 05       		.byte	0x5
 8345 00f1 A401     		.uleb128 0xa4
 8346 00f3 93270000 		.4byte	.LASF727
 8347 00f7 05       		.byte	0x5
 8348 00f8 A501     		.uleb128 0xa5
 8349 00fa 6D5F0000 		.4byte	.LASF728
 8350 00fe 05       		.byte	0x5
 8351 00ff A601     		.uleb128 0xa6
 8352 0101 EC500000 		.4byte	.LASF729
 8353 0105 05       		.byte	0x5
 8354 0106 A701     		.uleb128 0xa7
ARM GAS  /var/folders/f9/8bk2lnw15zn4cbgn6wrnb4lm0000gn/T//ccyV4EJ6.s 			page 171


 8355 0108 AE290000 		.4byte	.LASF730
 8356 010c 05       		.byte	0x5
 8357 010d A801     		.uleb128 0xa8
 8358 010f 6F600000 		.4byte	.LASF731
 8359 0113 05       		.byte	0x5
 8360 0114 AB01     		.uleb128 0xab
 8361 0116 51230000 		.4byte	.LASF732
 8362 011a 05       		.byte	0x5
 8363 011b AC01     		.uleb128 0xac
 8364 011d 03770000 		.4byte	.LASF733
 8365 0121 05       		.byte	0x5
 8366 0122 AD01     		.uleb128 0xad
 8367 0124 F63A0000 		.4byte	.LASF734
 8368 0128 05       		.byte	0x5
 8369 0129 B001     		.uleb128 0xb0
 8370 012b 5E6D0000 		.4byte	.LASF735
 8371 012f 05       		.byte	0x5
 8372 0130 B101     		.uleb128 0xb1
 8373 0132 A04B0000 		.4byte	.LASF736
 8374 0136 05       		.byte	0x5
 8375 0137 B201     		.uleb128 0xb2
 8376 0139 7F440000 		.4byte	.LASF737
 8377 013d 05       		.byte	0x5
 8378 013e B301     		.uleb128 0xb3
 8379 0140 F9650000 		.4byte	.LASF738
 8380 0144 05       		.byte	0x5
 8381 0145 B401     		.uleb128 0xb4
 8382 0147 D0400000 		.4byte	.LASF739
 8383 014b 05       		.byte	0x5
 8384 014c B501     		.uleb128 0xb5
 8385 014e 91200000 		.4byte	.LASF740
 8386 0152 05       		.byte	0x5
 8387 0153 B601     		.uleb128 0xb6
 8388 0155 A5030000 		.4byte	.LASF741
 8389 0159 05       		.byte	0x5
 8390 015a B701     		.uleb128 0xb7
 8391 015c 201E0000 		.4byte	.LASF742
 8392 0160 05       		.byte	0x5
 8393 0161 B801     		.uleb128 0xb8
 8394 0163 C03E0000 		.4byte	.LASF743
 8395 0167 05       		.byte	0x5
 8396 0168 BD01     		.uleb128 0xbd
 8397 016a 63050000 		.4byte	.LASF744
 8398 016e 05       		.byte	0x5
 8399 016f BE01     		.uleb128 0xbe
 8400 0171 54150000 		.4byte	.LASF745
 8401 0175 05       		.byte	0x5
 8402 0176 BF01     		.uleb128 0xbf
 8403 0178 FB180000 		.4byte	.LASF746
 8404 017c 05       		.byte	0x5
 8405 017d C001     		.uleb128 0xc0
 8406 017f E6110000 		.4byte	.LASF747
 8407 0183 05       		.byte	0x5
 8408 0184 C101     		.uleb128 0xc1
 8409 0186 CC2A0000 		.4byte	.LASF748
 8410 018a 05       		.byte	0x5
 8411 018b C201     		.uleb128 0xc2
ARM GAS  /var/folders/f9/8bk2lnw15zn4cbgn6wrnb4lm0000gn/T//ccyV4EJ6.s 			page 172


 8412 018d 220B0000 		.4byte	.LASF749
 8413 0191 05       		.byte	0x5
 8414 0192 C701     		.uleb128 0xc7
 8415 0194 BF470000 		.4byte	.LASF750
 8416 0198 05       		.byte	0x5
 8417 0199 C801     		.uleb128 0xc8
 8418 019b 1A6F0000 		.4byte	.LASF751
 8419 019f 05       		.byte	0x5
 8420 01a0 C901     		.uleb128 0xc9
 8421 01a2 8C1D0000 		.4byte	.LASF752
 8422 01a6 05       		.byte	0x5
 8423 01a7 CA01     		.uleb128 0xca
 8424 01a9 8B340000 		.4byte	.LASF753
 8425 01ad 05       		.byte	0x5
 8426 01ae CB01     		.uleb128 0xcb
 8427 01b0 3C230000 		.4byte	.LASF754
 8428 01b4 05       		.byte	0x5
 8429 01b5 CC01     		.uleb128 0xcc
 8430 01b7 8F190000 		.4byte	.LASF755
 8431 01bb 05       		.byte	0x5
 8432 01bc CD01     		.uleb128 0xcd
 8433 01be D0180000 		.4byte	.LASF756
 8434 01c2 05       		.byte	0x5
 8435 01c3 CE01     		.uleb128 0xce
 8436 01c5 09170000 		.4byte	.LASF757
 8437 01c9 05       		.byte	0x5
 8438 01ca CF01     		.uleb128 0xcf
 8439 01cc 88070000 		.4byte	.LASF758
 8440 01d0 05       		.byte	0x5
 8441 01d1 D001     		.uleb128 0xd0
 8442 01d3 EF0D0000 		.4byte	.LASF759
 8443 01d7 05       		.byte	0x5
 8444 01d8 D101     		.uleb128 0xd1
 8445 01da 4D3C0000 		.4byte	.LASF760
 8446 01de 05       		.byte	0x5
 8447 01df D601     		.uleb128 0xd6
 8448 01e1 96430000 		.4byte	.LASF761
 8449 01e5 05       		.byte	0x5
 8450 01e6 D701     		.uleb128 0xd7
 8451 01e8 2E6C0000 		.4byte	.LASF762
 8452 01ec 05       		.byte	0x5
 8453 01ed D801     		.uleb128 0xd8
 8454 01ef 94040000 		.4byte	.LASF763
 8455 01f3 05       		.byte	0x5
 8456 01f4 D901     		.uleb128 0xd9
 8457 01f6 26400000 		.4byte	.LASF764
 8458 01fa 05       		.byte	0x5
 8459 01fb DA01     		.uleb128 0xda
 8460 01fd E2770000 		.4byte	.LASF765
 8461 0201 05       		.byte	0x5
 8462 0202 DB01     		.uleb128 0xdb
 8463 0204 91520000 		.4byte	.LASF766
 8464 0208 05       		.byte	0x5
 8465 0209 DC01     		.uleb128 0xdc
 8466 020b EA5B0000 		.4byte	.LASF767
 8467 020f 05       		.byte	0x5
 8468 0210 DD01     		.uleb128 0xdd
ARM GAS  /var/folders/f9/8bk2lnw15zn4cbgn6wrnb4lm0000gn/T//ccyV4EJ6.s 			page 173


 8469 0212 61760000 		.4byte	.LASF768
 8470 0216 05       		.byte	0x5
 8471 0217 DE01     		.uleb128 0xde
 8472 0219 49360000 		.4byte	.LASF769
 8473 021d 05       		.byte	0x5
 8474 021e E301     		.uleb128 0xe3
 8475 0220 BA2F0000 		.4byte	.LASF770
 8476 0224 05       		.byte	0x5
 8477 0225 E401     		.uleb128 0xe4
 8478 0227 E8630000 		.4byte	.LASF771
 8479 022b 05       		.byte	0x5
 8480 022c E501     		.uleb128 0xe5
 8481 022e F85C0000 		.4byte	.LASF772
 8482 0232 05       		.byte	0x5
 8483 0233 E601     		.uleb128 0xe6
 8484 0235 D5470000 		.4byte	.LASF773
 8485 0239 05       		.byte	0x5
 8486 023a E701     		.uleb128 0xe7
 8487 023c 18260000 		.4byte	.LASF774
 8488 0240 05       		.byte	0x5
 8489 0241 E801     		.uleb128 0xe8
 8490 0243 4A050000 		.4byte	.LASF775
 8491 0247 05       		.byte	0x5
 8492 0248 ED01     		.uleb128 0xed
 8493 024a D3080000 		.4byte	.LASF776
 8494 024e 05       		.byte	0x5
 8495 024f EE01     		.uleb128 0xee
 8496 0251 1E0F0000 		.4byte	.LASF777
 8497 0255 05       		.byte	0x5
 8498 0256 EF01     		.uleb128 0xef
 8499 0258 562F0000 		.4byte	.LASF778
 8500 025c 05       		.byte	0x5
 8501 025d F001     		.uleb128 0xf0
 8502 025f 02430000 		.4byte	.LASF779
 8503 0263 05       		.byte	0x5
 8504 0264 F201     		.uleb128 0xf2
 8505 0266 AA360000 		.4byte	.LASF780
 8506 026a 05       		.byte	0x5
 8507 026b F301     		.uleb128 0xf3
 8508 026d DE4B0000 		.4byte	.LASF781
 8509 0271 05       		.byte	0x5
 8510 0272 F601     		.uleb128 0xf6
 8511 0274 C4280000 		.4byte	.LASF782
 8512 0278 05       		.byte	0x5
 8513 0279 FB01     		.uleb128 0xfb
 8514 027b BA1E0000 		.4byte	.LASF783
 8515 027f 05       		.byte	0x5
 8516 0280 FC01     		.uleb128 0xfc
 8517 0282 44350000 		.4byte	.LASF784
 8518 0286 05       		.byte	0x5
 8519 0287 FD01     		.uleb128 0xfd
 8520 0289 34720000 		.4byte	.LASF785
 8521 028d 05       		.byte	0x5
 8522 028e FE01     		.uleb128 0xfe
 8523 0290 651D0000 		.4byte	.LASF786
 8524 0294 05       		.byte	0x5
 8525 0295 FF01     		.uleb128 0xff
ARM GAS  /var/folders/f9/8bk2lnw15zn4cbgn6wrnb4lm0000gn/T//ccyV4EJ6.s 			page 174


 8526 0297 720F0000 		.4byte	.LASF787
 8527 029b 05       		.byte	0x5
 8528 029c 8402     		.uleb128 0x104
 8529 029e EE3C0000 		.4byte	.LASF788
 8530 02a2 05       		.byte	0x5
 8531 02a3 8902     		.uleb128 0x109
 8532 02a5 42400000 		.4byte	.LASF789
 8533 02a9 05       		.byte	0x5
 8534 02aa 8A02     		.uleb128 0x10a
 8535 02ac 406D0000 		.4byte	.LASF790
 8536 02b0 05       		.byte	0x5
 8537 02b1 8B02     		.uleb128 0x10b
 8538 02b3 F12F0000 		.4byte	.LASF791
 8539 02b7 05       		.byte	0x5
 8540 02b8 8C02     		.uleb128 0x10c
 8541 02ba 58320000 		.4byte	.LASF792
 8542 02be 05       		.byte	0x5
 8543 02bf 8D02     		.uleb128 0x10d
 8544 02c1 12300000 		.4byte	.LASF793
 8545 02c5 05       		.byte	0x5
 8546 02c6 9202     		.uleb128 0x112
 8547 02c8 6E2A0000 		.4byte	.LASF794
 8548 02cc 05       		.byte	0x5
 8549 02cd 9302     		.uleb128 0x113
 8550 02cf A05C0000 		.4byte	.LASF795
 8551 02d3 05       		.byte	0x5
 8552 02d4 9402     		.uleb128 0x114
 8553 02d6 DF090000 		.4byte	.LASF796
 8554 02da 05       		.byte	0x5
 8555 02db 9902     		.uleb128 0x119
 8556 02dd 2B100000 		.4byte	.LASF797
 8557 02e1 05       		.byte	0x5
 8558 02e2 9A02     		.uleb128 0x11a
 8559 02e4 36070000 		.4byte	.LASF798
 8560 02e8 05       		.byte	0x5
 8561 02e9 9F02     		.uleb128 0x11f
 8562 02eb 3C590000 		.4byte	.LASF799
 8563 02ef 05       		.byte	0x5
 8564 02f0 A002     		.uleb128 0x120
 8565 02f2 1B370000 		.4byte	.LASF800
 8566 02f6 05       		.byte	0x5
 8567 02f7 A102     		.uleb128 0x121
 8568 02f9 F71F0000 		.4byte	.LASF801
 8569 02fd 05       		.byte	0x5
 8570 02fe A202     		.uleb128 0x122
 8571 0300 65590000 		.4byte	.LASF802
 8572 0304 05       		.byte	0x5
 8573 0305 A302     		.uleb128 0x123
 8574 0307 A2470000 		.4byte	.LASF803
 8575 030b 05       		.byte	0x5
 8576 030c A402     		.uleb128 0x124
 8577 030e AC730000 		.4byte	.LASF804
 8578 0312 05       		.byte	0x5
 8579 0313 A502     		.uleb128 0x125
 8580 0315 37710000 		.4byte	.LASF805
 8581 0319 00       		.byte	0
 8582              		.section	.debug_macro,"G",%progbits,wm4.wwdt_11xx.h.33.5768344983cb842df69cc91ea86cabb0,comdat
ARM GAS  /var/folders/f9/8bk2lnw15zn4cbgn6wrnb4lm0000gn/T//ccyV4EJ6.s 			page 175


 8583              	.Ldebug_macro19:
 8584 0000 0400     		.2byte	0x4
 8585 0002 00       		.byte	0
 8586 0003 05       		.byte	0x5
 8587 0004 21       		.uleb128 0x21
 8588 0005 3C110000 		.4byte	.LASF806
 8589 0009 05       		.byte	0x5
 8590 000a 4B       		.uleb128 0x4b
 8591 000b 89620000 		.4byte	.LASF807
 8592 000f 05       		.byte	0x5
 8593 0010 4D       		.uleb128 0x4d
 8594 0011 77110000 		.4byte	.LASF808
 8595 0015 05       		.byte	0x5
 8596 0016 4F       		.uleb128 0x4f
 8597 0017 FD540000 		.4byte	.LASF809
 8598 001b 05       		.byte	0x5
 8599 001c 51       		.uleb128 0x51
 8600 001d 6F3B0000 		.4byte	.LASF810
 8601 0021 05       		.byte	0x5
 8602 0022 53       		.uleb128 0x53
 8603 0023 A9720000 		.4byte	.LASF811
 8604 0027 05       		.byte	0x5
 8605 0028 55       		.uleb128 0x55
 8606 0029 A5400000 		.4byte	.LASF812
 8607 002d 00       		.byte	0
 8608              		.section	.debug_macro,"G",%progbits,wm4.ssp_11xx.h.33.af054d3d65f4cb0c078be40bb872ec37,comdat
 8609              	.Ldebug_macro20:
 8610 0000 0400     		.2byte	0x4
 8611 0002 00       		.byte	0
 8612 0003 05       		.byte	0x5
 8613 0004 21       		.uleb128 0x21
 8614 0005 B62B0000 		.4byte	.LASF813
 8615 0009 05       		.byte	0x5
 8616 000a 40       		.uleb128 0x40
 8617 000b 4E4A0000 		.4byte	.LASF814
 8618 000f 05       		.byte	0x5
 8619 0010 42       		.uleb128 0x42
 8620 0011 62070000 		.4byte	.LASF815
 8621 0015 05       		.byte	0x5
 8622 0016 44       		.uleb128 0x44
 8623 0017 04290000 		.4byte	.LASF816
 8624 001b 05       		.byte	0x5
 8625 001c 46       		.uleb128 0x46
 8626 001d 10270000 		.4byte	.LASF817
 8627 0021 05       		.byte	0x5
 8628 0022 49       		.uleb128 0x49
 8629 0023 7A3E0000 		.4byte	.LASF818
 8630 0027 05       		.byte	0x5
 8631 0028 4A       		.uleb128 0x4a
 8632 0029 6C090000 		.4byte	.LASF819
 8633 002d 05       		.byte	0x5
 8634 002e 4D       		.uleb128 0x4d
 8635 002f 29220000 		.4byte	.LASF820
 8636 0033 05       		.byte	0x5
 8637 0034 4E       		.uleb128 0x4e
 8638 0035 B8330000 		.4byte	.LASF821
 8639 0039 05       		.byte	0x5
ARM GAS  /var/folders/f9/8bk2lnw15zn4cbgn6wrnb4lm0000gn/T//ccyV4EJ6.s 			page 176


 8640 003a 51       		.uleb128 0x51
 8641 003b C11B0000 		.4byte	.LASF822
 8642 003f 05       		.byte	0x5
 8643 0040 53       		.uleb128 0x53
 8644 0041 2D120000 		.4byte	.LASF823
 8645 0045 05       		.byte	0x5
 8646 0046 55       		.uleb128 0x55
 8647 0047 2D120000 		.4byte	.LASF823
 8648 004b 05       		.byte	0x5
 8649 004c 58       		.uleb128 0x58
 8650 004d C11B0000 		.4byte	.LASF822
 8651 0051 05       		.byte	0x5
 8652 0052 5F       		.uleb128 0x5f
 8653 0053 8C4F0000 		.4byte	.LASF824
 8654 0057 05       		.byte	0x5
 8655 0058 61       		.uleb128 0x61
 8656 0059 521C0000 		.4byte	.LASF825
 8657 005d 05       		.byte	0x5
 8658 005e 63       		.uleb128 0x63
 8659 005f 90240000 		.4byte	.LASF826
 8660 0063 05       		.byte	0x5
 8661 0064 64       		.uleb128 0x64
 8662 0065 8A330000 		.4byte	.LASF827
 8663 0069 05       		.byte	0x5
 8664 006a 67       		.uleb128 0x67
 8665 006b B24A0000 		.4byte	.LASF828
 8666 006f 05       		.byte	0x5
 8667 0070 69       		.uleb128 0x69
 8668 0071 5F740000 		.4byte	.LASF829
 8669 0075 05       		.byte	0x5
 8670 0076 6C       		.uleb128 0x6c
 8671 0077 6C730000 		.4byte	.LASF830
 8672 007b 05       		.byte	0x5
 8673 007c 72       		.uleb128 0x72
 8674 007d 70200000 		.4byte	.LASF831
 8675 0081 05       		.byte	0x5
 8676 0082 79       		.uleb128 0x79
 8677 0083 26360000 		.4byte	.LASF832
 8678 0087 05       		.byte	0x5
 8679 0088 7C       		.uleb128 0x7c
 8680 0089 E9070000 		.4byte	.LASF833
 8681 008d 05       		.byte	0x5
 8682 008e C503     		.uleb128 0x1c5
 8683 0090 063C0000 		.4byte	.LASF834
 8684 0094 05       		.byte	0x5
 8685 0095 C603     		.uleb128 0x1c6
 8686 0097 CC310000 		.4byte	.LASF835
 8687 009b 05       		.byte	0x5
 8688 009c CF03     		.uleb128 0x1cf
 8689 009e D41A0000 		.4byte	.LASF836
 8690 00a2 05       		.byte	0x5
 8691 00a3 D003     		.uleb128 0x1d0
 8692 00a5 B01D0000 		.4byte	.LASF837
 8693 00a9 05       		.byte	0x5
 8694 00aa D303     		.uleb128 0x1d3
 8695 00ac AF760000 		.4byte	.LASF838
 8696 00b0 05       		.byte	0x5
ARM GAS  /var/folders/f9/8bk2lnw15zn4cbgn6wrnb4lm0000gn/T//ccyV4EJ6.s 			page 177


 8697 00b1 D403     		.uleb128 0x1d4
 8698 00b3 E50C0000 		.4byte	.LASF839
 8699 00b7 00       		.byte	0
 8700              		.section	.debug_macro,"G",%progbits,wm4.error.h.38.ae74fe1dd9d19c80c505f1fda144fce8,comdat
 8701              	.Ldebug_macro21:
 8702 0000 0400     		.2byte	0x4
 8703 0002 00       		.byte	0
 8704 0003 05       		.byte	0x5
 8705 0004 26       		.uleb128 0x26
 8706 0005 094F0000 		.4byte	.LASF841
 8707 0009 05       		.byte	0x5
 8708 000a 8401     		.uleb128 0x84
 8709 000c 76080000 		.4byte	.LASF842
 8710 0010 00       		.byte	0
 8711              		.section	.debug_macro,"G",%progbits,wm4.adc_11xx.h.33.6ce7433ac6b30df70a6993d01dbd513f,comdat
 8712              	.Ldebug_macro22:
 8713 0000 0400     		.2byte	0x4
 8714 0002 00       		.byte	0
 8715 0003 05       		.byte	0x5
 8716 0004 21       		.uleb128 0x21
 8717 0005 C6570000 		.4byte	.LASF843
 8718 0009 05       		.byte	0x5
 8719 000a 2F       		.uleb128 0x2f
 8720 000b D2320000 		.4byte	.LASF844
 8721 000f 05       		.byte	0x5
 8722 0010 40       		.uleb128 0x40
 8723 0011 176E0000 		.4byte	.LASF845
 8724 0015 05       		.byte	0x5
 8725 0016 41       		.uleb128 0x41
 8726 0017 0D480000 		.4byte	.LASF846
 8727 001b 05       		.byte	0x5
 8728 001c 43       		.uleb128 0x43
 8729 001d 4F3F0000 		.4byte	.LASF847
 8730 0021 05       		.byte	0x5
 8731 0022 44       		.uleb128 0x44
 8732 0023 6C3F0000 		.4byte	.LASF848
 8733 0027 05       		.byte	0x5
 8734 0028 45       		.uleb128 0x45
 8735 0029 AA3A0000 		.4byte	.LASF849
 8736 002d 05       		.byte	0x5
 8737 002e 46       		.uleb128 0x46
 8738 002f 71770000 		.4byte	.LASF850
 8739 0033 05       		.byte	0x5
 8740 0034 47       		.uleb128 0x47
 8741 0035 9D110000 		.4byte	.LASF851
 8742 0039 05       		.byte	0x5
 8743 003a 48       		.uleb128 0x48
 8744 003b DC700000 		.4byte	.LASF852
 8745 003f 05       		.byte	0x5
 8746 0040 49       		.uleb128 0x49
 8747 0041 9F5D0000 		.4byte	.LASF853
 8748 0045 05       		.byte	0x5
 8749 0046 4A       		.uleb128 0x4a
 8750 0047 231B0000 		.4byte	.LASF854
 8751 004b 05       		.byte	0x5
 8752 004c 4B       		.uleb128 0x4b
 8753 004d 72210000 		.4byte	.LASF855
ARM GAS  /var/folders/f9/8bk2lnw15zn4cbgn6wrnb4lm0000gn/T//ccyV4EJ6.s 			page 178


 8754 0051 05       		.byte	0x5
 8755 0052 4C       		.uleb128 0x4c
 8756 0053 18420000 		.4byte	.LASF856
 8757 0057 05       		.byte	0x5
 8758 0058 4D       		.uleb128 0x4d
 8759 0059 86170000 		.4byte	.LASF857
 8760 005d 05       		.byte	0x5
 8761 005e 4E       		.uleb128 0x4e
 8762 005f 99500000 		.4byte	.LASF858
 8763 0063 05       		.byte	0x5
 8764 0064 4F       		.uleb128 0x4f
 8765 0065 963B0000 		.4byte	.LASF859
 8766 0069 05       		.byte	0x5
 8767 006a 50       		.uleb128 0x50
 8768 006b EA010000 		.4byte	.LASF860
 8769 006f 05       		.byte	0x5
 8770 0070 51       		.uleb128 0x51
 8771 0071 86510000 		.4byte	.LASF861
 8772 0075 05       		.byte	0x5
 8773 0076 52       		.uleb128 0x52
 8774 0077 3C570000 		.4byte	.LASF862
 8775 007b 00       		.byte	0
 8776              		.section	.debug_macro,"G",%progbits,wm4.i2c_11xx.h.33.2b506d1350e00a8c26e8bf006a5f9390,comdat
 8777              	.Ldebug_macro23:
 8778 0000 0400     		.2byte	0x4
 8779 0002 00       		.byte	0
 8780 0003 05       		.byte	0x5
 8781 0004 21       		.uleb128 0x21
 8782 0005 A6680000 		.4byte	.LASF864
 8783 0009 05       		.byte	0x5
 8784 000a 46       		.uleb128 0x46
 8785 000b C00E0000 		.4byte	.LASF865
 8786 000f 05       		.byte	0x5
 8787 0010 47       		.uleb128 0x47
 8788 0011 E26B0000 		.4byte	.LASF866
 8789 0015 05       		.byte	0x5
 8790 0016 48       		.uleb128 0x48
 8791 0017 AE1C0000 		.4byte	.LASF867
 8792 001b 05       		.byte	0x5
 8793 001c 49       		.uleb128 0x49
 8794 001d 48480000 		.4byte	.LASF868
 8795 0021 05       		.byte	0x5
 8796 0022 4E       		.uleb128 0x4e
 8797 0023 81490000 		.4byte	.LASF869
 8798 0027 05       		.byte	0x5
 8799 0028 53       		.uleb128 0x53
 8800 0029 58300000 		.4byte	.LASF870
 8801 002d 05       		.byte	0x5
 8802 002e 54       		.uleb128 0x54
 8803 002f 090B0000 		.4byte	.LASF871
 8804 0033 05       		.byte	0x5
 8805 0034 55       		.uleb128 0x55
 8806 0035 00000000 		.4byte	.LASF872
 8807 0039 05       		.byte	0x5
 8808 003a 56       		.uleb128 0x56
 8809 003b 0B2E0000 		.4byte	.LASF873
 8810 003f 05       		.byte	0x5
ARM GAS  /var/folders/f9/8bk2lnw15zn4cbgn6wrnb4lm0000gn/T//ccyV4EJ6.s 			page 179


 8811 0040 57       		.uleb128 0x57
 8812 0041 3D0F0000 		.4byte	.LASF874
 8813 0045 05       		.byte	0x5
 8814 0046 5C       		.uleb128 0x5c
 8815 0047 D0720000 		.4byte	.LASF875
 8816 004b 05       		.byte	0x5
 8817 004c 5D       		.uleb128 0x5d
 8818 004d AF0C0000 		.4byte	.LASF876
 8819 0051 05       		.byte	0x5
 8820 0052 5E       		.uleb128 0x5e
 8821 0053 29510000 		.4byte	.LASF877
 8822 0057 05       		.byte	0x5
 8823 0058 5F       		.uleb128 0x5f
 8824 0059 1E0D0000 		.4byte	.LASF878
 8825 005d 05       		.byte	0x5
 8826 005e 60       		.uleb128 0x60
 8827 005f D9250000 		.4byte	.LASF879
 8828 0063 05       		.byte	0x5
 8829 0064 65       		.uleb128 0x65
 8830 0065 384A0000 		.4byte	.LASF880
 8831 0069 05       		.byte	0x5
 8832 006a 66       		.uleb128 0x66
 8833 006b 9D670000 		.4byte	.LASF881
 8834 006f 05       		.byte	0x5
 8835 0070 67       		.uleb128 0x67
 8836 0071 070D0000 		.4byte	.LASF882
 8837 0075 05       		.byte	0x5
 8838 0076 68       		.uleb128 0x68
 8839 0077 4B210000 		.4byte	.LASF883
 8840 007b 05       		.byte	0x5
 8841 007c 69       		.uleb128 0x69
 8842 007d 3F4B0000 		.4byte	.LASF884
 8843 0081 05       		.byte	0x5
 8844 0082 6E       		.uleb128 0x6e
 8845 0083 98770000 		.4byte	.LASF885
 8846 0087 05       		.byte	0x5
 8847 0088 6F       		.uleb128 0x6f
 8848 0089 EF4D0000 		.4byte	.LASF886
 8849 008d 05       		.byte	0x5
 8850 008e 74       		.uleb128 0x74
 8851 008f 8F3A0000 		.4byte	.LASF887
 8852 0093 05       		.byte	0x5
 8853 0094 75       		.uleb128 0x75
 8854 0095 261A0000 		.4byte	.LASF888
 8855 0099 05       		.byte	0x5
 8856 009a 7A       		.uleb128 0x7a
 8857 009b BF480000 		.4byte	.LASF889
 8858 009f 05       		.byte	0x5
 8859 00a0 7B       		.uleb128 0x7b
 8860 00a1 B31A0000 		.4byte	.LASF890
 8861 00a5 05       		.byte	0x5
 8862 00a6 7C       		.uleb128 0x7c
 8863 00a7 7A250000 		.4byte	.LASF891
 8864 00ab 05       		.byte	0x5
 8865 00ac 7D       		.uleb128 0x7d
 8866 00ad 3B000000 		.4byte	.LASF892
 8867 00b1 05       		.byte	0x5
ARM GAS  /var/folders/f9/8bk2lnw15zn4cbgn6wrnb4lm0000gn/T//ccyV4EJ6.s 			page 180


 8868 00b2 7E       		.uleb128 0x7e
 8869 00b3 352F0000 		.4byte	.LASF893
 8870 00b7 05       		.byte	0x5
 8871 00b8 7F       		.uleb128 0x7f
 8872 00b9 113A0000 		.4byte	.LASF894
 8873 00bd 05       		.byte	0x5
 8874 00be 8001     		.uleb128 0x80
 8875 00c0 8C1C0000 		.4byte	.LASF895
 8876 00c4 05       		.byte	0x5
 8877 00c5 8501     		.uleb128 0x85
 8878 00c7 A6020000 		.4byte	.LASF896
 8879 00cb 05       		.byte	0x5
 8880 00cc 8601     		.uleb128 0x86
 8881 00ce 5C010000 		.4byte	.LASF897
 8882 00d2 05       		.byte	0x5
 8883 00d3 8701     		.uleb128 0x87
 8884 00d5 012C0000 		.4byte	.LASF898
 8885 00d9 05       		.byte	0x5
 8886 00da 8801     		.uleb128 0x88
 8887 00dc CC3C0000 		.4byte	.LASF899
 8888 00e0 05       		.byte	0x5
 8889 00e1 8901     		.uleb128 0x89
 8890 00e3 823C0000 		.4byte	.LASF900
 8891 00e7 05       		.byte	0x5
 8892 00e8 8A01     		.uleb128 0x8a
 8893 00ea 6E0D0000 		.4byte	.LASF901
 8894 00ee 05       		.byte	0x5
 8895 00ef 8B01     		.uleb128 0x8b
 8896 00f1 E9520000 		.4byte	.LASF902
 8897 00f5 05       		.byte	0x5
 8898 00f6 9001     		.uleb128 0x90
 8899 00f8 8C2D0000 		.4byte	.LASF903
 8900 00fc 05       		.byte	0x5
 8901 00fd 9101     		.uleb128 0x91
 8902 00ff 83710000 		.4byte	.LASF904
 8903 0103 05       		.byte	0x5
 8904 0104 9301     		.uleb128 0x93
 8905 0106 CA640000 		.4byte	.LASF905
 8906 010a 05       		.byte	0x5
 8907 010b 9401     		.uleb128 0x94
 8908 010d 7F4D0000 		.4byte	.LASF906
 8909 0111 05       		.byte	0x5
 8910 0112 9601     		.uleb128 0x96
 8911 0114 B3100000 		.4byte	.LASF907
 8912 0118 05       		.byte	0x5
 8913 0119 9701     		.uleb128 0x97
 8914 011b 622C0000 		.4byte	.LASF908
 8915 011f 05       		.byte	0x5
 8916 0120 9801     		.uleb128 0x98
 8917 0122 13140000 		.4byte	.LASF909
 8918 0126 05       		.byte	0x5
 8919 0127 9901     		.uleb128 0x99
 8920 0129 0F130000 		.4byte	.LASF910
 8921 012d 05       		.byte	0x5
 8922 012e 9A01     		.uleb128 0x9a
 8923 0130 BE410000 		.4byte	.LASF911
 8924 0134 05       		.byte	0x5
ARM GAS  /var/folders/f9/8bk2lnw15zn4cbgn6wrnb4lm0000gn/T//ccyV4EJ6.s 			page 181


 8925 0135 A001     		.uleb128 0xa0
 8926 0137 320E0000 		.4byte	.LASF912
 8927 013b 05       		.byte	0x5
 8928 013c A101     		.uleb128 0xa1
 8929 013e 574D0000 		.4byte	.LASF913
 8930 0142 05       		.byte	0x5
 8931 0143 A301     		.uleb128 0xa3
 8932 0145 16190000 		.4byte	.LASF914
 8933 0149 05       		.byte	0x5
 8934 014a A401     		.uleb128 0xa4
 8935 014c 954E0000 		.4byte	.LASF915
 8936 0150 05       		.byte	0x5
 8937 0151 A501     		.uleb128 0xa5
 8938 0153 FD6C0000 		.4byte	.LASF916
 8939 0157 05       		.byte	0x5
 8940 0158 A601     		.uleb128 0xa6
 8941 015a 9A2F0000 		.4byte	.LASF917
 8942 015e 05       		.byte	0x5
 8943 015f AB01     		.uleb128 0xab
 8944 0161 FE550000 		.4byte	.LASF918
 8945 0165 05       		.byte	0x5
 8946 0166 AC01     		.uleb128 0xac
 8947 0168 A5740000 		.4byte	.LASF919
 8948 016c 05       		.byte	0x5
 8949 016d B201     		.uleb128 0xb2
 8950 016f 71000000 		.4byte	.LASF920
 8951 0173 05       		.byte	0x5
 8952 0174 B301     		.uleb128 0xb3
 8953 0176 2F6F0000 		.4byte	.LASF921
 8954 017a 05       		.byte	0x5
 8955 017b B401     		.uleb128 0xb4
 8956 017d 81420000 		.4byte	.LASF922
 8957 0181 05       		.byte	0x5
 8958 0182 B501     		.uleb128 0xb5
 8959 0184 FC2C0000 		.4byte	.LASF923
 8960 0188 05       		.byte	0x5
 8961 0189 BA01     		.uleb128 0xba
 8962 018b C9710000 		.4byte	.LASF924
 8963 018f 05       		.byte	0x5
 8964 0190 BF01     		.uleb128 0xbf
 8965 0192 79630000 		.4byte	.LASF925
 8966 0196 05       		.byte	0x5
 8967 0197 C001     		.uleb128 0xc0
 8968 0199 B7340000 		.4byte	.LASF926
 8969 019d 05       		.byte	0x5
 8970 019e C501     		.uleb128 0xc5
 8971 01a0 43550000 		.4byte	.LASF927
 8972 01a4 05       		.byte	0x5
 8973 01a5 CA01     		.uleb128 0xca
 8974 01a7 A76E0000 		.4byte	.LASF928
 8975 01ab 05       		.byte	0x5
 8976 01ac CF01     		.uleb128 0xcf
 8977 01ae 6A5A0000 		.4byte	.LASF929
 8978 01b2 05       		.byte	0x5
 8979 01b3 D401     		.uleb128 0xd4
 8980 01b5 42580000 		.4byte	.LASF930
 8981 01b9 05       		.byte	0x5
ARM GAS  /var/folders/f9/8bk2lnw15zn4cbgn6wrnb4lm0000gn/T//ccyV4EJ6.s 			page 182


 8982 01ba D501     		.uleb128 0xd5
 8983 01bc F8770000 		.4byte	.LASF931
 8984 01c0 05       		.byte	0x5
 8985 01c1 D601     		.uleb128 0xd6
 8986 01c3 F13E0000 		.4byte	.LASF932
 8987 01c7 05       		.byte	0x5
 8988 01c8 DB01     		.uleb128 0xdb
 8989 01ca 35520000 		.4byte	.LASF933
 8990 01ce 05       		.byte	0x5
 8991 01cf DC01     		.uleb128 0xdc
 8992 01d1 85590000 		.4byte	.LASF934
 8993 01d5 05       		.byte	0x5
 8994 01d6 DD01     		.uleb128 0xdd
 8995 01d8 49010000 		.4byte	.LASF935
 8996 01dc 05       		.byte	0x5
 8997 01dd DE01     		.uleb128 0xde
 8998 01df A6380000 		.4byte	.LASF936
 8999 01e3 05       		.byte	0x5
 9000 01e4 DF01     		.uleb128 0xdf
 9001 01e6 30580000 		.4byte	.LASF937
 9002 01ea 05       		.byte	0x5
 9003 01eb E001     		.uleb128 0xe0
 9004 01ed E2270000 		.4byte	.LASF938
 9005 01f1 05       		.byte	0x5
 9006 01f2 E101     		.uleb128 0xe1
 9007 01f4 81490000 		.4byte	.LASF869
 9008 01f8 05       		.byte	0x5
 9009 01f9 E301     		.uleb128 0xe3
 9010 01fb 48680000 		.4byte	.LASF939
 9011 01ff 05       		.byte	0x5
 9012 0200 E401     		.uleb128 0xe4
 9013 0202 D3160000 		.4byte	.LASF940
 9014 0206 05       		.byte	0x5
 9015 0207 E601     		.uleb128 0xe6
 9016 0209 162A0000 		.4byte	.LASF941
 9017 020d 05       		.byte	0x5
 9018 020e EB01     		.uleb128 0xeb
 9019 0210 5C4F0000 		.4byte	.LASF942
 9020 0214 05       		.byte	0x5
 9021 0215 EC01     		.uleb128 0xec
 9022 0217 E7200000 		.4byte	.LASF943
 9023 021b 00       		.byte	0
 9024              		.section	.debug_macro,"G",%progbits,wm4.ccand_11xx.h.33.99627f4b529fecdc77b0877ab6fe5266,comdat
 9025              	.Ldebug_macro24:
 9026 0000 0400     		.2byte	0x4
 9027 0002 00       		.byte	0
 9028 0003 05       		.byte	0x5
 9029 0004 21       		.uleb128 0x21
 9030 0005 9F000000 		.4byte	.LASF944
 9031 0009 05       		.byte	0x5
 9032 000a 6E       		.uleb128 0x6e
 9033 000b CF2C0000 		.4byte	.LASF945
 9034 000f 05       		.byte	0x5
 9035 0010 6F       		.uleb128 0x6f
 9036 0011 46250000 		.4byte	.LASF946
 9037 0015 05       		.byte	0x5
 9038 0016 70       		.uleb128 0x70
ARM GAS  /var/folders/f9/8bk2lnw15zn4cbgn6wrnb4lm0000gn/T//ccyV4EJ6.s 			page 183


 9039 0017 333F0000 		.4byte	.LASF947
 9040 001b 05       		.byte	0x5
 9041 001c 71       		.uleb128 0x71
 9042 001d 43740000 		.4byte	.LASF948
 9043 0021 05       		.byte	0x5
 9044 0022 72       		.uleb128 0x72
 9045 0023 C5190000 		.4byte	.LASF949
 9046 0027 05       		.byte	0x5
 9047 0028 73       		.uleb128 0x73
 9048 0029 B50F0000 		.4byte	.LASF950
 9049 002d 05       		.byte	0x5
 9050 002e 74       		.uleb128 0x74
 9051 002f 39090000 		.4byte	.LASF951
 9052 0033 05       		.byte	0x5
 9053 0034 75       		.uleb128 0x75
 9054 0035 252E0000 		.4byte	.LASF952
 9055 0039 05       		.byte	0x5
 9056 003a 76       		.uleb128 0x76
 9057 003b B16F0000 		.4byte	.LASF953
 9058 003f 05       		.byte	0x5
 9059 0040 77       		.uleb128 0x77
 9060 0041 EE430000 		.4byte	.LASF954
 9061 0045 05       		.byte	0x5
 9062 0046 7C       		.uleb128 0x7c
 9063 0047 621B0000 		.4byte	.LASF955
 9064 004b 05       		.byte	0x5
 9065 004c 7D       		.uleb128 0x7d
 9066 004d C5260000 		.4byte	.LASF956
 9067 0051 05       		.byte	0x5
 9068 0052 7E       		.uleb128 0x7e
 9069 0053 7E2F0000 		.4byte	.LASF957
 9070 0057 05       		.byte	0x5
 9071 0058 7F       		.uleb128 0x7f
 9072 0059 D2740000 		.4byte	.LASF958
 9073 005d 05       		.byte	0x5
 9074 005e 9101     		.uleb128 0x91
 9075 0060 B9210000 		.4byte	.LASF959
 9076 0064 05       		.byte	0x5
 9077 0065 9201     		.uleb128 0x92
 9078 0067 0C6C0000 		.4byte	.LASF960
 9079 006b 05       		.byte	0x5
 9080 006c 9301     		.uleb128 0x93
 9081 006e C2040000 		.4byte	.LASF961
 9082 0072 05       		.byte	0x5
 9083 0073 9401     		.uleb128 0x94
 9084 0075 A80D0000 		.4byte	.LASF962
 9085 0079 05       		.byte	0x5
 9086 007a 9501     		.uleb128 0x95
 9087 007c DC540000 		.4byte	.LASF963
 9088 0080 05       		.byte	0x5
 9089 0081 9601     		.uleb128 0x96
 9090 0083 36260000 		.4byte	.LASF964
 9091 0087 05       		.byte	0x5
 9092 0088 9701     		.uleb128 0x97
 9093 008a FA710000 		.4byte	.LASF965
 9094 008e 05       		.byte	0x5
 9095 008f 9801     		.uleb128 0x98
ARM GAS  /var/folders/f9/8bk2lnw15zn4cbgn6wrnb4lm0000gn/T//ccyV4EJ6.s 			page 184


 9096 0091 AA2A0000 		.4byte	.LASF966
 9097 0095 05       		.byte	0x5
 9098 0096 9901     		.uleb128 0x99
 9099 0098 A0540000 		.4byte	.LASF967
 9100 009c 05       		.byte	0x5
 9101 009d 9A01     		.uleb128 0x9a
 9102 009f 56140000 		.4byte	.LASF968
 9103 00a3 05       		.byte	0x5
 9104 00a4 9B01     		.uleb128 0x9b
 9105 00a6 F3170000 		.4byte	.LASF969
 9106 00aa 05       		.byte	0x5
 9107 00ab 9C01     		.uleb128 0x9c
 9108 00ad D41F0000 		.4byte	.LASF970
 9109 00b1 05       		.byte	0x5
 9110 00b2 9D01     		.uleb128 0x9d
 9111 00b4 DE730000 		.4byte	.LASF971
 9112 00b8 05       		.byte	0x5
 9113 00b9 9E01     		.uleb128 0x9e
 9114 00bb E74F0000 		.4byte	.LASF972
 9115 00bf 05       		.byte	0x5
 9116 00c0 9F01     		.uleb128 0x9f
 9117 00c2 A6190000 		.4byte	.LASF973
 9118 00c6 05       		.byte	0x5
 9119 00c7 A901     		.uleb128 0xa9
 9120 00c9 B33E0000 		.4byte	.LASF974
 9121 00cd 05       		.byte	0x5
 9122 00ce AA01     		.uleb128 0xaa
 9123 00d0 DB510000 		.4byte	.LASF975
 9124 00d4 05       		.byte	0x5
 9125 00d5 AB01     		.uleb128 0xab
 9126 00d7 E8220000 		.4byte	.LASF976
 9127 00db 05       		.byte	0x5
 9128 00dc AC01     		.uleb128 0xac
 9129 00de 174D0000 		.4byte	.LASF977
 9130 00e2 05       		.byte	0x5
 9131 00e3 AD01     		.uleb128 0xad
 9132 00e5 A9140000 		.4byte	.LASF978
 9133 00e9 05       		.byte	0x5
 9134 00ea AE01     		.uleb128 0xae
 9135 00ec BD390000 		.4byte	.LASF979
 9136 00f0 05       		.byte	0x5
 9137 00f1 AF01     		.uleb128 0xaf
 9138 00f3 9F460000 		.4byte	.LASF980
 9139 00f7 05       		.byte	0x5
 9140 00f8 C401     		.uleb128 0xc4
 9141 00fa 441A0000 		.4byte	.LASF981
 9142 00fe 05       		.byte	0x5
 9143 00ff C501     		.uleb128 0xc5
 9144 0101 41620000 		.4byte	.LASF982
 9145 0105 05       		.byte	0x5
 9146 0106 C601     		.uleb128 0xc6
 9147 0108 D40A0000 		.4byte	.LASF983
 9148 010c 05       		.byte	0x5
 9149 010d C901     		.uleb128 0xc9
 9150 010f ED420000 		.4byte	.LASF984
 9151 0113 05       		.byte	0x5
 9152 0114 CA01     		.uleb128 0xca
ARM GAS  /var/folders/f9/8bk2lnw15zn4cbgn6wrnb4lm0000gn/T//ccyV4EJ6.s 			page 185


 9153 0116 5C450000 		.4byte	.LASF985
 9154 011a 05       		.byte	0x5
 9155 011b CB01     		.uleb128 0xcb
 9156 011d D3110000 		.4byte	.LASF986
 9157 0121 05       		.byte	0x5
 9158 0122 E501     		.uleb128 0xe5
 9159 0124 165B0000 		.4byte	.LASF987
 9160 0128 00       		.byte	0
 9161              		.section	.debug_line,"",%progbits
 9162              	.Ldebug_line0:
 9163 0000 57060000 		.section	.debug_str,"MS",%progbits,1
 9163      02003203 
 9163      00000201 
 9163      FB0E0D00 
 9163      01010101 
 9164              	.LASF872:
 9165 0000 4932435F 		.ascii	"I2C_I2CONSET_STO ((0x10))\000"
 9165      4932434F 
 9165      4E534554 
 9165      5F53544F 
 9165      20282830 
 9166              	.LASF337:
 9167 001a 5F5F4758 		.ascii	"__GXX_TYPEINFO_EQUALITY_INLINE 0\000"
 9167      585F5459 
 9167      5045494E 
 9167      464F5F45 
 9167      5155414C 
 9168              	.LASF892:
 9169 003b 4932435F 		.ascii	"I2C_I2STAT_M_TX_SLAW_NACK ((0x20))\000"
 9169      49325354 
 9169      41545F4D 
 9169      5F54585F 
 9169      534C4157 
 9170              	.LASF154:
 9171 005e 5F5F4445 		.ascii	"__DECIMAL_DIG__ 17\000"
 9171      43494D41 
 9171      4C5F4449 
 9171      475F5F20 
 9171      313700
 9172              	.LASF920:
 9173 0071 4932435F 		.ascii	"I2C_I2MMCTRL_MM_ENA ((1 << 0))\000"
 9173      49324D4D 
 9173      4354524C 
 9173      5F4D4D5F 
 9173      454E4120 
 9174              	.LASF291:
 9175 0090 5F5F5548 		.ascii	"__UHA_FBIT__ 8\000"
 9175      415F4642 
 9175      49545F5F 
 9175      203800
 9176              	.LASF944:
 9177 009f 5F5F4343 		.ascii	"__CCAND_11XX_H_ \000"
 9177      414E445F 
 9177      31315858 
 9177      5F485F20 
 9177      00
 9178              	.LASF1068:
ARM GAS  /var/folders/f9/8bk2lnw15zn4cbgn6wrnb4lm0000gn/T//ccyV4EJ6.s 			page 186


 9179 00b0 53595343 		.ascii	"SYSCTL_CLOCK_SYS\000"
 9179      544C5F43 
 9179      4C4F434B 
 9179      5F535953 
 9179      00
 9180              	.LASF109:
 9181 00c1 5F5F494E 		.ascii	"__INT_FAST32_MAX__ 2147483647\000"
 9181      545F4641 
 9181      53543332 
 9181      5F4D4158 
 9181      5F5F2032 
 9182              	.LASF569:
 9183 00df 4C50435F 		.ascii	"LPC_IOCON_BASE 0x40044000\000"
 9183      494F434F 
 9183      4E5F4241 
 9183      53452030 
 9183      78343030 
 9184              	.LASF548:
 9185 00f9 4E564943 		.ascii	"NVIC_BASE (SCS_BASE + 0x0100UL)\000"
 9185      5F424153 
 9185      45202853 
 9185      43535F42 
 9185      41534520 
 9186              	.LASF307:
 9187 0119 5F5F4743 		.ascii	"__GCC_ATOMIC_WCHAR_T_LOCK_FREE 1\000"
 9187      435F4154 
 9187      4F4D4943 
 9187      5F574348 
 9187      41525F54 
 9188              	.LASF290:
 9189 013a 5F5F5441 		.ascii	"__TA_IBIT__ 64\000"
 9189      5F494249 
 9189      545F5F20 
 9189      363400
 9190              	.LASF935:
 9191 0149 4932435F 		.ascii	"I2C_BYTE_RECV 0x02\000"
 9191      42595445 
 9191      5F524543 
 9191      56203078 
 9191      303200
 9192              	.LASF897:
 9193 015c 4932435F 		.ascii	"I2C_I2STAT_M_RX_RESTART ((0x10))\000"
 9193      49325354 
 9193      41545F4D 
 9193      5F52585F 
 9193      52455354 
 9194              	.LASF1070:
 9195 017d 53595343 		.ascii	"SYSCTL_CLOCK_RAM\000"
 9195      544C5F43 
 9195      4C4F434B 
 9195      5F52414D 
 9195      00
 9196              	.LASF183:
 9197 018e 5F5F5346 		.ascii	"__SFRACT_FBIT__ 7\000"
 9197      52414354 
 9197      5F464249 
 9197      545F5F20 
ARM GAS  /var/folders/f9/8bk2lnw15zn4cbgn6wrnb4lm0000gn/T//ccyV4EJ6.s 			page 187


 9197      3700
 9198              	.LASF1003:
 9199 01a0 73697A65 		.ascii	"sizetype\000"
 9199      74797065 
 9199      00
 9200              	.LASF70:
 9201 01a9 5F5F4C4F 		.ascii	"__LONG_LONG_MAX__ 9223372036854775807LL\000"
 9201      4E475F4C 
 9201      4F4E475F 
 9201      4D41585F 
 9201      5F203932 
 9202              	.LASF557:
 9203 01d1 4C50435F 		.ascii	"LPC_WWDT_BASE 0x40004000\000"
 9203      57574454 
 9203      5F424153 
 9203      45203078 
 9203      34303030 
 9204              	.LASF860:
 9205 01ea 4144435F 		.ascii	"ADC_CR_START_MCOA2 ((6UL << 24))\000"
 9205      43525F53 
 9205      54415254 
 9205      5F4D434F 
 9205      41322028 
 9206              	.LASF1130:
 9207 020b 70617373 		.ascii	"pass\000"
 9207      00
 9208              	.LASF255:
 9209 0210 5F5F4C4C 		.ascii	"__LLACCUM_MIN__ (-0X1P31LLK-0X1P31LLK)\000"
 9209      41434355 
 9209      4D5F4D49 
 9209      4E5F5F20 
 9209      282D3058 
 9210              	.LASF247:
 9211 0237 5F5F4C41 		.ascii	"__LACCUM_EPSILON__ 0x1P-31LK\000"
 9211      4343554D 
 9211      5F455053 
 9211      494C4F4E 
 9211      5F5F2030 
 9212              	.LASF605:
 9213 0254 53595343 		.ascii	"SYSCTL_RST_POR (1 << 0)\000"
 9213      544C5F52 
 9213      53545F50 
 9213      4F522028 
 9213      31203C3C 
 9214              	.LASF180:
 9215 026c 5F5F4445 		.ascii	"__DEC128_MAX__ 9.999999999999999999999999999999999E"
 9215      43313238 
 9215      5F4D4158 
 9215      5F5F2039 
 9215      2E393939 
 9216 029f 36313434 		.ascii	"6144DL\000"
 9216      444C00
 9217              	.LASF896:
 9218 02a6 4932435F 		.ascii	"I2C_I2STAT_M_RX_START ((0x08))\000"
 9218      49325354 
 9218      41545F4D 
 9218      5F52585F 
ARM GAS  /var/folders/f9/8bk2lnw15zn4cbgn6wrnb4lm0000gn/T//ccyV4EJ6.s 			page 188


 9218      53544152 
 9219              	.LASF520:
 9220 02c5 5343425F 		.ascii	"SCB_SCR_SLEEPONEXIT_Pos 1\000"
 9220      5343525F 
 9220      534C4545 
 9220      504F4E45 
 9220      5849545F 
 9221              	.LASF78:
 9222 02df 5F5F494E 		.ascii	"__INTMAX_C(c) c ## LL\000"
 9222      544D4158 
 9222      5F432863 
 9222      29206320 
 9222      2323204C 
 9223              	.LASF497:
 9224 02f5 5343425F 		.ascii	"SCB_ICSR_PENDSTCLR_Msk (1UL << SCB_ICSR_PENDSTCLR_P"
 9224      49435352 
 9224      5F50454E 
 9224      44535443 
 9224      4C525F4D 
 9225 0328 6F732900 		.ascii	"os)\000"
 9226              	.LASF241:
 9227 032c 5F5F5541 		.ascii	"__UACCUM_MAX__ 0XFFFFFFFFP-16UK\000"
 9227      4343554D 
 9227      5F4D4158 
 9227      5F5F2030 
 9227      58464646 
 9228              	.LASF168:
 9229 034c 5F5F4445 		.ascii	"__DEC32_SUBNORMAL_MIN__ 0.000001E-95DF\000"
 9229      4333325F 
 9229      5355424E 
 9229      4F524D41 
 9229      4C5F4D49 
 9230              	.LASF1142:
 9231 0373 43686970 		.ascii	"Chip_UART_IRQRBHandler\000"
 9231      5F554152 
 9231      545F4952 
 9231      51524248 
 9231      616E646C 
 9232              	.LASF1092:
 9233 038a 7461696C 		.ascii	"tail\000"
 9233      00
 9234              	.LASF423:
 9235 038f 57494E54 		.ascii	"WINT_MIN __WINT_MIN__\000"
 9235      5F4D494E 
 9235      205F5F57 
 9235      494E545F 
 9235      4D494E5F 
 9236              	.LASF741:
 9237 03a5 55415254 		.ascii	"UART_LCR_BREAK_EN (1 << 6)\000"
 9237      5F4C4352 
 9237      5F425245 
 9237      414B5F45 
 9237      4E202831 
 9238              	.LASF515:
 9239 03c0 5343425F 		.ascii	"SCB_AIRCR_VECTCLRACTIVE_Msk (1UL << SCB_AIRCR_VECTC"
 9239      41495243 
 9239      525F5645 
ARM GAS  /var/folders/f9/8bk2lnw15zn4cbgn6wrnb4lm0000gn/T//ccyV4EJ6.s 			page 189


 9239      4354434C 
 9239      52414354 
 9240 03f3 4C524143 		.ascii	"LRACTIVE_Pos)\000"
 9240      54495645 
 9240      5F506F73 
 9240      2900
 9241              	.LASF11:
 9242 0401 5F5F4154 		.ascii	"__ATOMIC_CONSUME 1\000"
 9242      4F4D4943 
 9242      5F434F4E 
 9242      53554D45 
 9242      203100
 9243              	.LASF205:
 9244 0414 5F5F4C46 		.ascii	"__LFRACT_MIN__ (-0.5LR-0.5LR)\000"
 9244      52414354 
 9244      5F4D494E 
 9244      5F5F2028 
 9244      2D302E35 
 9245              	.LASF483:
 9246 0432 5343425F 		.ascii	"SCB_CPUID_ARCHITECTURE_Msk (0xFUL << SCB_CPUID_ARCH"
 9246      43505549 
 9246      445F4152 
 9246      43484954 
 9246      45435455 
 9247 0465 49544543 		.ascii	"ITECTURE_Pos)\000"
 9247      54555245 
 9247      5F506F73 
 9247      2900
 9248              	.LASF235:
 9249 0473 5F5F4143 		.ascii	"__ACCUM_MIN__ (-0X1P15K-0X1P15K)\000"
 9249      43554D5F 
 9249      4D494E5F 
 9249      5F20282D 
 9249      30583150 
 9250              	.LASF763:
 9251 0494 55415254 		.ascii	"UART_MSR_LO2HI_RI (1 << 2)\000"
 9251      5F4D5352 
 9251      5F4C4F32 
 9251      48495F52 
 9251      49202831 
 9252              	.LASF1116:
 9253 04af 43686970 		.ascii	"Chip_UART_ReadByte\000"
 9253      5F554152 
 9253      545F5265 
 9253      61644279 
 9253      746500
 9254              	.LASF961:
 9255 04c2 53444F5F 		.ascii	"SDO_ABORT_UNKNOWN_COMMAND 0x05040001UL\000"
 9255      41424F52 
 9255      545F554E 
 9255      4B4E4F57 
 9255      4E5F434F 
 9256              	.LASF500:
 9257 04e9 5343425F 		.ascii	"SCB_ICSR_ISRPENDING_Pos 22\000"
 9257      49435352 
 9257      5F495352 
 9257      50454E44 
ARM GAS  /var/folders/f9/8bk2lnw15zn4cbgn6wrnb4lm0000gn/T//ccyV4EJ6.s 			page 190


 9257      494E475F 
 9258              	.LASF395:
 9259 0504 494E5436 		.ascii	"INT64_MAX __INT64_MAX__\000"
 9259      345F4D41 
 9259      58205F5F 
 9259      494E5436 
 9259      345F4D41 
 9260              	.LASF16:
 9261 051c 5F5F5349 		.ascii	"__SIZEOF_LONG_LONG__ 8\000"
 9261      5A454F46 
 9261      5F4C4F4E 
 9261      475F4C4F 
 9261      4E475F5F 
 9262              	.LASF139:
 9263 0533 5F5F4442 		.ascii	"__DBL_MAX_10_EXP__ 308\000"
 9263      4C5F4D41 
 9263      585F3130 
 9263      5F455850 
 9263      5F5F2033 
 9264              	.LASF775:
 9265 054a 55415254 		.ascii	"UART_ACR_BITMASK (0x307)\000"
 9265      5F414352 
 9265      5F424954 
 9265      4D41534B 
 9265      20283078 
 9266              	.LASF744:
 9267 0563 55415254 		.ascii	"UART_MCR_DTR_CTRL (1 << 0)\000"
 9267      5F4D4352 
 9267      5F445452 
 9267      5F435452 
 9267      4C202831 
 9268              	.LASF1125:
 9269 057e 43686970 		.ascii	"Chip_UART_IntEnable\000"
 9269      5F554152 
 9269      545F496E 
 9269      74456E61 
 9269      626C6500 
 9270              	.LASF261:
 9271 0592 5F5F554C 		.ascii	"__ULLACCUM_MAX__ 0XFFFFFFFFFFFFFFFFP-32ULLK\000"
 9271      4C414343 
 9271      554D5F4D 
 9271      41585F5F 
 9271      20305846 
 9272              	.LASF531:
 9273 05be 53797354 		.ascii	"SysTick_CTRL_CLKSOURCE_Msk (1UL << SysTick_CTRL_CLK"
 9273      69636B5F 
 9273      4354524C 
 9273      5F434C4B 
 9273      534F5552 
 9274 05f1 534F5552 		.ascii	"SOURCE_Pos)\000"
 9274      43455F50 
 9274      6F732900 
 9275              	.LASF231:
 9276 05fd 5F5F5553 		.ascii	"__USACCUM_MAX__ 0XFFFFP-8UHK\000"
 9276      41434355 
 9276      4D5F4D41 
 9276      585F5F20 
ARM GAS  /var/folders/f9/8bk2lnw15zn4cbgn6wrnb4lm0000gn/T//ccyV4EJ6.s 			page 191


 9276      30584646 
 9277              	.LASF165:
 9278 061a 5F5F4445 		.ascii	"__DEC32_MIN__ 1E-95DF\000"
 9278      4333325F 
 9278      4D494E5F 
 9278      5F203145 
 9278      2D393544 
 9279              	.LASF332:
 9280 0630 5F5F4152 		.ascii	"__ARM_NEON_FP 4\000"
 9280      4D5F4E45 
 9280      4F4E5F46 
 9280      50203400 
 9281              	.LASF562:
 9282 0640 4C50435F 		.ascii	"LPC_TIMER32_1_BASE 0x40018000\000"
 9282      54494D45 
 9282      5233325F 
 9282      315F4241 
 9282      53452030 
 9283              	.LASF268:
 9284 065e 5F5F5351 		.ascii	"__SQ_IBIT__ 0\000"
 9284      5F494249 
 9284      545F5F20 
 9284      3000
 9285              	.LASF26:
 9286 066c 5F5F4F52 		.ascii	"__ORDER_PDP_ENDIAN__ 3412\000"
 9286      4445525F 
 9286      5044505F 
 9286      454E4449 
 9286      414E5F5F 
 9287              	.LASF1087:
 9288 0686 43484950 		.ascii	"CHIP_SYSCTL_CLOCK_T\000"
 9288      5F535953 
 9288      43544C5F 
 9288      434C4F43 
 9288      4B5F5400 
 9289              	.LASF171:
 9290 069a 5F5F4445 		.ascii	"__DEC64_MAX_EXP__ 385\000"
 9290      4336345F 
 9290      4D41585F 
 9290      4558505F 
 9290      5F203338 
 9291              	.LASF1046:
 9292 06b0 424F4443 		.ascii	"BODCTRL\000"
 9292      54524C00 
 9293              	.LASF525:
 9294 06b8 5343425F 		.ascii	"SCB_CCR_UNALIGN_TRP_Msk (1UL << SCB_CCR_UNALIGN_TRP"
 9294      4343525F 
 9294      554E414C 
 9294      49474E5F 
 9294      5452505F 
 9295 06eb 5F506F73 		.ascii	"_Pos)\000"
 9295      2900
 9296              	.LASF131:
 9297 06f1 5F5F464C 		.ascii	"__FLT_HAS_DENORM__ 1\000"
 9297      545F4841 
 9297      535F4445 
 9297      4E4F524D 
ARM GAS  /var/folders/f9/8bk2lnw15zn4cbgn6wrnb4lm0000gn/T//ccyV4EJ6.s 			page 192


 9297      5F5F2031 
 9298              	.LASF39:
 9299 0706 5F5F494E 		.ascii	"__INT8_TYPE__ signed char\000"
 9299      54385F54 
 9299      5950455F 
 9299      5F207369 
 9299      676E6564 
 9300              	.LASF321:
 9301 0720 5F5F4152 		.ascii	"__ARM_ARCH_PROFILE 77\000"
 9301      4D5F4152 
 9301      43485F50 
 9301      524F4649 
 9301      4C452037 
 9302              	.LASF798:
 9303 0736 55415254 		.ascii	"UART_TER2_TXEN (1 << 0)\000"
 9303      5F544552 
 9303      325F5458 
 9303      454E2028 
 9303      31203C3C 
 9304              	.LASF1076:
 9305 074e 53595343 		.ascii	"SYSCTL_CLOCK_CT16B1\000"
 9305      544C5F43 
 9305      4C4F434B 
 9305      5F435431 
 9305      36423100 
 9306              	.LASF815:
 9307 0762 5353505F 		.ascii	"SSP_CR0_FRF_SPI ((uint32_t) (0 << 4))\000"
 9307      4352305F 
 9307      4652465F 
 9307      53504920 
 9307      28287569 
 9308              	.LASF758:
 9309 0788 55415254 		.ascii	"UART_LSR_TXFE (1 << 8)\000"
 9309      5F4C5352 
 9309      5F545846 
 9309      45202831 
 9309      203C3C20 
 9310              	.LASF150:
 9311 079f 5F5F4C44 		.ascii	"__LDBL_MIN_EXP__ (-1021)\000"
 9311      424C5F4D 
 9311      494E5F45 
 9311      58505F5F 
 9311      20282D31 
 9312              	.LASF375:
 9313 07b8 55494E54 		.ascii	"UINTPTR_MAX __UINTPTR_MAX__\000"
 9313      5054525F 
 9313      4D415820 
 9313      5F5F5549 
 9313      4E545054 
 9314              	.LASF148:
 9315 07d4 5F5F4C44 		.ascii	"__LDBL_MANT_DIG__ 53\000"
 9315      424C5F4D 
 9315      414E545F 
 9315      4449475F 
 9315      5F203533 
 9316              	.LASF833:
 9317 07e9 5353505F 		.ascii	"SSP_ICR_BITMASK ((uint32_t) (0x03))\000"
ARM GAS  /var/folders/f9/8bk2lnw15zn4cbgn6wrnb4lm0000gn/T//ccyV4EJ6.s 			page 193


 9317      4943525F 
 9317      4249544D 
 9317      41534B20 
 9317      28287569 
 9318              	.LASF1119:
 9319 080d 72656164 		.ascii	"readBytes\000"
 9319      42797465 
 9319      7300
 9320              	.LASF606:
 9321 0817 53595343 		.ascii	"SYSCTL_RST_EXTRST (1 << 1)\000"
 9321      544C5F52 
 9321      53545F45 
 9321      58545253 
 9321      54202831 
 9322              	.LASF100:
 9323 0832 5F5F5549 		.ascii	"__UINT8_C(c) c\000"
 9323      4E54385F 
 9323      43286329 
 9323      206300
 9324              	.LASF40:
 9325 0841 5F5F494E 		.ascii	"__INT16_TYPE__ short int\000"
 9325      5431365F 
 9325      54595045 
 9325      5F5F2073 
 9325      686F7274 
 9326              	.LASF647:
 9327 085a 494F434F 		.ascii	"IOCON_DIGMODE_EN (0x1 << 7)\000"
 9327      4E5F4449 
 9327      474D4F44 
 9327      455F454E 
 9327      20283078 
 9328              	.LASF842:
 9329 0876 434F4D50 		.ascii	"COMPILE_TIME_ASSERT(pred) switch(0){case 0:case pre"
 9329      494C455F 
 9329      54494D45 
 9329      5F415353 
 9329      45525428 
 9330 08a9 643A3B7D 		.ascii	"d:;}\000"
 9330      00
 9331              	.LASF1149:
 9332 08ae 72617465 		.ascii	"rate16\000"
 9332      313600
 9333              	.LASF561:
 9334 08b5 4C50435F 		.ascii	"LPC_TIMER32_0_BASE 0x40014000\000"
 9334      54494D45 
 9334      5233325F 
 9334      305F4241 
 9334      53452030 
 9335              	.LASF776:
 9336 08d3 55415254 		.ascii	"UART_RS485CTRL_NMM_EN (1 << 0)\000"
 9336      5F525334 
 9336      38354354 
 9336      524C5F4E 
 9336      4D4D5F45 
 9337              	.LASF441:
 9338 08f2 50415241 		.ascii	"PARAM_FUNCTIONALSTATE(State) ((State == DISABLE) ||"
 9338      4D5F4655 
ARM GAS  /var/folders/f9/8bk2lnw15zn4cbgn6wrnb4lm0000gn/T//ccyV4EJ6.s 			page 194


 9338      4E435449 
 9338      4F4E414C 
 9338      53544154 
 9339 0925 20285374 		.ascii	" (State == ENABLE))\000"
 9339      61746520 
 9339      3D3D2045 
 9339      4E41424C 
 9339      45292900 
 9340              	.LASF951:
 9341 0939 43414E5F 		.ascii	"CAN_ERROR_ACK 0x00000020UL\000"
 9341      4552524F 
 9341      525F4143 
 9341      4B203078 
 9341      30303030 
 9342              	.LASF676:
 9343 0954 54494D45 		.ascii	"TIMER_IR_CLR(n) _BIT(n)\000"
 9343      525F4952 
 9343      5F434C52 
 9343      286E2920 
 9343      5F424954 
 9344              	.LASF819:
 9345 096c 5353505F 		.ascii	"SSP_CR0_CPOL_HI ((uint32_t) (1 << 6))\000"
 9345      4352305F 
 9345      43504F4C 
 9345      5F484920 
 9345      28287569 
 9346              	.LASF410:
 9347 0992 494E545F 		.ascii	"INT_FAST64_MAX __INT_FAST64_MAX__\000"
 9347      46415354 
 9347      36345F4D 
 9347      4158205F 
 9347      5F494E54 
 9348              	.LASF633:
 9349 09b4 494F434F 		.ascii	"IOCON_FUNC1 0x1\000"
 9349      4E5F4655 
 9349      4E433120 
 9349      30783100 
 9350              	.LASF708:
 9351 09c4 55415254 		.ascii	"UART_IIR_ABEO_INT (1 << 8)\000"
 9351      5F494952 
 9351      5F414245 
 9351      4F5F494E 
 9351      54202831 
 9352              	.LASF796:
 9353 09df 55415254 		.ascii	"UART_FDR_BITMASK (0xFF)\000"
 9353      5F464452 
 9353      5F424954 
 9353      4D41534B 
 9353      20283078 
 9354              	.LASF1:
 9355 09f7 5F5F5354 		.ascii	"__STDC_HOSTED__ 1\000"
 9355      44435F48 
 9355      4F535445 
 9355      445F5F20 
 9355      3100
 9356              	.LASF218:
 9357 0a09 5F5F554C 		.ascii	"__ULLFRACT_FBIT__ 64\000"
ARM GAS  /var/folders/f9/8bk2lnw15zn4cbgn6wrnb4lm0000gn/T//ccyV4EJ6.s 			page 195


 9357      4C465241 
 9357      43545F46 
 9357      4249545F 
 9357      5F203634 
 9358              	.LASF264:
 9359 0a1e 5F5F5151 		.ascii	"__QQ_IBIT__ 0\000"
 9359      5F494249 
 9359      545F5F20 
 9359      3000
 9360              	.LASF705:
 9361 0a2c 55415254 		.ascii	"UART2_IER_BITMASK (0x38F)\000"
 9361      325F4945 
 9361      525F4249 
 9361      544D4153 
 9361      4B202830 
 9362              	.LASF1110:
 9363 0a46 636F6E66 		.ascii	"config\000"
 9363      696700
 9364              	.LASF1034:
 9365 0a4d 55534243 		.ascii	"USBCLKDIV\000"
 9365      4C4B4449 
 9365      5600
 9366              	.LASF58:
 9367 0a57 5F5F494E 		.ascii	"__INT_FAST64_TYPE__ long long int\000"
 9367      545F4641 
 9367      53543634 
 9367      5F545950 
 9367      455F5F20 
 9368              	.LASF494:
 9369 0a79 5343425F 		.ascii	"SCB_ICSR_PENDSTSET_Pos 26\000"
 9369      49435352 
 9369      5F50454E 
 9369      44535453 
 9369      45545F50 
 9370              	.LASF715:
 9371 0a93 55415254 		.ascii	"UART_IIR_INTID_THRE (1 << 1)\000"
 9371      5F494952 
 9371      5F494E54 
 9371      49445F54 
 9371      48524520 
 9372              	.LASF626:
 9373 0ab0 53595343 		.ascii	"SYSCTL_POWERDOWN_SYSOSC_PD (1 << 5)\000"
 9373      544C5F50 
 9373      4F574552 
 9373      444F574E 
 9373      5F535953 
 9374              	.LASF983:
 9375 0ad4 43414E5F 		.ascii	"CAN_SDOREQ_HANDLED_NOSEND 2\000"
 9375      53444F52 
 9375      45515F48 
 9375      414E444C 
 9375      45445F4E 
 9376              	.LASF573:
 9377 0af0 4C50435F 		.ascii	"LPC_SSP1_BASE 0x40058000\000"
 9377      53535031 
 9377      5F424153 
 9377      45203078 
ARM GAS  /var/folders/f9/8bk2lnw15zn4cbgn6wrnb4lm0000gn/T//ccyV4EJ6.s 			page 196


 9377      34303035 
 9378              	.LASF871:
 9379 0b09 4932435F 		.ascii	"I2C_I2CONSET_SI ((0x08))\000"
 9379      4932434F 
 9379      4E534554 
 9379      5F534920 
 9379      28283078 
 9380              	.LASF749:
 9381 0b22 55415254 		.ascii	"UART_MCR_BITMASK (0xD3)\000"
 9381      5F4D4352 
 9381      5F424954 
 9381      4D41534B 
 9381      20283078 
 9382              	.LASF90:
 9383 0b3a 5F5F5549 		.ascii	"__UINT64_MAX__ 18446744073709551615ULL\000"
 9383      4E543634 
 9383      5F4D4158 
 9383      5F5F2031 
 9383      38343436 
 9384              	.LASF452:
 9385 0b61 554E5553 		.ascii	"UNUSED(x) (void)(x)\000"
 9385      45442878 
 9385      29202876 
 9385      6F696429 
 9385      28782900 
 9386              	.LASF191:
 9387 0b75 5F5F5553 		.ascii	"__USFRACT_MAX__ 0XFFP-8UHR\000"
 9387      46524143 
 9387      545F4D41 
 9387      585F5F20 
 9387      30584646 
 9388              	.LASF530:
 9389 0b90 53797354 		.ascii	"SysTick_CTRL_CLKSOURCE_Pos 2\000"
 9389      69636B5F 
 9389      4354524C 
 9389      5F434C4B 
 9389      534F5552 
 9390              	.LASF653:
 9391 0bad 4D445F50 		.ascii	"MD_PLN (0x0 << 3)\000"
 9391      4C4E2028 
 9391      30783020 
 9391      3C3C2033 
 9391      2900
 9392              	.LASF1156:
 9393 0bbf 474E5520 		.ascii	"GNU C 4.8.4 20140725 (release) [ARM/embedded-4_8-br"
 9393      4320342E 
 9393      382E3420 
 9393      32303134 
 9393      30373235 
 9394 0bf2 616E6368 		.ascii	"anch revision 213147] -mcpu=cortex-m0 -mthumb -g -g"
 9394      20726576 
 9394      6973696F 
 9394      6E203231 
 9394      33313437 
 9395 0c25 67646233 		.ascii	"gdb3 -O2 -std=gnu90 -ffunction-sections -fdata-sect"
 9395      202D4F32 
 9395      202D7374 
ARM GAS  /var/folders/f9/8bk2lnw15zn4cbgn6wrnb4lm0000gn/T//ccyV4EJ6.s 			page 197


 9395      643D676E 
 9395      75393020 
 9396 0c58 696F6E73 		.ascii	"ions\000"
 9396      00
 9397              	.LASF1143:
 9398 0c5d 70525852 		.ascii	"pRXRB\000"
 9398      4200
 9399              	.LASF716:
 9400 0c63 55415254 		.ascii	"UART_IIR_INTID_MODEM (0 << 1)\000"
 9400      5F494952 
 9400      5F494E54 
 9400      49445F4D 
 9400      4F44454D 
 9401              	.LASF473:
 9402 0c81 5F5F434F 		.ascii	"__CORE_CMFUNC_H \000"
 9402      52455F43 
 9402      4D46554E 
 9402      435F4820 
 9402      00
 9403              	.LASF508:
 9404 0c92 5343425F 		.ascii	"SCB_AIRCR_VECTKEYSTAT_Pos 16\000"
 9404      41495243 
 9404      525F5645 
 9404      43544B45 
 9404      59535441 
 9405              	.LASF876:
 9406 0caf 4932435F 		.ascii	"I2C_I2CONCLR_SIC ((1 << 3))\000"
 9406      4932434F 
 9406      4E434C52 
 9406      5F534943 
 9406      20282831 
 9407              	.LASF390:
 9408 0ccb 55494E54 		.ascii	"UINT32_MAX __UINT32_MAX__\000"
 9408      33325F4D 
 9408      4158205F 
 9408      5F55494E 
 9408      5433325F 
 9409              	.LASF839:
 9410 0ce5 5353505F 		.ascii	"SSP_MASTER_MODE SSP_CR1_MASTER_EN\000"
 9410      4D415354 
 9410      45525F4D 
 9410      4F444520 
 9410      5353505F 
 9411              	.LASF882:
 9412 0d07 4932435F 		.ascii	"I2C_CON_STO (1UL << 4)\000"
 9412      434F4E5F 
 9412      53544F20 
 9412      2831554C 
 9412      203C3C20 
 9413              	.LASF878:
 9414 0d1e 4932435F 		.ascii	"I2C_I2CONCLR_STAC ((1 << 5))\000"
 9414      4932434F 
 9414      4E434C52 
 9414      5F535441 
 9414      43202828 
 9415              	.LASF1104:
 9416 0d3b 4C50435F 		.ascii	"LPC_USART_T\000"
ARM GAS  /var/folders/f9/8bk2lnw15zn4cbgn6wrnb4lm0000gn/T//ccyV4EJ6.s 			page 198


 9416      55534152 
 9416      545F5400 
 9417              	.LASF208:
 9418 0d47 5F5F554C 		.ascii	"__ULFRACT_FBIT__ 32\000"
 9418      46524143 
 9418      545F4642 
 9418      49545F5F 
 9418      20333200 
 9419              	.LASF1155:
 9420 0d5b 52696E67 		.ascii	"RingBuffer_PopMult\000"
 9420      42756666 
 9420      65725F50 
 9420      6F704D75 
 9420      6C7400
 9421              	.LASF901:
 9422 0d6e 4932435F 		.ascii	"I2C_I2STAT_M_RX_DAT_ACK ((0x50))\000"
 9422      49325354 
 9422      41545F4D 
 9422      5F52585F 
 9422      4441545F 
 9423              	.LASF371:
 9424 0d8f 5F5F696E 		.ascii	"__int_fast32_t_defined 1\000"
 9424      745F6661 
 9424      73743332 
 9424      5F745F64 
 9424      6566696E 
 9425              	.LASF962:
 9426 0da8 53444F5F 		.ascii	"SDO_ABORT_UNSUPPORTED 0x06010000UL\000"
 9426      41424F52 
 9426      545F554E 
 9426      53555050 
 9426      4F525445 
 9427              	.LASF398:
 9428 0dcb 494E545F 		.ascii	"INT_LEAST64_MAX __INT_LEAST64_MAX__\000"
 9428      4C454153 
 9428      5436345F 
 9428      4D415820 
 9428      5F5F494E 
 9429              	.LASF759:
 9430 0def 55415254 		.ascii	"UART_LSR_BITMASK (0xFF)\000"
 9430      5F4C5352 
 9430      5F424954 
 9430      4D41534B 
 9430      20283078 
 9431              	.LASF209:
 9432 0e07 5F5F554C 		.ascii	"__ULFRACT_IBIT__ 0\000"
 9432      46524143 
 9432      545F4942 
 9432      49545F5F 
 9432      203000
 9433              	.LASF426:
 9434 0e1a 494E5431 		.ascii	"INT16_C(x) __INT16_C(x)\000"
 9434      365F4328 
 9434      7829205F 
 9434      5F494E54 
 9434      31365F43 
 9435              	.LASF912:
ARM GAS  /var/folders/f9/8bk2lnw15zn4cbgn6wrnb4lm0000gn/T//ccyV4EJ6.s 			page 199


 9436 0e32 4932435F 		.ascii	"I2C_I2STAT_S_TX_SLAR_ACK ((0xA8))\000"
 9436      49325354 
 9436      41545F53 
 9436      5F54585F 
 9436      534C4152 
 9437              	.LASF1150:
 9438 0e54 61637475 		.ascii	"actualRate\000"
 9438      616C5261 
 9438      746500
 9439              	.LASF1144:
 9440 0e5f 70545852 		.ascii	"pTXRB\000"
 9440      4200
 9441              	.LASF96:
 9442 0e65 5F5F494E 		.ascii	"__INT32_C(c) c ## L\000"
 9442      5433325F 
 9442      43286329 
 9442      20632023 
 9442      23204C00 
 9443              	.LASF277:
 9444 0e79 5F5F5553 		.ascii	"__USQ_FBIT__ 32\000"
 9444      515F4642 
 9444      49545F5F 
 9444      20333200 
 9445              	.LASF1077:
 9446 0e89 53595343 		.ascii	"SYSCTL_CLOCK_CT32B0\000"
 9446      544C5F43 
 9446      4C4F434B 
 9446      5F435433 
 9446      32423000 
 9447              	.LASF1078:
 9448 0e9d 53595343 		.ascii	"SYSCTL_CLOCK_CT32B1\000"
 9448      544C5F43 
 9448      4C4F434B 
 9448      5F435433 
 9448      32423100 
 9449              	.LASF267:
 9450 0eb1 5F5F5351 		.ascii	"__SQ_FBIT__ 31\000"
 9450      5F464249 
 9450      545F5F20 
 9450      333100
 9451              	.LASF865:
 9452 0ec0 5245545F 		.ascii	"RET_SLAVE_TX 6\000"
 9452      534C4156 
 9452      455F5458 
 9452      203600
 9453              	.LASF297:
 9454 0ecf 5F5F5554 		.ascii	"__UTA_FBIT__ 64\000"
 9454      415F4642 
 9454      49545F5F 
 9454      20363400 
 9455              	.LASF1096:
 9456 0edf 54455231 		.ascii	"TER1\000"
 9456      00
 9457              	.LASF1103:
 9458 0ee4 54455232 		.ascii	"TER2\000"
 9458      00
 9459              	.LASF1101:
ARM GAS  /var/folders/f9/8bk2lnw15zn4cbgn6wrnb4lm0000gn/T//ccyV4EJ6.s 			page 200


 9460 0ee9 52533438 		.ascii	"RS485ADRMATCH\000"
 9460      35414452 
 9460      4D415443 
 9460      4800
 9461              	.LASF722:
 9462 0ef7 55415254 		.ascii	"UART_TX_FIFO_SIZE (16)\000"
 9462      5F54585F 
 9462      4649464F 
 9462      5F53495A 
 9462      45202831 
 9463              	.LASF275:
 9464 0f0e 5F5F5548 		.ascii	"__UHQ_FBIT__ 16\000"
 9464      515F4642 
 9464      49545F5F 
 9464      20313600 
 9465              	.LASF777:
 9466 0f1e 55415254 		.ascii	"UART_RS485CTRL_RX_DIS (1 << 1)\000"
 9466      5F525334 
 9466      38354354 
 9466      524C5F52 
 9466      585F4449 
 9467              	.LASF874:
 9468 0f3d 4932435F 		.ascii	"I2C_I2CONSET_I2EN ((0x40))\000"
 9468      4932434F 
 9468      4E534554 
 9468      5F493245 
 9468      4E202828 
 9469              	.LASF542:
 9470 0f58 53797354 		.ascii	"SysTick_CALIB_SKEW_Pos 30\000"
 9470      69636B5F 
 9470      43414C49 
 9470      425F534B 
 9470      45575F50 
 9471              	.LASF787:
 9472 0f72 55415254 		.ascii	"UART_ICR_BITMASK (0x3F)\000"
 9472      5F494352 
 9472      5F424954 
 9472      4D41534B 
 9472      20283078 
 9473              	.LASF66:
 9474 0f8a 5F5F5343 		.ascii	"__SCHAR_MAX__ 127\000"
 9474      4841525F 
 9474      4D41585F 
 9474      5F203132 
 9474      3700
 9475              	.LASF167:
 9476 0f9c 5F5F4445 		.ascii	"__DEC32_EPSILON__ 1E-6DF\000"
 9476      4333325F 
 9476      45505349 
 9476      4C4F4E5F 
 9476      5F203145 
 9477              	.LASF950:
 9478 0fb5 43414E5F 		.ascii	"CAN_ERROR_FORM 0x00000010UL\000"
 9478      4552524F 
 9478      525F464F 
 9478      524D2030 
 9478      78303030 
ARM GAS  /var/folders/f9/8bk2lnw15zn4cbgn6wrnb4lm0000gn/T//ccyV4EJ6.s 			page 201


 9479              	.LASF1083:
 9480 0fd1 53595343 		.ascii	"SYSCTL_CLOCK_WDT\000"
 9480      544C5F43 
 9480      4C4F434B 
 9480      5F574454 
 9480      00
 9481              	.LASF523:
 9482 0fe2 5343425F 		.ascii	"SCB_CCR_STKALIGN_Msk (1UL << SCB_CCR_STKALIGN_Pos)\000"
 9482      4343525F 
 9482      53544B41 
 9482      4C49474E 
 9482      5F4D736B 
 9483              	.LASF468:
 9484 1015 5F5F4153 		.ascii	"__ASM __asm\000"
 9484      4D205F5F 
 9484      61736D00 
 9485              	.LASF993:
 9486 1021 5F5F7569 		.ascii	"__uint8_t\000"
 9486      6E74385F 
 9486      7400
 9487              	.LASF797:
 9488 102b 55415254 		.ascii	"UART_TER1_TXEN (1 << 7)\000"
 9488      5F544552 
 9488      315F5458 
 9488      454E2028 
 9488      31203C3C 
 9489              	.LASF616:
 9490 1043 53595343 		.ascii	"SYSCTL_SLPWAKE_BOD_PD (1 << 3)\000"
 9490      544C5F53 
 9490      4C505741 
 9490      4B455F42 
 9490      4F445F50 
 9491              	.LASF84:
 9492 1062 5F5F494E 		.ascii	"__INT16_MAX__ 32767\000"
 9492      5431365F 
 9492      4D41585F 
 9492      5F203332 
 9492      37363700 
 9493              	.LASF1067:
 9494 1076 4C50435F 		.ascii	"LPC_SYSCTL_T\000"
 9494      53595343 
 9494      544C5F54 
 9494      00
 9495              	.LASF679:
 9496 1083 54494D45 		.ascii	"TIMER_ENABLE ((uint32_t) (1 << 0))\000"
 9496      525F454E 
 9496      41424C45 
 9496      20282875 
 9496      696E7433 
 9497              	.LASF330:
 9498 10a6 5F5F5646 		.ascii	"__VFP_FP__ 1\000"
 9498      505F4650 
 9498      5F5F2031 
 9498      00
 9499              	.LASF907:
 9500 10b3 4932435F 		.ascii	"I2C_I2STAT_S_RX_PRE_SLA_DAT_ACK ((0x80))\000"
 9500      49325354 
ARM GAS  /var/folders/f9/8bk2lnw15zn4cbgn6wrnb4lm0000gn/T//ccyV4EJ6.s 			page 202


 9500      41545F53 
 9500      5F52585F 
 9500      5052455F 
 9501              	.LASF625:
 9502 10dc 53595343 		.ascii	"SYSCTL_POWERDOWN_ADC_PD (1 << 4)\000"
 9502      544C5F50 
 9502      4F574552 
 9502      444F574E 
 9502      5F414443 
 9503              	.LASF648:
 9504 10fd 494F434F 		.ascii	"IOCON_SFI2C_EN (0x0 << 8)\000"
 9504      4E5F5346 
 9504      4932435F 
 9504      454E2028 
 9504      30783020 
 9505              	.LASF77:
 9506 1117 5F5F494E 		.ascii	"__INTMAX_MAX__ 9223372036854775807LL\000"
 9506      544D4158 
 9506      5F4D4158 
 9506      5F5F2039 
 9506      32323333 
 9507              	.LASF806:
 9508 113c 5F5F5757 		.ascii	"__WWDT_11XX_H_ \000"
 9508      44545F31 
 9508      3158585F 
 9508      485F2000 
 9509              	.LASF397:
 9510 114c 494E545F 		.ascii	"INT_LEAST64_MIN (-__INT_LEAST64_MAX__ - 1)\000"
 9510      4C454153 
 9510      5436345F 
 9510      4D494E20 
 9510      282D5F5F 
 9511              	.LASF808:
 9512 1177 57574454 		.ascii	"WWDT_WDMOD_WDEN ((uint32_t) (1 << 0))\000"
 9512      5F57444D 
 9512      4F445F57 
 9512      44454E20 
 9512      28287569 
 9513              	.LASF851:
 9514 119d 4144435F 		.ascii	"ADC_CR_BURST ((1UL << 16))\000"
 9514      43525F42 
 9514      55525354 
 9514      20282831 
 9514      554C203C 
 9515              	.LASF724:
 9516 11b8 55415254 		.ascii	"UART_FCR_TRG_LEV1 (1 << 6)\000"
 9516      5F464352 
 9516      5F545247 
 9516      5F4C4556 
 9516      31202831 
 9517              	.LASF986:
 9518 11d3 43414E5F 		.ascii	"CAN_SDOSEG_CLOSE 2\000"
 9518      53444F53 
 9518      45475F43 
 9518      4C4F5345 
 9518      203200
 9519              	.LASF747:
ARM GAS  /var/folders/f9/8bk2lnw15zn4cbgn6wrnb4lm0000gn/T//ccyV4EJ6.s 			page 203


 9520 11e6 55415254 		.ascii	"UART_MCR_AUTO_RTS_EN (1 << 6)\000"
 9520      5F4D4352 
 9520      5F415554 
 9520      4F5F5254 
 9520      535F454E 
 9521              	.LASF1051:
 9522 1204 50494E54 		.ascii	"PINTSEL\000"
 9522      53454C00 
 9523              	.LASF166:
 9524 120c 5F5F4445 		.ascii	"__DEC32_MAX__ 9.999999E96DF\000"
 9524      4333325F 
 9524      4D41585F 
 9524      5F20392E 
 9524      39393939 
 9525              	.LASF1148:
 9526 1228 6D76616C 		.ascii	"mval\000"
 9526      00
 9527              	.LASF823:
 9528 122d 5353505F 		.ascii	"SSP_CR0_BITMASK ((uint32_t) (0xFFFF))\000"
 9528      4352305F 
 9528      4249544D 
 9528      41534B20 
 9528      28287569 
 9529              	.LASF82:
 9530 1253 5F5F5349 		.ascii	"__SIG_ATOMIC_MIN__ (-__SIG_ATOMIC_MAX__ - 1)\000"
 9530      475F4154 
 9530      4F4D4943 
 9530      5F4D494E 
 9530      5F5F2028 
 9531              	.LASF639:
 9532 1280 494F434F 		.ascii	"IOCON_FUNC7 0x7\000"
 9532      4E5F4655 
 9532      4E433720 
 9532      30783700 
 9533              	.LASF406:
 9534 1290 494E545F 		.ascii	"INT_FAST32_MIN (-__INT_FAST32_MAX__ - 1)\000"
 9534      46415354 
 9534      33325F4D 
 9534      494E2028 
 9534      2D5F5F49 
 9535              	.LASF320:
 9536 12b9 5F5F4152 		.ascii	"__ARM_SIZEOF_WCHAR_T 32\000"
 9536      4D5F5349 
 9536      5A454F46 
 9536      5F574348 
 9536      41525F54 
 9537              	.LASF532:
 9538 12d1 53797354 		.ascii	"SysTick_CTRL_TICKINT_Pos 1\000"
 9538      69636B5F 
 9538      4354524C 
 9538      5F544943 
 9538      4B494E54 
 9539              	.LASF51:
 9540 12ec 5F5F5549 		.ascii	"__UINT_LEAST8_TYPE__ unsigned char\000"
 9540      4E545F4C 
 9540      45415354 
 9540      385F5459 
ARM GAS  /var/folders/f9/8bk2lnw15zn4cbgn6wrnb4lm0000gn/T//ccyV4EJ6.s 			page 204


 9540      50455F5F 
 9541              	.LASF910:
 9542 130f 4932435F 		.ascii	"I2C_I2STAT_S_RX_PRE_GENCALL_DAT_NACK ((0x98))\000"
 9542      49325354 
 9542      41545F53 
 9542      5F52585F 
 9542      5052455F 
 9543              	.LASF233:
 9544 133d 5F5F4143 		.ascii	"__ACCUM_FBIT__ 15\000"
 9544      43554D5F 
 9544      46424954 
 9544      5F5F2031 
 9544      3500
 9545              	.LASF346:
 9546 134f 5F5F474E 		.ascii	"__GNUC_PREREQ(maj,min) ((__GNUC__ << 16) + __GNUC_M"
 9546      55435F50 
 9546      52455245 
 9546      51286D61 
 9546      6A2C6D69 
 9547 1382 494E4F52 		.ascii	"INOR__ >= ((maj) << 16) + (min))\000"
 9547      5F5F203E 
 9547      3D202828 
 9547      6D616A29 
 9547      203C3C20 
 9548              	.LASF594:
 9549 13a3 4C50435F 		.ascii	"LPC_CCAN ((LPC_CCAN_T *) LPC_CAN0_BASE)\000"
 9549      4343414E 
 9549      2028284C 
 9549      50435F43 
 9549      43414E5F 
 9550              	.LASF239:
 9551 13cb 5F5F5541 		.ascii	"__UACCUM_IBIT__ 16\000"
 9551      4343554D 
 9551      5F494249 
 9551      545F5F20 
 9551      313600
 9552              	.LASF992:
 9553 13de 6C6F6E67 		.ascii	"long int\000"
 9553      20696E74 
 9553      00
 9554              	.LASF114:
 9555 13e7 5F5F5549 		.ascii	"__UINT_FAST64_MAX__ 18446744073709551615ULL\000"
 9555      4E545F46 
 9555      41535436 
 9555      345F4D41 
 9555      585F5F20 
 9556              	.LASF909:
 9557 1413 4932435F 		.ascii	"I2C_I2STAT_S_RX_PRE_GENCALL_DAT_ACK ((0x90))\000"
 9557      49325354 
 9557      41545F53 
 9557      5F52585F 
 9557      5052455F 
 9558              	.LASF415:
 9559 1440 53495A45 		.ascii	"SIZE_MAX __SIZE_MAX__\000"
 9559      5F4D4158 
 9559      205F5F53 
 9559      495A455F 
ARM GAS  /var/folders/f9/8bk2lnw15zn4cbgn6wrnb4lm0000gn/T//ccyV4EJ6.s 			page 205


 9559      4D41585F 
 9560              	.LASF968:
 9561 1456 53444F5F 		.ascii	"SDO_ABORT_TYPEMISMATCH 0x06070010UL\000"
 9561      41424F52 
 9561      545F5459 
 9561      50454D49 
 9561      534D4154 
 9562              	.LASF142:
 9563 147a 5F5F4442 		.ascii	"__DBL_MIN__ ((double)2.2250738585072014e-308L)\000"
 9563      4C5F4D49 
 9563      4E5F5F20 
 9563      2828646F 
 9563      75626C65 
 9564              	.LASF978:
 9565 14a9 4F445F53 		.ascii	"OD_SEG_RO 0x40\000"
 9565      45475F52 
 9565      4F203078 
 9565      343000
 9566              	.LASF1044:
 9567 14b8 50494F50 		.ascii	"PIOPORCAP\000"
 9567      4F524341 
 9567      5000
 9568              	.LASF71:
 9569 14c2 5F5F5743 		.ascii	"__WCHAR_MAX__ 4294967295U\000"
 9569      4841525F 
 9569      4D41585F 
 9569      5F203432 
 9569      39343936 
 9570              	.LASF177:
 9571 14dc 5F5F4445 		.ascii	"__DEC128_MIN_EXP__ (-6142)\000"
 9571      43313238 
 9571      5F4D494E 
 9571      5F455850 
 9571      5F5F2028 
 9572              	.LASF652:
 9573 14f7 494F434F 		.ascii	"IOCON_OPENDRAIN_EN (0x1 << 10)\000"
 9573      4E5F4F50 
 9573      454E4452 
 9573      41494E5F 
 9573      454E2028 
 9574              	.LASF55:
 9575 1516 5F5F494E 		.ascii	"__INT_FAST8_TYPE__ int\000"
 9575      545F4641 
 9575      5354385F 
 9575      54595045 
 9575      5F5F2069 
 9576              	.LASF1017:
 9577 152d 53595350 		.ascii	"SYSPLLCLKSEL\000"
 9577      4C4C434C 
 9577      4B53454C 
 9577      00
 9578              	.LASF295:
 9579 153a 5F5F5544 		.ascii	"__UDA_FBIT__ 32\000"
 9579      415F4642 
 9579      49545F5F 
 9579      20333200 
 9580              	.LASF1037:
ARM GAS  /var/folders/f9/8bk2lnw15zn4cbgn6wrnb4lm0000gn/T//ccyV4EJ6.s 			page 206


 9581 154a 57445443 		.ascii	"WDTCLKUEN\000"
 9581      4C4B5545 
 9581      4E00
 9582              	.LASF745:
 9583 1554 55415254 		.ascii	"UART_MCR_RTS_CTRL (1 << 1)\000"
 9583      5F4D4352 
 9583      5F525453 
 9583      5F435452 
 9583      4C202831 
 9584              	.LASF689:
 9585 156f 52425F56 		.ascii	"RB_VHEAD(rb) (*(volatile uint32_t *) &(rb)->head)\000"
 9585      48454144 
 9585      28726229 
 9585      20282A28 
 9585      766F6C61 
 9586              	.LASF80:
 9587 15a1 5F5F5549 		.ascii	"__UINTMAX_C(c) c ## ULL\000"
 9587      4E544D41 
 9587      585F4328 
 9587      63292063 
 9587      20232320 
 9588              	.LASF29:
 9589 15b9 5F5F5349 		.ascii	"__SIZEOF_POINTER__ 4\000"
 9589      5A454F46 
 9589      5F504F49 
 9589      4E544552 
 9589      5F5F2034 
 9590              	.LASF47:
 9591 15ce 5F5F494E 		.ascii	"__INT_LEAST8_TYPE__ signed char\000"
 9591      545F4C45 
 9591      41535438 
 9591      5F545950 
 9591      455F5F20 
 9592              	.LASF303:
 9593 15ee 5F5F4743 		.ascii	"__GCC_ATOMIC_BOOL_LOCK_FREE 1\000"
 9593      435F4154 
 9593      4F4D4943 
 9593      5F424F4F 
 9593      4C5F4C4F 
 9594              	.LASF314:
 9595 160c 5F5F4743 		.ascii	"__GCC_HAVE_DWARF2_CFI_ASM 1\000"
 9595      435F4841 
 9595      56455F44 
 9595      57415246 
 9595      325F4346 
 9596              	.LASF565:
 9597 1628 4C50435F 		.ascii	"LPC_ACMP_BASE 0x40028000\000"
 9597      41434D50 
 9597      5F424153 
 9597      45203078 
 9597      34303032 
 9598              	.LASF506:
 9599 1641 5343425F 		.ascii	"SCB_AIRCR_VECTKEY_Pos 16\000"
 9599      41495243 
 9599      525F5645 
 9599      43544B45 
 9599      595F506F 
ARM GAS  /var/folders/f9/8bk2lnw15zn4cbgn6wrnb4lm0000gn/T//ccyV4EJ6.s 			page 207


 9600              	.LASF108:
 9601 165a 5F5F494E 		.ascii	"__INT_FAST16_MAX__ 2147483647\000"
 9601      545F4641 
 9601      53543136 
 9601      5F4D4158 
 9601      5F5F2032 
 9602              	.LASF1138:
 9603 1678 43686970 		.ascii	"Chip_UART_TXIntHandlerRB\000"
 9603      5F554152 
 9603      545F5458 
 9603      496E7448 
 9603      616E646C 
 9604              	.LASF333:
 9605 1691 5F5F5448 		.ascii	"__THUMB_INTERWORK__ 1\000"
 9605      554D425F 
 9605      494E5445 
 9605      52574F52 
 9605      4B5F5F20 
 9606              	.LASF221:
 9607 16a7 5F5F554C 		.ascii	"__ULLFRACT_MAX__ 0XFFFFFFFFFFFFFFFFP-64ULLR\000"
 9607      4C465241 
 9607      43545F4D 
 9607      41585F5F 
 9607      20305846 
 9608              	.LASF940:
 9609 16d3 4932435F 		.ascii	"I2C_NAK_RECV (0x10000000 | 0x01)\000"
 9609      4E414B5F 
 9609      52454356 
 9609      20283078 
 9609      31303030 
 9610              	.LASF661:
 9611 16f4 4D445F44 		.ascii	"MD_DISFIL (0x0 << 8)\000"
 9611      49534649 
 9611      4C202830 
 9611      7830203C 
 9611      3C203829 
 9612              	.LASF757:
 9613 1709 55415254 		.ascii	"UART_LSR_RXFE (1 << 7)\000"
 9613      5F4C5352 
 9613      5F525846 
 9613      45202831 
 9613      203C3C20 
 9614              	.LASF83:
 9615 1720 5F5F494E 		.ascii	"__INT8_MAX__ 127\000"
 9615      54385F4D 
 9615      41585F5F 
 9615      20313237 
 9615      00
 9616              	.LASF585:
 9617 1731 4C50435F 		.ascii	"LPC_TIMER32_0 ((LPC_TIMER_T *) LPC_TIMER32_0_BASE)\000"
 9617      54494D45 
 9617      5233325F 
 9617      30202828 
 9617      4C50435F 
 9618              	.LASF402:
 9619 1764 55494E54 		.ascii	"UINT_FAST8_MAX __UINT_FAST8_MAX__\000"
 9619      5F464153 
ARM GAS  /var/folders/f9/8bk2lnw15zn4cbgn6wrnb4lm0000gn/T//ccyV4EJ6.s 			page 208


 9619      54385F4D 
 9619      4158205F 
 9619      5F55494E 
 9620              	.LASF857:
 9621 1786 4144435F 		.ascii	"ADC_CR_START_CTOUT8 ((3UL << 24))\000"
 9621      43525F53 
 9621      54415254 
 9621      5F43544F 
 9621      55543820 
 9622              	.LASF1157:
 9623 17a8 2E2E2F2E 		.ascii	"../../lpc_chip_11cxx_lib/src/uart_11xx.c\000"
 9623      2E2F6C70 
 9623      635F6368 
 9623      69705F31 
 9623      31637878 
 9624              	.LASF37:
 9625 17d1 5F5F4348 		.ascii	"__CHAR32_TYPE__ long unsigned int\000"
 9625      41523332 
 9625      5F545950 
 9625      455F5F20 
 9625      6C6F6E67 
 9626              	.LASF969:
 9627 17f3 53444F5F 		.ascii	"SDO_ABORT_UNKNOWNSUB 0x06090011UL\000"
 9627      41424F52 
 9627      545F554E 
 9627      4B4E4F57 
 9627      4E535542 
 9628              	.LASF440:
 9629 1815 50415241 		.ascii	"PARAM_SETSTATE(State) ((State == RESET) || (State ="
 9629      4D5F5345 
 9629      54535441 
 9629      54452853 
 9629      74617465 
 9630 1848 3D205345 		.ascii	"= SET))\000"
 9630      54292900 
 9631              	.LASF610:
 9632 1850 53595343 		.ascii	"SYSCTL_NMISRC_ENABLE ((uint32_t) 1 << 31)\000"
 9632      544C5F4E 
 9632      4D495352 
 9632      435F454E 
 9632      41424C45 
 9633              	.LASF658:
 9634 187a 4D445F49 		.ascii	"MD_INV (0x1 << 6)\000"
 9634      4E562028 
 9634      30783120 
 9634      3C3C2036 
 9634      2900
 9635              	.LASF124:
 9636 188c 5F5F464C 		.ascii	"__FLT_MAX_EXP__ 128\000"
 9636      545F4D41 
 9636      585F4558 
 9636      505F5F20 
 9636      31323800 
 9637              	.LASF1091:
 9638 18a0 68656164 		.ascii	"head\000"
 9638      00
 9639              	.LASF486:
ARM GAS  /var/folders/f9/8bk2lnw15zn4cbgn6wrnb4lm0000gn/T//ccyV4EJ6.s 			page 209


 9640 18a5 5343425F 		.ascii	"SCB_CPUID_REVISION_Pos 0\000"
 9640      43505549 
 9640      445F5245 
 9640      56495349 
 9640      4F4E5F50 
 9641              	.LASF1133:
 9642 18be 43686970 		.ascii	"Chip_UART_SetBaud\000"
 9642      5F554152 
 9642      545F5365 
 9642      74426175 
 9642      6400
 9643              	.LASF756:
 9644 18d0 55415254 		.ascii	"UART_LSR_TEMT (1 << 6)\000"
 9644      5F4C5352 
 9644      5F54454D 
 9644      54202831 
 9644      203C3C20 
 9645              	.LASF19:
 9646 18e7 5F5F5349 		.ascii	"__SIZEOF_DOUBLE__ 8\000"
 9646      5A454F46 
 9646      5F444F55 
 9646      424C455F 
 9646      5F203800 
 9647              	.LASF746:
 9648 18fb 55415254 		.ascii	"UART_MCR_LOOPB_EN (1 << 4)\000"
 9648      5F4D4352 
 9648      5F4C4F4F 
 9648      50425F45 
 9648      4E202831 
 9649              	.LASF914:
 9650 1916 4932435F 		.ascii	"I2C_I2STAT_S_TX_DAT_ACK ((0xB8))\000"
 9650      49325354 
 9650      41545F53 
 9650      5F54585F 
 9650      4441545F 
 9651              	.LASF1158:
 9652 1937 2F557365 		.ascii	"/Users/eaponce/Documents/evt/opel_EE/lpc11cx4-libra"
 9652      72732F65 
 9652      61706F6E 
 9652      63652F44 
 9652      6F63756D 
 9653 196a 72792F65 		.ascii	"ry/examples/can\000"
 9653      78616D70 
 9653      6C65732F 
 9653      63616E00 
 9654              	.LASF659:
 9655 197a 4D445F41 		.ascii	"MD_ADMODE (0x0 << 7)\000"
 9655      444D4F44 
 9655      45202830 
 9655      7830203C 
 9655      3C203729 
 9656              	.LASF755:
 9657 198f 55415254 		.ascii	"UART_LSR_THRE (1 << 5)\000"
 9657      5F4C5352 
 9657      5F544852 
 9657      45202831 
 9657      203C3C20 
ARM GAS  /var/folders/f9/8bk2lnw15zn4cbgn6wrnb4lm0000gn/T//ccyV4EJ6.s 			page 210


 9658              	.LASF973:
 9659 19a6 53444F5F 		.ascii	"SDO_ABORT_DEVSTAT 0x08000022UL\000"
 9659      41424F52 
 9659      545F4445 
 9659      56535441 
 9659      54203078 
 9660              	.LASF949:
 9661 19c5 43414E5F 		.ascii	"CAN_ERROR_STUF 0x00000008UL\000"
 9661      4552524F 
 9661      525F5354 
 9661      55462030 
 9661      78303030 
 9662              	.LASF1106:
 9663 19e1 43686970 		.ascii	"Chip_Clock_SetUARTClockDiv\000"
 9663      5F436C6F 
 9663      636B5F53 
 9663      65745541 
 9663      5254436C 
 9664              	.LASF717:
 9665 19fc 55415254 		.ascii	"UART_FCR_FIFO_EN (1 << 0)\000"
 9665      5F464352 
 9665      5F464946 
 9665      4F5F454E 
 9665      20283120 
 9666              	.LASF634:
 9667 1a16 494F434F 		.ascii	"IOCON_FUNC2 0x2\000"
 9667      4E5F4655 
 9667      4E433220 
 9667      30783200 
 9668              	.LASF888:
 9669 1a26 4932435F 		.ascii	"I2C_I2STAT_BUS_ERROR ((0x00))\000"
 9669      49325354 
 9669      41545F42 
 9669      55535F45 
 9669      52524F52 
 9670              	.LASF981:
 9671 1a44 43414E5F 		.ascii	"CAN_SDOREQ_NOTHANDLED 0\000"
 9671      53444F52 
 9671      45515F4E 
 9671      4F544841 
 9671      4E444C45 
 9672              	.LASF701:
 9673 1a5c 55415254 		.ascii	"UART_IER_ABEOINT (1 << 8)\000"
 9673      5F494552 
 9673      5F414245 
 9673      4F494E54 
 9673      20283120 
 9674              	.LASF173:
 9675 1a76 5F5F4445 		.ascii	"__DEC64_MAX__ 9.999999999999999E384DD\000"
 9675      4336345F 
 9675      4D41585F 
 9675      5F20392E 
 9675      39393939 
 9676              	.LASF1064:
 9677 1a9c 50445255 		.ascii	"PDRUNCFG\000"
 9677      4E434647 
 9677      00
ARM GAS  /var/folders/f9/8bk2lnw15zn4cbgn6wrnb4lm0000gn/T//ccyV4EJ6.s 			page 211


 9678              	.LASF272:
 9679 1aa5 5F5F5451 		.ascii	"__TQ_IBIT__ 0\000"
 9679      5F494249 
 9679      545F5F20 
 9679      3000
 9680              	.LASF890:
 9681 1ab3 4932435F 		.ascii	"I2C_I2STAT_M_TX_RESTART ((0x10))\000"
 9681      49325354 
 9681      41545F4D 
 9681      5F54585F 
 9681      52455354 
 9682              	.LASF836:
 9683 1ad4 5353505F 		.ascii	"SSP_CPOL_HI SSP_CR0_CPOL_LO\000"
 9683      43504F4C 
 9683      5F484920 
 9683      5353505F 
 9683      4352305F 
 9684              	.LASF123:
 9685 1af0 5F5F464C 		.ascii	"__FLT_MIN_10_EXP__ (-37)\000"
 9685      545F4D49 
 9685      4E5F3130 
 9685      5F455850 
 9685      5F5F2028 
 9686              	.LASF558:
 9687 1b09 4C50435F 		.ascii	"LPC_USART_BASE 0x40008000\000"
 9687      55534152 
 9687      545F4241 
 9687      53452030 
 9687      78343030 
 9688              	.LASF854:
 9689 1b23 4144435F 		.ascii	"ADC_CR_START_MODE_SEL(SEL) ((SEL << 24))\000"
 9689      43525F53 
 9689      54415254 
 9689      5F4D4F44 
 9689      455F5345 
 9690              	.LASF126:
 9691 1b4c 5F5F464C 		.ascii	"__FLT_DECIMAL_DIG__ 9\000"
 9691      545F4445 
 9691      43494D41 
 9691      4C5F4449 
 9691      475F5F20 
 9692              	.LASF955:
 9693 1b62 43414E5F 		.ascii	"CAN_MSGOBJ_STD 0x00000000UL\000"
 9693      4D53474F 
 9693      424A5F53 
 9693      54442030 
 9693      78303030 
 9694              	.LASF485:
 9695 1b7e 5343425F 		.ascii	"SCB_CPUID_PARTNO_Msk (0xFFFUL << SCB_CPUID_PARTNO_P"
 9695      43505549 
 9695      445F5041 
 9695      52544E4F 
 9695      5F4D736B 
 9696 1bb1 6F732900 		.ascii	"os)\000"
 9697              	.LASF988:
 9698 1bb5 7369676E 		.ascii	"signed char\000"
 9698      65642063 
ARM GAS  /var/folders/f9/8bk2lnw15zn4cbgn6wrnb4lm0000gn/T//ccyV4EJ6.s 			page 212


 9698      68617200 
 9699              	.LASF822:
 9700 1bc1 5353505F 		.ascii	"SSP_CR0_SCR(n) ((uint32_t) ((n & 0xFF) << 8))\000"
 9700      4352305F 
 9700      53435228 
 9700      6E292028 
 9700      2875696E 
 9701              	.LASF1121:
 9702 1bef 43686970 		.ascii	"Chip_UART_SetDivisorLatches\000"
 9702      5F554152 
 9702      545F5365 
 9702      74446976 
 9702      69736F72 
 9703              	.LASF999:
 9704 1c0b 75696E74 		.ascii	"uint8_t\000"
 9704      385F7400 
 9705              	.LASF623:
 9706 1c13 53595343 		.ascii	"SYSCTL_POWERDOWN_FLASH_PD (1 << 2)\000"
 9706      544C5F50 
 9706      4F574552 
 9706      444F574E 
 9706      5F464C41 
 9707              	.LASF1019:
 9708 1c36 55534250 		.ascii	"USBPLLCLKSEL\000"
 9708      4C4C434C 
 9708      4B53454C 
 9708      00
 9709              	.LASF457:
 9710 1c43 43484950 		.ascii	"CHIP_LPC11CXX \000"
 9710      5F4C5043 
 9710      31314358 
 9710      582000
 9711              	.LASF825:
 9712 1c52 5353505F 		.ascii	"SSP_CR1_SSP_EN ((uint32_t) (1 << 1))\000"
 9712      4352315F 
 9712      5353505F 
 9712      454E2028 
 9712      2875696E 
 9713              	.LASF1145:
 9714 1c77 43686970 		.ascii	"Chip_UART_SetBaudFDR\000"
 9714      5F554152 
 9714      545F5365 
 9714      74426175 
 9714      64464452 
 9715              	.LASF895:
 9716 1c8c 4932435F 		.ascii	"I2C_I2STAT_M_TX_ARB_LOST ((0x38))\000"
 9716      49325354 
 9716      41545F4D 
 9716      5F54585F 
 9716      4152425F 
 9717              	.LASF867:
 9718 1cae 5245545F 		.ascii	"RET_SLAVE_IDLE 2\000"
 9718      534C4156 
 9718      455F4944 
 9718      4C452032 
 9718      00
 9719              	.LASF193:
ARM GAS  /var/folders/f9/8bk2lnw15zn4cbgn6wrnb4lm0000gn/T//ccyV4EJ6.s 			page 213


 9720 1cbf 5F5F4652 		.ascii	"__FRACT_FBIT__ 15\000"
 9720      4143545F 
 9720      46424954 
 9720      5F5F2031 
 9720      3500
 9721              	.LASF1041:
 9722 1cd1 434C4B4F 		.ascii	"CLKOUTUEN\000"
 9722      55545545 
 9722      4E00
 9723              	.LASF133:
 9724 1cdb 5F5F464C 		.ascii	"__FLT_HAS_QUIET_NAN__ 1\000"
 9724      545F4841 
 9724      535F5155 
 9724      4945545F 
 9724      4E414E5F 
 9725              	.LASF445:
 9726 1cf3 5F534246 		.ascii	"_SBF(f,v) ((v) << (f))\000"
 9726      28662C76 
 9726      29202828 
 9726      7629203C 
 9726      3C202866 
 9727              	.LASF306:
 9728 1d0a 5F5F4743 		.ascii	"__GCC_ATOMIC_CHAR32_T_LOCK_FREE 1\000"
 9728      435F4154 
 9728      4F4D4943 
 9728      5F434841 
 9728      5233325F 
 9729              	.LASF511:
 9730 1d2c 5343425F 		.ascii	"SCB_AIRCR_ENDIANESS_Msk (1UL << SCB_AIRCR_ENDIANESS"
 9730      41495243 
 9730      525F454E 
 9730      4449414E 
 9730      4553535F 
 9731 1d5f 5F506F73 		.ascii	"_Pos)\000"
 9731      2900
 9732              	.LASF786:
 9733 1d65 55415254 		.ascii	"UART_ICR_PULSEDIV(n) ((n & 0x07) << 3)\000"
 9733      5F494352 
 9733      5F50554C 
 9733      53454449 
 9733      56286E29 
 9734              	.LASF752:
 9735 1d8c 55415254 		.ascii	"UART_LSR_PE (1 << 2)\000"
 9735      5F4C5352 
 9735      5F504520 
 9735      2831203C 
 9735      3C203229 
 9736              	.LASF288:
 9737 1da1 5F5F4441 		.ascii	"__DA_IBIT__ 32\000"
 9737      5F494249 
 9737      545F5F20 
 9737      333200
 9738              	.LASF837:
 9739 1db0 5353505F 		.ascii	"SSP_CPOL_LO SSP_CR0_CPOL_HI\000"
 9739      43504F4C 
 9739      5F4C4F20 
 9739      5353505F 
ARM GAS  /var/folders/f9/8bk2lnw15zn4cbgn6wrnb4lm0000gn/T//ccyV4EJ6.s 			page 214


 9739      4352305F 
 9740              	.LASF343:
 9741 1dcc 5F535444 		.ascii	"_STDINT_H \000"
 9741      494E545F 
 9741      482000
 9742              	.LASF505:
 9743 1dd7 5343425F 		.ascii	"SCB_ICSR_VECTACTIVE_Msk (0x1FFUL << SCB_ICSR_VECTAC"
 9743      49435352 
 9743      5F564543 
 9743      54414354 
 9743      4956455F 
 9744 1e0a 54495645 		.ascii	"TIVE_Pos)\000"
 9744      5F506F73 
 9744      2900
 9745              	.LASF435:
 9746 1e14 5F535444 		.ascii	"_STDBOOL_H \000"
 9746      424F4F4C 
 9746      5F482000 
 9747              	.LASF742:
 9748 1e20 55415254 		.ascii	"UART_LCR_DLAB_EN (1 << 7)\000"
 9748      5F4C4352 
 9748      5F444C41 
 9748      425F454E 
 9748      20283120 
 9749              	.LASF472:
 9750 1e3a 5F5F434F 		.ascii	"__CORE_CMINSTR_H \000"
 9750      52455F43 
 9750      4D494E53 
 9750      54525F48 
 9750      2000
 9751              	.LASF403:
 9752 1e4c 494E545F 		.ascii	"INT_FAST16_MIN (-__INT_FAST16_MAX__ - 1)\000"
 9752      46415354 
 9752      31365F4D 
 9752      494E2028 
 9752      2D5F5F49 
 9753              	.LASF15:
 9754 1e75 5F5F5349 		.ascii	"__SIZEOF_LONG__ 4\000"
 9754      5A454F46 
 9754      5F4C4F4E 
 9754      475F5F20 
 9754      3400
 9755              	.LASF586:
 9756 1e87 4C50435F 		.ascii	"LPC_TIMER32_1 ((LPC_TIMER_T *) LPC_TIMER32_1_BASE)\000"
 9756      54494D45 
 9756      5233325F 
 9756      31202828 
 9756      4C50435F 
 9757              	.LASF783:
 9758 1eba 55415254 		.ascii	"UART_ICR_IRDAEN (1 << 0)\000"
 9758      5F494352 
 9758      5F495244 
 9758      41454E20 
 9758      2831203C 
 9759              	.LASF1097:
 9760 1ed3 52455345 		.ascii	"RESERVED0\000"
 9760      52564544 
ARM GAS  /var/folders/f9/8bk2lnw15zn4cbgn6wrnb4lm0000gn/T//ccyV4EJ6.s 			page 215


 9760      3000
 9761              	.LASF1010:
 9762 1edd 52455345 		.ascii	"RESERVED1\000"
 9762      52564544 
 9762      3100
 9763              	.LASF989:
 9764 1ee7 756E7369 		.ascii	"unsigned char\000"
 9764      676E6564 
 9764      20636861 
 9764      7200
 9765              	.LASF1021:
 9766 1ef5 52455345 		.ascii	"RESERVED3\000"
 9766      52564544 
 9766      3300
 9767              	.LASF1025:
 9768 1eff 52455345 		.ascii	"RESERVED4\000"
 9768      52564544 
 9768      3400
 9769              	.LASF1027:
 9770 1f09 52455345 		.ascii	"RESERVED5\000"
 9770      52564544 
 9770      3500
 9771              	.LASF1031:
 9772 1f13 52455345 		.ascii	"RESERVED6\000"
 9772      52564544 
 9772      3600
 9773              	.LASF1035:
 9774 1f1d 52455345 		.ascii	"RESERVED7\000"
 9774      52564544 
 9774      3700
 9775              	.LASF1039:
 9776 1f27 52455345 		.ascii	"RESERVED8\000"
 9776      52564544 
 9776      3800
 9777              	.LASF1043:
 9778 1f31 52455345 		.ascii	"RESERVED9\000"
 9778      52564544 
 9778      3900
 9779              	.LASF178:
 9780 1f3b 5F5F4445 		.ascii	"__DEC128_MAX_EXP__ 6145\000"
 9780      43313238 
 9780      5F4D4158 
 9780      5F455850 
 9780      5F5F2036 
 9781              	.LASF1022:
 9782 1f53 4D41494E 		.ascii	"MAINCLKSEL\000"
 9782      434C4B53 
 9782      454C00
 9783              	.LASF392:
 9784 1f5e 494E545F 		.ascii	"INT_LEAST32_MAX __INT_LEAST32_MAX__\000"
 9784      4C454153 
 9784      5433325F 
 9784      4D415820 
 9784      5F5F494E 
 9785              	.LASF466:
 9786 1f82 5F5F434D 		.ascii	"__CM0_CMSIS_VERSION ((__CM0_CMSIS_VERSION_MAIN << 1"
 9786      305F434D 
ARM GAS  /var/folders/f9/8bk2lnw15zn4cbgn6wrnb4lm0000gn/T//ccyV4EJ6.s 			page 216


 9786      5349535F 
 9786      56455253 
 9786      494F4E20 
 9787 1fb5 3629207C 		.ascii	"6) | __CM0_CMSIS_VERSION_SUB )\000"
 9787      205F5F43 
 9787      4D305F43 
 9787      4D534953 
 9787      5F564552 
 9788              	.LASF970:
 9789 1fd4 53444F5F 		.ascii	"SDO_ABORT_VALUE_RANGE 0x06090030UL\000"
 9789      41424F52 
 9789      545F5641 
 9789      4C55455F 
 9789      52414E47 
 9790              	.LASF801:
 9791 1ff7 55415254 		.ascii	"UART_SYNCCTRL_FES (1 << 2)\000"
 9791      5F53594E 
 9791      43435452 
 9791      4C5F4645 
 9791      53202831 
 9792              	.LASF7:
 9793 2012 5F5F4154 		.ascii	"__ATOMIC_SEQ_CST 5\000"
 9793      4F4D4943 
 9793      5F534551 
 9793      5F435354 
 9793      203500
 9794              	.LASF521:
 9795 2025 5343425F 		.ascii	"SCB_SCR_SLEEPONEXIT_Msk (1UL << SCB_SCR_SLEEPONEXIT"
 9795      5343525F 
 9795      534C4545 
 9795      504F4E45 
 9795      5849545F 
 9796 2058 5F506F73 		.ascii	"_Pos)\000"
 9796      2900
 9797              	.LASF657:
 9798 205e 4D445F48 		.ascii	"MD_HYS (0x1 << 5)\000"
 9798      59532028 
 9798      30783120 
 9798      3C3C2035 
 9798      2900
 9799              	.LASF831:
 9800 2070 5353505F 		.ascii	"SSP_DR_BITMASK(n) ((n) & 0xFFFF)\000"
 9800      44525F42 
 9800      49544D41 
 9800      534B286E 
 9800      29202828 
 9801              	.LASF740:
 9802 2091 55415254 		.ascii	"UART_LCR_PARITY_F_0 (3 << 4)\000"
 9802      5F4C4352 
 9802      5F504152 
 9802      4954595F 
 9802      465F3020 
 9803              	.LASF541:
 9804 20ae 53797354 		.ascii	"SysTick_CALIB_NOREF_Msk (1UL << SysTick_CALIB_NOREF"
 9804      69636B5F 
 9804      43414C49 
 9804      425F4E4F 
ARM GAS  /var/folders/f9/8bk2lnw15zn4cbgn6wrnb4lm0000gn/T//ccyV4EJ6.s 			page 217


 9804      5245465F 
 9805 20e1 5F506F73 		.ascii	"_Pos)\000"
 9805      2900
 9806              	.LASF943:
 9807 20e7 4932435F 		.ascii	"I2C_MONITOR_CFG_MATCHALL I2C_I2MMCTRL_MATCH_ALL\000"
 9807      4D4F4E49 
 9807      544F525F 
 9807      4346475F 
 9807      4D415443 
 9808              	.LASF138:
 9809 2117 5F5F4442 		.ascii	"__DBL_MAX_EXP__ 1024\000"
 9809      4C5F4D41 
 9809      585F4558 
 9809      505F5F20 
 9809      31303234 
 9810              	.LASF111:
 9811 212c 5F5F5549 		.ascii	"__UINT_FAST8_MAX__ 4294967295U\000"
 9811      4E545F46 
 9811      41535438 
 9811      5F4D4158 
 9811      5F5F2034 
 9812              	.LASF883:
 9813 214b 4932435F 		.ascii	"I2C_CON_STA (1UL << 5)\000"
 9813      434F4E5F 
 9813      53544120 
 9813      2831554C 
 9813      203C3C20 
 9814              	.LASF271:
 9815 2162 5F5F5451 		.ascii	"__TQ_FBIT__ 127\000"
 9815      5F464249 
 9815      545F5F20 
 9815      31323700 
 9816              	.LASF855:
 9817 2172 4144435F 		.ascii	"ADC_CR_START_NOW ((1UL << 24))\000"
 9817      43525F53 
 9817      54415254 
 9817      5F4E4F57 
 9817      20282831 
 9818              	.LASF681:
 9819 2191 54494D45 		.ascii	"TIMER_INT_ON_MATCH(n) (_BIT(((n) * 3)))\000"
 9819      525F494E 
 9819      545F4F4E 
 9819      5F4D4154 
 9819      4348286E 
 9820              	.LASF959:
 9821 21b9 53444F5F 		.ascii	"SDO_ABORT_TOGGLE 0x05030000UL\000"
 9821      41424F52 
 9821      545F544F 
 9821      47474C45 
 9821      20307830 
 9822              	.LASF579:
 9823 21d7 4C50435F 		.ascii	"LPC_ROM_API_BASE_LOC 0x1FFF1FF8\000"
 9823      524F4D5F 
 9823      4150495F 
 9823      42415345 
 9823      5F4C4F43 
 9824              	.LASF339:
ARM GAS  /var/folders/f9/8bk2lnw15zn4cbgn6wrnb4lm0000gn/T//ccyV4EJ6.s 			page 218


 9825 21f7 5F5F5553 		.ascii	"__USES_INITFINI__ 1\000"
 9825      45535F49 
 9825      4E495446 
 9825      494E495F 
 9825      5F203100 
 9826              	.LASF482:
 9827 220b 5343425F 		.ascii	"SCB_CPUID_ARCHITECTURE_Pos 16\000"
 9827      43505549 
 9827      445F4152 
 9827      43484954 
 9827      45435455 
 9828              	.LASF820:
 9829 2229 5353505F 		.ascii	"SSP_CR0_CPHA_FIRST ((uint32_t) (0))\000"
 9829      4352305F 
 9829      43504841 
 9829      5F464952 
 9829      53542028 
 9830              	.LASF17:
 9831 224d 5F5F5349 		.ascii	"__SIZEOF_SHORT__ 2\000"
 9831      5A454F46 
 9831      5F53484F 
 9831      52545F5F 
 9831      203200
 9832              	.LASF258:
 9833 2260 5F5F554C 		.ascii	"__ULLACCUM_FBIT__ 32\000"
 9833      4C414343 
 9833      554D5F46 
 9833      4249545F 
 9833      5F203332 
 9834              	.LASF1002:
 9835 2275 5F426F6F 		.ascii	"_Bool\000"
 9835      6C00
 9836              	.LASF721:
 9837 227b 55415254 		.ascii	"UART_FCR_BITMASK (0xCF)\000"
 9837      5F464352 
 9837      5F424954 
 9837      4D41534B 
 9837      20283078 
 9838              	.LASF1140:
 9839 2293 62797465 		.ascii	"bytes\000"
 9839      7300
 9840              	.LASF596:
 9841 2299 4C50435F 		.ascii	"LPC_GPIO ((LPC_GPIO_T *) LPC_GPIO_PORT0_BASE)\000"
 9841      4750494F 
 9841      2028284C 
 9841      50435F47 
 9841      50494F5F 
 9842              	.LASF342:
 9843 22c7 5F5F4C50 		.ascii	"__LPC_TYPES_H_ \000"
 9843      435F5459 
 9843      5045535F 
 9843      485F2000 
 9844              	.LASF345:
 9845 22d7 5F535953 		.ascii	"_SYS_FEATURES_H \000"
 9845      5F464541 
 9845      54555245 
 9845      535F4820 
ARM GAS  /var/folders/f9/8bk2lnw15zn4cbgn6wrnb4lm0000gn/T//ccyV4EJ6.s 			page 219


 9845      00
 9846              	.LASF976:
 9847 22e8 4F445F45 		.ascii	"OD_EXP_WO 0x20\000"
 9847      58505F57 
 9847      4F203078 
 9847      323000
 9848              	.LASF450:
 9849 22f7 53544154 		.ascii	"STATIC static\000"
 9849      49432073 
 9849      74617469 
 9849      6300
 9850              	.LASF1016:
 9851 2305 52455345 		.ascii	"RESERVED2\000"
 9851      52564544 
 9851      3200
 9852              	.LASF645:
 9853 230f 494F434F 		.ascii	"IOCON_INV_EN (0x1 << 6)\000"
 9853      4E5F494E 
 9853      565F454E 
 9853      20283078 
 9853      31203C3C 
 9854              	.LASF1107:
 9855 2327 43686970 		.ascii	"Chip_UART_SetupFIFOS\000"
 9855      5F554152 
 9855      545F5365 
 9855      74757046 
 9855      49464F53 
 9856              	.LASF754:
 9857 233c 55415254 		.ascii	"UART_LSR_BI (1 << 4)\000"
 9857      5F4C5352 
 9857      5F424920 
 9857      2831203C 
 9857      3C203429 
 9858              	.LASF732:
 9859 2351 55415254 		.ascii	"UART_LCR_SBS_MASK (1 << 2)\000"
 9859      5F4C4352 
 9859      5F534253 
 9859      5F4D4153 
 9859      4B202831 
 9860              	.LASF315:
 9861 236c 5F5F5052 		.ascii	"__PRAGMA_REDEFINE_EXTNAME 1\000"
 9861      41474D41 
 9861      5F524544 
 9861      4546494E 
 9861      455F4558 
 9862              	.LASF32:
 9863 2388 5F5F5743 		.ascii	"__WCHAR_TYPE__ unsigned int\000"
 9863      4841525F 
 9863      54595045 
 9863      5F5F2075 
 9863      6E736967 
 9864              	.LASF422:
 9865 23a4 57494E54 		.ascii	"WINT_MAX __WINT_MAX__\000"
 9865      5F4D4158 
 9865      205F5F57 
 9865      494E545F 
 9865      4D41585F 
ARM GAS  /var/folders/f9/8bk2lnw15zn4cbgn6wrnb4lm0000gn/T//ccyV4EJ6.s 			page 220


 9866              	.LASF1001:
 9867 23ba 63686172 		.ascii	"char\000"
 9867      00
 9868              	.LASF294:
 9869 23bf 5F5F5553 		.ascii	"__USA_IBIT__ 16\000"
 9869      415F4942 
 9869      49545F5F 
 9869      20313600 
 9870              	.LASF432:
 9871 23cf 494E544D 		.ascii	"INTMAX_C(x) __INTMAX_C(x)\000"
 9871      41585F43 
 9871      28782920 
 9871      5F5F494E 
 9871      544D4158 
 9872              	.LASF419:
 9873 23e9 50545244 		.ascii	"PTRDIFF_MIN (-PTRDIFF_MAX - 1)\000"
 9873      4946465F 
 9873      4D494E20 
 9873      282D5054 
 9873      52444946 
 9874              	.LASF664:
 9875 2408 4D445F53 		.ascii	"MD_STDI2C (0x1 << 8)\000"
 9875      54444932 
 9875      43202830 
 9875      7831203C 
 9875      3C203829 
 9876              	.LASF1029:
 9877 241d 55534152 		.ascii	"USARTCLKDIV\000"
 9877      54434C4B 
 9877      44495600 
 9878              	.LASF65:
 9879 2429 5F5F4758 		.ascii	"__GXX_ABI_VERSION 1002\000"
 9879      585F4142 
 9879      495F5645 
 9879      5253494F 
 9879      4E203130 
 9880              	.LASF62:
 9881 2440 5F5F5549 		.ascii	"__UINT_FAST64_TYPE__ long long unsigned int\000"
 9881      4E545F46 
 9881      41535436 
 9881      345F5459 
 9881      50455F5F 
 9882              	.LASF1079:
 9883 246c 53595343 		.ascii	"SYSCTL_CLOCK_SSP0\000"
 9883      544C5F43 
 9883      4C4F434B 
 9883      5F535350 
 9883      3000
 9884              	.LASF1086:
 9885 247e 53595343 		.ascii	"SYSCTL_CLOCK_SSP1\000"
 9885      544C5F43 
 9885      4C4F434B 
 9885      5F535350 
 9885      3100
 9886              	.LASF826:
 9887 2490 5353505F 		.ascii	"SSP_CR1_SLAVE_EN ((uint32_t) (1 << 2))\000"
 9887      4352315F 
ARM GAS  /var/folders/f9/8bk2lnw15zn4cbgn6wrnb4lm0000gn/T//ccyV4EJ6.s 			page 221


 9887      534C4156 
 9887      455F454E 
 9887      20282875 
 9888              	.LASF128:
 9889 24b7 5F5F464C 		.ascii	"__FLT_MIN__ 1.1754943508222875e-38F\000"
 9889      545F4D49 
 9889      4E5F5F20 
 9889      312E3137 
 9889      35343934 
 9890              	.LASF283:
 9891 24db 5F5F4841 		.ascii	"__HA_FBIT__ 7\000"
 9891      5F464249 
 9891      545F5F20 
 9891      3700
 9892              	.LASF592:
 9893 24e9 4C50435F 		.ascii	"LPC_SYSCTL ((LPC_SYSCTL_T *) LPC_SYSCTL_BASE)\000"
 9893      53595343 
 9893      544C2028 
 9893      284C5043 
 9893      5F535953 
 9894              	.LASF311:
 9895 2517 5F5F4743 		.ascii	"__GCC_ATOMIC_LLONG_LOCK_FREE 1\000"
 9895      435F4154 
 9895      4F4D4943 
 9895      5F4C4C4F 
 9895      4E475F4C 
 9896              	.LASF687:
 9897 2536 5F5F5541 		.ascii	"__UART_11XX_H_ \000"
 9897      52545F31 
 9897      3158585F 
 9897      485F2000 
 9898              	.LASF946:
 9899 2546 43414E5F 		.ascii	"CAN_ERROR_PASS 0x00000001UL\000"
 9899      4552524F 
 9899      525F5041 
 9899      53532030 
 9899      78303030 
 9900              	.LASF563:
 9901 2562 4C50435F 		.ascii	"LPC_ADC_BASE 0x4001C000\000"
 9901      4144435F 
 9901      42415345 
 9901      20307834 
 9901      30303143 
 9902              	.LASF891:
 9903 257a 4932435F 		.ascii	"I2C_I2STAT_M_TX_SLAW_ACK ((0x18))\000"
 9903      49325354 
 9903      41545F4D 
 9903      5F54585F 
 9903      534C4157 
 9904              	.LASF1151:
 9905 259c 52696E67 		.ascii	"RingBuffer_Insert\000"
 9905      42756666 
 9905      65725F49 
 9905      6E736572 
 9905      7400
 9906              	.LASF378:
 9907 25ae 55494E54 		.ascii	"UINT8_MAX __UINT8_MAX__\000"
ARM GAS  /var/folders/f9/8bk2lnw15zn4cbgn6wrnb4lm0000gn/T//ccyV4EJ6.s 			page 222


 9907      385F4D41 
 9907      58205F5F 
 9907      55494E54 
 9907      385F4D41 
 9908              	.LASF189:
 9909 25c6 5F5F5553 		.ascii	"__USFRACT_IBIT__ 0\000"
 9909      46524143 
 9909      545F4942 
 9909      49545F5F 
 9909      203000
 9910              	.LASF879:
 9911 25d9 4932435F 		.ascii	"I2C_I2CONCLR_I2ENC ((1 << 6))\000"
 9911      4932434F 
 9911      4E434C52 
 9911      5F493245 
 9911      4E432028 
 9912              	.LASF190:
 9913 25f7 5F5F5553 		.ascii	"__USFRACT_MIN__ 0.0UHR\000"
 9913      46524143 
 9913      545F4D49 
 9913      4E5F5F20 
 9913      302E3055 
 9914              	.LASF672:
 9915 260e 46554E43 		.ascii	"FUNC5 0x5\000"
 9915      35203078 
 9915      3500
 9916              	.LASF774:
 9917 2618 55415254 		.ascii	"UART_ACR_ABTOINT_CLR (1 << 9)\000"
 9917      5F414352 
 9917      5F414254 
 9917      4F494E54 
 9917      5F434C52 
 9918              	.LASF964:
 9919 2636 53444F5F 		.ascii	"SDO_ABORT_READONLY 0x06010002UL\000"
 9919      41424F52 
 9919      545F5245 
 9919      41444F4E 
 9919      4C592030 
 9920              	.LASF350:
 9921 2656 5F5F5F69 		.ascii	"___int16_t_defined 1\000"
 9921      6E743136 
 9921      5F745F64 
 9921      6566696E 
 9921      65642031 
 9922              	.LASF152:
 9923 266b 5F5F4C44 		.ascii	"__LDBL_MAX_EXP__ 1024\000"
 9923      424C5F4D 
 9923      41585F45 
 9923      58505F5F 
 9923      20313032 
 9924              	.LASF638:
 9925 2681 494F434F 		.ascii	"IOCON_FUNC6 0x6\000"
 9925      4E5F4655 
 9925      4E433620 
 9925      30783600 
 9926              	.LASF1124:
 9927 2691 696E744D 		.ascii	"intMask\000"
ARM GAS  /var/folders/f9/8bk2lnw15zn4cbgn6wrnb4lm0000gn/T//ccyV4EJ6.s 			page 223


 9927      61736B00 
 9928              	.LASF710:
 9929 2699 55415254 		.ascii	"UART_IIR_BITMASK (0x3CF)\000"
 9929      5F494952 
 9929      5F424954 
 9929      4D41534B 
 9929      20283078 
 9930              	.LASF361:
 9931 26b2 5F5F696E 		.ascii	"__int8_t_defined 1\000"
 9931      74385F74 
 9931      5F646566 
 9931      696E6564 
 9931      203100
 9932              	.LASF956:
 9933 26c5 43414E5F 		.ascii	"CAN_MSGOBJ_EXT 0x20000000UL\000"
 9933      4D53474F 
 9933      424A5F45 
 9933      58542030 
 9933      78323030 
 9934              	.LASF145:
 9935 26e1 5F5F4442 		.ascii	"__DBL_HAS_DENORM__ 1\000"
 9935      4C5F4841 
 9935      535F4445 
 9935      4E4F524D 
 9935      5F5F2031 
 9936              	.LASF504:
 9937 26f6 5343425F 		.ascii	"SCB_ICSR_VECTACTIVE_Pos 0\000"
 9937      49435352 
 9937      5F564543 
 9937      54414354 
 9937      4956455F 
 9938              	.LASF817:
 9939 2710 5353505F 		.ascii	"SSP_CR0_FRF_MICROWIRE ((uint32_t) (2 << 4))\000"
 9939      4352305F 
 9939      4652465F 
 9939      4D494352 
 9939      4F574952 
 9940              	.LASF611:
 9941 273c 53595343 		.ascii	"SYSCTL_DEEPSLP_BOD_PD (1 << 3)\000"
 9941      544C5F44 
 9941      45455053 
 9941      4C505F42 
 9941      4F445F50 
 9942              	.LASF534:
 9943 275b 53797354 		.ascii	"SysTick_CTRL_ENABLE_Pos 0\000"
 9943      69636B5F 
 9943      4354524C 
 9943      5F454E41 
 9943      424C455F 
 9944              	.LASF560:
 9945 2775 4C50435F 		.ascii	"LPC_TIMER16_1_BASE 0x40010000\000"
 9945      54494D45 
 9945      5231365F 
 9945      315F4241 
 9945      53452030 
 9946              	.LASF727:
 9947 2793 55415254 		.ascii	"UART_LCR_WLEN_MASK (3 << 0)\000"
ARM GAS  /var/folders/f9/8bk2lnw15zn4cbgn6wrnb4lm0000gn/T//ccyV4EJ6.s 			page 224


 9947      5F4C4352 
 9947      5F574C45 
 9947      4E5F4D41 
 9947      534B2028 
 9948              	.LASF627:
 9949 27af 53595343 		.ascii	"SYSCTL_POWERDOWN_WDTOSC_PD (1 << 6)\000"
 9949      544C5F50 
 9949      4F574552 
 9949      444F574E 
 9949      5F574454 
 9950              	.LASF287:
 9951 27d3 5F5F4441 		.ascii	"__DA_FBIT__ 31\000"
 9951      5F464249 
 9951      545F5F20 
 9951      333100
 9952              	.LASF938:
 9953 27e2 4932435F 		.ascii	"I2C_RECV_END 0x10\000"
 9953      52454356 
 9953      5F454E44 
 9953      20307831 
 9953      3000
 9954              	.LASF518:
 9955 27f4 5343425F 		.ascii	"SCB_SCR_SLEEPDEEP_Pos 2\000"
 9955      5343525F 
 9955      534C4545 
 9955      50444545 
 9955      505F506F 
 9956              	.LASF354:
 9957 280c 5F5F5F69 		.ascii	"___int_least16_t_defined 1\000"
 9957      6E745F6C 
 9957      65617374 
 9957      31365F74 
 9957      5F646566 
 9958              	.LASF493:
 9959 2827 5343425F 		.ascii	"SCB_ICSR_PENDSVCLR_Msk (1UL << SCB_ICSR_PENDSVCLR_P"
 9959      49435352 
 9959      5F50454E 
 9959      44535643 
 9959      4C525F4D 
 9960 285a 6F732900 		.ascii	"os)\000"
 9961              	.LASF130:
 9962 285e 5F5F464C 		.ascii	"__FLT_DENORM_MIN__ 1.4012984643248171e-45F\000"
 9962      545F4445 
 9962      4E4F524D 
 9962      5F4D494E 
 9962      5F5F2031 
 9963              	.LASF93:
 9964 2889 5F5F494E 		.ascii	"__INT_LEAST16_MAX__ 32767\000"
 9964      545F4C45 
 9964      41535431 
 9964      365F4D41 
 9964      585F5F20 
 9965              	.LASF262:
 9966 28a3 5F5F554C 		.ascii	"__ULLACCUM_EPSILON__ 0x1P-32ULLK\000"
 9966      4C414343 
 9966      554D5F45 
 9966      5053494C 
ARM GAS  /var/folders/f9/8bk2lnw15zn4cbgn6wrnb4lm0000gn/T//ccyV4EJ6.s 			page 225


 9966      4F4E5F5F 
 9967              	.LASF782:
 9968 28c4 55415254 		.ascii	"UART_RS485CTRL_BITMASK (0x3F)\000"
 9968      5F525334 
 9968      38354354 
 9968      524C5F42 
 9968      49544D41 
 9969              	.LASF380:
 9970 28e2 494E545F 		.ascii	"INT_LEAST8_MAX __INT_LEAST8_MAX__\000"
 9970      4C454153 
 9970      54385F4D 
 9970      4158205F 
 9970      5F494E54 
 9971              	.LASF816:
 9972 2904 5353505F 		.ascii	"SSP_CR0_FRF_TI ((uint32_t) (1 << 4))\000"
 9972      4352305F 
 9972      4652465F 
 9972      54492028 
 9972      2875696E 
 9973              	.LASF706:
 9974 2929 55415254 		.ascii	"UART_IIR_INTSTAT_PEND (1 << 0)\000"
 9974      5F494952 
 9974      5F494E54 
 9974      53544154 
 9974      5F50454E 
 9975              	.LASF104:
 9976 2948 5F5F5549 		.ascii	"__UINT32_C(c) c ## UL\000"
 9976      4E543332 
 9976      5F432863 
 9976      29206320 
 9976      23232055 
 9977              	.LASF484:
 9978 295e 5343425F 		.ascii	"SCB_CPUID_PARTNO_Pos 4\000"
 9978      43505549 
 9978      445F5041 
 9978      52544E4F 
 9978      5F506F73 
 9979              	.LASF489:
 9980 2975 5343425F 		.ascii	"SCB_ICSR_NMIPENDSET_Msk (1UL << SCB_ICSR_NMIPENDSET"
 9980      49435352 
 9980      5F4E4D49 
 9980      50454E44 
 9980      5345545F 
 9981 29a8 5F506F73 		.ascii	"_Pos)\000"
 9981      2900
 9982              	.LASF730:
 9983 29ae 55415254 		.ascii	"UART_LCR_WLEN7 (2 << 0)\000"
 9983      5F4C4352 
 9983      5F574C45 
 9983      4E372028 
 9983      32203C3C 
 9984              	.LASF444:
 9985 29c6 5F534246 		.ascii	"_SBF\000"
 9985      00
 9986              	.LASF86:
 9987 29cb 5F5F494E 		.ascii	"__INT64_MAX__ 9223372036854775807LL\000"
 9987      5436345F 
ARM GAS  /var/folders/f9/8bk2lnw15zn4cbgn6wrnb4lm0000gn/T//ccyV4EJ6.s 			page 226


 9987      4D41585F 
 9987      5F203932 
 9987      32333337 
 9988              	.LASF129:
 9989 29ef 5F5F464C 		.ascii	"__FLT_EPSILON__ 1.1920928955078125e-7F\000"
 9989      545F4550 
 9989      53494C4F 
 9989      4E5F5F20 
 9989      312E3139 
 9990              	.LASF941:
 9991 2a16 4932435F 		.ascii	"I2C_CheckError(ErrorCode) (ErrorCode & 0x10000000)\000"
 9991      43686563 
 9991      6B457272 
 9991      6F722845 
 9991      72726F72 
 9992              	.LASF580:
 9993 2a49 4C50435F 		.ascii	"LPC_I2C ((LPC_I2C_T *) LPC_I2C_BASE)\000"
 9993      49324320 
 9993      28284C50 
 9993      435F4932 
 9993      435F5420 
 9994              	.LASF794:
 9995 2a6e 55415254 		.ascii	"UART_FDR_DIVADDVAL(n) (n & 0x0F)\000"
 9995      5F464452 
 9995      5F444956 
 9995      41444456 
 9995      414C286E 
 9996              	.LASF725:
 9997 2a8f 55415254 		.ascii	"UART_FCR_TRG_LEV2 (2 << 6)\000"
 9997      5F464352 
 9997      5F545247 
 9997      5F4C4556 
 9997      32202832 
 9998              	.LASF966:
 9999 2aaa 53444F5F 		.ascii	"SDO_ABORT_PARAINCOMP 0x06040043UL\000"
 9999      41424F52 
 9999      545F5041 
 9999      5241494E 
 9999      434F4D50 
 10000              	.LASF748:
 10001 2acc 55415254 		.ascii	"UART_MCR_AUTO_CTS_EN (1 << 7)\000"
 10001      5F4D4352 
 10001      5F415554 
 10001      4F5F4354 
 10001      535F454E 
 10002              	.LASF528:
 10003 2aea 53797354 		.ascii	"SysTick_CTRL_COUNTFLAG_Pos 16\000"
 10003      69636B5F 
 10003      4354524C 
 10003      5F434F55 
 10003      4E54464C 
 10004              	.LASF364:
 10005 2b08 5F5F696E 		.ascii	"__int_least16_t_defined 1\000"
 10005      745F6C65 
 10005      61737431 
 10005      365F745F 
 10005      64656669 
ARM GAS  /var/folders/f9/8bk2lnw15zn4cbgn6wrnb4lm0000gn/T//ccyV4EJ6.s 			page 227


 10006              	.LASF242:
 10007 2b22 5F5F5541 		.ascii	"__UACCUM_EPSILON__ 0x1P-16UK\000"
 10007      4343554D 
 10007      5F455053 
 10007      494C4F4E 
 10007      5F5F2030 
 10008              	.LASF443:
 10009 2b3f 5F424954 		.ascii	"_BIT(n) (1 << (n))\000"
 10009      286E2920 
 10009      2831203C 
 10009      3C20286E 
 10009      292900
 10010              	.LASF587:
 10011 2b52 4C50435F 		.ascii	"LPC_ADC ((LPC_ADC_T *) LPC_ADC_BASE)\000"
 10011      41444320 
 10011      28284C50 
 10011      435F4144 
 10011      435F5420 
 10012              	.LASF308:
 10013 2b77 5F5F4743 		.ascii	"__GCC_ATOMIC_SHORT_LOCK_FREE 1\000"
 10013      435F4154 
 10013      4F4D4943 
 10013      5F53484F 
 10013      52545F4C 
 10014              	.LASF438:
 10015 2b96 66616C73 		.ascii	"false 0\000"
 10015      65203000 
 10016              	.LASF695:
 10017 2b9e 55415254 		.ascii	"UART_DLM_MASKBIT (0xFF)\000"
 10017      5F444C4D 
 10017      5F4D4153 
 10017      4B424954 
 10017      20283078 
 10018              	.LASF813:
 10019 2bb6 5F5F5353 		.ascii	"__SSP_11XX_H_ \000"
 10019      505F3131 
 10019      58585F48 
 10019      5F2000
 10020              	.LASF266:
 10021 2bc5 5F5F4851 		.ascii	"__HQ_IBIT__ 0\000"
 10021      5F494249 
 10021      545F5F20 
 10021      3000
 10022              	.LASF467:
 10023 2bd3 5F5F434F 		.ascii	"__CORTEX_M (0x00)\000"
 10023      52544558 
 10023      5F4D2028 
 10023      30783030 
 10023      2900
 10024              	.LASF228:
 10025 2be5 5F5F5553 		.ascii	"__USACCUM_FBIT__ 8\000"
 10025      41434355 
 10025      4D5F4642 
 10025      49545F5F 
 10025      203800
 10026              	.LASF1127:
 10027 2bf8 52696E67 		.ascii	"RingBuff\000"
ARM GAS  /var/folders/f9/8bk2lnw15zn4cbgn6wrnb4lm0000gn/T//ccyV4EJ6.s 			page 228


 10027      42756666 
 10027      00
 10028              	.LASF898:
 10029 2c01 4932435F 		.ascii	"I2C_I2STAT_M_RX_ARB_LOST ((0x38))\000"
 10029      49325354 
 10029      41545F4D 
 10029      5F52585F 
 10029      4152425F 
 10030              	.LASF503:
 10031 2c23 5343425F 		.ascii	"SCB_ICSR_VECTPENDING_Msk (0x1FFUL << SCB_ICSR_VECTP"
 10031      49435352 
 10031      5F564543 
 10031      5450454E 
 10031      44494E47 
 10032 2c56 454E4449 		.ascii	"ENDING_Pos)\000"
 10032      4E475F50 
 10032      6F732900 
 10033              	.LASF908:
 10034 2c62 4932435F 		.ascii	"I2C_I2STAT_S_RX_PRE_SLA_DAT_NACK ((0x88))\000"
 10034      49325354 
 10034      41545F53 
 10034      5F52585F 
 10034      5052455F 
 10035              	.LASF682:
 10036 2c8c 54494D45 		.ascii	"TIMER_RESET_ON_MATCH(n) (_BIT((((n) * 3) + 1)))\000"
 10036      525F5245 
 10036      5345545F 
 10036      4F4E5F4D 
 10036      41544348 
 10037              	.LASF243:
 10038 2cbc 5F5F4C41 		.ascii	"__LACCUM_FBIT__ 31\000"
 10038      4343554D 
 10038      5F464249 
 10038      545F5F20 
 10038      333100
 10039              	.LASF945:
 10040 2ccf 43414E5F 		.ascii	"CAN_ERROR_NONE 0x00000000UL\000"
 10040      4552524F 
 10040      525F4E4F 
 10040      4E452030 
 10040      78303030 
 10041              	.LASF631:
 10042 2ceb 5F5F494F 		.ascii	"__IOCON_11XX_H_ \000"
 10042      434F4E5F 
 10042      31315858 
 10042      5F485F20 
 10042      00
 10043              	.LASF923:
 10044 2cfc 4932435F 		.ascii	"I2C_I2MMCTRL_BITMASK ((0x07))\000"
 10044      49324D4D 
 10044      4354524C 
 10044      5F424954 
 10044      4D41534B 
 10045              	.LASF678:
 10046 2d1a 54494D45 		.ascii	"TIMER_CAP_INT(n) (_BIT((((n) & 0x0F) + 4)))\000"
 10046      525F4341 
 10046      505F494E 
ARM GAS  /var/folders/f9/8bk2lnw15zn4cbgn6wrnb4lm0000gn/T//ccyV4EJ6.s 			page 229


 10046      54286E29 
 10046      20285F42 
 10047              	.LASF840:
 10048 2d46 5F5F524F 		.ascii	"__ROMAPI_11XX_H_ \000"
 10048      4D415049 
 10048      5F313158 
 10048      585F485F 
 10048      2000
 10049              	.LASF1006:
 10050 2d58 53595350 		.ascii	"SYSPLLCTRL\000"
 10050      4C4C4354 
 10050      524C00
 10051              	.LASF289:
 10052 2d63 5F5F5441 		.ascii	"__TA_FBIT__ 63\000"
 10052      5F464249 
 10052      545F5F20 
 10052      363300
 10053              	.LASF384:
 10054 2d72 55494E54 		.ascii	"UINT16_MAX __UINT16_MAX__\000"
 10054      31365F4D 
 10054      4158205F 
 10054      5F55494E 
 10054      5431365F 
 10055              	.LASF903:
 10056 2d8c 4932435F 		.ascii	"I2C_I2STAT_S_RX_SLAW_ACK ((0x60))\000"
 10056      49325354 
 10056      41545F53 
 10056      5F52585F 
 10056      534C4157 
 10057              	.LASF373:
 10058 2dae 494E5450 		.ascii	"INTPTR_MIN (-__INTPTR_MAX__ - 1)\000"
 10058      54525F4D 
 10058      494E2028 
 10058      2D5F5F49 
 10058      4E545054 
 10059              	.LASF1004:
 10060 2dcf 5359534D 		.ascii	"SYSMEMREMAP\000"
 10060      454D5245 
 10060      4D415000 
 10061              	.LASF572:
 10062 2ddb 4C50435F 		.ascii	"LPC_CAN0_BASE 0x40050000\000"
 10062      43414E30 
 10062      5F424153 
 10062      45203078 
 10062      34303035 
 10063              	.LASF335:
 10064 2df4 5F5F4152 		.ascii	"__ARM_PCS 1\000"
 10064      4D5F5043 
 10064      53203100 
 10065              	.LASF436:
 10066 2e00 626F6F6C 		.ascii	"bool _Bool\000"
 10066      205F426F 
 10066      6F6C00
 10067              	.LASF873:
 10068 2e0b 4932435F 		.ascii	"I2C_I2CONSET_STA ((0x20))\000"
 10068      4932434F 
 10068      4E534554 
ARM GAS  /var/folders/f9/8bk2lnw15zn4cbgn6wrnb4lm0000gn/T//ccyV4EJ6.s 			page 230


 10068      5F535441 
 10068      20282830 
 10069              	.LASF952:
 10070 2e25 43414E5F 		.ascii	"CAN_ERROR_BIT1 0x00000040UL\000"
 10070      4552524F 
 10070      525F4249 
 10070      54312030 
 10070      78303030 
 10071              	.LASF607:
 10072 2e41 53595343 		.ascii	"SYSCTL_RST_WDT (1 << 2)\000"
 10072      544C5F52 
 10072      53545F57 
 10072      44542028 
 10072      31203C3C 
 10073              	.LASF414:
 10074 2e59 55494E54 		.ascii	"UINTMAX_MAX __UINTMAX_MAX__\000"
 10074      4D41585F 
 10074      4D415820 
 10074      5F5F5549 
 10074      4E544D41 
 10075              	.LASF570:
 10076 2e75 4C50435F 		.ascii	"LPC_SYSCTL_BASE 0x40048000\000"
 10076      53595343 
 10076      544C5F42 
 10076      41534520 
 10076      30783430 
 10077              	.LASF1102:
 10078 2e90 52533438 		.ascii	"RS485DLY\000"
 10078      35444C59 
 10078      00
 10079              	.LASF240:
 10080 2e99 5F5F5541 		.ascii	"__UACCUM_MIN__ 0.0UK\000"
 10080      4343554D 
 10080      5F4D494E 
 10080      5F5F2030 
 10080      2E30554B 
 10081              	.LASF490:
 10082 2eae 5343425F 		.ascii	"SCB_ICSR_PENDSVSET_Pos 28\000"
 10082      49435352 
 10082      5F50454E 
 10082      44535653 
 10082      45545F50 
 10083              	.LASF512:
 10084 2ec8 5343425F 		.ascii	"SCB_AIRCR_SYSRESETREQ_Pos 2\000"
 10084      41495243 
 10084      525F5359 
 10084      53524553 
 10084      45545245 
 10085              	.LASF476:
 10086 2ee4 5F5F4F20 		.ascii	"__O volatile\000"
 10086      766F6C61 
 10086      74696C65 
 10086      00
 10087              	.LASF383:
 10088 2ef1 494E5431 		.ascii	"INT16_MAX __INT16_MAX__\000"
 10088      365F4D41 
 10088      58205F5F 
ARM GAS  /var/folders/f9/8bk2lnw15zn4cbgn6wrnb4lm0000gn/T//ccyV4EJ6.s 			page 231


 10088      494E5431 
 10088      365F4D41 
 10089              	.LASF416:
 10090 2f09 5349475F 		.ascii	"SIG_ATOMIC_MIN (-__STDINT_EXP(INT_MAX) - 1)\000"
 10090      41544F4D 
 10090      49435F4D 
 10090      494E2028 
 10090      2D5F5F53 
 10091              	.LASF893:
 10092 2f35 4932435F 		.ascii	"I2C_I2STAT_M_TX_DAT_ACK ((0x28))\000"
 10092      49325354 
 10092      41545F4D 
 10092      5F54585F 
 10092      4441545F 
 10093              	.LASF778:
 10094 2f56 55415254 		.ascii	"UART_RS485CTRL_AADEN (1 << 2)\000"
 10094      5F525334 
 10094      38354354 
 10094      524C5F41 
 10094      4144454E 
 10095              	.LASF1033:
 10096 2f74 55534243 		.ascii	"USBCLKUEN\000"
 10096      4C4B5545 
 10096      4E00
 10097              	.LASF957:
 10098 2f7e 43414E5F 		.ascii	"CAN_MSGOBJ_DAT 0x00000000UL\000"
 10098      4D53474F 
 10098      424A5F44 
 10098      41542030 
 10098      78303030 
 10099              	.LASF917:
 10100 2f9a 4932435F 		.ascii	"I2C_SLAVE_TIME_OUT 0x10000000UL\000"
 10100      534C4156 
 10100      455F5449 
 10100      4D455F4F 
 10100      55542030 
 10101              	.LASF770:
 10102 2fba 55415254 		.ascii	"UART_ACR_START (1 << 0)\000"
 10102      5F414352 
 10102      5F535441 
 10102      52542028 
 10102      31203C3C 
 10103              	.LASF575:
 10104 2fd2 4C50435F 		.ascii	"LPC_GPIO_PORT1_BASE 0x50010000\000"
 10104      4750494F 
 10104      5F504F52 
 10104      54315F42 
 10104      41534520 
 10105              	.LASF791:
 10106 2ff1 55415254 		.ascii	"UART_SCICTRL_PROTSEL_T1 (1 << 2)\000"
 10106      5F534349 
 10106      4354524C 
 10106      5F50524F 
 10106      5453454C 
 10107              	.LASF793:
 10108 3012 55415254 		.ascii	"UART_SCICTRL_GUARDTIME(n) ((n & 0xFF) << 8)\000"
 10108      5F534349 
ARM GAS  /var/folders/f9/8bk2lnw15zn4cbgn6wrnb4lm0000gn/T//ccyV4EJ6.s 			page 232


 10108      4354524C 
 10108      5F475541 
 10108      52445449 
 10109              	.LASF368:
 10110 303e 5F5F696E 		.ascii	"__int_least64_t_defined 1\000"
 10110      745F6C65 
 10110      61737436 
 10110      345F745F 
 10110      64656669 
 10111              	.LASF870:
 10112 3058 4932435F 		.ascii	"I2C_I2CONSET_AA ((0x04))\000"
 10112      4932434F 
 10112      4E534554 
 10112      5F414120 
 10112      28283078 
 10113              	.LASF1052:
 10114 3071 55534243 		.ascii	"USBCLKCTRL\000"
 10114      4C4B4354 
 10114      524C00
 10115              	.LASF175:
 10116 307c 5F5F4445 		.ascii	"__DEC64_SUBNORMAL_MIN__ 0.000000000000001E-383DD\000"
 10116      4336345F 
 10116      5355424E 
 10116      4F524D41 
 10116      4C5F4D49 
 10117              	.LASF192:
 10118 30ad 5F5F5553 		.ascii	"__USFRACT_EPSILON__ 0x1P-8UHR\000"
 10118      46524143 
 10118      545F4550 
 10118      53494C4F 
 10118      4E5F5F20 
 10119              	.LASF723:
 10120 30cb 55415254 		.ascii	"UART_FCR_TRG_LEV0 (0)\000"
 10120      5F464352 
 10120      5F545247 
 10120      5F4C4556 
 10120      30202830 
 10121              	.LASF446:
 10122 30e1 5F424954 		.ascii	"_BITMASK\000"
 10122      4D41534B 
 10122      00
 10123              	.LASF110:
 10124 30ea 5F5F494E 		.ascii	"__INT_FAST64_MAX__ 9223372036854775807LL\000"
 10124      545F4641 
 10124      53543634 
 10124      5F4D4158 
 10124      5F5F2039 
 10125              	.LASF590:
 10126 3113 4C50435F 		.ascii	"LPC_SSP0 ((LPC_SSP_T *) LPC_SSP0_BASE)\000"
 10126      53535030 
 10126      2028284C 
 10126      50435F53 
 10126      53505F54 
 10127              	.LASF188:
 10128 313a 5F5F5553 		.ascii	"__USFRACT_FBIT__ 8\000"
 10128      46524143 
 10128      545F4642 
ARM GAS  /var/folders/f9/8bk2lnw15zn4cbgn6wrnb4lm0000gn/T//ccyV4EJ6.s 			page 233


 10128      49545F5F 
 10128      203800
 10129              	.LASF256:
 10130 314d 5F5F4C4C 		.ascii	"__LLACCUM_MAX__ 0X7FFFFFFFFFFFFFFFP-31LLK\000"
 10130      41434355 
 10130      4D5F4D41 
 10130      585F5F20 
 10130      30583746 
 10131              	.LASF707:
 10132 3177 55415254 		.ascii	"UART_IIR_FIFO_EN (3 << 6)\000"
 10132      5F494952 
 10132      5F464946 
 10132      4F5F454E 
 10132      20283320 
 10133              	.LASF673:
 10134 3191 46554E43 		.ascii	"FUNC6 0x6\000"
 10134      36203078 
 10134      3600
 10135              	.LASF366:
 10136 319b 5F5F696E 		.ascii	"__int_least32_t_defined 1\000"
 10136      745F6C65 
 10136      61737433 
 10136      325F745F 
 10136      64656669 
 10137              	.LASF300:
 10138 31b5 5F5F5553 		.ascii	"__USER_LABEL_PREFIX__ \000"
 10138      45525F4C 
 10138      4142454C 
 10138      5F505245 
 10138      4649585F 
 10139              	.LASF835:
 10140 31cc 5353505F 		.ascii	"SSP_CPHA_SECOND SSP_CR0_CPHA_SECOND\000"
 10140      43504841 
 10140      5F534543 
 10140      4F4E4420 
 10140      5353505F 
 10141              	.LASF577:
 10142 31f0 4C50435F 		.ascii	"LPC_GPIO_PORT3_BASE 0x50030000\000"
 10142      4750494F 
 10142      5F504F52 
 10142      54335F42 
 10142      41534520 
 10143              	.LASF401:
 10144 320f 494E545F 		.ascii	"INT_FAST8_MAX __INT_FAST8_MAX__\000"
 10144      46415354 
 10144      385F4D41 
 10144      58205F5F 
 10144      494E545F 
 10145              	.LASF1129:
 10146 322f 43686970 		.ascii	"Chip_UART_DeInit\000"
 10146      5F554152 
 10146      545F4465 
 10146      496E6974 
 10146      00
 10147              	.LASF1072:
 10148 3240 53595343 		.ascii	"SYSCTL_CLOCK_FLASHARRAY\000"
 10148      544C5F43 
ARM GAS  /var/folders/f9/8bk2lnw15zn4cbgn6wrnb4lm0000gn/T//ccyV4EJ6.s 			page 234


 10148      4C4F434B 
 10148      5F464C41 
 10148      53484152 
 10149              	.LASF792:
 10150 3258 55415254 		.ascii	"UART_SCICTRL_TXRETRY(n) ((n & 0x07) << 5)\000"
 10150      5F534349 
 10150      4354524C 
 10150      5F545852 
 10150      45545259 
 10151              	.LASF430:
 10152 3282 494E5436 		.ascii	"INT64_C(x) __INT64_C(x)\000"
 10152      345F4328 
 10152      7829205F 
 10152      5F494E54 
 10152      36345F43 
 10153              	.LASF195:
 10154 329a 5F5F4652 		.ascii	"__FRACT_MIN__ (-0.5R-0.5R)\000"
 10154      4143545F 
 10154      4D494E5F 
 10154      5F20282D 
 10154      302E3552 
 10155              	.LASF376:
 10156 32b5 494E5438 		.ascii	"INT8_MIN (-__INT8_MAX__ - 1)\000"
 10156      5F4D494E 
 10156      20282D5F 
 10156      5F494E54 
 10156      385F4D41 
 10157              	.LASF844:
 10158 32d2 4144435F 		.ascii	"ADC_MAX_SAMPLE_RATE 400000\000"
 10158      4D41585F 
 10158      53414D50 
 10158      4C455F52 
 10158      41544520 
 10159              	.LASF1074:
 10160 32ed 53595343 		.ascii	"SYSCTL_CLOCK_GPIO\000"
 10160      544C5F43 
 10160      4C4F434B 
 10160      5F475049 
 10160      4F00
 10161              	.LASF507:
 10162 32ff 5343425F 		.ascii	"SCB_AIRCR_VECTKEY_Msk (0xFFFFUL << SCB_AIRCR_VECTKE"
 10162      41495243 
 10162      525F5645 
 10162      43544B45 
 10162      595F4D73 
 10163 3332 595F506F 		.ascii	"Y_Pos)\000"
 10163      732900
 10164              	.LASF8:
 10165 3339 5F5F4154 		.ascii	"__ATOMIC_ACQUIRE 2\000"
 10165      4F4D4943 
 10165      5F414351 
 10165      55495245 
 10165      203200
 10166              	.LASF1111:
 10167 334c 43686970 		.ascii	"Chip_Clock_DisablePeriphClock\000"
 10167      5F436C6F 
 10167      636B5F44 
ARM GAS  /var/folders/f9/8bk2lnw15zn4cbgn6wrnb4lm0000gn/T//ccyV4EJ6.s 			page 235


 10167      69736162 
 10167      6C655065 
 10168              	.LASF600:
 10169 336a 504D555F 		.ascii	"PMU_PCON_PM_DEEPPOWERDOWN (0x2)\000"
 10169      50434F4E 
 10169      5F504D5F 
 10169      44454550 
 10169      504F5745 
 10170              	.LASF827:
 10171 338a 5353505F 		.ascii	"SSP_CR1_MASTER_EN ((uint32_t) (0))\000"
 10171      4352315F 
 10171      4D415354 
 10171      45525F45 
 10171      4E202828 
 10172              	.LASF1009:
 10173 33ad 55534250 		.ascii	"USBPLLSTAT\000"
 10173      4C4C5354 
 10173      415400
 10174              	.LASF821:
 10175 33b8 5353505F 		.ascii	"SSP_CR0_CPHA_SECOND ((uint32_t) (1 << 7))\000"
 10175      4352305F 
 10175      43504841 
 10175      5F534543 
 10175      4F4E4420 
 10176              	.LASF1153:
 10177 33e2 52696E67 		.ascii	"RingBuffer_InsertMult\000"
 10177      42756666 
 10177      65725F49 
 10177      6E736572 
 10177      744D756C 
 10178              	.LASF487:
 10179 33f8 5343425F 		.ascii	"SCB_CPUID_REVISION_Msk (0xFUL << SCB_CPUID_REVISION"
 10179      43505549 
 10179      445F5245 
 10179      56495349 
 10179      4F4E5F4D 
 10180 342b 5F506F73 		.ascii	"_Pos)\000"
 10180      2900
 10181              	.LASF719:
 10182 3431 55415254 		.ascii	"UART_FCR_TX_RS (1 << 2)\000"
 10182      5F464352 
 10182      5F54585F 
 10182      52532028 
 10182      31203C3C 
 10183              	.LASF632:
 10184 3449 494F434F 		.ascii	"IOCON_FUNC0 0x0\000"
 10184      4E5F4655 
 10184      4E433020 
 10184      30783000 
 10185              	.LASF143:
 10186 3459 5F5F4442 		.ascii	"__DBL_EPSILON__ ((double)2.2204460492503131e-16L)\000"
 10186      4C5F4550 
 10186      53494C4F 
 10186      4E5F5F20 
 10186      2828646F 
 10187              	.LASF753:
 10188 348b 55415254 		.ascii	"UART_LSR_FE (1 << 3)\000"
ARM GAS  /var/folders/f9/8bk2lnw15zn4cbgn6wrnb4lm0000gn/T//ccyV4EJ6.s 			page 236


 10188      5F4C5352 
 10188      5F464520 
 10188      2831203C 
 10188      3C203329 
 10189              	.LASF132:
 10190 34a0 5F5F464C 		.ascii	"__FLT_HAS_INFINITY__ 1\000"
 10190      545F4841 
 10190      535F494E 
 10190      46494E49 
 10190      54595F5F 
 10191              	.LASF926:
 10192 34b7 4932435F 		.ascii	"I2C_I2ADR_BITMASK ((0xFF))\000"
 10192      49324144 
 10192      525F4249 
 10192      544D4153 
 10192      4B202828 
 10193              	.LASF236:
 10194 34d2 5F5F4143 		.ascii	"__ACCUM_MAX__ 0X7FFFFFFFP-15K\000"
 10194      43554D5F 
 10194      4D41585F 
 10194      5F203058 
 10194      37464646 
 10195              	.LASF501:
 10196 34f0 5343425F 		.ascii	"SCB_ICSR_ISRPENDING_Msk (1UL << SCB_ICSR_ISRPENDING"
 10196      49435352 
 10196      5F495352 
 10196      50454E44 
 10196      494E475F 
 10197 3523 5F506F73 		.ascii	"_Pos)\000"
 10197      2900
 10198              	.LASF151:
 10199 3529 5F5F4C44 		.ascii	"__LDBL_MIN_10_EXP__ (-307)\000"
 10199      424C5F4D 
 10199      494E5F31 
 10199      305F4558 
 10199      505F5F20 
 10200              	.LASF784:
 10201 3544 55415254 		.ascii	"UART_ICR_IRDAINV (1 << 1)\000"
 10201      5F494352 
 10201      5F495244 
 10201      41494E56 
 10201      20283120 
 10202              	.LASF583:
 10203 355e 4C50435F 		.ascii	"LPC_TIMER16_0 ((LPC_TIMER_T *) LPC_TIMER16_0_BASE)\000"
 10203      54494D45 
 10203      5231365F 
 10203      30202828 
 10203      4C50435F 
 10204              	.LASF246:
 10205 3591 5F5F4C41 		.ascii	"__LACCUM_MAX__ 0X7FFFFFFFFFFFFFFFP-31LK\000"
 10205      4343554D 
 10205      5F4D4158 
 10205      5F5F2030 
 10205      58374646 
 10206              	.LASF349:
 10207 35b9 5F5F5F69 		.ascii	"___int8_t_defined 1\000"
 10207      6E74385F 
ARM GAS  /var/folders/f9/8bk2lnw15zn4cbgn6wrnb4lm0000gn/T//ccyV4EJ6.s 			page 237


 10207      745F6465 
 10207      66696E65 
 10207      64203100 
 10208              	.LASF185:
 10209 35cd 5F5F5346 		.ascii	"__SFRACT_MIN__ (-0.5HR-0.5HR)\000"
 10209      52414354 
 10209      5F4D494E 
 10209      5F5F2028 
 10209      2D302E35 
 10210              	.LASF995:
 10211 35eb 6C6F6E67 		.ascii	"long unsigned int\000"
 10211      20756E73 
 10211      69676E65 
 10211      6420696E 
 10211      7400
 10212              	.LASF286:
 10213 35fd 5F5F5341 		.ascii	"__SA_IBIT__ 16\000"
 10213      5F494249 
 10213      545F5F20 
 10213      313600
 10214              	.LASF135:
 10215 360c 5F5F4442 		.ascii	"__DBL_DIG__ 15\000"
 10215      4C5F4449 
 10215      475F5F20 
 10215      313500
 10216              	.LASF2:
 10217 361b 5F5F474E 		.ascii	"__GNUC__ 4\000"
 10217      55435F5F 
 10217      203400
 10218              	.LASF832:
 10219 3626 5353505F 		.ascii	"SSP_SR_BITMASK ((uint32_t) (0x1F))\000"
 10219      53525F42 
 10219      49544D41 
 10219      534B2028 
 10219      2875696E 
 10220              	.LASF769:
 10221 3649 55415254 		.ascii	"UART_MSR_BITMASK (0xFF)\000"
 10221      5F4D5352 
 10221      5F424954 
 10221      4D41534B 
 10221      20283078 
 10222              	.LASF677:
 10223 3661 54494D45 		.ascii	"TIMER_MATCH_INT(n) (_BIT((n) & 0x0F))\000"
 10223      525F4D41 
 10223      5443485F 
 10223      494E5428 
 10223      6E292028 
 10224              	.LASF44:
 10225 3687 5F5F5549 		.ascii	"__UINT16_TYPE__ short unsigned int\000"
 10225      4E543136 
 10225      5F545950 
 10225      455F5F20 
 10225      73686F72 
 10226              	.LASF780:
 10227 36aa 55415254 		.ascii	"UART_RS485CTRL_DCTRL_EN (1 << 4)\000"
 10227      5F525334 
 10227      38354354 
ARM GAS  /var/folders/f9/8bk2lnw15zn4cbgn6wrnb4lm0000gn/T//ccyV4EJ6.s 			page 238


 10227      524C5F44 
 10227      4354524C 
 10228              	.LASF329:
 10229 36cb 5F5F534F 		.ascii	"__SOFTFP__ 1\000"
 10229      46544650 
 10229      5F5F2031 
 10229      00
 10230              	.LASF365:
 10231 36d8 5F5F696E 		.ascii	"__int32_t_defined 1\000"
 10231      7433325F 
 10231      745F6465 
 10231      66696E65 
 10231      64203100 
 10232              	.LASF164:
 10233 36ec 5F5F4445 		.ascii	"__DEC32_MAX_EXP__ 97\000"
 10233      4333325F 
 10233      4D41585F 
 10233      4558505F 
 10233      5F203937 
 10234              	.LASF544:
 10235 3701 53797354 		.ascii	"SysTick_CALIB_TENMS_Pos 0\000"
 10235      69636B5F 
 10235      43414C49 
 10235      425F5445 
 10235      4E4D535F 
 10236              	.LASF800:
 10237 371b 55415254 		.ascii	"UART_SYNCCTRL_CSRC_MASTER (1 << 1)\000"
 10237      5F53594E 
 10237      43435452 
 10237      4C5F4353 
 10237      52435F4D 
 10238              	.LASF615:
 10239 373e 53595343 		.ascii	"SYSCTL_SLPWAKE_FLASH_PD (1 << 2)\000"
 10239      544C5F53 
 10239      4C505741 
 10239      4B455F46 
 10239      4C415348 
 10240              	.LASF547:
 10241 375f 53797354 		.ascii	"SysTick_BASE (SCS_BASE + 0x0010UL)\000"
 10241      69636B5F 
 10241      42415345 
 10241      20285343 
 10241      535F4241 
 10242              	.LASF863:
 10243 3782 5F5F4750 		.ascii	"__GPIO_11XX_2_H_ \000"
 10243      494F5F31 
 10243      3158585F 
 10243      325F485F 
 10243      2000
 10244              	.LASF424:
 10245 3794 494E5438 		.ascii	"INT8_C(x) __INT8_C(x)\000"
 10245      5F432878 
 10245      29205F5F 
 10245      494E5438 
 10245      5F432878 
 10246              	.LASF453:
 10247 37aa 4D415828 		.ascii	"MAX(a,b) (((a) > (b)) ? (a) : (b))\000"
ARM GAS  /var/folders/f9/8bk2lnw15zn4cbgn6wrnb4lm0000gn/T//ccyV4EJ6.s 			page 239


 10247      612C6229 
 10247      20282828 
 10247      6129203E 
 10247      20286229 
 10248              	.LASF59:
 10249 37cd 5F5F5549 		.ascii	"__UINT_FAST8_TYPE__ unsigned int\000"
 10249      4E545F46 
 10249      41535438 
 10249      5F545950 
 10249      455F5F20 
 10250              	.LASF254:
 10251 37ee 5F5F4C4C 		.ascii	"__LLACCUM_IBIT__ 32\000"
 10251      41434355 
 10251      4D5F4942 
 10251      49545F5F 
 10251      20333200 
 10252              	.LASF513:
 10253 3802 5343425F 		.ascii	"SCB_AIRCR_SYSRESETREQ_Msk (1UL << SCB_AIRCR_SYSRESE"
 10253      41495243 
 10253      525F5359 
 10253      53524553 
 10253      45545245 
 10254 3835 54524551 		.ascii	"TREQ_Pos)\000"
 10254      5F506F73 
 10254      2900
 10255              	.LASF197:
 10256 383f 5F5F4652 		.ascii	"__FRACT_EPSILON__ 0x1P-15R\000"
 10256      4143545F 
 10256      45505349 
 10256      4C4F4E5F 
 10256      5F203078 
 10257              	.LASF451:
 10258 385a 45585445 		.ascii	"EXTERN extern\000"
 10258      524E2065 
 10258      78746572 
 10258      6E00
 10259              	.LASF499:
 10260 3868 5343425F 		.ascii	"SCB_ICSR_ISRPREEMPT_Msk (1UL << SCB_ICSR_ISRPREEMPT"
 10260      49435352 
 10260      5F495352 
 10260      50524545 
 10260      4D50545F 
 10261 389b 5F506F73 		.ascii	"_Pos)\000"
 10261      2900
 10262              	.LASF1098:
 10263 38a1 4844454E 		.ascii	"HDEN\000"
 10263      00
 10264              	.LASF936:
 10265 38a6 4932435F 		.ascii	"I2C_LAST_BYTE_RECV 0x04\000"
 10265      4C415354 
 10265      5F425954 
 10265      455F5245 
 10265      43562030 
 10266              	.LASF460:
 10267 38be 5F5F4D50 		.ascii	"__MPU_PRESENT 0\000"
 10267      555F5052 
 10267      4553454E 
ARM GAS  /var/folders/f9/8bk2lnw15zn4cbgn6wrnb4lm0000gn/T//ccyV4EJ6.s 			page 240


 10267      54203000 
 10268              	.LASF38:
 10269 38ce 5F5F5349 		.ascii	"__SIG_ATOMIC_TYPE__ int\000"
 10269      475F4154 
 10269      4F4D4943 
 10269      5F545950 
 10269      455F5F20 
 10270              	.LASF584:
 10271 38e6 4C50435F 		.ascii	"LPC_TIMER16_1 ((LPC_TIMER_T *) LPC_TIMER16_1_BASE)\000"
 10271      54494D45 
 10271      5231365F 
 10271      31202828 
 10271      4C50435F 
 10272              	.LASF68:
 10273 3919 5F5F494E 		.ascii	"__INT_MAX__ 2147483647\000"
 10273      545F4D41 
 10273      585F5F20 
 10273      32313437 
 10273      34383336 
 10274              	.LASF54:
 10275 3930 5F5F5549 		.ascii	"__UINT_LEAST64_TYPE__ long long unsigned int\000"
 10275      4E545F4C 
 10275      45415354 
 10275      36345F54 
 10275      5950455F 
 10276              	.LASF181:
 10277 395d 5F5F4445 		.ascii	"__DEC128_EPSILON__ 1E-33DL\000"
 10277      43313238 
 10277      5F455053 
 10277      494C4F4E 
 10277      5F5F2031 
 10278              	.LASF714:
 10279 3978 55415254 		.ascii	"UART_IIR_INTID_CTI (6 << 1)\000"
 10279      5F494952 
 10279      5F494E54 
 10279      49445F43 
 10279      54492028 
 10280              	.LASF157:
 10281 3994 5F5F4C44 		.ascii	"__LDBL_EPSILON__ 2.2204460492503131e-16L\000"
 10281      424C5F45 
 10281      5053494C 
 10281      4F4E5F5F 
 10281      20322E32 
 10282              	.LASF979:
 10283 39bd 4F445F53 		.ascii	"OD_SEG_WO 0x50\000"
 10283      45475F57 
 10283      4F203078 
 10283      353000
 10284              	.LASF637:
 10285 39cc 494F434F 		.ascii	"IOCON_FUNC5 0x5\000"
 10285      4E5F4655 
 10285      4E433520 
 10285      30783500 
 10286              	.LASF305:
 10287 39dc 5F5F4743 		.ascii	"__GCC_ATOMIC_CHAR16_T_LOCK_FREE 1\000"
 10287      435F4154 
 10287      4F4D4943 
ARM GAS  /var/folders/f9/8bk2lnw15zn4cbgn6wrnb4lm0000gn/T//ccyV4EJ6.s 			page 241


 10287      5F434841 
 10287      5231365F 
 10288              	.LASF9:
 10289 39fe 5F5F4154 		.ascii	"__ATOMIC_RELEASE 3\000"
 10289      4F4D4943 
 10289      5F52454C 
 10289      45415345 
 10289      203300
 10290              	.LASF894:
 10291 3a11 4932435F 		.ascii	"I2C_I2STAT_M_TX_DAT_NACK ((0x30))\000"
 10291      49325354 
 10291      41545F4D 
 10291      5F54585F 
 10291      4441545F 
 10292              	.LASF120:
 10293 3a33 5F5F464C 		.ascii	"__FLT_MANT_DIG__ 24\000"
 10293      545F4D41 
 10293      4E545F44 
 10293      49475F5F 
 10293      20323400 
 10294              	.LASF1159:
 10295 3a47 43484950 		.ascii	"CHIP_SYSCTL_CLOCK\000"
 10295      5F535953 
 10295      43544C5F 
 10295      434C4F43 
 10295      4B00
 10296              	.LASF1049:
 10297 3a59 4952514C 		.ascii	"IRQLATENCY\000"
 10297      4154454E 
 10297      435900
 10298              	.LASF57:
 10299 3a64 5F5F494E 		.ascii	"__INT_FAST32_TYPE__ int\000"
 10299      545F4641 
 10299      53543332 
 10299      5F545950 
 10299      455F5F20 
 10300              	.LASF1084:
 10301 3a7c 53595343 		.ascii	"SYSCTL_CLOCK_IOCON\000"
 10301      544C5F43 
 10301      4C4F434B 
 10301      5F494F43 
 10301      4F4E00
 10302              	.LASF887:
 10303 3a8f 4932435F 		.ascii	"I2C_I2STAT_NO_INF ((0xF8))\000"
 10303      49325354 
 10303      41545F4E 
 10303      4F5F494E 
 10303      46202828 
 10304              	.LASF849:
 10305 3aaa 4144435F 		.ascii	"ADC_CR_CH_SEL(n) ((1UL << (n)))\000"
 10305      43525F43 
 10305      485F5345 
 10305      4C286E29 
 10305      20282831 
 10306              	.LASF309:
 10307 3aca 5F5F4743 		.ascii	"__GCC_ATOMIC_INT_LOCK_FREE 1\000"
 10307      435F4154 
ARM GAS  /var/folders/f9/8bk2lnw15zn4cbgn6wrnb4lm0000gn/T//ccyV4EJ6.s 			page 242


 10307      4F4D4943 
 10307      5F494E54 
 10307      5F4C4F43 
 10308              	.LASF12:
 10309 3ae7 5F5F4F50 		.ascii	"__OPTIMIZE__ 1\000"
 10309      54494D49 
 10309      5A455F5F 
 10309      203100
 10310              	.LASF734:
 10311 3af6 55415254 		.ascii	"UART_LCR_SBS_2BIT (1 << 2)\000"
 10311      5F4C4352 
 10311      5F534253 
 10311      5F324249 
 10311      54202831 
 10312              	.LASF597:
 10313 3b11 4C50435F 		.ascii	"LPC_ROM_API (*((LPC_ROM_API_T * *) LPC_ROM_API_BASE"
 10313      524F4D5F 
 10313      41504920 
 10313      282A2828 
 10313      4C50435F 
 10314 3b44 5F4C4F43 		.ascii	"_LOC))\000"
 10314      292900
 10315              	.LASF456:
 10316 3b4b 5F5F5359 		.ascii	"__SYS_CONFIG_H_ \000"
 10316      535F434F 
 10316      4E464947 
 10316      5F485F20 
 10316      00
 10317              	.LASF475:
 10318 3b5c 5F5F4920 		.ascii	"__I volatile const\000"
 10318      766F6C61 
 10318      74696C65 
 10318      20636F6E 
 10318      737400
 10319              	.LASF810:
 10320 3b6f 57574454 		.ascii	"WWDT_WDMOD_WDTOF ((uint32_t) (1 << 2))\000"
 10320      5F57444D 
 10320      4F445F57 
 10320      44544F46 
 10320      20282875 
 10321              	.LASF859:
 10322 3b96 4144435F 		.ascii	"ADC_CR_START_ADCTRIG1 ((5UL << 24))\000"
 10322      43525F53 
 10322      54415254 
 10322      5F414443 
 10322      54524947 
 10323              	.LASF158:
 10324 3bba 5F5F4C44 		.ascii	"__LDBL_DENORM_MIN__ 4.9406564584124654e-324L\000"
 10324      424C5F44 
 10324      454E4F52 
 10324      4D5F4D49 
 10324      4E5F5F20 
 10325              	.LASF576:
 10326 3be7 4C50435F 		.ascii	"LPC_GPIO_PORT2_BASE 0x50020000\000"
 10326      4750494F 
 10326      5F504F52 
 10326      54325F42 
ARM GAS  /var/folders/f9/8bk2lnw15zn4cbgn6wrnb4lm0000gn/T//ccyV4EJ6.s 			page 243


 10326      41534520 
 10327              	.LASF834:
 10328 3c06 5353505F 		.ascii	"SSP_CPHA_FIRST SSP_CR0_CPHA_FIRST\000"
 10328      43504841 
 10328      5F464952 
 10328      53542053 
 10328      53505F43 
 10329              	.LASF219:
 10330 3c28 5F5F554C 		.ascii	"__ULLFRACT_IBIT__ 0\000"
 10330      4C465241 
 10330      43545F49 
 10330      4249545F 
 10330      5F203000 
 10331              	.LASF1069:
 10332 3c3c 53595343 		.ascii	"SYSCTL_CLOCK_ROM\000"
 10332      544C5F43 
 10332      4C4F434B 
 10332      5F524F4D 
 10332      00
 10333              	.LASF760:
 10334 3c4d 55415254 		.ascii	"UART1_LSR_BITMASK (0x1FF)\000"
 10334      315F4C53 
 10334      525F4249 
 10334      544D4153 
 10334      4B202830 
 10335              	.LASF726:
 10336 3c67 55415254 		.ascii	"UART_FCR_TRG_LEV3 (3 << 6)\000"
 10336      5F464352 
 10336      5F545247 
 10336      5F4C4556 
 10336      33202833 
 10337              	.LASF900:
 10338 3c82 4932435F 		.ascii	"I2C_I2STAT_M_RX_SLAR_NACK ((0x48))\000"
 10338      49325354 
 10338      41545F4D 
 10338      5F52585F 
 10338      534C4152 
 10339              	.LASF593:
 10340 3ca5 4C50435F 		.ascii	"LPC_SSP1 ((LPC_SSP_T *) LPC_SSP1_BASE)\000"
 10340      53535031 
 10340      2028284C 
 10340      50435F53 
 10340      53505F54 
 10341              	.LASF899:
 10342 3ccc 4932435F 		.ascii	"I2C_I2STAT_M_RX_SLAR_ACK ((0x40))\000"
 10342      49325354 
 10342      41545F4D 
 10342      5F52585F 
 10342      534C4152 
 10343              	.LASF788:
 10344 3cee 55415254 		.ascii	"UART_HDEN_HDEN ((1 << 0))\000"
 10344      5F484445 
 10344      4E5F4844 
 10344      454E2028 
 10344      2831203C 
 10345              	.LASF470:
 10346 3d08 5F5F5354 		.ascii	"__STATIC_INLINE static inline\000"
ARM GAS  /var/folders/f9/8bk2lnw15zn4cbgn6wrnb4lm0000gn/T//ccyV4EJ6.s 			page 244


 10346      41544943 
 10346      5F494E4C 
 10346      494E4520 
 10346      73746174 
 10347              	.LASF566:
 10348 3d26 4C50435F 		.ascii	"LPC_PMU_BASE 0x40038000\000"
 10348      504D555F 
 10348      42415345 
 10348      20307834 
 10348      30303338 
 10349              	.LASF372:
 10350 3d3e 5F5F696E 		.ascii	"__int_fast64_t_defined 1\000"
 10350      745F6661 
 10350      73743634 
 10350      5F745F64 
 10350      6566696E 
 10351              	.LASF127:
 10352 3d57 5F5F464C 		.ascii	"__FLT_MAX__ 3.4028234663852886e+38F\000"
 10352      545F4D41 
 10352      585F5F20 
 10352      332E3430 
 10352      32383233 
 10353              	.LASF389:
 10354 3d7b 494E5433 		.ascii	"INT32_MAX __INT32_MAX__\000"
 10354      325F4D41 
 10354      58205F5F 
 10354      494E5433 
 10354      325F4D41 
 10355              	.LASF238:
 10356 3d93 5F5F5541 		.ascii	"__UACCUM_FBIT__ 16\000"
 10356      4343554D 
 10356      5F464249 
 10356      545F5F20 
 10356      313600
 10357              	.LASF202:
 10358 3da6 5F5F5546 		.ascii	"__UFRACT_EPSILON__ 0x1P-16UR\000"
 10358      52414354 
 10358      5F455053 
 10358      494C4F4E 
 10358      5F5F2030 
 10359              	.LASF72:
 10360 3dc3 5F5F5743 		.ascii	"__WCHAR_MIN__ 0U\000"
 10360      4841525F 
 10360      4D494E5F 
 10360      5F203055 
 10360      00
 10361              	.LASF89:
 10362 3dd4 5F5F5549 		.ascii	"__UINT32_MAX__ 4294967295UL\000"
 10362      4E543332 
 10362      5F4D4158 
 10362      5F5F2034 
 10362      32393439 
 10363              	.LASF274:
 10364 3df0 5F5F5551 		.ascii	"__UQQ_IBIT__ 0\000"
 10364      515F4942 
 10364      49545F5F 
 10364      203000
ARM GAS  /var/folders/f9/8bk2lnw15zn4cbgn6wrnb4lm0000gn/T//ccyV4EJ6.s 			page 245


 10365              	.LASF310:
 10366 3dff 5F5F4743 		.ascii	"__GCC_ATOMIC_LONG_LOCK_FREE 1\000"
 10366      435F4154 
 10366      4F4D4943 
 10366      5F4C4F4E 
 10366      475F4C4F 
 10367              	.LASF250:
 10368 3e1d 5F5F554C 		.ascii	"__ULACCUM_MIN__ 0.0ULK\000"
 10368      41434355 
 10368      4D5F4D49 
 10368      4E5F5F20 
 10368      302E3055 
 10369              	.LASF994:
 10370 3e34 5F5F7569 		.ascii	"__uint32_t\000"
 10370      6E743332 
 10370      5F7400
 10371              	.LASF155:
 10372 3e3f 5F5F4C44 		.ascii	"__LDBL_MAX__ 1.7976931348623157e+308L\000"
 10372      424C5F4D 
 10372      41585F5F 
 10372      20312E37 
 10372      39373639 
 10373              	.LASF1114:
 10374 3e65 73656E74 		.ascii	"sent\000"
 10374      00
 10375              	.LASF119:
 10376 3e6a 5F5F464C 		.ascii	"__FLT_RADIX__ 2\000"
 10376      545F5241 
 10376      4449585F 
 10376      5F203200 
 10377              	.LASF818:
 10378 3e7a 5353505F 		.ascii	"SSP_CR0_CPOL_LO ((uint32_t) (0))\000"
 10378      4352305F 
 10378      43504F4C 
 10378      5F4C4F20 
 10378      28287569 
 10379              	.LASF996:
 10380 3e9b 6C6F6E67 		.ascii	"long long int\000"
 10380      206C6F6E 
 10380      6720696E 
 10380      7400
 10381              	.LASF671:
 10382 3ea9 46554E43 		.ascii	"FUNC4 0x4\000"
 10382      34203078 
 10382      3400
 10383              	.LASF974:
 10384 3eb3 4F445F4E 		.ascii	"OD_NONE 0x00\000"
 10384      4F4E4520 
 10384      30783030 
 10384      00
 10385              	.LASF743:
 10386 3ec0 55415254 		.ascii	"UART_LCR_BITMASK (0xFF)\000"
 10386      5F4C4352 
 10386      5F424954 
 10386      4D41534B 
 10386      20283078 
 10387              	.LASF73:
ARM GAS  /var/folders/f9/8bk2lnw15zn4cbgn6wrnb4lm0000gn/T//ccyV4EJ6.s 			page 246


 10388 3ed8 5F5F5749 		.ascii	"__WINT_MAX__ 4294967295U\000"
 10388      4E545F4D 
 10388      41585F5F 
 10388      20343239 
 10388      34393637 
 10389              	.LASF932:
 10390 3ef1 4932435F 		.ascii	"I2C_SETUP_STATUS_DONE (1 << 10)\000"
 10390      53455455 
 10390      505F5354 
 10390      41545553 
 10390      5F444F4E 
 10391              	.LASF618:
 10392 3f11 53595343 		.ascii	"SYSCTL_SLPWAKE_SYSOSC_PD (1 << 5)\000"
 10392      544C5F53 
 10392      4C505741 
 10392      4B455F53 
 10392      59534F53 
 10393              	.LASF947:
 10394 3f33 43414E5F 		.ascii	"CAN_ERROR_WARN 0x00000002UL\000"
 10394      4552524F 
 10394      525F5741 
 10394      524E2030 
 10394      78303030 
 10395              	.LASF847:
 10396 3f4f 4144435F 		.ascii	"ADC_DR_DONE(n) (((n) >> 31))\000"
 10396      44525F44 
 10396      4F4E4528 
 10396      6E292028 
 10396      28286E29 
 10397              	.LASF848:
 10398 3f6c 4144435F 		.ascii	"ADC_DR_OVERRUN(n) ((((n) >> 30) & (1UL)))\000"
 10398      44525F4F 
 10398      56455252 
 10398      554E286E 
 10398      29202828 
 10399              	.LASF284:
 10400 3f96 5F5F4841 		.ascii	"__HA_IBIT__ 8\000"
 10400      5F494249 
 10400      545F5F20 
 10400      3800
 10401              	.LASF301:
 10402 3fa4 5F5F474E 		.ascii	"__GNUC_GNU_INLINE__ 1\000"
 10402      55435F47 
 10402      4E555F49 
 10402      4E4C494E 
 10402      455F5F20 
 10403              	.LASF553:
 10404 3fba 5F424954 		.ascii	"_BIT_SHIFT(IRQn) ( (((uint32_t)(IRQn) ) & 0x03) * 8"
 10404      5F534849 
 10404      46542849 
 10404      52516E29 
 10404      20282028 
 10405 3fed 202900   		.ascii	" )\000"
 10406              	.LASF412:
 10407 3ff0 494E544D 		.ascii	"INTMAX_MAX __INTMAX_MAX__\000"
 10407      41585F4D 
 10407      4158205F 
ARM GAS  /var/folders/f9/8bk2lnw15zn4cbgn6wrnb4lm0000gn/T//ccyV4EJ6.s 			page 247


 10407      5F494E54 
 10407      4D41585F 
 10408              	.LASF1161:
 10409 400a 43686970 		.ascii	"Chip_Clock_GetMainClockRate\000"
 10409      5F436C6F 
 10409      636B5F47 
 10409      65744D61 
 10409      696E436C 
 10410              	.LASF764:
 10411 4026 55415254 		.ascii	"UART_MSR_DELTA_DCD (1 << 3)\000"
 10411      5F4D5352 
 10411      5F44454C 
 10411      54415F44 
 10411      43442028 
 10412              	.LASF789:
 10413 4042 55415254 		.ascii	"UART_SCICTRL_SCIEN (1 << 0)\000"
 10413      5F534349 
 10413      4354524C 
 10413      5F534349 
 10413      454E2028 
 10414              	.LASF27:
 10415 405e 5F5F4259 		.ascii	"__BYTE_ORDER__ __ORDER_LITTLE_ENDIAN__\000"
 10415      54455F4F 
 10415      52444552 
 10415      5F5F205F 
 10415      5F4F5244 
 10416              	.LASF1015:
 10417 4085 53595352 		.ascii	"SYSRSTSTAT\000"
 10417      53545354 
 10417      415400
 10418              	.LASF351:
 10419 4090 5F5F5F69 		.ascii	"___int32_t_defined 1\000"
 10419      6E743332 
 10419      5F745F64 
 10419      6566696E 
 10419      65642031 
 10420              	.LASF812:
 10421 40a5 57574454 		.ascii	"WWDT_WDMOD_WDPROTECT ((uint32_t) (1 << 4))\000"
 10421      5F57444D 
 10421      4F445F57 
 10421      4450524F 
 10421      54454354 
 10422              	.LASF739:
 10423 40d0 55415254 		.ascii	"UART_LCR_PARITY_F_1 (2 << 4)\000"
 10423      5F4C4352 
 10423      5F504152 
 10423      4954595F 
 10423      465F3120 
 10424              	.LASF1115:
 10425 40ed 43686970 		.ascii	"Chip_UART_ReadLineStatus\000"
 10425      5F554152 
 10425      545F5265 
 10425      61644C69 
 10425      6E655374 
 10426              	.LASF42:
 10427 4106 5F5F494E 		.ascii	"__INT64_TYPE__ long long int\000"
 10427      5436345F 
ARM GAS  /var/folders/f9/8bk2lnw15zn4cbgn6wrnb4lm0000gn/T//ccyV4EJ6.s 			page 248


 10427      54595045 
 10427      5F5F206C 
 10427      6F6E6720 
 10428              	.LASF203:
 10429 4123 5F5F4C46 		.ascii	"__LFRACT_FBIT__ 31\000"
 10429      52414354 
 10429      5F464249 
 10429      545F5F20 
 10429      333100
 10430              	.LASF22:
 10431 4136 5F5F4348 		.ascii	"__CHAR_BIT__ 8\000"
 10431      41525F42 
 10431      49545F5F 
 10431      203800
 10432              	.LASF316:
 10433 4145 5F5F5349 		.ascii	"__SIZEOF_WCHAR_T__ 4\000"
 10433      5A454F46 
 10433      5F574348 
 10433      41525F54 
 10433      5F5F2034 
 10434              	.LASF567:
 10435 415a 4C50435F 		.ascii	"LPC_FLASH_BASE 0x4003C000\000"
 10435      464C4153 
 10435      485F4241 
 10435      53452030 
 10435      78343030 
 10436              	.LASF385:
 10437 4174 494E545F 		.ascii	"INT_LEAST16_MIN (-__INT_LEAST16_MAX__ - 1)\000"
 10437      4C454153 
 10437      5431365F 
 10437      4D494E20 
 10437      282D5F5F 
 10438              	.LASF549:
 10439 419f 5343425F 		.ascii	"SCB_BASE (SCS_BASE + 0x0D00UL)\000"
 10439      42415345 
 10439      20285343 
 10439      535F4241 
 10439      5345202B 
 10440              	.LASF911:
 10441 41be 4932435F 		.ascii	"I2C_I2STAT_S_RX_STA_STO_SLVREC_SLVTRX ((0xA0))\000"
 10441      49325354 
 10441      41545F53 
 10441      5F52585F 
 10441      5354415F 
 10442              	.LASF1128:
 10443 41ed 43686970 		.ascii	"Chip_UART_Init\000"
 10443      5F554152 
 10443      545F496E 
 10443      697400
 10444              	.LASF502:
 10445 41fc 5343425F 		.ascii	"SCB_ICSR_VECTPENDING_Pos 12\000"
 10445      49435352 
 10445      5F564543 
 10445      5450454E 
 10445      44494E47 
 10446              	.LASF856:
 10447 4218 4144435F 		.ascii	"ADC_CR_START_CTOUT15 ((2UL << 24))\000"
ARM GAS  /var/folders/f9/8bk2lnw15zn4cbgn6wrnb4lm0000gn/T//ccyV4EJ6.s 			page 249


 10447      43525F53 
 10447      54415254 
 10447      5F43544F 
 10447      55543135 
 10448              	.LASF201:
 10449 423b 5F5F5546 		.ascii	"__UFRACT_MAX__ 0XFFFFP-16UR\000"
 10449      52414354 
 10449      5F4D4158 
 10449      5F5F2030 
 10449      58464646 
 10450              	.LASF598:
 10451 4257 5F5F504D 		.ascii	"__PMU_11XX_H_ \000"
 10451      555F3131 
 10451      58585F48 
 10451      5F2000
 10452              	.LASF356:
 10453 4266 5F5F5F69 		.ascii	"___int_least64_t_defined 1\000"
 10453      6E745F6C 
 10453      65617374 
 10453      36345F74 
 10453      5F646566 
 10454              	.LASF922:
 10455 4281 4932435F 		.ascii	"I2C_I2MMCTRL_MATCH_ALL ((1 << 2))\000"
 10455      49324D4D 
 10455      4354524C 
 10455      5F4D4154 
 10455      43485F41 
 10456              	.LASF685:
 10457 42a3 54494D45 		.ascii	"TIMER_CAP_FALLING(n) (_BIT((((n) * 3) + 1)))\000"
 10457      525F4341 
 10457      505F4641 
 10457      4C4C494E 
 10457      47286E29 
 10458              	.LASF478:
 10459 42d0 5343425F 		.ascii	"SCB_CPUID_IMPLEMENTER_Pos 24\000"
 10459      43505549 
 10459      445F494D 
 10459      504C454D 
 10459      454E5445 
 10460              	.LASF984:
 10461 42ed 43414E5F 		.ascii	"CAN_SDOSEG_SEGMENT 0\000"
 10461      53444F53 
 10461      45475F53 
 10461      45474D45 
 10461      4E542030 
 10462              	.LASF779:
 10463 4302 55415254 		.ascii	"UART_RS485CTRL_SEL_DTR (1 << 3)\000"
 10463      5F525334 
 10463      38354354 
 10463      524C5F53 
 10463      454C5F44 
 10464              	.LASF358:
 10465 4322 5F5F5354 		.ascii	"__STDINT_EXP(x) __ ##x ##__\000"
 10465      44494E54 
 10465      5F455850 
 10465      28782920 
 10465      5F5F2023 
ARM GAS  /var/folders/f9/8bk2lnw15zn4cbgn6wrnb4lm0000gn/T//ccyV4EJ6.s 			page 250


 10466              	.LASF348:
 10467 433e 5F5F4558 		.ascii	"__EXP(x) __ ##x ##__\000"
 10467      50287829 
 10467      205F5F20 
 10467      23237820 
 10467      23235F5F 
 10468              	.LASF1122:
 10469 4353 43686970 		.ascii	"Chip_UART_DisableDivisorAccess\000"
 10469      5F554152 
 10469      545F4469 
 10469      7361626C 
 10469      65446976 
 10470              	.LASF411:
 10471 4372 55494E54 		.ascii	"UINT_FAST64_MAX __UINT_FAST64_MAX__\000"
 10471      5F464153 
 10471      5436345F 
 10471      4D415820 
 10471      5F5F5549 
 10472              	.LASF761:
 10473 4396 55415254 		.ascii	"UART_MSR_DELTA_CTS (1 << 0)\000"
 10473      5F4D5352 
 10473      5F44454C 
 10473      54415F43 
 10473      54532028 
 10474              	.LASF665:
 10475 43b2 4D445F46 		.ascii	"MD_FASTI2C (0x2 << 8)\000"
 10475      41535449 
 10475      32432028 
 10475      30783220 
 10475      3C3C2038 
 10476              	.LASF684:
 10477 43c8 54494D45 		.ascii	"TIMER_CAP_RISING(n) (_BIT(((n) * 3)))\000"
 10477      525F4341 
 10477      505F5249 
 10477      53494E47 
 10477      286E2920 
 10478              	.LASF954:
 10479 43ee 43414E5F 		.ascii	"CAN_ERROR_CRC 0x00000100UL\000"
 10479      4552524F 
 10479      525F4352 
 10479      43203078 
 10479      30303030 
 10480              	.LASF1089:
 10481 4409 636F756E 		.ascii	"count\000"
 10481      7400
 10482              	.LASF624:
 10483 440f 53595343 		.ascii	"SYSCTL_POWERDOWN_BOD_PD (1 << 3)\000"
 10483      544C5F50 
 10483      4F574552 
 10483      444F574E 
 10483      5F424F44 
 10484              	.LASF449:
 10485 4430 4E454C45 		.ascii	"NELEMENTS(array) (sizeof(array) / sizeof(array[0]))"
 10485      4D454E54 
 10485      53286172 
 10485      72617929 
 10485      20287369 
ARM GAS  /var/folders/f9/8bk2lnw15zn4cbgn6wrnb4lm0000gn/T//ccyV4EJ6.s 			page 251


 10486 4463 00       		.ascii	"\000"
 10487              	.LASF33:
 10488 4464 5F5F5749 		.ascii	"__WINT_TYPE__ unsigned int\000"
 10488      4E545F54 
 10488      5950455F 
 10488      5F20756E 
 10488      7369676E 
 10489              	.LASF737:
 10490 447f 55415254 		.ascii	"UART_LCR_PARITY_ODD (0 << 4)\000"
 10490      5F4C4352 
 10490      5F504152 
 10490      4954595F 
 10490      4F444420 
 10491              	.LASF279:
 10492 449c 5F5F5544 		.ascii	"__UDQ_FBIT__ 64\000"
 10492      515F4642 
 10492      49545F5F 
 10492      20363400 
 10493              	.LASF555:
 10494 44ac 5F49505F 		.ascii	"_IP_IDX(IRQn) ( ((uint32_t)(IRQn) >> 2) )\000"
 10494      49445828 
 10494      4952516E 
 10494      29202820 
 10494      28287569 
 10495              	.LASF370:
 10496 44d6 5F5F696E 		.ascii	"__int_fast16_t_defined 1\000"
 10496      745F6661 
 10496      73743136 
 10496      5F745F64 
 10496      6566696E 
 10497              	.LASF698:
 10498 44ef 55415254 		.ascii	"UART_IER_RLSINT (1 << 2)\000"
 10498      5F494552 
 10498      5F524C53 
 10498      494E5420 
 10498      2831203C 
 10499              	.LASF153:
 10500 4508 5F5F4C44 		.ascii	"__LDBL_MAX_10_EXP__ 308\000"
 10500      424C5F4D 
 10500      41585F31 
 10500      305F4558 
 10500      505F5F20 
 10501              	.LASF552:
 10502 4520 4E564943 		.ascii	"NVIC ((NVIC_Type *) NVIC_BASE )\000"
 10502      2028284E 
 10502      5649435F 
 10502      54797065 
 10502      202A2920 
 10503              	.LASF713:
 10504 4540 55415254 		.ascii	"UART_IIR_INTID_RDA (2 << 1)\000"
 10504      5F494952 
 10504      5F494E54 
 10504      49445F52 
 10504      44412028 
 10505              	.LASF985:
 10506 455c 43414E5F 		.ascii	"CAN_SDOSEG_OPEN 1\000"
 10506      53444F53 
ARM GAS  /var/folders/f9/8bk2lnw15zn4cbgn6wrnb4lm0000gn/T//ccyV4EJ6.s 			page 252


 10506      45475F4F 
 10506      50454E20 
 10506      3100
 10507              	.LASF160:
 10508 456e 5F5F4C44 		.ascii	"__LDBL_HAS_INFINITY__ 1\000"
 10508      424C5F48 
 10508      41535F49 
 10508      4E46494E 
 10508      4954595F 
 10509              	.LASF496:
 10510 4586 5343425F 		.ascii	"SCB_ICSR_PENDSTCLR_Pos 25\000"
 10510      49435352 
 10510      5F50454E 
 10510      44535443 
 10510      4C525F50 
 10511              	.LASF998:
 10512 45a0 756E7369 		.ascii	"unsigned int\000"
 10512      676E6564 
 10512      20696E74 
 10512      00
 10513              	.LASF196:
 10514 45ad 5F5F4652 		.ascii	"__FRACT_MAX__ 0X7FFFP-15R\000"
 10514      4143545F 
 10514      4D41585F 
 10514      5F203058 
 10514      37464646 
 10515              	.LASF1018:
 10516 45c7 53595350 		.ascii	"SYSPLLCLKUEN\000"
 10516      4C4C434C 
 10516      4B55454E 
 10516      00
 10517              	.LASF122:
 10518 45d4 5F5F464C 		.ascii	"__FLT_MIN_EXP__ (-125)\000"
 10518      545F4D49 
 10518      4E5F4558 
 10518      505F5F20 
 10518      282D3132 
 10519              	.LASF118:
 10520 45eb 5F5F4445 		.ascii	"__DEC_EVAL_METHOD__ 2\000"
 10520      435F4556 
 10520      414C5F4D 
 10520      4554484F 
 10520      445F5F20 
 10521              	.LASF429:
 10522 4601 55494E54 		.ascii	"UINT32_C(x) __UINT32_C(x)\000"
 10522      33325F43 
 10522      28782920 
 10522      5F5F5549 
 10522      4E543332 
 10523              	.LASF481:
 10524 461b 5343425F 		.ascii	"SCB_CPUID_VARIANT_Msk (0xFUL << SCB_CPUID_VARIANT_P"
 10524      43505549 
 10524      445F5641 
 10524      5249414E 
 10524      545F4D73 
 10525 464e 6F732900 		.ascii	"os)\000"
 10526              	.LASF621:
ARM GAS  /var/folders/f9/8bk2lnw15zn4cbgn6wrnb4lm0000gn/T//ccyV4EJ6.s 			page 253


 10527 4652 53595343 		.ascii	"SYSCTL_POWERDOWN_IRCOUT_PD (1 << 0)\000"
 10527      544C5F50 
 10527      4F574552 
 10527      444F574E 
 10527      5F495243 
 10528              	.LASF660:
 10529 4676 4D445F44 		.ascii	"MD_DIGMODE (0x1 << 7)\000"
 10529      49474D4F 
 10529      44452028 
 10529      30783120 
 10529      3C3C2037 
 10530              	.LASF229:
 10531 468c 5F5F5553 		.ascii	"__USACCUM_IBIT__ 8\000"
 10531      41434355 
 10531      4D5F4942 
 10531      49545F5F 
 10531      203800
 10532              	.LASF980:
 10533 469f 4F445F53 		.ascii	"OD_SEG_RW 0x60\000"
 10533      45475F52 
 10533      57203078 
 10533      363000
 10534              	.LASF400:
 10535 46ae 494E545F 		.ascii	"INT_FAST8_MIN (-__INT_FAST8_MAX__ - 1)\000"
 10535      46415354 
 10535      385F4D49 
 10535      4E20282D 
 10535      5F5F494E 
 10536              	.LASF5:
 10537 46d5 5F5F5645 		.ascii	"__VERSION__ \"4.8.4 20140725 (release) [ARM/embedde"
 10537      5253494F 
 10537      4E5F5F20 
 10537      22342E38 
 10537      2E342032 
 10538 4707 642D345F 		.ascii	"d-4_8-branch revision 213147]\"\000"
 10538      382D6272 
 10538      616E6368 
 10538      20726576 
 10538      6973696F 
 10539              	.LASF116:
 10540 4726 5F5F5549 		.ascii	"__UINTPTR_MAX__ 4294967295U\000"
 10540      4E545054 
 10540      525F4D41 
 10540      585F5F20 
 10540      34323934 
 10541              	.LASF663:
 10542 4742 4D445F53 		.ascii	"MD_SFI2C (0x0 << 8)\000"
 10542      46493243 
 10542      20283078 
 10542      30203C3C 
 10542      20382900 
 10543              	.LASF121:
 10544 4756 5F5F464C 		.ascii	"__FLT_DIG__ 6\000"
 10544      545F4449 
 10544      475F5F20 
 10544      3600
 10545              	.LASF35:
ARM GAS  /var/folders/f9/8bk2lnw15zn4cbgn6wrnb4lm0000gn/T//ccyV4EJ6.s 			page 254


 10546 4764 5F5F5549 		.ascii	"__UINTMAX_TYPE__ long long unsigned int\000"
 10546      4E544D41 
 10546      585F5459 
 10546      50455F5F 
 10546      206C6F6E 
 10547              	.LASF117:
 10548 478c 5F5F464C 		.ascii	"__FLT_EVAL_METHOD__ 0\000"
 10548      545F4556 
 10548      414C5F4D 
 10548      4554484F 
 10548      445F5F20 
 10549              	.LASF803:
 10550 47a2 55415254 		.ascii	"UART_SYNCCTRL_CSCEN (1 << 4)\000"
 10550      5F53594E 
 10550      43435452 
 10550      4C5F4353 
 10550      43454E20 
 10551              	.LASF750:
 10552 47bf 55415254 		.ascii	"UART_LSR_RDR (1 << 0)\000"
 10552      5F4C5352 
 10552      5F524452 
 10552      20283120 
 10552      3C3C2030 
 10553              	.LASF773:
 10554 47d5 55415254 		.ascii	"UART_ACR_ABEOINT_CLR (1 << 8)\000"
 10554      5F414352 
 10554      5F414245 
 10554      4F494E54 
 10554      5F434C52 
 10555              	.LASF115:
 10556 47f3 5F5F494E 		.ascii	"__INTPTR_MAX__ 2147483647\000"
 10556      54505452 
 10556      5F4D4158 
 10556      5F5F2032 
 10556      31343734 
 10557              	.LASF846:
 10558 480d 4144435F 		.ascii	"ADC_CR_BITACC(n) ((((n) & 0x7) << 17))\000"
 10558      43525F42 
 10558      49544143 
 10558      43286E29 
 10558      20282828 
 10559              	.LASF1146:
 10560 4834 75436C6B 		.ascii	"uClk\000"
 10560      00
 10561              	.LASF273:
 10562 4839 5F5F5551 		.ascii	"__UQQ_FBIT__ 8\000"
 10562      515F4642 
 10562      49545F5F 
 10562      203800
 10563              	.LASF868:
 10564 4848 5245545F 		.ascii	"RET_SLAVE_BUSY 0\000"
 10564      534C4156 
 10564      455F4255 
 10564      53592030 
 10564      00
 10565              	.LASF539:
 10566 4859 53797354 		.ascii	"SysTick_VAL_CURRENT_Msk (0xFFFFFFUL << SysTick_VAL_"
ARM GAS  /var/folders/f9/8bk2lnw15zn4cbgn6wrnb4lm0000gn/T//ccyV4EJ6.s 			page 255


 10566      69636B5F 
 10566      56414C5F 
 10566      43555252 
 10566      454E545F 
 10567 488c 43555252 		.ascii	"CURRENT_Pos)\000"
 10567      454E545F 
 10567      506F7329 
 10567      00
 10568              	.LASF170:
 10569 4899 5F5F4445 		.ascii	"__DEC64_MIN_EXP__ (-382)\000"
 10569      4336345F 
 10569      4D494E5F 
 10569      4558505F 
 10569      5F20282D 
 10570              	.LASF1024:
 10571 48b2 53595341 		.ascii	"SYSAHBCLKDIV\000"
 10571      4842434C 
 10571      4B444956 
 10571      00
 10572              	.LASF889:
 10573 48bf 4932435F 		.ascii	"I2C_I2STAT_M_TX_START ((0x08))\000"
 10573      49325354 
 10573      41545F4D 
 10573      5F54585F 
 10573      53544152 
 10574              	.LASF697:
 10575 48de 55415254 		.ascii	"UART_IER_THREINT (1 << 1)\000"
 10575      5F494552 
 10575      5F544852 
 10575      45494E54 
 10575      20283120 
 10576              	.LASF386:
 10577 48f8 494E545F 		.ascii	"INT_LEAST16_MAX __INT_LEAST16_MAX__\000"
 10577      4C454153 
 10577      5431365F 
 10577      4D415820 
 10577      5F5F494E 
 10578              	.LASF206:
 10579 491c 5F5F4C46 		.ascii	"__LFRACT_MAX__ 0X7FFFFFFFP-31LR\000"
 10579      52414354 
 10579      5F4D4158 
 10579      5F5F2030 
 10579      58374646 
 10580              	.LASF318:
 10581 493c 5F5F5349 		.ascii	"__SIZEOF_PTRDIFF_T__ 4\000"
 10581      5A454F46 
 10581      5F505452 
 10581      44494646 
 10581      5F545F5F 
 10582              	.LASF454:
 10583 4953 4D494E28 		.ascii	"MIN(a,b) (((a) < (b)) ? (a) : (b))\000"
 10583      612C6229 
 10583      20282828 
 10583      6129203C 
 10583      20286229 
 10584              	.LASF0:
 10585 4976 5F5F5354 		.ascii	"__STDC__ 1\000"
ARM GAS  /var/folders/f9/8bk2lnw15zn4cbgn6wrnb4lm0000gn/T//ccyV4EJ6.s 			page 256


 10585      44435F5F 
 10585      203100
 10586              	.LASF869:
 10587 4981 4932435F 		.ascii	"I2C_STA_STO_RECV 0x20\000"
 10587      5354415F 
 10587      53544F5F 
 10587      52454356 
 10587      20307832 
 10588              	.LASF1062:
 10589 4997 5044534C 		.ascii	"PDSLEEPCFG\000"
 10589      45455043 
 10589      464700
 10590              	.LASF353:
 10591 49a2 5F5F5F69 		.ascii	"___int_least8_t_defined 1\000"
 10591      6E745F6C 
 10591      65617374 
 10591      385F745F 
 10591      64656669 
 10592              	.LASF1147:
 10593 49bc 6476616C 		.ascii	"dval\000"
 10593      00
 10594              	.LASF28:
 10595 49c1 5F5F464C 		.ascii	"__FLOAT_WORD_ORDER__ __ORDER_LITTLE_ENDIAN__\000"
 10595      4F41545F 
 10595      574F5244 
 10595      5F4F5244 
 10595      45525F5F 
 10596              	.LASF105:
 10597 49ee 5F5F5549 		.ascii	"__UINT_LEAST64_MAX__ 18446744073709551615ULL\000"
 10597      4E545F4C 
 10597      45415354 
 10597      36345F4D 
 10597      41585F5F 
 10598              	.LASF43:
 10599 4a1b 5F5F5549 		.ascii	"__UINT8_TYPE__ unsigned char\000"
 10599      4E54385F 
 10599      54595045 
 10599      5F5F2075 
 10599      6E736967 
 10600              	.LASF880:
 10601 4a38 4932435F 		.ascii	"I2C_CON_AA (1UL << 2)\000"
 10601      434F4E5F 
 10601      41412028 
 10601      31554C20 
 10601      3C3C2032 
 10602              	.LASF814:
 10603 4a4e 5353505F 		.ascii	"SSP_CR0_DSS(n) ((uint32_t) ((n) & 0xF))\000"
 10603      4352305F 
 10603      44535328 
 10603      6E292028 
 10603      2875696E 
 10604              	.LASF369:
 10605 4a76 5F5F696E 		.ascii	"__int_fast8_t_defined 1\000"
 10605      745F6661 
 10605      7374385F 
 10605      745F6465 
 10605      66696E65 
ARM GAS  /var/folders/f9/8bk2lnw15zn4cbgn6wrnb4lm0000gn/T//ccyV4EJ6.s 			page 257


 10606              	.LASF396:
 10607 4a8e 55494E54 		.ascii	"UINT64_MAX __UINT64_MAX__\000"
 10607      36345F4D 
 10607      4158205F 
 10607      5F55494E 
 10607      5436345F 
 10608              	.LASF670:
 10609 4aa8 46554E43 		.ascii	"FUNC3 0x3\000"
 10609      33203078 
 10609      3300
 10610              	.LASF828:
 10611 4ab2 5353505F 		.ascii	"SSP_CR1_SO_DISABLE ((uint32_t) (1 << 3))\000"
 10611      4352315F 
 10611      534F5F44 
 10611      49534142 
 10611      4C452028 
 10612              	.LASF628:
 10613 4adb 53595343 		.ascii	"SYSCTL_POWERDOWN_SYSPLL_PD (1 << 7)\000"
 10613      544C5F50 
 10613      4F574552 
 10613      444F574E 
 10613      5F535953 
 10614              	.LASF1055:
 10615 4aff 53544152 		.ascii	"STARTAPRP0\000"
 10615      54415052 
 10615      503000
 10616              	.LASF176:
 10617 4b0a 5F5F4445 		.ascii	"__DEC128_MANT_DIG__ 34\000"
 10617      43313238 
 10617      5F4D414E 
 10617      545F4449 
 10617      475F5F20 
 10618              	.LASF81:
 10619 4b21 5F5F5349 		.ascii	"__SIG_ATOMIC_MAX__ 2147483647\000"
 10619      475F4154 
 10619      4F4D4943 
 10619      5F4D4158 
 10619      5F5F2032 
 10620              	.LASF884:
 10621 4b3f 4932435F 		.ascii	"I2C_CON_I2EN (1UL << 6)\000"
 10621      434F4E5F 
 10621      4932454E 
 10621      20283155 
 10621      4C203C3C 
 10622              	.LASF437:
 10623 4b57 74727565 		.ascii	"true 1\000"
 10623      203100
 10624              	.LASF636:
 10625 4b5e 494F434F 		.ascii	"IOCON_FUNC4 0x4\000"
 10625      4E5F4655 
 10625      4E433420 
 10625      30783400 
 10626              	.LASF293:
 10627 4b6e 5F5F5553 		.ascii	"__USA_FBIT__ 16\000"
 10627      415F4642 
 10627      49545F5F 
 10627      20313600 
ARM GAS  /var/folders/f9/8bk2lnw15zn4cbgn6wrnb4lm0000gn/T//ccyV4EJ6.s 			page 258


 10628              	.LASF680:
 10629 4b7e 54494D45 		.ascii	"TIMER_RESET ((uint32_t) (1 << 1))\000"
 10629      525F5245 
 10629      53455420 
 10629      28287569 
 10629      6E743332 
 10630              	.LASF736:
 10631 4ba0 55415254 		.ascii	"UART_LCR_PARITY_DIS (0 << 3)\000"
 10631      5F4C4352 
 10631      5F504152 
 10631      4954595F 
 10631      44495320 
 10632              	.LASF622:
 10633 4bbd 53595343 		.ascii	"SYSCTL_POWERDOWN_IRC_PD (1 << 1)\000"
 10633      544C5F50 
 10633      4F574552 
 10633      444F574E 
 10633      5F495243 
 10634              	.LASF781:
 10635 4bde 55415254 		.ascii	"UART_RS485CTRL_OINV_1 (1 << 5)\000"
 10635      5F525334 
 10635      38354354 
 10635      524C5F4F 
 10635      494E565F 
 10636              	.LASF304:
 10637 4bfd 5F5F4743 		.ascii	"__GCC_ATOMIC_CHAR_LOCK_FREE 1\000"
 10637      435F4154 
 10637      4F4D4943 
 10637      5F434841 
 10637      525F4C4F 
 10638              	.LASF1020:
 10639 4c1b 55534250 		.ascii	"USBPLLCLKUEN\000"
 10639      4C4C434C 
 10639      4B55454E 
 10639      00
 10640              	.LASF204:
 10641 4c28 5F5F4C46 		.ascii	"__LFRACT_IBIT__ 0\000"
 10641      52414354 
 10641      5F494249 
 10641      545F5F20 
 10641      3000
 10642              	.LASF207:
 10643 4c3a 5F5F4C46 		.ascii	"__LFRACT_EPSILON__ 0x1P-31LR\000"
 10643      52414354 
 10643      5F455053 
 10643      494C4F4E 
 10643      5F5F2030 
 10644              	.LASF417:
 10645 4c57 5349475F 		.ascii	"SIG_ATOMIC_MAX __STDINT_EXP(INT_MAX)\000"
 10645      41544F4D 
 10645      49435F4D 
 10645      4158205F 
 10645      5F535444 
 10646              	.LASF319:
 10647 4c7c 5F5F4152 		.ascii	"__ARM_SIZEOF_MINIMAL_ENUM 1\000"
 10647      4D5F5349 
 10647      5A454F46 
ARM GAS  /var/folders/f9/8bk2lnw15zn4cbgn6wrnb4lm0000gn/T//ccyV4EJ6.s 			page 259


 10647      5F4D494E 
 10647      494D414C 
 10648              	.LASF91:
 10649 4c98 5F5F494E 		.ascii	"__INT_LEAST8_MAX__ 127\000"
 10649      545F4C45 
 10649      41535438 
 10649      5F4D4158 
 10649      5F5F2031 
 10650              	.LASF527:
 10651 4caf 5343425F 		.ascii	"SCB_SHCSR_SVCALLPENDED_Msk (1UL << SCB_SHCSR_SVCALL"
 10651      53484353 
 10651      525F5356 
 10651      43414C4C 
 10651      50454E44 
 10652 4ce2 50454E44 		.ascii	"PENDED_Pos)\000"
 10652      45445F50 
 10652      6F732900 
 10653              	.LASF322:
 10654 4cee 5F5F6172 		.ascii	"__arm__ 1\000"
 10654      6D5F5F20 
 10654      3100
 10655              	.LASF641:
 10656 4cf8 494F434F 		.ascii	"IOCON_MODE_PULLDOWN (0x1 << 3)\000"
 10656      4E5F4D4F 
 10656      44455F50 
 10656      554C4C44 
 10656      4F574E20 
 10657              	.LASF977:
 10658 4d17 4F445F45 		.ascii	"OD_EXP_RW 0x30\000"
 10658      58505F52 
 10658      57203078 
 10658      333000
 10659              	.LASF568:
 10660 4d26 4C50435F 		.ascii	"LPC_SSP0_BASE 0x40040000\000"
 10660      53535030 
 10660      5F424153 
 10660      45203078 
 10660      34303034 
 10661              	.LASF691:
 10662 4d3f 55415254 		.ascii	"UART_RBR_MASKBIT (0xFF)\000"
 10662      5F524252 
 10662      5F4D4153 
 10662      4B424954 
 10662      20283078 
 10663              	.LASF913:
 10664 4d57 4932435F 		.ascii	"I2C_I2STAT_S_TX_ARB_LOST_M_SLA ((0xB0))\000"
 10664      49325354 
 10664      41545F53 
 10664      5F54585F 
 10664      4152425F 
 10665              	.LASF906:
 10666 4d7f 4932435F 		.ascii	"I2C_I2STAT_S_RX_ARB_LOST_M_GENCALL ((0x78))\000"
 10666      49325354 
 10666      41545F53 
 10666      5F52585F 
 10666      4152425F 
 10667              	.LASF458:
ARM GAS  /var/folders/f9/8bk2lnw15zn4cbgn6wrnb4lm0000gn/T//ccyV4EJ6.s 			page 260


 10668 4dab 5F5F434D 		.ascii	"__CMSIS_H_ \000"
 10668      5349535F 
 10668      485F2000 
 10669              	.LASF382:
 10670 4db7 494E5431 		.ascii	"INT16_MIN (-__INT16_MAX__ - 1)\000"
 10670      365F4D49 
 10670      4E20282D 
 10670      5F5F494E 
 10670      5431365F 
 10671              	.LASF1154:
 10672 4dd6 43686970 		.ascii	"Chip_UART_RXIntHandlerRB\000"
 10672      5F554152 
 10672      545F5258 
 10672      496E7448 
 10672      616E646C 
 10673              	.LASF886:
 10674 4def 4932435F 		.ascii	"I2C_STAT_CODE_ERROR ((0xFF))\000"
 10674      53544154 
 10674      5F434F44 
 10674      455F4552 
 10674      524F5220 
 10675              	.LASF420:
 10676 4e0c 57434841 		.ascii	"WCHAR_MAX __WCHAR_MAX__\000"
 10676      525F4D41 
 10676      58205F5F 
 10676      57434841 
 10676      525F4D41 
 10677              	.LASF162:
 10678 4e24 5F5F4445 		.ascii	"__DEC32_MANT_DIG__ 7\000"
 10678      4333325F 
 10678      4D414E54 
 10678      5F444947 
 10678      5F5F2037 
 10679              	.LASF409:
 10680 4e39 494E545F 		.ascii	"INT_FAST64_MIN (-__INT_FAST64_MAX__ - 1)\000"
 10680      46415354 
 10680      36345F4D 
 10680      494E2028 
 10680      2D5F5F49 
 10681              	.LASF344:
 10682 4e62 5F4D4143 		.ascii	"_MACHINE__DEFAULT_TYPES_H \000"
 10682      48494E45 
 10682      5F5F4445 
 10682      4641554C 
 10682      545F5459 
 10683              	.LASF23:
 10684 4e7d 5F5F4249 		.ascii	"__BIGGEST_ALIGNMENT__ 8\000"
 10684      47474553 
 10684      545F414C 
 10684      49474E4D 
 10684      454E545F 
 10685              	.LASF915:
 10686 4e95 4932435F 		.ascii	"I2C_I2STAT_S_TX_DAT_NACK ((0xC0))\000"
 10686      49325354 
 10686      41545F53 
 10686      5F54585F 
 10686      4441545F 
ARM GAS  /var/folders/f9/8bk2lnw15zn4cbgn6wrnb4lm0000gn/T//ccyV4EJ6.s 			page 261


 10687              	.LASF230:
 10688 4eb7 5F5F5553 		.ascii	"__USACCUM_MIN__ 0.0UHK\000"
 10688      41434355 
 10688      4D5F4D49 
 10688      4E5F5F20 
 10688      302E3055 
 10689              	.LASF516:
 10690 4ece 5343425F 		.ascii	"SCB_SCR_SEVONPEND_Pos 4\000"
 10690      5343525F 
 10690      5345564F 
 10690      4E50454E 
 10690      445F506F 
 10691              	.LASF644:
 10692 4ee6 494F434F 		.ascii	"IOCON_HYS_EN (0x1 << 5)\000"
 10692      4E5F4859 
 10692      535F454E 
 10692      20283078 
 10692      31203C3C 
 10693              	.LASF1093:
 10694 4efe 52494E47 		.ascii	"RINGBUFF_T\000"
 10694      42554646 
 10694      5F5400
 10695              	.LASF841:
 10696 4f09 5F5F4C50 		.ascii	"__LPC_ERROR_H__ \000"
 10696      435F4552 
 10696      524F525F 
 10696      485F5F20 
 10696      00
 10697              	.LASF495:
 10698 4f1a 5343425F 		.ascii	"SCB_ICSR_PENDSTSET_Msk (1UL << SCB_ICSR_PENDSTSET_P"
 10698      49435352 
 10698      5F50454E 
 10698      44535453 
 10698      45545F4D 
 10699 4f4d 6F732900 		.ascii	"os)\000"
 10700              	.LASF1023:
 10701 4f51 4D41494E 		.ascii	"MAINCLKUEN\000"
 10701      434C4B55 
 10701      454E00
 10702              	.LASF942:
 10703 4f5c 4932435F 		.ascii	"I2C_MONITOR_CFG_SCL_OUTPUT I2C_I2MMCTRL_ENA_SCL\000"
 10703      4D4F4E49 
 10703      544F525F 
 10703      4346475F 
 10703      53434C5F 
 10704              	.LASF824:
 10705 4f8c 5353505F 		.ascii	"SSP_CR1_LBM_EN ((uint32_t) (1 << 0))\000"
 10705      4352315F 
 10705      4C424D5F 
 10705      454E2028 
 10705      2875696E 
 10706              	.LASF498:
 10707 4fb1 5343425F 		.ascii	"SCB_ICSR_ISRPREEMPT_Pos 23\000"
 10707      49435352 
 10707      5F495352 
 10707      50524545 
 10707      4D50545F 
ARM GAS  /var/folders/f9/8bk2lnw15zn4cbgn6wrnb4lm0000gn/T//ccyV4EJ6.s 			page 262


 10708              	.LASF488:
 10709 4fcc 5343425F 		.ascii	"SCB_ICSR_NMIPENDSET_Pos 31\000"
 10709      49435352 
 10709      5F4E4D49 
 10709      50454E44 
 10709      5345545F 
 10710              	.LASF972:
 10711 4fe7 53444F5F 		.ascii	"SDO_ABORT_LOCAL 0x08000021UL\000"
 10711      41424F52 
 10711      545F4C4F 
 10711      43414C20 
 10711      30783038 
 10712              	.LASF688:
 10713 5004 5F5F5249 		.ascii	"__RING_BUFFER_H_ \000"
 10713      4E475F42 
 10713      55464645 
 10713      525F485F 
 10713      2000
 10714              	.LASF326:
 10715 5016 5F5F4152 		.ascii	"__ARM_ARCH_ISA_THUMB 1\000"
 10715      4D5F4152 
 10715      43485F49 
 10715      53415F54 
 10715      48554D42 
 10716              	.LASF1131:
 10717 502d 43686970 		.ascii	"Chip_UART_SendBlocking\000"
 10717      5F554152 
 10717      545F5365 
 10717      6E64426C 
 10717      6F636B69 
 10718              	.LASF464:
 10719 5044 5F5F434D 		.ascii	"__CM0_CMSIS_VERSION_MAIN (0x03)\000"
 10719      305F434D 
 10719      5349535F 
 10719      56455253 
 10719      494F4E5F 
 10720              	.LASF421:
 10721 5064 57434841 		.ascii	"WCHAR_MIN __WCHAR_MIN__\000"
 10721      525F4D49 
 10721      4E205F5F 
 10721      57434841 
 10721      525F4D49 
 10722              	.LASF107:
 10723 507c 5F5F494E 		.ascii	"__INT_FAST8_MAX__ 2147483647\000"
 10723      545F4641 
 10723      5354385F 
 10723      4D41585F 
 10723      5F203231 
 10724              	.LASF858:
 10725 5099 4144435F 		.ascii	"ADC_CR_START_ADCTRIG0 ((4UL << 24))\000"
 10725      43525F53 
 10725      54415254 
 10725      5F414443 
 10725      54524947 
 10726              	.LASF1011:
 10727 50bd 5359534F 		.ascii	"SYSOSCCTRL\000"
 10727      53434354 
ARM GAS  /var/folders/f9/8bk2lnw15zn4cbgn6wrnb4lm0000gn/T//ccyV4EJ6.s 			page 263


 10727      524C00
 10728              	.LASF381:
 10729 50c8 55494E54 		.ascii	"UINT_LEAST8_MAX __UINT_LEAST8_MAX__\000"
 10729      5F4C4541 
 10729      5354385F 
 10729      4D415820 
 10729      5F5F5549 
 10730              	.LASF729:
 10731 50ec 55415254 		.ascii	"UART_LCR_WLEN6 (1 << 0)\000"
 10731      5F4C4352 
 10731      5F574C45 
 10731      4E362028 
 10731      31203C3C 
 10732              	.LASF1126:
 10733 5104 52696E67 		.ascii	"RingBuffer_IsEmpty\000"
 10733      42756666 
 10733      65725F49 
 10733      73456D70 
 10733      747900
 10734              	.LASF199:
 10735 5117 5F5F5546 		.ascii	"__UFRACT_IBIT__ 0\000"
 10735      52414354 
 10735      5F494249 
 10735      545F5F20 
 10735      3000
 10736              	.LASF877:
 10737 5129 4932435F 		.ascii	"I2C_I2CONCLR_STOC ((1 << 4))\000"
 10737      4932434F 
 10737      4E434C52 
 10737      5F53544F 
 10737      43202828 
 10738              	.LASF546:
 10739 5146 5343535F 		.ascii	"SCS_BASE (0xE000E000UL)\000"
 10739      42415345 
 10739      20283078 
 10739      45303030 
 10739      45303030 
 10740              	.LASF92:
 10741 515e 5F5F494E 		.ascii	"__INT8_C(c) c\000"
 10741      54385F43 
 10741      28632920 
 10741      6300
 10742              	.LASF25:
 10743 516c 5F5F4F52 		.ascii	"__ORDER_BIG_ENDIAN__ 4321\000"
 10743      4445525F 
 10743      4249475F 
 10743      454E4449 
 10743      414E5F5F 
 10744              	.LASF861:
 10745 5186 4144435F 		.ascii	"ADC_CR_EDGE ((1UL << 27))\000"
 10745      43525F45 
 10745      44474520 
 10745      28283155 
 10745      4C203C3C 
 10746              	.LASF462:
 10747 51a0 5F5F5665 		.ascii	"__Vendor_SysTickConfig 0\000"
 10747      6E646F72 
ARM GAS  /var/folders/f9/8bk2lnw15zn4cbgn6wrnb4lm0000gn/T//ccyV4EJ6.s 			page 264


 10747      5F537973 
 10747      5469636B 
 10747      436F6E66 
 10748              	.LASF692:
 10749 51b9 55415254 		.ascii	"UART_LOAD_DLL(div) ((div) & 0xFF)\000"
 10749      5F4C4F41 
 10749      445F444C 
 10749      4C286469 
 10749      76292028 
 10750              	.LASF975:
 10751 51db 4F445F45 		.ascii	"OD_EXP_RO 0x10\000"
 10751      58505F52 
 10751      4F203078 
 10751      313000
 10752              	.LASF313:
 10753 51ea 5F5F4743 		.ascii	"__GCC_ATOMIC_POINTER_LOCK_FREE 1\000"
 10753      435F4154 
 10753      4F4D4943 
 10753      5F504F49 
 10753      4E544552 
 10754              	.LASF136:
 10755 520b 5F5F4442 		.ascii	"__DBL_MIN_EXP__ (-1021)\000"
 10755      4C5F4D49 
 10755      4E5F4558 
 10755      505F5F20 
 10755      282D3130 
 10756              	.LASF448:
 10757 5223 4E554C4C 		.ascii	"NULL ((void *) 0)\000"
 10757      20282876 
 10757      6F696420 
 10757      2A292030 
 10757      2900
 10758              	.LASF933:
 10759 5235 4932435F 		.ascii	"I2C_OK 0x00\000"
 10759      4F4B2030 
 10759      78303000 
 10760              	.LASF1135:
 10761 5241 64697668 		.ascii	"divh\000"
 10761      00
 10762              	.LASF169:
 10763 5246 5F5F4445 		.ascii	"__DEC64_MANT_DIG__ 16\000"
 10763      4336345F 
 10763      4D414E54 
 10763      5F444947 
 10763      5F5F2031 
 10764              	.LASF85:
 10765 525c 5F5F494E 		.ascii	"__INT32_MAX__ 2147483647L\000"
 10765      5433325F 
 10765      4D41585F 
 10765      5F203231 
 10765      34373438 
 10766              	.LASF1136:
 10767 5276 6469766C 		.ascii	"divl\000"
 10767      00
 10768              	.LASF1071:
 10769 527b 53595343 		.ascii	"SYSCTL_CLOCK_FLASHREG\000"
 10769      544C5F43 
ARM GAS  /var/folders/f9/8bk2lnw15zn4cbgn6wrnb4lm0000gn/T//ccyV4EJ6.s 			page 265


 10769      4C4F434B 
 10769      5F464C41 
 10769      53485245 
 10770              	.LASF766:
 10771 5291 55415254 		.ascii	"UART_MSR_DSR (1 << 5)\000"
 10771      5F4D5352 
 10771      5F445352 
 10771      20283120 
 10771      3C3C2035 
 10772              	.LASF172:
 10773 52a7 5F5F4445 		.ascii	"__DEC64_MIN__ 1E-383DD\000"
 10773      4336345F 
 10773      4D494E5F 
 10773      5F203145 
 10773      2D333833 
 10774              	.LASF591:
 10775 52be 4C50435F 		.ascii	"LPC_IOCON ((LPC_IOCON_T *) LPC_IOCON_BASE)\000"
 10775      494F434F 
 10775      4E202828 
 10775      4C50435F 
 10775      494F434F 
 10776              	.LASF902:
 10777 52e9 4932435F 		.ascii	"I2C_I2STAT_M_RX_DAT_NACK ((0x58))\000"
 10777      49325354 
 10777      41545F4D 
 10777      5F52585F 
 10777      4441545F 
 10778              	.LASF433:
 10779 530b 55494E54 		.ascii	"UINTMAX_C(x) __UINTMAX_C(x)\000"
 10779      4D41585F 
 10779      43287829 
 10779      205F5F55 
 10779      494E544D 
 10780              	.LASF1160:
 10781 5327 4F736352 		.ascii	"OscRateIn\000"
 10781      61746549 
 10781      6E00
 10782              	.LASF357:
 10783 5331 5F5F4558 		.ascii	"__EXP\000"
 10783      5000
 10784              	.LASF646:
 10785 5337 494F434F 		.ascii	"IOCON_ADMODE_EN (0x0 << 7)\000"
 10785      4E5F4144 
 10785      4D4F4445 
 10785      5F454E20 
 10785      28307830 
 10786              	.LASF352:
 10787 5352 5F5F5F69 		.ascii	"___int64_t_defined 1\000"
 10787      6E743634 
 10787      5F745F64 
 10787      6566696E 
 10787      65642031 
 10788              	.LASF159:
 10789 5367 5F5F4C44 		.ascii	"__LDBL_HAS_DENORM__ 1\000"
 10789      424C5F48 
 10789      41535F44 
 10789      454E4F52 
ARM GAS  /var/folders/f9/8bk2lnw15zn4cbgn6wrnb4lm0000gn/T//ccyV4EJ6.s 			page 266


 10789      4D5F5F20 
 10790              	.LASF538:
 10791 537d 53797354 		.ascii	"SysTick_VAL_CURRENT_Pos 0\000"
 10791      69636B5F 
 10791      56414C5F 
 10791      43555252 
 10791      454E545F 
 10792              	.LASF694:
 10793 5397 55415254 		.ascii	"UART_LOAD_DLM(div) (((div) >> 8) & 0xFF)\000"
 10793      5F4C4F41 
 10793      445F444C 
 10793      4D286469 
 10793      76292028 
 10794              	.LASF696:
 10795 53c0 55415254 		.ascii	"UART_IER_RBRINT (1 << 0)\000"
 10795      5F494552 
 10795      5F524252 
 10795      494E5420 
 10795      2831203C 
 10796              	.LASF1094:
 10797 53d9 53594E43 		.ascii	"SYNCCTRL\000"
 10797      4354524C 
 10797      00
 10798              	.LASF106:
 10799 53e2 5F5F5549 		.ascii	"__UINT64_C(c) c ## ULL\000"
 10799      4E543634 
 10799      5F432863 
 10799      29206320 
 10799      23232055 
 10800              	.LASF545:
 10801 53f9 53797354 		.ascii	"SysTick_CALIB_TENMS_Msk (0xFFFFFFUL << SysTick_VAL_"
 10801      69636B5F 
 10801      43414C49 
 10801      425F5445 
 10801      4E4D535F 
 10802 542c 43555252 		.ascii	"CURRENT_Pos)\000"
 10802      454E545F 
 10802      506F7329 
 10802      00
 10803              	.LASF408:
 10804 5439 55494E54 		.ascii	"UINT_FAST32_MAX __UINT_FAST32_MAX__\000"
 10804      5F464153 
 10804      5433325F 
 10804      4D415820 
 10804      5F5F5549 
 10805              	.LASF49:
 10806 545d 5F5F494E 		.ascii	"__INT_LEAST32_TYPE__ long int\000"
 10806      545F4C45 
 10806      41535433 
 10806      325F5459 
 10806      50455F5F 
 10807              	.LASF1081:
 10808 547b 53595343 		.ascii	"SYSCTL_CLOCK_ADC\000"
 10808      544C5F43 
 10808      4C4F434B 
 10808      5F414443 
 10808      00
ARM GAS  /var/folders/f9/8bk2lnw15zn4cbgn6wrnb4lm0000gn/T//ccyV4EJ6.s 			page 267


 10809              	.LASF662:
 10810 548c 4D445F45 		.ascii	"MD_ENFIL (0x1 << 8)\000"
 10810      4E46494C 
 10810      20283078 
 10810      31203C3C 
 10810      20382900 
 10811              	.LASF967:
 10812 54a0 53444F5F 		.ascii	"SDO_ABORT_ACCINCOMP 0x06040047UL\000"
 10812      41424F52 
 10812      545F4143 
 10812      43494E43 
 10812      4F4D5020 
 10813              	.LASF1100:
 10814 54c1 52533438 		.ascii	"RS485CTRL\000"
 10814      35435452 
 10814      4C00
 10815              	.LASF194:
 10816 54cb 5F5F4652 		.ascii	"__FRACT_IBIT__ 0\000"
 10816      4143545F 
 10816      49424954 
 10816      5F5F2030 
 10816      00
 10817              	.LASF963:
 10818 54dc 53444F5F 		.ascii	"SDO_ABORT_WRITEONLY 0x06010001UL\000"
 10818      41424F52 
 10818      545F5752 
 10818      4954454F 
 10818      4E4C5920 
 10819              	.LASF809:
 10820 54fd 57574454 		.ascii	"WWDT_WDMOD_WDRESET ((uint32_t) (1 << 1))\000"
 10820      5F57444D 
 10820      4F445F57 
 10820      44524553 
 10820      45542028 
 10821              	.LASF24:
 10822 5526 5F5F4F52 		.ascii	"__ORDER_LITTLE_ENDIAN__ 1234\000"
 10822      4445525F 
 10822      4C495454 
 10822      4C455F45 
 10822      4E444941 
 10823              	.LASF927:
 10824 5543 4932435F 		.ascii	"I2C_I2MASK_MASK(n) ((n & 0xFE))\000"
 10824      49324D41 
 10824      534B5F4D 
 10824      41534B28 
 10824      6E292028 
 10825              	.LASF997:
 10826 5563 6C6F6E67 		.ascii	"long long unsigned int\000"
 10826      206C6F6E 
 10826      6720756E 
 10826      7369676E 
 10826      65642069 
 10827              	.LASF249:
 10828 557a 5F5F554C 		.ascii	"__ULACCUM_IBIT__ 32\000"
 10828      41434355 
 10828      4D5F4942 
 10828      49545F5F 
ARM GAS  /var/folders/f9/8bk2lnw15zn4cbgn6wrnb4lm0000gn/T//ccyV4EJ6.s 			page 268


 10828      20333200 
 10829              	.LASF163:
 10830 558e 5F5F4445 		.ascii	"__DEC32_MIN_EXP__ (-94)\000"
 10830      4333325F 
 10830      4D494E5F 
 10830      4558505F 
 10830      5F20282D 
 10831              	.LASF1082:
 10832 55a6 53595343 		.ascii	"SYSCTL_CLOCK_RESERVED14\000"
 10832      544C5F43 
 10832      4C4F434B 
 10832      5F524553 
 10832      45525645 
 10833              	.LASF31:
 10834 55be 5F5F5054 		.ascii	"__PTRDIFF_TYPE__ int\000"
 10834      52444946 
 10834      465F5459 
 10834      50455F5F 
 10834      20696E74 
 10835              	.LASF324:
 10836 55d3 5F5F4150 		.ascii	"__APCS_32__ 1\000"
 10836      43535F33 
 10836      325F5F20 
 10836      3100
 10837              	.LASF1105:
 10838 55e1 43686970 		.ascii	"Chip_Clock_EnablePeriphClock\000"
 10838      5F436C6F 
 10838      636B5F45 
 10838      6E61626C 
 10838      65506572 
 10839              	.LASF918:
 10840 55fe 4932435F 		.ascii	"I2C_I2DAT_BITMASK ((0xFF))\000"
 10840      49324441 
 10840      545F4249 
 10840      544D4153 
 10840      4B202828 
 10841              	.LASF699:
 10842 5619 55415254 		.ascii	"UART_IER_MSINT (1 << 3)\000"
 10842      5F494552 
 10842      5F4D5349 
 10842      4E542028 
 10842      31203C3C 
 10843              	.LASF224:
 10844 5631 5F5F5341 		.ascii	"__SACCUM_IBIT__ 8\000"
 10844      4343554D 
 10844      5F494249 
 10844      545F5F20 
 10844      3800
 10845              	.LASF269:
 10846 5643 5F5F4451 		.ascii	"__DQ_FBIT__ 63\000"
 10846      5F464249 
 10846      545F5F20 
 10846      363300
 10847              	.LASF1080:
 10848 5652 53595343 		.ascii	"SYSCTL_CLOCK_UART0\000"
 10848      544C5F43 
 10848      4C4F434B 
ARM GAS  /var/folders/f9/8bk2lnw15zn4cbgn6wrnb4lm0000gn/T//ccyV4EJ6.s 			page 269


 10848      5F554152 
 10848      543000
 10849              	.LASF1073:
 10850 5665 53595343 		.ascii	"SYSCTL_CLOCK_I2C\000"
 10850      544C5F43 
 10850      4C4F434B 
 10850      5F493243 
 10850      00
 10851              	.LASF61:
 10852 5676 5F5F5549 		.ascii	"__UINT_FAST32_TYPE__ unsigned int\000"
 10852      4E545F46 
 10852      41535433 
 10852      325F5459 
 10852      50455F5F 
 10853              	.LASF56:
 10854 5698 5F5F494E 		.ascii	"__INT_FAST16_TYPE__ int\000"
 10854      545F4641 
 10854      53543136 
 10854      5F545950 
 10854      455F5F20 
 10855              	.LASF617:
 10856 56b0 53595343 		.ascii	"SYSCTL_SLPWAKE_ADC_PD (1 << 4)\000"
 10856      544C5F53 
 10856      4C505741 
 10856      4B455F41 
 10856      44435F50 
 10857              	.LASF225:
 10858 56cf 5F5F5341 		.ascii	"__SACCUM_MIN__ (-0X1P7HK-0X1P7HK)\000"
 10858      4343554D 
 10858      5F4D494E 
 10858      5F5F2028 
 10858      2D305831 
 10859              	.LASF211:
 10860 56f1 5F5F554C 		.ascii	"__ULFRACT_MAX__ 0XFFFFFFFFP-32ULR\000"
 10860      46524143 
 10860      545F4D41 
 10860      585F5F20 
 10860      30584646 
 10861              	.LASF52:
 10862 5713 5F5F5549 		.ascii	"__UINT_LEAST16_TYPE__ short unsigned int\000"
 10862      4E545F4C 
 10862      45415354 
 10862      31365F54 
 10862      5950455F 
 10863              	.LASF862:
 10864 573c 4144435F 		.ascii	"ADC_SAMPLE_RATE_CONFIG_MASK (ADC_CR_CLKDIV(0xFF) | "
 10864      53414D50 
 10864      4C455F52 
 10864      4154455F 
 10864      434F4E46 
 10865 576f 4144435F 		.ascii	"ADC_CR_BITACC(0x07))\000"
 10865      43525F42 
 10865      49544143 
 10865      43283078 
 10865      30372929 
 10866              	.LASF1045:
 10867 5784 52455345 		.ascii	"RESERVED10\000"
ARM GAS  /var/folders/f9/8bk2lnw15zn4cbgn6wrnb4lm0000gn/T//ccyV4EJ6.s 			page 270


 10867      52564544 
 10867      313000
 10868              	.LASF1048:
 10869 578f 52455345 		.ascii	"RESERVED11\000"
 10869      52564544 
 10869      313100
 10870              	.LASF1054:
 10871 579a 52455345 		.ascii	"RESERVED12\000"
 10871      52564544 
 10871      313200
 10872              	.LASF1059:
 10873 57a5 52455345 		.ascii	"RESERVED13\000"
 10873      52564544 
 10873      313300
 10874              	.LASF1061:
 10875 57b0 52455345 		.ascii	"RESERVED14\000"
 10875      52564544 
 10875      313400
 10876              	.LASF1065:
 10877 57bb 52455345 		.ascii	"RESERVED15\000"
 10877      52564544 
 10877      313500
 10878              	.LASF843:
 10879 57c6 5F5F4144 		.ascii	"__ADC_11XX_H_ \000"
 10879      435F3131 
 10879      58585F48 
 10879      5F2000
 10880              	.LASF101:
 10881 57d5 5F5F5549 		.ascii	"__UINT_LEAST16_MAX__ 65535\000"
 10881      4E545F4C 
 10881      45415354 
 10881      31365F4D 
 10881      41585F5F 
 10882              	.LASF281:
 10883 57f0 5F5F5554 		.ascii	"__UTQ_FBIT__ 128\000"
 10883      515F4642 
 10883      49545F5F 
 10883      20313238 
 10883      00
 10884              	.LASF683:
 10885 5801 54494D45 		.ascii	"TIMER_STOP_ON_MATCH(n) (_BIT((((n) * 3) + 2)))\000"
 10885      525F5354 
 10885      4F505F4F 
 10885      4E5F4D41 
 10885      54434828 
 10886              	.LASF937:
 10887 5830 4932435F 		.ascii	"I2C_SEND_END 0x08\000"
 10887      53454E44 
 10887      5F454E44 
 10887      20307830 
 10887      3800
 10888              	.LASF930:
 10889 5842 4932435F 		.ascii	"I2C_SETUP_STATUS_ARBF (1 << 8)\000"
 10889      53455455 
 10889      505F5354 
 10889      41545553 
 10889      5F415242 
ARM GAS  /var/folders/f9/8bk2lnw15zn4cbgn6wrnb4lm0000gn/T//ccyV4EJ6.s 			page 271


 10890              	.LASF257:
 10891 5861 5F5F4C4C 		.ascii	"__LLACCUM_EPSILON__ 0x1P-31LLK\000"
 10891      41434355 
 10891      4D5F4550 
 10891      53494C4F 
 10891      4E5F5F20 
 10892              	.LASF13:
 10893 5880 5F5F4649 		.ascii	"__FINITE_MATH_ONLY__ 0\000"
 10893      4E495445 
 10893      5F4D4154 
 10893      485F4F4E 
 10893      4C595F5F 
 10894              	.LASF703:
 10895 5897 55415254 		.ascii	"UART_IER_BITMASK (0x307)\000"
 10895      5F494552 
 10895      5F424954 
 10895      4D41534B 
 10895      20283078 
 10896              	.LASF359:
 10897 58b0 5F5F6861 		.ascii	"__have_longlong64 1\000"
 10897      76655F6C 
 10897      6F6E676C 
 10897      6F6E6736 
 10897      34203100 
 10898              	.LASF1113:
 10899 58c4 6E756D42 		.ascii	"numBytes\000"
 10899      79746573 
 10899      00
 10900              	.LASF1026:
 10901 58cd 53595341 		.ascii	"SYSAHBCLKCTRL\000"
 10901      4842434C 
 10901      4B435452 
 10901      4C00
 10902              	.LASF463:
 10903 58db 5F5F434F 		.ascii	"__CORE_CM0_H_GENERIC \000"
 10903      52455F43 
 10903      4D305F48 
 10903      5F47454E 
 10903      45524943 
 10904              	.LASF418:
 10905 58f1 50545244 		.ascii	"PTRDIFF_MAX __PTRDIFF_MAX__\000"
 10905      4946465F 
 10905      4D415820 
 10905      5F5F5054 
 10905      52444946 
 10906              	.LASF589:
 10907 590d 4C50435F 		.ascii	"LPC_FMC ((LPC_FMC_T *) LPC_FLASH_BASE)\000"
 10907      464D4320 
 10907      28284C50 
 10907      435F464D 
 10907      435F5420 
 10908              	.LASF1013:
 10909 5934 49524343 		.ascii	"IRCCTRL\000"
 10909      54524C00 
 10910              	.LASF799:
 10911 593c 55415254 		.ascii	"UART_SYNCCTRL_SYNC (1 << 0)\000"
 10911      5F53594E 
ARM GAS  /var/folders/f9/8bk2lnw15zn4cbgn6wrnb4lm0000gn/T//ccyV4EJ6.s 			page 272


 10911      43435452 
 10911      4C5F5359 
 10911      4E432028 
 10912              	.LASF323:
 10913 5958 5F5F4152 		.ascii	"__ARM_ARCH 6\000"
 10913      4D5F4152 
 10913      43482036 
 10913      00
 10914              	.LASF802:
 10915 5965 55415254 		.ascii	"UART_SYNCCTRL_TSBYPASS (1 << 3)\000"
 10915      5F53594E 
 10915      43435452 
 10915      4C5F5453 
 10915      42595041 
 10916              	.LASF934:
 10917 5985 4932435F 		.ascii	"I2C_BYTE_SENT 0x01\000"
 10917      42595445 
 10917      5F53454E 
 10917      54203078 
 10917      303100
 10918              	.LASF251:
 10919 5998 5F5F554C 		.ascii	"__ULACCUM_MAX__ 0XFFFFFFFFFFFFFFFFP-32ULK\000"
 10919      41434355 
 10919      4D5F4D41 
 10919      585F5F20 
 10919      30584646 
 10920              	.LASF571:
 10921 59c2 4C50435F 		.ascii	"LPC_USB0_BASE 0x40080000\000"
 10921      55534230 
 10921      5F424153 
 10921      45203078 
 10921      34303038 
 10922              	.LASF1139:
 10923 59db 43686970 		.ascii	"Chip_UART_SendRB\000"
 10923      5F554152 
 10923      545F5365 
 10923      6E645242 
 10923      00
 10924              	.LASF210:
 10925 59ec 5F5F554C 		.ascii	"__ULFRACT_MIN__ 0.0ULR\000"
 10925      46524143 
 10925      545F4D49 
 10925      4E5F5F20 
 10925      302E3055 
 10926              	.LASF1063:
 10927 5a03 50445741 		.ascii	"PDWAKECFG\000"
 10927      4B454346 
 10927      4700
 10928              	.LASF270:
 10929 5a0d 5F5F4451 		.ascii	"__DQ_IBIT__ 0\000"
 10929      5F494249 
 10929      545F5F20 
 10929      3000
 10930              	.LASF1053:
 10931 5a1b 55534243 		.ascii	"USBCLKST\000"
 10931      4C4B5354 
 10931      00
ARM GAS  /var/folders/f9/8bk2lnw15zn4cbgn6wrnb4lm0000gn/T//ccyV4EJ6.s 			page 273


 10932              	.LASF1005:
 10933 5a24 50524553 		.ascii	"PRESETCTRL\000"
 10933      45544354 
 10933      524C00
 10934              	.LASF620:
 10935 5a2f 53595343 		.ascii	"SYSCTL_SLPWAKE_SYSPLL_PD (1 << 7)\000"
 10935      544C5F53 
 10935      4C505741 
 10935      4B455F53 
 10935      5953504C 
 10936              	.LASF480:
 10937 5a51 5343425F 		.ascii	"SCB_CPUID_VARIANT_Pos 20\000"
 10937      43505549 
 10937      445F5641 
 10937      5249414E 
 10937      545F506F 
 10938              	.LASF929:
 10939 5a6a 4932435F 		.ascii	"I2C_I2SCLL_BITMASK ((0xFFFF))\000"
 10939      49325343 
 10939      4C4C5F42 
 10939      49544D41 
 10939      534B2028 
 10940              	.LASF612:
 10941 5a88 53595343 		.ascii	"SYSCTL_DEEPSLP_WDTOSC_PD (1 << 6)\000"
 10941      544C5F44 
 10941      45455053 
 10941      4C505F57 
 10941      44544F53 
 10942              	.LASF712:
 10943 5aaa 55415254 		.ascii	"UART_IIR_INTID_RLS (3 << 1)\000"
 10943      5F494952 
 10943      5F494E54 
 10943      49445F52 
 10943      4C532028 
 10944              	.LASF97:
 10945 5ac6 5F5F494E 		.ascii	"__INT_LEAST64_MAX__ 9223372036854775807LL\000"
 10945      545F4C45 
 10945      41535436 
 10945      345F4D41 
 10945      585F5F20 
 10946              	.LASF387:
 10947 5af0 55494E54 		.ascii	"UINT_LEAST16_MAX __UINT_LEAST16_MAX__\000"
 10947      5F4C4541 
 10947      53543136 
 10947      5F4D4158 
 10947      205F5F55 
 10948              	.LASF987:
 10949 5b16 4C50435F 		.ascii	"LPC_CCAN_API ((CCAN_API_T *) (LPC_ROM_API->candApiB"
 10949      4343414E 
 10949      5F415049 
 10949      20282843 
 10949      43414E5F 
 10950 5b49 61736529 		.ascii	"ase))\000"
 10950      2900
 10951              	.LASF554:
 10952 5b4f 5F534850 		.ascii	"_SHP_IDX(IRQn) ( ((((uint32_t)(IRQn) & 0x0F)-8) >> "
 10952      5F494458 
ARM GAS  /var/folders/f9/8bk2lnw15zn4cbgn6wrnb4lm0000gn/T//ccyV4EJ6.s 			page 274


 10952      28495251 
 10952      6E292028 
 10952      20282828 
 10953 5b82 32292029 		.ascii	"2) )\000"
 10953      00
 10954              	.LASF581:
 10955 5b87 4C50435F 		.ascii	"LPC_WWDT ((LPC_WWDT_T *) LPC_WWDT_BASE)\000"
 10955      57574454 
 10955      2028284C 
 10955      50435F57 
 10955      5744545F 
 10956              	.LASF533:
 10957 5baf 53797354 		.ascii	"SysTick_CTRL_TICKINT_Msk (1UL << SysTick_CTRL_TICKI"
 10957      69636B5F 
 10957      4354524C 
 10957      5F544943 
 10957      4B494E54 
 10958 5be2 4E545F50 		.ascii	"NT_Pos)\000"
 10958      6F732900 
 10959              	.LASF767:
 10960 5bea 55415254 		.ascii	"UART_MSR_RI (1 << 6)\000"
 10960      5F4D5352 
 10960      5F524920 
 10960      2831203C 
 10960      3C203629 
 10961              	.LASF331:
 10962 5bff 5F5F4152 		.ascii	"__ARM_FP 12\000"
 10962      4D5F4650 
 10962      20313200 
 10963              	.LASF76:
 10964 5c0b 5F5F5349 		.ascii	"__SIZE_MAX__ 4294967295U\000"
 10964      5A455F4D 
 10964      41585F5F 
 10964      20343239 
 10964      34393637 
 10965              	.LASF550:
 10966 5c24 53434220 		.ascii	"SCB ((SCB_Type *) SCB_BASE )\000"
 10966      28285343 
 10966      425F5479 
 10966      7065202A 
 10966      29205343 
 10967              	.LASF282:
 10968 5c41 5F5F5554 		.ascii	"__UTQ_IBIT__ 0\000"
 10968      515F4942 
 10968      49545F5F 
 10968      203000
 10969              	.LASF407:
 10970 5c50 494E545F 		.ascii	"INT_FAST32_MAX __INT_FAST32_MAX__\000"
 10970      46415354 
 10970      33325F4D 
 10970      4158205F 
 10970      5F494E54 
 10971              	.LASF285:
 10972 5c72 5F5F5341 		.ascii	"__SA_FBIT__ 15\000"
 10972      5F464249 
 10972      545F5F20 
 10972      313500
ARM GAS  /var/folders/f9/8bk2lnw15zn4cbgn6wrnb4lm0000gn/T//ccyV4EJ6.s 			page 275


 10973              	.LASF217:
 10974 5c81 5F5F4C4C 		.ascii	"__LLFRACT_EPSILON__ 0x1P-63LLR\000"
 10974      46524143 
 10974      545F4550 
 10974      53494C4F 
 10974      4E5F5F20 
 10975              	.LASF795:
 10976 5ca0 55415254 		.ascii	"UART_FDR_MULVAL(n) ((n << 4) & 0xF0)\000"
 10976      5F464452 
 10976      5F4D554C 
 10976      56414C28 
 10976      6E292028 
 10977              	.LASF669:
 10978 5cc5 46554E43 		.ascii	"FUNC2 0x2\000"
 10978      32203078 
 10978      3200
 10979              	.LASF1036:
 10980 5ccf 57445443 		.ascii	"WDTCLKSEL\000"
 10980      4C4B5345 
 10980      4C00
 10981              	.LASF574:
 10982 5cd9 4C50435F 		.ascii	"LPC_GPIO_PORT0_BASE 0x50000000\000"
 10982      4750494F 
 10982      5F504F52 
 10982      54305F42 
 10982      41534520 
 10983              	.LASF772:
 10984 5cf8 55415254 		.ascii	"UART_ACR_AUTO_RESTART (1 << 2)\000"
 10984      5F414352 
 10984      5F415554 
 10984      4F5F5245 
 10984      53544152 
 10985              	.LASF338:
 10986 5d17 5F5F454C 		.ascii	"__ELF__ 1\000"
 10986      465F5F20 
 10986      3100
 10987              	.LASF388:
 10988 5d21 494E5433 		.ascii	"INT32_MIN (-__INT32_MAX__ - 1)\000"
 10988      325F4D49 
 10988      4E20282D 
 10988      5F5F494E 
 10988      5433325F 
 10989              	.LASF328:
 10990 5d40 5F5F5448 		.ascii	"__THUMBEL__ 1\000"
 10990      554D4245 
 10990      4C5F5F20 
 10990      3100
 10991              	.LASF635:
 10992 5d4e 494F434F 		.ascii	"IOCON_FUNC3 0x3\000"
 10992      4E5F4655 
 10992      4E433320 
 10992      30783300 
 10993              	.LASF599:
 10994 5d5e 504D555F 		.ascii	"PMU_PCON_PM_SLEEP (0x0)\000"
 10994      50434F4E 
 10994      5F504D5F 
 10994      534C4545 
ARM GAS  /var/folders/f9/8bk2lnw15zn4cbgn6wrnb4lm0000gn/T//ccyV4EJ6.s 			page 276


 10994      50202830 
 10995              	.LASF1099:
 10996 5d76 53434943 		.ascii	"SCICTRL\000"
 10996      54524C00 
 10997              	.LASF1123:
 10998 5d7e 43686970 		.ascii	"Chip_UART_IntDisable\000"
 10998      5F554152 
 10998      545F496E 
 10998      74446973 
 10998      61626C65 
 10999              	.LASF327:
 11000 5d93 5F5F4152 		.ascii	"__ARMEL__ 1\000"
 11000      4D454C5F 
 11000      5F203100 
 11001              	.LASF853:
 11002 5d9f 4144435F 		.ascii	"ADC_CR_START_MASK ((7UL << 24))\000"
 11002      43525F53 
 11002      54415254 
 11002      5F4D4153 
 11002      4B202828 
 11003              	.LASF559:
 11004 5dbf 4C50435F 		.ascii	"LPC_TIMER16_0_BASE 0x4000C000\000"
 11004      54494D45 
 11004      5231365F 
 11004      305F4241 
 11004      53452030 
 11005              	.LASF1152:
 11006 5ddd 52696E67 		.ascii	"RingBuffer_Pop\000"
 11006      42756666 
 11006      65725F50 
 11006      6F7000
 11007              	.LASF431:
 11008 5dec 55494E54 		.ascii	"UINT64_C(x) __UINT64_C(x)\000"
 11008      36345F43 
 11008      28782920 
 11008      5F5F5549 
 11008      4E543634 
 11009              	.LASF253:
 11010 5e06 5F5F4C4C 		.ascii	"__LLACCUM_FBIT__ 31\000"
 11010      41434355 
 11010      4D5F4642 
 11010      49545F5F 
 11010      20333100 
 11011              	.LASF79:
 11012 5e1a 5F5F5549 		.ascii	"__UINTMAX_MAX__ 18446744073709551615ULL\000"
 11012      4E544D41 
 11012      585F4D41 
 11012      585F5F20 
 11012      31383434 
 11013              	.LASF125:
 11014 5e42 5F5F464C 		.ascii	"__FLT_MAX_10_EXP__ 38\000"
 11014      545F4D41 
 11014      585F3130 
 11014      5F455850 
 11014      5F5F2033 
 11015              	.LASF278:
 11016 5e58 5F5F5553 		.ascii	"__USQ_IBIT__ 0\000"
ARM GAS  /var/folders/f9/8bk2lnw15zn4cbgn6wrnb4lm0000gn/T//ccyV4EJ6.s 			page 277


 11016      515F4942 
 11016      49545F5F 
 11016      203000
 11017              	.LASF53:
 11018 5e67 5F5F5549 		.ascii	"__UINT_LEAST32_TYPE__ long unsigned int\000"
 11018      4E545F4C 
 11018      45415354 
 11018      33325F54 
 11018      5950455F 
 11019              	.LASF276:
 11020 5e8f 5F5F5548 		.ascii	"__UHQ_IBIT__ 0\000"
 11020      515F4942 
 11020      49545F5F 
 11020      203000
 11021              	.LASF3:
 11022 5e9e 5F5F474E 		.ascii	"__GNUC_MINOR__ 8\000"
 11022      55435F4D 
 11022      494E4F52 
 11022      5F5F2038 
 11022      00
 11023              	.LASF34:
 11024 5eaf 5F5F494E 		.ascii	"__INTMAX_TYPE__ long long int\000"
 11024      544D4158 
 11024      5F545950 
 11024      455F5F20 
 11024      6C6F6E67 
 11025              	.LASF161:
 11026 5ecd 5F5F4C44 		.ascii	"__LDBL_HAS_QUIET_NAN__ 1\000"
 11026      424C5F48 
 11026      41535F51 
 11026      55494554 
 11026      5F4E414E 
 11027              	.LASF95:
 11028 5ee6 5F5F494E 		.ascii	"__INT_LEAST32_MAX__ 2147483647L\000"
 11028      545F4C45 
 11028      41535433 
 11028      325F4D41 
 11028      585F5F20 
 11029              	.LASF302:
 11030 5f06 5F5F4348 		.ascii	"__CHAR_UNSIGNED__ 1\000"
 11030      41525F55 
 11030      4E534947 
 11030      4E45445F 
 11030      5F203100 
 11031              	.LASF609:
 11032 5f1a 53595343 		.ascii	"SYSCTL_RST_SYSRST (1 << 4)\000"
 11032      544C5F52 
 11032      53545F53 
 11032      59535253 
 11032      54202831 
 11033              	.LASF630:
 11034 5f35 53595343 		.ascii	"SYSCTL_IRC_FREQ (12000000)\000"
 11034      544C5F49 
 11034      52435F46 
 11034      52455120 
 11034      28313230 
 11035              	.LASF642:
ARM GAS  /var/folders/f9/8bk2lnw15zn4cbgn6wrnb4lm0000gn/T//ccyV4EJ6.s 			page 278


 11036 5f50 494F434F 		.ascii	"IOCON_MODE_PULLUP (0x2 << 3)\000"
 11036      4E5F4D4F 
 11036      44455F50 
 11036      554C4C55 
 11036      50202830 
 11037              	.LASF728:
 11038 5f6d 55415254 		.ascii	"UART_LCR_WLEN5 (0 << 0)\000"
 11038      5F4C4352 
 11038      5F574C45 
 11038      4E352028 
 11038      30203C3C 
 11039              	.LASF655:
 11040 5f85 4D445F50 		.ascii	"MD_PUP (0x2 << 3)\000"
 11040      55502028 
 11040      30783220 
 11040      3C3C2033 
 11040      2900
 11041              	.LASF355:
 11042 5f97 5F5F5F69 		.ascii	"___int_least32_t_defined 1\000"
 11042      6E745F6C 
 11042      65617374 
 11042      33325F74 
 11042      5F646566 
 11043              	.LASF232:
 11044 5fb2 5F5F5553 		.ascii	"__USACCUM_EPSILON__ 0x1P-8UHK\000"
 11044      41434355 
 11044      4D5F4550 
 11044      53494C4F 
 11044      4E5F5F20 
 11045              	.LASF147:
 11046 5fd0 5F5F4442 		.ascii	"__DBL_HAS_QUIET_NAN__ 1\000"
 11046      4C5F4841 
 11046      535F5155 
 11046      4945545F 
 11046      4E414E5F 
 11047              	.LASF442:
 11048 5fe8 5F424954 		.ascii	"_BIT\000"
 11048      00
 11049              	.LASF428:
 11050 5fed 494E5433 		.ascii	"INT32_C(x) __INT32_C(x)\000"
 11050      325F4328 
 11050      7829205F 
 11050      5F494E54 
 11050      33325F43 
 11051              	.LASF216:
 11052 6005 5F5F4C4C 		.ascii	"__LLFRACT_MAX__ 0X7FFFFFFFFFFFFFFFP-63LLR\000"
 11052      46524143 
 11052      545F4D41 
 11052      585F5F20 
 11052      30583746 
 11053              	.LASF537:
 11054 602f 53797354 		.ascii	"SysTick_LOAD_RELOAD_Msk (0xFFFFFFUL << SysTick_LOAD"
 11054      69636B5F 
 11054      4C4F4144 
 11054      5F52454C 
 11054      4F41445F 
 11055 6062 5F52454C 		.ascii	"_RELOAD_Pos)\000"
ARM GAS  /var/folders/f9/8bk2lnw15zn4cbgn6wrnb4lm0000gn/T//ccyV4EJ6.s 			page 279


 11055      4F41445F 
 11055      506F7329 
 11055      00
 11056              	.LASF731:
 11057 606f 55415254 		.ascii	"UART_LCR_WLEN8 (3 << 0)\000"
 11057      5F4C4352 
 11057      5F574C45 
 11057      4E382028 
 11057      33203C3C 
 11058              	.LASF704:
 11059 6087 55415254 		.ascii	"UART1_IER_BITMASK (0x30F)\000"
 11059      315F4945 
 11059      525F4249 
 11059      544D4153 
 11059      4B202830 
 11060              	.LASF1090:
 11061 60a1 6974656D 		.ascii	"itemSz\000"
 11061      537A00
 11062              	.LASF75:
 11063 60a8 5F5F5054 		.ascii	"__PTRDIFF_MAX__ 2147483647\000"
 11063      52444946 
 11063      465F4D41 
 11063      585F5F20 
 11063      32313437 
 11064              	.LASF491:
 11065 60c3 5343425F 		.ascii	"SCB_ICSR_PENDSVSET_Msk (1UL << SCB_ICSR_PENDSVSET_P"
 11065      49435352 
 11065      5F50454E 
 11065      44535653 
 11065      45545F4D 
 11066 60f6 6F732900 		.ascii	"os)\000"
 11067              	.LASF540:
 11068 60fa 53797354 		.ascii	"SysTick_CALIB_NOREF_Pos 31\000"
 11068      69636B5F 
 11068      43414C49 
 11068      425F4E4F 
 11068      5245465F 
 11069              	.LASF226:
 11070 6115 5F5F5341 		.ascii	"__SACCUM_MAX__ 0X7FFFP-7HK\000"
 11070      4343554D 
 11070      5F4D4158 
 11070      5F5F2030 
 11070      58374646 
 11071              	.LASF63:
 11072 6130 5F5F494E 		.ascii	"__INTPTR_TYPE__ int\000"
 11072      54505452 
 11072      5F545950 
 11072      455F5F20 
 11072      696E7400 
 11073              	.LASF36:
 11074 6144 5F5F4348 		.ascii	"__CHAR16_TYPE__ short unsigned int\000"
 11074      41523136 
 11074      5F545950 
 11074      455F5F20 
 11074      73686F72 
 11075              	.LASF64:
 11076 6167 5F5F5549 		.ascii	"__UINTPTR_TYPE__ unsigned int\000"
ARM GAS  /var/folders/f9/8bk2lnw15zn4cbgn6wrnb4lm0000gn/T//ccyV4EJ6.s 			page 280


 11076      4E545054 
 11076      525F5459 
 11076      50455F5F 
 11076      20756E73 
 11077              	.LASF535:
 11078 6185 53797354 		.ascii	"SysTick_CTRL_ENABLE_Msk (1UL << SysTick_CTRL_ENABLE"
 11078      69636B5F 
 11078      4354524C 
 11078      5F454E41 
 11078      424C455F 
 11079 61b8 5F506F73 		.ascii	"_Pos)\000"
 11079      2900
 11080              	.LASF299:
 11081 61be 5F5F5245 		.ascii	"__REGISTER_PREFIX__ \000"
 11081      47495354 
 11081      45525F50 
 11081      52454649 
 11081      585F5F20 
 11082              	.LASF182:
 11083 61d3 5F5F4445 		.ascii	"__DEC128_SUBNORMAL_MIN__ 0.000000000000000000000000"
 11083      43313238 
 11083      5F535542 
 11083      4E4F524D 
 11083      414C5F4D 
 11084 6206 30303030 		.ascii	"000000001E-6143DL\000"
 11084      30303030 
 11084      31452D36 
 11084      31343344 
 11084      4C00
 11085              	.LASF1014:
 11086 6218 4C464F53 		.ascii	"LFOSCCTRL\000"
 11086      43435452 
 11086      4C00
 11087              	.LASF212:
 11088 6222 5F5F554C 		.ascii	"__ULFRACT_EPSILON__ 0x1P-32ULR\000"
 11088      46524143 
 11088      545F4550 
 11088      53494C4F 
 11088      4E5F5F20 
 11089              	.LASF982:
 11090 6241 43414E5F 		.ascii	"CAN_SDOREQ_HANDLED_SEND 1\000"
 11090      53444F52 
 11090      45515F48 
 11090      414E444C 
 11090      45445F53 
 11091              	.LASF334:
 11092 625b 5F5F4152 		.ascii	"__ARM_ARCH_6M__ 1\000"
 11092      4D5F4152 
 11092      43485F36 
 11092      4D5F5F20 
 11092      3100
 11093              	.LASF21:
 11094 626d 5F5F5349 		.ascii	"__SIZEOF_SIZE_T__ 4\000"
 11094      5A454F46 
 11094      5F53495A 
 11094      455F545F 
 11094      5F203400 
ARM GAS  /var/folders/f9/8bk2lnw15zn4cbgn6wrnb4lm0000gn/T//ccyV4EJ6.s 			page 281


 11095              	.LASF1095:
 11096 6281 4649464F 		.ascii	"FIFOLVL\000"
 11096      4C564C00 
 11097              	.LASF807:
 11098 6289 57574454 		.ascii	"WWDT_WDMOD_BITMASK ((uint32_t) 0x1F)\000"
 11098      5F57444D 
 11098      4F445F42 
 11098      49544D41 
 11098      534B2028 
 11099              	.LASF46:
 11100 62ae 5F5F5549 		.ascii	"__UINT64_TYPE__ long long unsigned int\000"
 11100      4E543634 
 11100      5F545950 
 11100      455F5F20 
 11100      6C6F6E67 
 11101              	.LASF179:
 11102 62d5 5F5F4445 		.ascii	"__DEC128_MIN__ 1E-6143DL\000"
 11102      43313238 
 11102      5F4D494E 
 11102      5F5F2031 
 11102      452D3631 
 11103              	.LASF98:
 11104 62ee 5F5F494E 		.ascii	"__INT64_C(c) c ## LL\000"
 11104      5436345F 
 11104      43286329 
 11104      20632023 
 11104      23204C4C 
 11105              	.LASF244:
 11106 6303 5F5F4C41 		.ascii	"__LACCUM_IBIT__ 32\000"
 11106      4343554D 
 11106      5F494249 
 11106      545F5F20 
 11106      333200
 11107              	.LASF1066:
 11108 6316 44455649 		.ascii	"DEVICEID\000"
 11108      43454944 
 11108      00
 11109              	.LASF391:
 11110 631f 494E545F 		.ascii	"INT_LEAST32_MIN (-__INT_LEAST32_MAX__ - 1)\000"
 11110      4C454153 
 11110      5433325F 
 11110      4D494E20 
 11110      282D5F5F 
 11111              	.LASF649:
 11112 634a 494F434F 		.ascii	"IOCON_STDI2C_EN (0x1 << 8)\000"
 11112      4E5F5354 
 11112      44493243 
 11112      5F454E20 
 11112      28307831 
 11113              	.LASF434:
 11114 6365 5F474343 		.ascii	"_GCC_WRAP_STDINT_H \000"
 11114      5F575241 
 11114      505F5354 
 11114      44494E54 
 11114      5F482000 
 11115              	.LASF925:
 11116 6379 4932435F 		.ascii	"I2C_I2ADR_GC ((1 << 0))\000"
ARM GAS  /var/folders/f9/8bk2lnw15zn4cbgn6wrnb4lm0000gn/T//ccyV4EJ6.s 			page 282


 11116      49324144 
 11116      525F4743 
 11116      20282831 
 11116      203C3C20 
 11117              	.LASF1040:
 11118 6391 434C4B4F 		.ascii	"CLKOUTSEL\000"
 11118      55545345 
 11118      4C00
 11119              	.LASF156:
 11120 639b 5F5F4C44 		.ascii	"__LDBL_MIN__ 2.2250738585072014e-308L\000"
 11120      424C5F4D 
 11120      494E5F5F 
 11120      20322E32 
 11120      32353037 
 11121              	.LASF234:
 11122 63c1 5F5F4143 		.ascii	"__ACCUM_IBIT__ 16\000"
 11122      43554D5F 
 11122      49424954 
 11122      5F5F2031 
 11122      3600
 11123              	.LASF88:
 11124 63d3 5F5F5549 		.ascii	"__UINT16_MAX__ 65535\000"
 11124      4E543136 
 11124      5F4D4158 
 11124      5F5F2036 
 11124      35353335 
 11125              	.LASF771:
 11126 63e8 55415254 		.ascii	"UART_ACR_MODE (1 << 1)\000"
 11126      5F414352 
 11126      5F4D4F44 
 11126      45202831 
 11126      203C3C20 
 11127              	.LASF990:
 11128 63ff 73686F72 		.ascii	"short int\000"
 11128      7420696E 
 11128      7400
 11129              	.LASF650:
 11130 6409 494F434F 		.ascii	"IOCON_FASTI2C_EN (0x2 << 8)\000"
 11130      4E5F4641 
 11130      53544932 
 11130      435F454E 
 11130      20283078 
 11131              	.LASF526:
 11132 6425 5343425F 		.ascii	"SCB_SHCSR_SVCALLPENDED_Pos 15\000"
 11132      53484353 
 11132      525F5356 
 11132      43414C4C 
 11132      50454E44 
 11133              	.LASF640:
 11134 6443 494F434F 		.ascii	"IOCON_MODE_INACT (0x0 << 3)\000"
 11134      4E5F4D4F 
 11134      44455F49 
 11134      4E414354 
 11134      20283078 
 11135              	.LASF720:
 11136 645f 55415254 		.ascii	"UART_FCR_DMAMODE_SEL (1 << 3)\000"
 11136      5F464352 
ARM GAS  /var/folders/f9/8bk2lnw15zn4cbgn6wrnb4lm0000gn/T//ccyV4EJ6.s 			page 283


 11136      5F444D41 
 11136      4D4F4445 
 11136      5F53454C 
 11137              	.LASF198:
 11138 647d 5F5F5546 		.ascii	"__UFRACT_FBIT__ 16\000"
 11138      52414354 
 11138      5F464249 
 11138      545F5F20 
 11138      313600
 11139              	.LASF102:
 11140 6490 5F5F5549 		.ascii	"__UINT16_C(c) c\000"
 11140      4E543136 
 11140      5F432863 
 11140      29206300 
 11141              	.LASF651:
 11142 64a0 494F434F 		.ascii	"IOCON_FILT_DIS (0x1 << 8)\000"
 11142      4E5F4649 
 11142      4C545F44 
 11142      49532028 
 11142      30783120 
 11143              	.LASF296:
 11144 64ba 5F5F5544 		.ascii	"__UDA_IBIT__ 32\000"
 11144      415F4942 
 11144      49545F5F 
 11144      20333200 
 11145              	.LASF905:
 11146 64ca 4932435F 		.ascii	"I2C_I2STAT_S_RX_GENCALL_ACK ((0x70))\000"
 11146      49325354 
 11146      41545F53 
 11146      5F52585F 
 11146      47454E43 
 11147              	.LASF394:
 11148 64ef 494E5436 		.ascii	"INT64_MIN (-__INT64_MAX__ - 1)\000"
 11148      345F4D49 
 11148      4E20282D 
 11148      5F5F494E 
 11148      5436345F 
 11149              	.LASF6:
 11150 650e 5F5F4154 		.ascii	"__ATOMIC_RELAXED 0\000"
 11150      4F4D4943 
 11150      5F52454C 
 11150      41584544 
 11150      203000
 11151              	.LASF718:
 11152 6521 55415254 		.ascii	"UART_FCR_RX_RS (1 << 1)\000"
 11152      5F464352 
 11152      5F52585F 
 11152      52532028 
 11152      31203C3C 
 11153              	.LASF603:
 11154 6539 5F5F464D 		.ascii	"__FMC_11XX_H_ \000"
 11154      435F3131 
 11154      58585F48 
 11154      5F2000
 11155              	.LASF700:
 11156 6548 55415254 		.ascii	"UART_IER_CTSINT (1 << 7)\000"
 11156      5F494552 
ARM GAS  /var/folders/f9/8bk2lnw15zn4cbgn6wrnb4lm0000gn/T//ccyV4EJ6.s 			page 284


 11156      5F435453 
 11156      494E5420 
 11156      2831203C 
 11157              	.LASF146:
 11158 6561 5F5F4442 		.ascii	"__DBL_HAS_INFINITY__ 1\000"
 11158      4C5F4841 
 11158      535F494E 
 11158      46494E49 
 11158      54595F5F 
 11159              	.LASF399:
 11160 6578 55494E54 		.ascii	"UINT_LEAST64_MAX __UINT_LEAST64_MAX__\000"
 11160      5F4C4541 
 11160      53543634 
 11160      5F4D4158 
 11160      205F5F55 
 11161              	.LASF393:
 11162 659e 55494E54 		.ascii	"UINT_LEAST32_MAX __UINT_LEAST32_MAX__\000"
 11162      5F4C4541 
 11162      53543332 
 11162      5F4D4158 
 11162      205F5F55 
 11163              	.LASF519:
 11164 65c4 5343425F 		.ascii	"SCB_SCR_SLEEPDEEP_Msk (1UL << SCB_SCR_SLEEPDEEP_Pos"
 11164      5343525F 
 11164      534C4545 
 11164      50444545 
 11164      505F4D73 
 11165 65f7 2900     		.ascii	")\000"
 11166              	.LASF738:
 11167 65f9 55415254 		.ascii	"UART_LCR_PARITY_EVEN (1 << 4)\000"
 11167      5F4C4352 
 11167      5F504152 
 11167      4954595F 
 11167      4556454E 
 11168              	.LASF1056:
 11169 6617 53544152 		.ascii	"STARTERP0\000"
 11169      54455250 
 11169      3000
 11170              	.LASF1060:
 11171 6621 53544152 		.ascii	"STARTERP1\000"
 11171      54455250 
 11171      3100
 11172              	.LASF477:
 11173 662b 5F5F494F 		.ascii	"__IO volatile\000"
 11173      20766F6C 
 11173      6174696C 
 11173      6500
 11174              	.LASF654:
 11175 6639 4D445F50 		.ascii	"MD_PDN (0x1 << 3)\000"
 11175      444E2028 
 11175      30783120 
 11175      3C3C2033 
 11175      2900
 11176              	.LASF702:
 11177 664b 55415254 		.ascii	"UART_IER_ABTOINT (1 << 9)\000"
 11177      5F494552 
 11177      5F414254 
ARM GAS  /var/folders/f9/8bk2lnw15zn4cbgn6wrnb4lm0000gn/T//ccyV4EJ6.s 			page 285


 11177      4F494E54 
 11177      20283120 
 11178              	.LASF4:
 11179 6665 5F5F474E 		.ascii	"__GNUC_PATCHLEVEL__ 4\000"
 11179      55435F50 
 11179      41544348 
 11179      4C455645 
 11179      4C5F5F20 
 11180              	.LASF18:
 11181 667b 5F5F5349 		.ascii	"__SIZEOF_FLOAT__ 4\000"
 11181      5A454F46 
 11181      5F464C4F 
 11181      41545F5F 
 11181      203400
 11182              	.LASF425:
 11183 668e 55494E54 		.ascii	"UINT8_C(x) __UINT8_C(x)\000"
 11183      385F4328 
 11183      7829205F 
 11183      5F55494E 
 11183      54385F43 
 11184              	.LASF67:
 11185 66a6 5F5F5348 		.ascii	"__SHRT_MAX__ 32767\000"
 11185      52545F4D 
 11185      41585F5F 
 11185      20333237 
 11185      363700
 11186              	.LASF551:
 11187 66b9 53797354 		.ascii	"SysTick ((SysTick_Type *) SysTick_BASE )\000"
 11187      69636B20 
 11187      28285379 
 11187      73546963 
 11187      6B5F5479 
 11188              	.LASF140:
 11189 66e2 5F5F4442 		.ascii	"__DBL_DECIMAL_DIG__ 17\000"
 11189      4C5F4445 
 11189      43494D41 
 11189      4C5F4449 
 11189      475F5F20 
 11190              	.LASF492:
 11191 66f9 5343425F 		.ascii	"SCB_ICSR_PENDSVCLR_Pos 27\000"
 11191      49435352 
 11191      5F50454E 
 11191      44535643 
 11191      4C525F50 
 11192              	.LASF360:
 11193 6713 5F5F6861 		.ascii	"__have_long32 1\000"
 11193      76655F6C 
 11193      6F6E6733 
 11193      32203100 
 11194              	.LASF379:
 11195 6723 494E545F 		.ascii	"INT_LEAST8_MIN (-__INT_LEAST8_MAX__ - 1)\000"
 11195      4C454153 
 11195      54385F4D 
 11195      494E2028 
 11195      2D5F5F49 
 11196              	.LASF103:
 11197 674c 5F5F5549 		.ascii	"__UINT_LEAST32_MAX__ 4294967295UL\000"
ARM GAS  /var/folders/f9/8bk2lnw15zn4cbgn6wrnb4lm0000gn/T//ccyV4EJ6.s 			page 286


 11197      4E545F4C 
 11197      45415354 
 11197      33325F4D 
 11197      41585F5F 
 11198              	.LASF248:
 11199 676e 5F5F554C 		.ascii	"__ULACCUM_FBIT__ 32\000"
 11199      41434355 
 11199      4D5F4642 
 11199      49545F5F 
 11199      20333200 
 11200              	.LASF510:
 11201 6782 5343425F 		.ascii	"SCB_AIRCR_ENDIANESS_Pos 15\000"
 11201      41495243 
 11201      525F454E 
 11201      4449414E 
 11201      4553535F 
 11202              	.LASF881:
 11203 679d 4932435F 		.ascii	"I2C_CON_SI (1UL << 3)\000"
 11203      434F4E5F 
 11203      53492028 
 11203      31554C20 
 11203      3C3C2033 
 11204              	.LASF619:
 11205 67b3 53595343 		.ascii	"SYSCTL_SLPWAKE_WDTOSC_PD (1 << 6)\000"
 11205      544C5F53 
 11205      4C505741 
 11205      4B455F57 
 11205      44544F53 
 11206              	.LASF367:
 11207 67d5 5F5F696E 		.ascii	"__int64_t_defined 1\000"
 11207      7436345F 
 11207      745F6465 
 11207      66696E65 
 11207      64203100 
 11208              	.LASF536:
 11209 67e9 53797354 		.ascii	"SysTick_LOAD_RELOAD_Pos 0\000"
 11209      69636B5F 
 11209      4C4F4144 
 11209      5F52454C 
 11209      4F41445F 
 11210              	.LASF1137:
 11211 6803 636C6B69 		.ascii	"clkin\000"
 11211      6E00
 11212              	.LASF629:
 11213 6809 5F5F434C 		.ascii	"__CLOCK_11XX_H_ \000"
 11213      4F434B5F 
 11213      31315858 
 11213      5F485F20 
 11213      00
 11214              	.LASF1050:
 11215 681a 4E4D4953 		.ascii	"NMISRC\000"
 11215      524300
 11216              	.LASF69:
 11217 6821 5F5F4C4F 		.ascii	"__LONG_MAX__ 2147483647L\000"
 11217      4E475F4D 
 11217      41585F5F 
 11217      20323134 
ARM GAS  /var/folders/f9/8bk2lnw15zn4cbgn6wrnb4lm0000gn/T//ccyV4EJ6.s 			page 287


 11217      37343833 
 11218              	.LASF263:
 11219 683a 5F5F5151 		.ascii	"__QQ_FBIT__ 7\000"
 11219      5F464249 
 11219      545F5F20 
 11219      3700
 11220              	.LASF939:
 11221 6848 4932435F 		.ascii	"I2C_ERR (0x10000000)\000"
 11221      45525220 
 11221      28307831 
 11221      30303030 
 11221      30303029 
 11222              	.LASF312:
 11223 685d 5F5F4743 		.ascii	"__GCC_ATOMIC_TEST_AND_SET_TRUEVAL 1\000"
 11223      435F4154 
 11223      4F4D4943 
 11223      5F544553 
 11223      545F414E 
 11224              	.LASF455:
 11225 6881 494E4C49 		.ascii	"INLINE inline\000"
 11225      4E452069 
 11225      6E6C696E 
 11225      6500
 11226              	.LASF522:
 11227 688f 5343425F 		.ascii	"SCB_CCR_STKALIGN_Pos 9\000"
 11227      4343525F 
 11227      53544B41 
 11227      4C49474E 
 11227      5F506F73 
 11228              	.LASF864:
 11229 68a6 5F5F4932 		.ascii	"__I2C_11XX_H_ \000"
 11229      435F3131 
 11229      58585F48 
 11229      5F2000
 11230              	.LASF1109:
 11231 68b5 43686970 		.ascii	"Chip_UART_ConfigData\000"
 11231      5F554152 
 11231      545F436F 
 11231      6E666967 
 11231      44617461 
 11232              	.LASF347:
 11233 68ca 5F5F474E 		.ascii	"__GNUC_PREREQ__(ma,mi) __GNUC_PREREQ(ma, mi)\000"
 11233      55435F50 
 11233      52455245 
 11233      515F5F28 
 11233      6D612C6D 
 11234              	.LASF1134:
 11235 68f7 62617564 		.ascii	"baudrate\000"
 11235      72617465 
 11235      00
 11236              	.LASF298:
 11237 6900 5F5F5554 		.ascii	"__UTA_IBIT__ 64\000"
 11237      415F4942 
 11237      49545F5F 
 11237      20363400 
 11238              	.LASF259:
 11239 6910 5F5F554C 		.ascii	"__ULLACCUM_IBIT__ 32\000"
ARM GAS  /var/folders/f9/8bk2lnw15zn4cbgn6wrnb4lm0000gn/T//ccyV4EJ6.s 			page 288


 11239      4C414343 
 11239      554D5F49 
 11239      4249545F 
 11239      5F203332 
 11240              	.LASF471:
 11241 6925 5F5F4650 		.ascii	"__FPU_USED 0\000"
 11241      555F5553 
 11241      45442030 
 11241      00
 11242              	.LASF222:
 11243 6932 5F5F554C 		.ascii	"__ULLFRACT_EPSILON__ 0x1P-64ULLR\000"
 11243      4C465241 
 11243      43545F45 
 11243      5053494C 
 11243      4F4E5F5F 
 11244              	.LASF1038:
 11245 6953 57445443 		.ascii	"WDTCLKDIV\000"
 11245      4C4B4449 
 11245      5600
 11246              	.LASF465:
 11247 695d 5F5F434D 		.ascii	"__CM0_CMSIS_VERSION_SUB (0x01)\000"
 11247      305F434D 
 11247      5349535F 
 11247      56455253 
 11247      494F4E5F 
 11248              	.LASF317:
 11249 697c 5F5F5349 		.ascii	"__SIZEOF_WINT_T__ 4\000"
 11249      5A454F46 
 11249      5F57494E 
 11249      545F545F 
 11249      5F203400 
 11250              	.LASF602:
 11251 6990 504D555F 		.ascii	"PMU_PCON_DPDFLAG (1 << 11)\000"
 11251      50434F4E 
 11251      5F445044 
 11251      464C4147 
 11251      20283120 
 11252              	.LASF529:
 11253 69ab 53797354 		.ascii	"SysTick_CTRL_COUNTFLAG_Msk (1UL << SysTick_CTRL_COU"
 11253      69636B5F 
 11253      4354524C 
 11253      5F434F55 
 11253      4E54464C 
 11254 69de 4E54464C 		.ascii	"NTFLAG_Pos)\000"
 11254      41475F50 
 11254      6F732900 
 11255              	.LASF215:
 11256 69ea 5F5F4C4C 		.ascii	"__LLFRACT_MIN__ (-0.5LLR-0.5LLR)\000"
 11256      46524143 
 11256      545F4D49 
 11256      4E5F5F20 
 11256      282D302E 
 11257              	.LASF1008:
 11258 6a0b 55534250 		.ascii	"USBPLLCTRL\000"
 11258      4C4C4354 
 11258      524C00
 11259              	.LASF1057:
ARM GAS  /var/folders/f9/8bk2lnw15zn4cbgn6wrnb4lm0000gn/T//ccyV4EJ6.s 			page 289


 11260 6a16 53544152 		.ascii	"STARTRSRP0CLR\000"
 11260      54525352 
 11260      5030434C 
 11260      5200
 11261              	.LASF1007:
 11262 6a24 53595350 		.ascii	"SYSPLLSTAT\000"
 11262      4C4C5354 
 11262      415400
 11263              	.LASF245:
 11264 6a2f 5F5F4C41 		.ascii	"__LACCUM_MIN__ (-0X1P31LK-0X1P31LK)\000"
 11264      4343554D 
 11264      5F4D494E 
 11264      5F5F2028 
 11264      2D305831 
 11265              	.LASF578:
 11266 6a53 4941505F 		.ascii	"IAP_ENTRY_LOCATION 0X1FFF1FF1\000"
 11266      454E5452 
 11266      595F4C4F 
 11266      43415449 
 11266      4F4E2030 
 11267              	.LASF336:
 11268 6a71 5F5F4152 		.ascii	"__ARM_EABI__ 1\000"
 11268      4D5F4541 
 11268      42495F5F 
 11268      203100
 11269              	.LASF666:
 11270 6a80 4D445F4F 		.ascii	"MD_OPENDRAIN (0x1 << 10)\000"
 11270      50454E44 
 11270      5241494E 
 11270      20283078 
 11270      31203C3C 
 11271              	.LASF144:
 11272 6a99 5F5F4442 		.ascii	"__DBL_DENORM_MIN__ ((double)4.9406564584124654e-324"
 11272      4C5F4445 
 11272      4E4F524D 
 11272      5F4D494E 
 11272      5F5F2028 
 11273 6acc 4C2900   		.ascii	"L)\000"
 11274              	.LASF1120:
 11275 6acf 43686970 		.ascii	"Chip_UART_EnableDivisorAccess\000"
 11275      5F554152 
 11275      545F456E 
 11275      61626C65 
 11275      44697669 
 11276              	.LASF1028:
 11277 6aed 53535030 		.ascii	"SSP0CLKDIV\000"
 11277      434C4B44 
 11277      495600
 11278              	.LASF187:
 11279 6af8 5F5F5346 		.ascii	"__SFRACT_EPSILON__ 0x1P-7HR\000"
 11279      52414354 
 11279      5F455053 
 11279      494C4F4E 
 11279      5F5F2030 
 11280              	.LASF1132:
 11281 6b14 43686970 		.ascii	"Chip_UART_ReadBlocking\000"
 11281      5F554152 
ARM GAS  /var/folders/f9/8bk2lnw15zn4cbgn6wrnb4lm0000gn/T//ccyV4EJ6.s 			page 290


 11281      545F5265 
 11281      6164426C 
 11281      6F636B69 
 11282              	.LASF564:
 11283 6b2b 4C50435F 		.ascii	"LPC_DAC_BASE 0x40024000\000"
 11283      4441435F 
 11283      42415345 
 11283      20307834 
 11283      30303234 
 11284              	.LASF447:
 11285 6b43 5F424954 		.ascii	"_BITMASK(field_width) ( _BIT(field_width) - 1)\000"
 11285      4D41534B 
 11285      28666965 
 11285      6C645F77 
 11285      69647468 
 11286              	.LASF608:
 11287 6b72 53595343 		.ascii	"SYSCTL_RST_BOD (1 << 3)\000"
 11287      544C5F52 
 11287      53545F42 
 11287      4F442028 
 11287      31203C3C 
 11288              	.LASF604:
 11289 6b8a 5F5F5359 		.ascii	"__SYSCTL_11XX_H_ \000"
 11289      5343544C 
 11289      5F313158 
 11289      585F485F 
 11289      2000
 11290              	.LASF45:
 11291 6b9c 5F5F5549 		.ascii	"__UINT32_TYPE__ long unsigned int\000"
 11291      4E543332 
 11291      5F545950 
 11291      455F5F20 
 11291      6C6F6E67 
 11292              	.LASF374:
 11293 6bbe 494E5450 		.ascii	"INTPTR_MAX __INTPTR_MAX__\000"
 11293      54525F4D 
 11293      4158205F 
 11293      5F494E54 
 11293      5054525F 
 11294              	.LASF340:
 11295 6bd8 434F5245 		.ascii	"CORE_M0 1\000"
 11295      5F4D3020 
 11295      3100
 11296              	.LASF866:
 11297 6be2 5245545F 		.ascii	"RET_SLAVE_RX 5\000"
 11297      534C4156 
 11297      455F5258 
 11297      203500
 11298              	.LASF675:
 11299 6bf1 5F5F5449 		.ascii	"__TIMER_11XX_H_ \000"
 11299      4D45525F 
 11299      31315858 
 11299      5F485F20 
 11299      00
 11300              	.LASF667:
 11301 6c02 46554E43 		.ascii	"FUNC0 0x0\000"
 11301      30203078 
ARM GAS  /var/folders/f9/8bk2lnw15zn4cbgn6wrnb4lm0000gn/T//ccyV4EJ6.s 			page 291


 11301      3000
 11302              	.LASF960:
 11303 6c0c 53444F5F 		.ascii	"SDO_ABORT_SDOTIMEOUT 0x05040000UL\000"
 11303      41424F52 
 11303      545F5344 
 11303      4F54494D 
 11303      454F5554 
 11304              	.LASF762:
 11305 6c2e 55415254 		.ascii	"UART_MSR_DELTA_DSR (1 << 1)\000"
 11305      5F4D5352 
 11305      5F44454C 
 11305      54415F44 
 11305      53522028 
 11306              	.LASF220:
 11307 6c4a 5F5F554C 		.ascii	"__ULLFRACT_MIN__ 0.0ULLR\000"
 11307      4C465241 
 11307      43545F4D 
 11307      494E5F5F 
 11307      20302E30 
 11308              	.LASF613:
 11309 6c63 53595343 		.ascii	"SYSCTL_SLPWAKE_IRCOUT_PD (1 << 0)\000"
 11309      544C5F53 
 11309      4C505741 
 11309      4B455F49 
 11309      52434F55 
 11310              	.LASF582:
 11311 6c85 4C50435F 		.ascii	"LPC_USART ((LPC_USART_T *) LPC_USART_BASE)\000"
 11311      55534152 
 11311      54202828 
 11311      4C50435F 
 11311      55534152 
 11312              	.LASF280:
 11313 6cb0 5F5F5544 		.ascii	"__UDQ_IBIT__ 0\000"
 11313      515F4942 
 11313      49545F5F 
 11313      203000
 11314              	.LASF14:
 11315 6cbf 5F5F5349 		.ascii	"__SIZEOF_INT__ 4\000"
 11315      5A454F46 
 11315      5F494E54 
 11315      5F5F2034 
 11315      00
 11316              	.LASF214:
 11317 6cd0 5F5F4C4C 		.ascii	"__LLFRACT_IBIT__ 0\000"
 11317      46524143 
 11317      545F4942 
 11317      49545F5F 
 11317      203000
 11318              	.LASF427:
 11319 6ce3 55494E54 		.ascii	"UINT16_C(x) __UINT16_C(x)\000"
 11319      31365F43 
 11319      28782920 
 11319      5F5F5549 
 11319      4E543136 
 11320              	.LASF916:
 11321 6cfd 4932435F 		.ascii	"I2C_I2STAT_S_TX_LAST_DAT_ACK ((0xC8))\000"
 11321      49325354 
ARM GAS  /var/folders/f9/8bk2lnw15zn4cbgn6wrnb4lm0000gn/T//ccyV4EJ6.s 			page 292


 11321      41545F53 
 11321      5F54585F 
 11321      4C415354 
 11322              	.LASF1075:
 11323 6d23 53595343 		.ascii	"SYSCTL_CLOCK_CT16B0\000"
 11323      544C5F43 
 11323      4C4F434B 
 11323      5F435431 
 11323      36423000 
 11324              	.LASF1000:
 11325 6d37 75696E74 		.ascii	"uint32_t\000"
 11325      33325F74 
 11325      00
 11326              	.LASF790:
 11327 6d40 55415254 		.ascii	"UART_SCICTRL_NACKDIS (1 << 1)\000"
 11327      5F534349 
 11327      4354524C 
 11327      5F4E4143 
 11327      4B444953 
 11328              	.LASF735:
 11329 6d5e 55415254 		.ascii	"UART_LCR_PARITY_EN (1 << 3)\000"
 11329      5F4C4352 
 11329      5F504152 
 11329      4954595F 
 11329      454E2028 
 11330              	.LASF1058:
 11331 6d7a 53544152 		.ascii	"STARTSRP0\000"
 11331      54535250 
 11331      3000
 11332              	.LASF227:
 11333 6d84 5F5F5341 		.ascii	"__SACCUM_EPSILON__ 0x1P-7HK\000"
 11333      4343554D 
 11333      5F455053 
 11333      494C4F4E 
 11333      5F5F2030 
 11334              	.LASF601:
 11335 6da0 504D555F 		.ascii	"PMU_PCON_SLEEPFLAG (1 << 8)\000"
 11335      50434F4E 
 11335      5F534C45 
 11335      4550464C 
 11335      41472028 
 11336              	.LASF668:
 11337 6dbc 46554E43 		.ascii	"FUNC1 0x1\000"
 11337      31203078 
 11337      3100
 11338              	.LASF595:
 11339 6dc6 4C50435F 		.ascii	"LPC_USB ((LPC_USB_T *) LPC_USB0_BASE)\000"
 11339      55534220 
 11339      28284C50 
 11339      435F5553 
 11339      425F5420 
 11340              	.LASF693:
 11341 6dec 55415254 		.ascii	"UART_DLL_MASKBIT (0xFF)\000"
 11341      5F444C4C 
 11341      5F4D4153 
 11341      4B424954 
 11341      20283078 
ARM GAS  /var/folders/f9/8bk2lnw15zn4cbgn6wrnb4lm0000gn/T//ccyV4EJ6.s 			page 293


 11342              	.LASF461:
 11343 6e04 5F5F4E56 		.ascii	"__NVIC_PRIO_BITS 2\000"
 11343      49435F50 
 11343      52494F5F 
 11343      42495453 
 11343      203200
 11344              	.LASF845:
 11345 6e17 4144435F 		.ascii	"ADC_DR_RESULT(n) ((((n) >> 6) & 0x3FF))\000"
 11345      44525F52 
 11345      4553554C 
 11345      54286E29 
 11345      20282828 
 11346              	.LASF60:
 11347 6e3f 5F5F5549 		.ascii	"__UINT_FAST16_TYPE__ unsigned int\000"
 11347      4E545F46 
 11347      41535431 
 11347      365F5459 
 11347      50455F5F 
 11348              	.LASF543:
 11349 6e61 53797354 		.ascii	"SysTick_CALIB_SKEW_Msk (1UL << SysTick_CALIB_SKEW_P"
 11349      69636B5F 
 11349      43414C49 
 11349      425F534B 
 11349      45575F4D 
 11350 6e94 6F732900 		.ascii	"os)\000"
 11351              	.LASF292:
 11352 6e98 5F5F5548 		.ascii	"__UHA_IBIT__ 8\000"
 11352      415F4942 
 11352      49545F5F 
 11352      203800
 11353              	.LASF928:
 11354 6ea7 4932435F 		.ascii	"I2C_I2SCLH_BITMASK ((0xFFFF))\000"
 11354      49325343 
 11354      4C485F42 
 11354      49544D41 
 11354      534B2028 
 11355              	.LASF237:
 11356 6ec5 5F5F4143 		.ascii	"__ACCUM_EPSILON__ 0x1P-15K\000"
 11356      43554D5F 
 11356      45505349 
 11356      4C4F4E5F 
 11356      5F203078 
 11357              	.LASF252:
 11358 6ee0 5F5F554C 		.ascii	"__ULACCUM_EPSILON__ 0x1P-32ULK\000"
 11358      41434355 
 11358      4D5F4550 
 11358      53494C4F 
 11358      4E5F5F20 
 11359              	.LASF149:
 11360 6eff 5F5F4C44 		.ascii	"__LDBL_DIG__ 15\000"
 11360      424C5F44 
 11360      49475F5F 
 11360      20313500 
 11361              	.LASF1012:
 11362 6f0f 5744544F 		.ascii	"WDTOSCCTRL\000"
 11362      53434354 
 11362      524C00
ARM GAS  /var/folders/f9/8bk2lnw15zn4cbgn6wrnb4lm0000gn/T//ccyV4EJ6.s 			page 294


 11363              	.LASF751:
 11364 6f1a 55415254 		.ascii	"UART_LSR_OE (1 << 1)\000"
 11364      5F4C5352 
 11364      5F4F4520 
 11364      2831203C 
 11364      3C203129 
 11365              	.LASF921:
 11366 6f2f 4932435F 		.ascii	"I2C_I2MMCTRL_ENA_SCL ((1 << 1))\000"
 11366      49324D4D 
 11366      4354524C 
 11366      5F454E41 
 11366      5F53434C 
 11367              	.LASF1042:
 11368 6f4f 434C4B4F 		.ascii	"CLKOUTDIV\000"
 11368      55544449 
 11368      5600
 11369              	.LASF74:
 11370 6f59 5F5F5749 		.ascii	"__WINT_MIN__ 0U\000"
 11370      4E545F4D 
 11370      494E5F5F 
 11370      20305500 
 11371              	.LASF643:
 11372 6f69 494F434F 		.ascii	"IOCON_MODE_REPEATER (0x3 << 3)\000"
 11372      4E5F4D4F 
 11372      44455F52 
 11372      45504541 
 11372      54455220 
 11373              	.LASF1117:
 11374 6f88 43686970 		.ascii	"Chip_UART_Send\000"
 11374      5F554152 
 11374      545F5365 
 11374      6E6400
 11375              	.LASF174:
 11376 6f97 5F5F4445 		.ascii	"__DEC64_EPSILON__ 1E-15DD\000"
 11376      4336345F 
 11376      45505349 
 11376      4C4F4E5F 
 11376      5F203145 
 11377              	.LASF953:
 11378 6fb1 43414E5F 		.ascii	"CAN_ERROR_BIT0 0x00000080UL\000"
 11378      4552524F 
 11378      525F4249 
 11378      54302030 
 11378      78303030 
 11379              	.LASF405:
 11380 6fcd 55494E54 		.ascii	"UINT_FAST16_MAX __UINT_FAST16_MAX__\000"
 11380      5F464153 
 11380      5431365F 
 11380      4D415820 
 11380      5F5F5549 
 11381              	.LASF48:
 11382 6ff1 5F5F494E 		.ascii	"__INT_LEAST16_TYPE__ short int\000"
 11382      545F4C45 
 11382      41535431 
 11382      365F5459 
 11382      50455F5F 
 11383              	.LASF1030:
ARM GAS  /var/folders/f9/8bk2lnw15zn4cbgn6wrnb4lm0000gn/T//ccyV4EJ6.s 			page 295


 11384 7010 53535031 		.ascii	"SSP1CLKDIV\000"
 11384      434C4B44 
 11384      495600
 11385              	.LASF614:
 11386 701b 53595343 		.ascii	"SYSCTL_SLPWAKE_IRC_PD (1 << 1)\000"
 11386      544C5F53 
 11386      4C505741 
 11386      4B455F49 
 11386      52435F50 
 11387              	.LASF141:
 11388 703a 5F5F4442 		.ascii	"__DBL_MAX__ ((double)1.7976931348623157e+308L)\000"
 11388      4C5F4D41 
 11388      585F5F20 
 11388      2828646F 
 11388      75626C65 
 11389              	.LASF991:
 11390 7069 73686F72 		.ascii	"short unsigned int\000"
 11390      7420756E 
 11390      7369676E 
 11390      65642069 
 11390      6E7400
 11391              	.LASF213:
 11392 707c 5F5F4C4C 		.ascii	"__LLFRACT_FBIT__ 63\000"
 11392      46524143 
 11392      545F4642 
 11392      49545F5F 
 11392      20363300 
 11393              	.LASF479:
 11394 7090 5343425F 		.ascii	"SCB_CPUID_IMPLEMENTER_Msk (0xFFUL << SCB_CPUID_IMPL"
 11394      43505549 
 11394      445F494D 
 11394      504C454D 
 11394      454E5445 
 11395 70c3 454D454E 		.ascii	"EMENTER_Pos)\000"
 11395      5445525F 
 11395      506F7329 
 11395      00
 11396              	.LASF325:
 11397 70d0 5F5F7468 		.ascii	"__thumb__ 1\000"
 11397      756D625F 
 11397      5F203100 
 11398              	.LASF852:
 11399 70dc 4144435F 		.ascii	"ADC_CR_PDN ((1UL << 21))\000"
 11399      43525F50 
 11399      444E2028 
 11399      2831554C 
 11399      203C3C20 
 11400              	.LASF404:
 11401 70f5 494E545F 		.ascii	"INT_FAST16_MAX __INT_FAST16_MAX__\000"
 11401      46415354 
 11401      31365F4D 
 11401      4158205F 
 11401      5F494E54 
 11402              	.LASF112:
 11403 7117 5F5F5549 		.ascii	"__UINT_FAST16_MAX__ 4294967295U\000"
 11403      4E545F46 
 11403      41535431 
ARM GAS  /var/folders/f9/8bk2lnw15zn4cbgn6wrnb4lm0000gn/T//ccyV4EJ6.s 			page 296


 11403      365F4D41 
 11403      585F5F20 
 11404              	.LASF805:
 11405 7137 55415254 		.ascii	"UART_SYNCCTRL_CCCLR (1 << 6)\000"
 11405      5F53594E 
 11405      43435452 
 11405      4C5F4343 
 11405      434C5220 
 11406              	.LASF265:
 11407 7154 5F5F4851 		.ascii	"__HQ_FBIT__ 15\000"
 11407      5F464249 
 11407      545F5F20 
 11407      313500
 11408              	.LASF439:
 11409 7163 5F5F626F 		.ascii	"__bool_true_false_are_defined 1\000"
 11409      6F6C5F74 
 11409      7275655F 
 11409      66616C73 
 11409      655F6172 
 11410              	.LASF904:
 11411 7183 4932435F 		.ascii	"I2C_I2STAT_S_RX_ARB_LOST_M_SLA ((0x68))\000"
 11411      49325354 
 11411      41545F53 
 11411      5F52585F 
 11411      4152425F 
 11412              	.LASF514:
 11413 71ab 5343425F 		.ascii	"SCB_AIRCR_VECTCLRACTIVE_Pos 1\000"
 11413      41495243 
 11413      525F5645 
 11413      4354434C 
 11413      52414354 
 11414              	.LASF924:
 11415 71c9 49324441 		.ascii	"I2DATA_BUFFER_BITMASK ((0xFF))\000"
 11415      54415F42 
 11415      55464645 
 11415      525F4249 
 11415      544D4153 
 11416              	.LASF459:
 11417 71e8 5F5F434D 		.ascii	"__CMSIS_11CXX_H_ \000"
 11417      5349535F 
 11417      31314358 
 11417      585F485F 
 11417      2000
 11418              	.LASF965:
 11419 71fa 53444F5F 		.ascii	"SDO_ABORT_NOT_EXISTS 0x06020000UL\000"
 11419      41424F52 
 11419      545F4E4F 
 11419      545F4558 
 11419      49535453 
 11420              	.LASF556:
 11421 721c 4C50435F 		.ascii	"LPC_I2C_BASE 0x40000000\000"
 11421      4932435F 
 11421      42415345 
 11421      20307834 
 11421      30303030 
 11422              	.LASF785:
 11423 7234 55415254 		.ascii	"UART_ICR_FIXPULSE_EN (1 << 2)\000"
ARM GAS  /var/folders/f9/8bk2lnw15zn4cbgn6wrnb4lm0000gn/T//ccyV4EJ6.s 			page 297


 11423      5F494352 
 11423      5F464958 
 11423      50554C53 
 11423      455F454E 
 11424              	.LASF184:
 11425 7252 5F5F5346 		.ascii	"__SFRACT_IBIT__ 0\000"
 11425      52414354 
 11425      5F494249 
 11425      545F5F20 
 11425      3000
 11426              	.LASF363:
 11427 7264 5F5F696E 		.ascii	"__int16_t_defined 1\000"
 11427      7431365F 
 11427      745F6465 
 11427      66696E65 
 11427      64203100 
 11428              	.LASF474:
 11429 7278 5F5F434F 		.ascii	"__CORE_CM0_H_DEPENDANT \000"
 11429      52455F43 
 11429      4D305F48 
 11429      5F444550 
 11429      454E4441 
 11430              	.LASF362:
 11431 7290 5F5F696E 		.ascii	"__int_least8_t_defined 1\000"
 11431      745F6C65 
 11431      61737438 
 11431      5F745F64 
 11431      6566696E 
 11432              	.LASF811:
 11433 72a9 57574454 		.ascii	"WWDT_WDMOD_WDINT ((uint32_t) (1 << 3))\000"
 11433      5F57444D 
 11433      4F445F57 
 11433      44494E54 
 11433      20282875 
 11434              	.LASF875:
 11435 72d0 4932435F 		.ascii	"I2C_I2CONCLR_AAC ((1 << 2))\000"
 11435      4932434F 
 11435      4E434C52 
 11435      5F414143 
 11435      20282831 
 11436              	.LASF1141:
 11437 72ec 43686970 		.ascii	"Chip_UART_ReadRB\000"
 11437      5F554152 
 11437      545F5265 
 11437      61645242 
 11437      00
 11438              	.LASF524:
 11439 72fd 5343425F 		.ascii	"SCB_CCR_UNALIGN_TRP_Pos 3\000"
 11439      4343525F 
 11439      554E414C 
 11439      49474E5F 
 11439      5452505F 
 11440              	.LASF690:
 11441 7317 52425F56 		.ascii	"RB_VTAIL(rb) (*(volatile uint32_t *) &(rb)->tail)\000"
 11441      5441494C 
 11441      28726229 
 11441      20282A28 
ARM GAS  /var/folders/f9/8bk2lnw15zn4cbgn6wrnb4lm0000gn/T//ccyV4EJ6.s 			page 298


 11441      766F6C61 
 11442              	.LASF1047:
 11443 7349 53595354 		.ascii	"SYSTCKCAL\000"
 11443      434B4341 
 11443      4C00
 11444              	.LASF20:
 11445 7353 5F5F5349 		.ascii	"__SIZEOF_LONG_DOUBLE__ 8\000"
 11445      5A454F46 
 11445      5F4C4F4E 
 11445      475F444F 
 11445      55424C45 
 11446              	.LASF830:
 11447 736c 5353505F 		.ascii	"SSP_CPSR_BITMASK ((uint32_t) (0xFF))\000"
 11447      43505352 
 11447      5F424954 
 11447      4D41534B 
 11447      20282875 
 11448              	.LASF30:
 11449 7391 5F5F5349 		.ascii	"__SIZE_TYPE__ unsigned int\000"
 11449      5A455F54 
 11449      5950455F 
 11449      5F20756E 
 11449      7369676E 
 11450              	.LASF804:
 11451 73ac 55415254 		.ascii	"UART_SYNCCTRL_STARTSTOPDISABLE (1 << 5)\000"
 11451      5F53594E 
 11451      43435452 
 11451      4C5F5354 
 11451      41525453 
 11452              	.LASF1032:
 11453 73d4 55534243 		.ascii	"USBCLKSEL\000"
 11453      4C4B5345 
 11453      4C00
 11454              	.LASF971:
 11455 73de 53444F5F 		.ascii	"SDO_ABORT_TRANSFER 0x08000020UL\000"
 11455      41424F52 
 11455      545F5452 
 11455      414E5346 
 11455      45522030 
 11456              	.LASF186:
 11457 73fe 5F5F5346 		.ascii	"__SFRACT_MAX__ 0X7FP-7HR\000"
 11457      52414354 
 11457      5F4D4158 
 11457      5F5F2030 
 11457      58374650 
 11458              	.LASF686:
 11459 7417 54494D45 		.ascii	"TIMER_INT_ON_CAP(n) (_BIT((((n) * 3) + 2)))\000"
 11459      525F494E 
 11459      545F4F4E 
 11459      5F434150 
 11459      286E2920 
 11460              	.LASF948:
 11461 7443 43414E5F 		.ascii	"CAN_ERROR_BOFF 0x00000004UL\000"
 11461      4552524F 
 11461      525F424F 
 11461      46462030 
 11461      78303030 
ARM GAS  /var/folders/f9/8bk2lnw15zn4cbgn6wrnb4lm0000gn/T//ccyV4EJ6.s 			page 299


 11462              	.LASF829:
 11463 745f 5353505F 		.ascii	"SSP_CR1_BITMASK ((uint32_t) (0x0F))\000"
 11463      4352315F 
 11463      4249544D 
 11463      41534B20 
 11463      28287569 
 11464              	.LASF94:
 11465 7483 5F5F494E 		.ascii	"__INT16_C(c) c\000"
 11465      5431365F 
 11465      43286329 
 11465      206300
 11466              	.LASF1112:
 11467 7492 43686970 		.ascii	"Chip_UART_SendByte\000"
 11467      5F554152 
 11467      545F5365 
 11467      6E644279 
 11467      746500
 11468              	.LASF919:
 11469 74a5 4932435F 		.ascii	"I2C_I2DAT_IDLE_CHAR (0xFF)\000"
 11469      49324441 
 11469      545F4944 
 11469      4C455F43 
 11469      48415220 
 11470              	.LASF656:
 11471 74c0 4D445F42 		.ascii	"MD_BUK (0x3 << 3)\000"
 11471      554B2028 
 11471      30783320 
 11471      3C3C2033 
 11471      2900
 11472              	.LASF958:
 11473 74d2 43414E5F 		.ascii	"CAN_MSGOBJ_RTR 0x40000000UL\000"
 11473      4D53474F 
 11473      424A5F52 
 11473      54522030 
 11473      78343030 
 11474              	.LASF517:
 11475 74ee 5343425F 		.ascii	"SCB_SCR_SEVONPEND_Msk (1UL << SCB_SCR_SEVONPEND_Pos"
 11475      5343525F 
 11475      5345564F 
 11475      4E50454E 
 11475      445F4D73 
 11476 7521 2900     		.ascii	")\000"
 11477              	.LASF711:
 11478 7523 55415254 		.ascii	"UART_IIR_INTID_MASK (7 << 1)\000"
 11478      5F494952 
 11478      5F494E54 
 11478      49445F4D 
 11478      41534B20 
 11479              	.LASF10:
 11480 7540 5F5F4154 		.ascii	"__ATOMIC_ACQ_REL 4\000"
 11480      4F4D4943 
 11480      5F414351 
 11480      5F52454C 
 11480      203400
 11481              	.LASF41:
 11482 7553 5F5F494E 		.ascii	"__INT32_TYPE__ long int\000"
 11482      5433325F 
ARM GAS  /var/folders/f9/8bk2lnw15zn4cbgn6wrnb4lm0000gn/T//ccyV4EJ6.s 			page 300


 11482      54595045 
 11482      5F5F206C 
 11482      6F6E6720 
 11483              	.LASF341:
 11484 756b 5F5F4348 		.ascii	"__CHIP_H_ \000"
 11484      49505F48 
 11484      5F2000
 11485              	.LASF137:
 11486 7576 5F5F4442 		.ascii	"__DBL_MIN_10_EXP__ (-307)\000"
 11486      4C5F4D49 
 11486      4E5F3130 
 11486      5F455850 
 11486      5F5F2028 
 11487              	.LASF1088:
 11488 7590 64617461 		.ascii	"data\000"
 11488      00
 11489              	.LASF509:
 11490 7595 5343425F 		.ascii	"SCB_AIRCR_VECTKEYSTAT_Msk (0xFFFFUL << SCB_AIRCR_VE"
 11490      41495243 
 11490      525F5645 
 11490      43544B45 
 11490      59535441 
 11491 75c8 43544B45 		.ascii	"CTKEYSTAT_Pos)\000"
 11491      59535441 
 11491      545F506F 
 11491      732900
 11492              	.LASF413:
 11493 75d7 494E544D 		.ascii	"INTMAX_MIN (-INTMAX_MAX - 1)\000"
 11493      41585F4D 
 11493      494E2028 
 11493      2D494E54 
 11493      4D41585F 
 11494              	.LASF377:
 11495 75f4 494E5438 		.ascii	"INT8_MAX __INT8_MAX__\000"
 11495      5F4D4158 
 11495      205F5F49 
 11495      4E54385F 
 11495      4D41585F 
 11496              	.LASF674:
 11497 760a 46554E43 		.ascii	"FUNC7 0x7\000"
 11497      37203078 
 11497      3700
 11498              	.LASF1108:
 11499 7614 70554152 		.ascii	"pUART\000"
 11499      5400
 11500              	.LASF588:
 11501 761a 4C50435F 		.ascii	"LPC_PMU ((LPC_PMU_T *) LPC_PMU_BASE)\000"
 11501      504D5520 
 11501      28284C50 
 11501      435F504D 
 11501      555F5420 
 11502              	.LASF469:
 11503 763f 5F5F494E 		.ascii	"__INLINE inline\000"
 11503      4C494E45 
 11503      20696E6C 
 11503      696E6500 
 11504              	.LASF87:
ARM GAS  /var/folders/f9/8bk2lnw15zn4cbgn6wrnb4lm0000gn/T//ccyV4EJ6.s 			page 301


 11505 764f 5F5F5549 		.ascii	"__UINT8_MAX__ 255\000"
 11505      4E54385F 
 11505      4D41585F 
 11505      5F203235 
 11505      3500
 11506              	.LASF768:
 11507 7661 55415254 		.ascii	"UART_MSR_DCD (1 << 7)\000"
 11507      5F4D5352 
 11507      5F444344 
 11507      20283120 
 11507      3C3C2037 
 11508              	.LASF113:
 11509 7677 5F5F5549 		.ascii	"__UINT_FAST32_MAX__ 4294967295U\000"
 11509      4E545F46 
 11509      41535433 
 11509      325F4D41 
 11509      585F5F20 
 11510              	.LASF99:
 11511 7697 5F5F5549 		.ascii	"__UINT_LEAST8_MAX__ 255\000"
 11511      4E545F4C 
 11511      45415354 
 11511      385F4D41 
 11511      585F5F20 
 11512              	.LASF838:
 11513 76af 5353505F 		.ascii	"SSP_SLAVE_MODE SSP_CR1_SLAVE_EN\000"
 11513      534C4156 
 11513      455F4D4F 
 11513      44452053 
 11513      53505F43 
 11514              	.LASF1085:
 11515 76cf 53595343 		.ascii	"SYSCTL_CLOCK_CAN\000"
 11515      544C5F43 
 11515      4C4F434B 
 11515      5F43414E 
 11515      00
 11516              	.LASF134:
 11517 76e0 5F5F4442 		.ascii	"__DBL_MANT_DIG__ 53\000"
 11517      4C5F4D41 
 11517      4E545F44 
 11517      49475F5F 
 11517      20353300 
 11518              	.LASF1118:
 11519 76f4 43686970 		.ascii	"Chip_UART_Read\000"
 11519      5F554152 
 11519      545F5265 
 11519      616400
 11520              	.LASF733:
 11521 7703 55415254 		.ascii	"UART_LCR_SBS_1BIT (0 << 2)\000"
 11521      5F4C4352 
 11521      5F534253 
 11521      5F314249 
 11521      54202830 
 11522              	.LASF200:
 11523 771e 5F5F5546 		.ascii	"__UFRACT_MIN__ 0.0UR\000"
 11523      52414354 
 11523      5F4D494E 
 11523      5F5F2030 
ARM GAS  /var/folders/f9/8bk2lnw15zn4cbgn6wrnb4lm0000gn/T//ccyV4EJ6.s 			page 302


 11523      2E305552 
 11524              	.LASF50:
 11525 7733 5F5F494E 		.ascii	"__INT_LEAST64_TYPE__ long long int\000"
 11525      545F4C45 
 11525      41535436 
 11525      345F5459 
 11525      50455F5F 
 11526              	.LASF709:
 11527 7756 55415254 		.ascii	"UART_IIR_ABTO_INT (1 << 9)\000"
 11527      5F494952 
 11527      5F414254 
 11527      4F5F494E 
 11527      54202831 
 11528              	.LASF850:
 11529 7771 4144435F 		.ascii	"ADC_CR_CLKDIV(n) ((((n) & 0xFF) << 8))\000"
 11529      43525F43 
 11529      4C4B4449 
 11529      56286E29 
 11529      20282828 
 11530              	.LASF885:
 11531 7798 4932435F 		.ascii	"I2C_STAT_CODE_BITMASK ((0xF8))\000"
 11531      53544154 
 11531      5F434F44 
 11531      455F4249 
 11531      544D4153 
 11532              	.LASF223:
 11533 77b7 5F5F5341 		.ascii	"__SACCUM_FBIT__ 7\000"
 11533      4343554D 
 11533      5F464249 
 11533      545F5F20 
 11533      3700
 11534              	.LASF260:
 11535 77c9 5F5F554C 		.ascii	"__ULLACCUM_MIN__ 0.0ULLK\000"
 11535      4C414343 
 11535      554D5F4D 
 11535      494E5F5F 
 11535      20302E30 
 11536              	.LASF765:
 11537 77e2 55415254 		.ascii	"UART_MSR_CTS (1 << 4)\000"
 11537      5F4D5352 
 11537      5F435453 
 11537      20283120 
 11537      3C3C2034 
 11538              	.LASF931:
 11539 77f8 4932435F 		.ascii	"I2C_SETUP_STATUS_NOACKF (1 << 9)\000"
 11539      53455455 
 11539      505F5354 
 11539      41545553 
 11539      5F4E4F41 
 11540              		.ident	"GCC: (GNU Tools for ARM Embedded Processors) 4.8.4 20140725 (release) [ARM/embedded-4_8-br
ARM GAS  /var/folders/f9/8bk2lnw15zn4cbgn6wrnb4lm0000gn/T//ccyV4EJ6.s 			page 303


DEFINED SYMBOLS
                            *ABS*:0000000000000000 uart_11xx.c
/var/folders/f9/8bk2lnw15zn4cbgn6wrnb4lm0000gn/T//ccyV4EJ6.s:67     .text.Chip_UART_Init:0000000000000000 $t
/var/folders/f9/8bk2lnw15zn4cbgn6wrnb4lm0000gn/T//ccyV4EJ6.s:72     .text.Chip_UART_Init:0000000000000000 Chip_UART_Init
/var/folders/f9/8bk2lnw15zn4cbgn6wrnb4lm0000gn/T//ccyV4EJ6.s:136    .text.Chip_UART_Init:0000000000000024 $d
/var/folders/f9/8bk2lnw15zn4cbgn6wrnb4lm0000gn/T//ccyV4EJ6.s:141    .text.Chip_UART_DeInit:0000000000000000 $t
/var/folders/f9/8bk2lnw15zn4cbgn6wrnb4lm0000gn/T//ccyV4EJ6.s:146    .text.Chip_UART_DeInit:0000000000000000 Chip_UART_DeInit
/var/folders/f9/8bk2lnw15zn4cbgn6wrnb4lm0000gn/T//ccyV4EJ6.s:175    .text.Chip_UART_DeInit:0000000000000010 $d
/var/folders/f9/8bk2lnw15zn4cbgn6wrnb4lm0000gn/T//ccyV4EJ6.s:181    .text.Chip_UART_Send:0000000000000000 $t
/var/folders/f9/8bk2lnw15zn4cbgn6wrnb4lm0000gn/T//ccyV4EJ6.s:186    .text.Chip_UART_Send:0000000000000000 Chip_UART_Send
/var/folders/f9/8bk2lnw15zn4cbgn6wrnb4lm0000gn/T//ccyV4EJ6.s:263    .text.Chip_UART_SendBlocking:0000000000000000 $t
/var/folders/f9/8bk2lnw15zn4cbgn6wrnb4lm0000gn/T//ccyV4EJ6.s:268    .text.Chip_UART_SendBlocking:0000000000000000 Chip_UART_SendBlocking
/var/folders/f9/8bk2lnw15zn4cbgn6wrnb4lm0000gn/T//ccyV4EJ6.s:354    .text.Chip_UART_Read:0000000000000000 $t
/var/folders/f9/8bk2lnw15zn4cbgn6wrnb4lm0000gn/T//ccyV4EJ6.s:359    .text.Chip_UART_Read:0000000000000000 Chip_UART_Read
/var/folders/f9/8bk2lnw15zn4cbgn6wrnb4lm0000gn/T//ccyV4EJ6.s:430    .text.Chip_UART_ReadBlocking:0000000000000000 $t
/var/folders/f9/8bk2lnw15zn4cbgn6wrnb4lm0000gn/T//ccyV4EJ6.s:435    .text.Chip_UART_ReadBlocking:0000000000000000 Chip_UART_ReadBlocking
/var/folders/f9/8bk2lnw15zn4cbgn6wrnb4lm0000gn/T//ccyV4EJ6.s:517    .text.Chip_UART_SetBaud:0000000000000000 $t
/var/folders/f9/8bk2lnw15zn4cbgn6wrnb4lm0000gn/T//ccyV4EJ6.s:522    .text.Chip_UART_SetBaud:0000000000000000 Chip_UART_SetBaud
/var/folders/f9/8bk2lnw15zn4cbgn6wrnb4lm0000gn/T//ccyV4EJ6.s:617    .text.Chip_UART_RXIntHandlerRB:0000000000000000 $t
/var/folders/f9/8bk2lnw15zn4cbgn6wrnb4lm0000gn/T//ccyV4EJ6.s:622    .text.Chip_UART_RXIntHandlerRB:0000000000000000 Chip_UART_RXIntHandlerRB
/var/folders/f9/8bk2lnw15zn4cbgn6wrnb4lm0000gn/T//ccyV4EJ6.s:695    .text.Chip_UART_TXIntHandlerRB:0000000000000000 $t
/var/folders/f9/8bk2lnw15zn4cbgn6wrnb4lm0000gn/T//ccyV4EJ6.s:700    .text.Chip_UART_TXIntHandlerRB:0000000000000000 Chip_UART_TXIntHandlerRB
/var/folders/f9/8bk2lnw15zn4cbgn6wrnb4lm0000gn/T//ccyV4EJ6.s:770    .text.Chip_UART_SendRB:0000000000000000 $t
/var/folders/f9/8bk2lnw15zn4cbgn6wrnb4lm0000gn/T//ccyV4EJ6.s:775    .text.Chip_UART_SendRB:0000000000000000 Chip_UART_SendRB
/var/folders/f9/8bk2lnw15zn4cbgn6wrnb4lm0000gn/T//ccyV4EJ6.s:872    .text.Chip_UART_ReadRB:0000000000000000 $t
/var/folders/f9/8bk2lnw15zn4cbgn6wrnb4lm0000gn/T//ccyV4EJ6.s:877    .text.Chip_UART_ReadRB:0000000000000000 Chip_UART_ReadRB
/var/folders/f9/8bk2lnw15zn4cbgn6wrnb4lm0000gn/T//ccyV4EJ6.s:902    .text.Chip_UART_IRQRBHandler:0000000000000000 $t
/var/folders/f9/8bk2lnw15zn4cbgn6wrnb4lm0000gn/T//ccyV4EJ6.s:907    .text.Chip_UART_IRQRBHandler:0000000000000000 Chip_UART_IRQRBHandler
/var/folders/f9/8bk2lnw15zn4cbgn6wrnb4lm0000gn/T//ccyV4EJ6.s:1023   .text.Chip_UART_SetBaudFDR:0000000000000000 $t
/var/folders/f9/8bk2lnw15zn4cbgn6wrnb4lm0000gn/T//ccyV4EJ6.s:1028   .text.Chip_UART_SetBaudFDR:0000000000000000 Chip_UART_SetBaudFDR
                     .debug_frame:0000000000000010 $d
                           .group:0000000000000000 wm4.0.121fbee677f1a8a7d8c40a6e8762ca43
                           .group:0000000000000000 wm4.features.h.22.6a4ca7cd053637cc1d0db6c16f39b2d7
                           .group:0000000000000000 wm4._default_types.h.15.8b2cb27e528498f8ff711db085d6e489
                           .group:0000000000000000 wm4.stdint.h.20.796e373797e732130a803d4c0338fa1b
                           .group:0000000000000000 wm4.stdbool.h.29.1c9ee6859ce8145f7838a4f2549ccec2
                           .group:0000000000000000 wm4.lpc_types.h.63.860ba57581a002825766a7c2ac00d549
                           .group:0000000000000000 wm4.sys_config.h.31.9f234e9c90333d233c7e647ebe63e928
                           .group:0000000000000000 wm4.cmsis_11cxx.h.33.407e9bbb5d170cd1552d3f7dc3fd5c42
                           .group:0000000000000000 wm4.core_cm0.h.32.192d13cfa8b31e63c86621de62eb153f
                           .group:0000000000000000 wm4.core_cm0.h.120.f4257ea7d0bce0cbabffe223e23b2fd4
                           .group:0000000000000000 wm4.chip.h.116.857da603c399e979152c31968de4baae
                           .group:0000000000000000 wm4.pmu_11xx.h.33.1d6b708881441cb98d19b8bab3caa180
                           .group:0000000000000000 wm4.sysctl_11xx.h.33.ae61a1181e608f8409883008e291930c
                           .group:0000000000000000 wm4.clock_11xx.h.33.23290a9e2ed919e3a6958d25130bc848
                           .group:0000000000000000 wm4.iocon_11xx.h.33.25e2b3cde122df23fb07b984cb4f3a93
                           .group:0000000000000000 wm4.timer_11xx.h.33.c92f50a9325789ee6a8ffd6248980d70
                           .group:0000000000000000 wm4.ring_buffer.h.33.ffd8153954783612f9c626df1ed9e770
                           .group:0000000000000000 wm4.uart_11xx.h.98.fe68b709973730a4fba3f3ce60c5c312
                           .group:0000000000000000 wm4.wwdt_11xx.h.33.5768344983cb842df69cc91ea86cabb0
                           .group:0000000000000000 wm4.ssp_11xx.h.33.af054d3d65f4cb0c078be40bb872ec37
                           .group:0000000000000000 wm4.error.h.38.ae74fe1dd9d19c80c505f1fda144fce8
                           .group:0000000000000000 wm4.adc_11xx.h.33.6ce7433ac6b30df70a6993d01dbd513f
                           .group:0000000000000000 wm4.i2c_11xx.h.33.2b506d1350e00a8c26e8bf006a5f9390
                           .group:0000000000000000 wm4.ccand_11xx.h.33.99627f4b529fecdc77b0877ab6fe5266

UNDEFINED SYMBOLS
ARM GAS  /var/folders/f9/8bk2lnw15zn4cbgn6wrnb4lm0000gn/T//ccyV4EJ6.s 			page 304


__aeabi_uidiv
Chip_Clock_GetMainClockRate
RingBuffer_Insert
RingBuffer_Pop
RingBuffer_InsertMult
RingBuffer_PopMult
__aeabi_uidivmod
