ARM GAS  /var/folders/f9/8bk2lnw15zn4cbgn6wrnb4lm0000gn/T//ccyV4EJ6.s 			page 1


   1              		.cpu cortex-m0
   2              		.fpu softvfp
   3              		.eabi_attribute 20, 1	@ Tag_ABI_FP_denormal
   4              		.eabi_attribute 21, 1	@ Tag_ABI_FP_exceptions
   5              		.eabi_attribute 23, 3	@ Tag_ABI_FP_number_model
   6              		.eabi_attribute 24, 1	@ Tag_ABI_align8_needed
   7              		.eabi_attribute 25, 1	@ Tag_ABI_align8_preserved
   8              		.eabi_attribute 26, 1	@ Tag_ABI_enum_size
   9              		.eabi_attribute 30, 2	@ Tag_ABI_optimization_goals
  10              		.eabi_attribute 34, 0	@ Tag_CPU_unaligned_access
  11              		.eabi_attribute 18, 4	@ Tag_ABI_PCS_wchar_t
  12              		.file	"uart_11xx.c"
  13              	@ GNU C (GNU Tools for ARM Embedded Processors) version 4.8.4 20140725 (release) [ARM/embedded-4_8-
  14              	@	compiled by GNU C version 4.2.1 (Based on Apple Inc. build 5658) (LLVM build 2336.9.00), GMP vers
  15              	@ GGC heuristics: --param ggc-min-expand=100 --param ggc-min-heapsize=131072
  16              	@ options passed:  -I . -I ../../lpc_chip_11cxx_lib/inc
  17              	@ -I ../../evt_lib/inc -imultilib armv6-m
  18              	@ -iprefix /usr/local/Cellar/gcc-arm-none-eabi/20140805/bin/../lib/gcc/arm-none-eabi/4.8.4/
  19              	@ -isysroot /usr/local/Cellar/gcc-arm-none-eabi/20140805/bin/../arm-none-eabi
  20              	@ -MD bin/uart_11xx.d -MF bin/uart_11xx.d -MP -MQ bin/uart_11xx.o
  21              	@ -D__USES_INITFINI__ -D CORE_M0 ../../lpc_chip_11cxx_lib/src/uart_11xx.c
  22              	@ -mcpu=cortex-m0 -mthumb -auxbase-strip bin/uart_11xx.o -g -ggdb3 -O2
  23              	@ -Wall -Wstrict-prototypes -Wextra -std=gnu90 -ffunction-sections
  24              	@ -fdata-sections -fverbose-asm
  25              	@ options enabled:  -faggressive-loop-optimizations -fauto-inc-dec
  26              	@ -fbranch-count-reg -fcaller-saves -fcombine-stack-adjustments -fcommon
  27              	@ -fcompare-elim -fcprop-registers -fcrossjumping -fcse-follow-jumps
  28              	@ -fdata-sections -fdefer-pop -fdelete-null-pointer-checks -fdevirtualize
  29              	@ -fdwarf2-cfi-asm -fearly-inlining -feliminate-unused-debug-types
  30              	@ -fexpensive-optimizations -fforward-propagate -ffunction-cse
  31              	@ -ffunction-sections -fgcse -fgcse-lm -fgnu-runtime -fgnu-unique
  32              	@ -fguess-branch-probability -fhoist-adjacent-loads -fident -fif-conversion
  33              	@ -fif-conversion2 -findirect-inlining -finline -finline-atomics
  34              	@ -finline-functions-called-once -finline-small-functions -fipa-cp
  35              	@ -fipa-profile -fipa-pure-const -fipa-reference -fipa-sra
  36              	@ -fira-hoist-pressure -fira-share-save-slots -fira-share-spill-slots
  37              	@ -fivopts -fkeep-static-consts -fleading-underscore -fmath-errno
  38              	@ -fmerge-constants -fmerge-debug-strings -fmove-loop-invariants
  39              	@ -fomit-frame-pointer -foptimize-register-move -foptimize-sibling-calls
  40              	@ -foptimize-strlen -fpartial-inlining -fpeephole -fpeephole2
  41              	@ -fprefetch-loop-arrays -freg-struct-return -fregmove -freorder-blocks
  42              	@ -freorder-functions -frerun-cse-after-loop
  43              	@ -fsched-critical-path-heuristic -fsched-dep-count-heuristic
  44              	@ -fsched-group-heuristic -fsched-interblock -fsched-last-insn-heuristic
  45              	@ -fsched-pressure -fsched-rank-heuristic -fsched-spec
  46              	@ -fsched-spec-insn-heuristic -fsched-stalled-insns-dep -fschedule-insns2
  47              	@ -fsection-anchors -fshow-column -fshrink-wrap -fsigned-zeros
  48              	@ -fsplit-ivs-in-unroller -fsplit-wide-types -fstrict-aliasing
  49              	@ -fstrict-overflow -fstrict-volatile-bitfields -fsync-libcalls
  50              	@ -fthread-jumps -ftoplevel-reorder -ftrapping-math -ftree-bit-ccp
  51              	@ -ftree-builtin-call-dce -ftree-ccp -ftree-ch -ftree-coalesce-vars
  52              	@ -ftree-copy-prop -ftree-copyrename -ftree-cselim -ftree-dce
  53              	@ -ftree-dominator-opts -ftree-dse -ftree-forwprop -ftree-fre
  54              	@ -ftree-loop-if-convert -ftree-loop-im -ftree-loop-ivcanon
  55              	@ -ftree-loop-optimize -ftree-parallelize-loops= -ftree-phiprop -ftree-pre
  56              	@ -ftree-pta -ftree-reassoc -ftree-scev-cprop -ftree-sink
  57              	@ -ftree-slp-vectorize -ftree-slsr -ftree-sra -ftree-switch-conversion
ARM GAS  /var/folders/f9/8bk2lnw15zn4cbgn6wrnb4lm0000gn/T//ccyV4EJ6.s 			page 2


  58              	@ -ftree-tail-merge -ftree-ter -ftree-vect-loop-version -ftree-vrp
  59              	@ -funit-at-a-time -fvar-tracking -fvar-tracking-assignments -fverbose-asm
  60              	@ -fzero-initialized-in-bss -mlittle-endian -mpic-data-is-text-relative
  61              	@ -msched-prolog -mthumb -mvectorize-with-neon-quad
  62              	
  63              		.text
  64              	.Ltext0:
  65              		.cfi_sections	.debug_frame
  66              		.section	.text.Chip_UART_Init,"ax",%progbits
  67              		.align	2
  68              		.global	Chip_UART_Init
  69              		.code	16
  70              		.thumb_func
  71              		.type	Chip_UART_Init, %function
  72              	Chip_UART_Init:
  73              	.LFB198:
  74              		.file 1 "../../lpc_chip_11cxx_lib/src/uart_11xx.c"
   1:../../lpc_chip_11cxx_lib/src/uart_11xx.c **** /*
   2:../../lpc_chip_11cxx_lib/src/uart_11xx.c ****  * @brief LPC11xx UART chip driver
   3:../../lpc_chip_11cxx_lib/src/uart_11xx.c ****  *
   4:../../lpc_chip_11cxx_lib/src/uart_11xx.c ****  * @note
   5:../../lpc_chip_11cxx_lib/src/uart_11xx.c ****  * Copyright(C) NXP Semiconductors, 2012
   6:../../lpc_chip_11cxx_lib/src/uart_11xx.c ****  * All rights reserved.
   7:../../lpc_chip_11cxx_lib/src/uart_11xx.c ****  *
   8:../../lpc_chip_11cxx_lib/src/uart_11xx.c ****  * @par
   9:../../lpc_chip_11cxx_lib/src/uart_11xx.c ****  * Software that is described herein is for illustrative purposes only
  10:../../lpc_chip_11cxx_lib/src/uart_11xx.c ****  * which provides customers with programming information regarding the
  11:../../lpc_chip_11cxx_lib/src/uart_11xx.c ****  * LPC products.  This software is supplied "AS IS" without any warranties of
  12:../../lpc_chip_11cxx_lib/src/uart_11xx.c ****  * any kind, and NXP Semiconductors and its licensor disclaim any and
  13:../../lpc_chip_11cxx_lib/src/uart_11xx.c ****  * all warranties, express or implied, including all implied warranties of
  14:../../lpc_chip_11cxx_lib/src/uart_11xx.c ****  * merchantability, fitness for a particular purpose and non-infringement of
  15:../../lpc_chip_11cxx_lib/src/uart_11xx.c ****  * intellectual property rights.  NXP Semiconductors assumes no responsibility
  16:../../lpc_chip_11cxx_lib/src/uart_11xx.c ****  * or liability for the use of the software, conveys no license or rights under any
  17:../../lpc_chip_11cxx_lib/src/uart_11xx.c ****  * patent, copyright, mask work right, or any other intellectual property rights in
  18:../../lpc_chip_11cxx_lib/src/uart_11xx.c ****  * or to any products. NXP Semiconductors reserves the right to make changes
  19:../../lpc_chip_11cxx_lib/src/uart_11xx.c ****  * in the software without notification. NXP Semiconductors also makes no
  20:../../lpc_chip_11cxx_lib/src/uart_11xx.c ****  * representation or warranty that such application will be suitable for the
  21:../../lpc_chip_11cxx_lib/src/uart_11xx.c ****  * specified use without further testing or modification.
  22:../../lpc_chip_11cxx_lib/src/uart_11xx.c ****  *
  23:../../lpc_chip_11cxx_lib/src/uart_11xx.c ****  * @par
  24:../../lpc_chip_11cxx_lib/src/uart_11xx.c ****  * Permission to use, copy, modify, and distribute this software and its
  25:../../lpc_chip_11cxx_lib/src/uart_11xx.c ****  * documentation is hereby granted, under NXP Semiconductors' and its
  26:../../lpc_chip_11cxx_lib/src/uart_11xx.c ****  * licensor's relevant copyrights in the software, without fee, provided that it
  27:../../lpc_chip_11cxx_lib/src/uart_11xx.c ****  * is used in conjunction with NXP Semiconductors microcontrollers.  This
  28:../../lpc_chip_11cxx_lib/src/uart_11xx.c ****  * copyright, permission, and disclaimer notice must appear in all copies of
  29:../../lpc_chip_11cxx_lib/src/uart_11xx.c ****  * this code.
  30:../../lpc_chip_11cxx_lib/src/uart_11xx.c ****  */
  31:../../lpc_chip_11cxx_lib/src/uart_11xx.c **** 
  32:../../lpc_chip_11cxx_lib/src/uart_11xx.c **** #include "chip.h"
  33:../../lpc_chip_11cxx_lib/src/uart_11xx.c **** 
  34:../../lpc_chip_11cxx_lib/src/uart_11xx.c **** /*****************************************************************************
  35:../../lpc_chip_11cxx_lib/src/uart_11xx.c ****  * Private types/enumerations/variables
  36:../../lpc_chip_11cxx_lib/src/uart_11xx.c ****  ****************************************************************************/
  37:../../lpc_chip_11cxx_lib/src/uart_11xx.c **** 
  38:../../lpc_chip_11cxx_lib/src/uart_11xx.c **** /*****************************************************************************
  39:../../lpc_chip_11cxx_lib/src/uart_11xx.c ****  * Public types/enumerations/variables
  40:../../lpc_chip_11cxx_lib/src/uart_11xx.c ****  ****************************************************************************/
ARM GAS  /var/folders/f9/8bk2lnw15zn4cbgn6wrnb4lm0000gn/T//ccyV4EJ6.s 			page 3


  41:../../lpc_chip_11cxx_lib/src/uart_11xx.c **** 
  42:../../lpc_chip_11cxx_lib/src/uart_11xx.c **** /*****************************************************************************
  43:../../lpc_chip_11cxx_lib/src/uart_11xx.c ****  * Private functions
  44:../../lpc_chip_11cxx_lib/src/uart_11xx.c ****  ****************************************************************************/
  45:../../lpc_chip_11cxx_lib/src/uart_11xx.c **** 
  46:../../lpc_chip_11cxx_lib/src/uart_11xx.c **** /*****************************************************************************
  47:../../lpc_chip_11cxx_lib/src/uart_11xx.c ****  * Public functions
  48:../../lpc_chip_11cxx_lib/src/uart_11xx.c ****  ****************************************************************************/
  49:../../lpc_chip_11cxx_lib/src/uart_11xx.c **** 
  50:../../lpc_chip_11cxx_lib/src/uart_11xx.c **** /* Initializes the pUART peripheral */
  51:../../lpc_chip_11cxx_lib/src/uart_11xx.c **** void Chip_UART_Init(LPC_USART_T *pUART)
  52:../../lpc_chip_11cxx_lib/src/uart_11xx.c **** {
  75              		.loc 1 52 0
  76              		.cfi_startproc
  77              	.LVL0:
  78              	.LBB68:
  79              	.LBB69:
  80              		.file 2 "../../lpc_chip_11cxx_lib/inc/clock_11xx.h"
   1:../../lpc_chip_11cxx_lib/inc/clock_11xx.h **** /*
   2:../../lpc_chip_11cxx_lib/inc/clock_11xx.h ****  * @brief LPC11XX Clock control functions
   3:../../lpc_chip_11cxx_lib/inc/clock_11xx.h ****  *
   4:../../lpc_chip_11cxx_lib/inc/clock_11xx.h ****  * @note
   5:../../lpc_chip_11cxx_lib/inc/clock_11xx.h ****  * Copyright(C) NXP Semiconductors, 2012
   6:../../lpc_chip_11cxx_lib/inc/clock_11xx.h ****  * All rights reserved.
   7:../../lpc_chip_11cxx_lib/inc/clock_11xx.h ****  *
   8:../../lpc_chip_11cxx_lib/inc/clock_11xx.h ****  * @par
   9:../../lpc_chip_11cxx_lib/inc/clock_11xx.h ****  * Software that is described herein is for illustrative purposes only
  10:../../lpc_chip_11cxx_lib/inc/clock_11xx.h ****  * which provides customers with programming information regarding the
  11:../../lpc_chip_11cxx_lib/inc/clock_11xx.h ****  * LPC products.  This software is supplied "AS IS" without any warranties of
  12:../../lpc_chip_11cxx_lib/inc/clock_11xx.h ****  * any kind, and NXP Semiconductors and its licensor disclaim any and
  13:../../lpc_chip_11cxx_lib/inc/clock_11xx.h ****  * all warranties, express or implied, including all implied warranties of
  14:../../lpc_chip_11cxx_lib/inc/clock_11xx.h ****  * merchantability, fitness for a particular purpose and non-infringement of
  15:../../lpc_chip_11cxx_lib/inc/clock_11xx.h ****  * intellectual property rights.  NXP Semiconductors assumes no responsibility
  16:../../lpc_chip_11cxx_lib/inc/clock_11xx.h ****  * or liability for the use of the software, conveys no license or rights under any
  17:../../lpc_chip_11cxx_lib/inc/clock_11xx.h ****  * patent, copyright, mask work right, or any other intellectual property rights in
  18:../../lpc_chip_11cxx_lib/inc/clock_11xx.h ****  * or to any products. NXP Semiconductors reserves the right to make changes
  19:../../lpc_chip_11cxx_lib/inc/clock_11xx.h ****  * in the software without notification. NXP Semiconductors also makes no
  20:../../lpc_chip_11cxx_lib/inc/clock_11xx.h ****  * representation or warranty that such application will be suitable for the
  21:../../lpc_chip_11cxx_lib/inc/clock_11xx.h ****  * specified use without further testing or modification.
  22:../../lpc_chip_11cxx_lib/inc/clock_11xx.h ****  *
  23:../../lpc_chip_11cxx_lib/inc/clock_11xx.h ****  * @par
  24:../../lpc_chip_11cxx_lib/inc/clock_11xx.h ****  * Permission to use, copy, modify, and distribute this software and its
  25:../../lpc_chip_11cxx_lib/inc/clock_11xx.h ****  * documentation is hereby granted, under NXP Semiconductors' and its
  26:../../lpc_chip_11cxx_lib/inc/clock_11xx.h ****  * licensor's relevant copyrights in the software, without fee, provided that it
  27:../../lpc_chip_11cxx_lib/inc/clock_11xx.h ****  * is used in conjunction with NXP Semiconductors microcontrollers.  This
  28:../../lpc_chip_11cxx_lib/inc/clock_11xx.h ****  * copyright, permission, and disclaimer notice must appear in all copies of
  29:../../lpc_chip_11cxx_lib/inc/clock_11xx.h ****  * this code.
  30:../../lpc_chip_11cxx_lib/inc/clock_11xx.h ****  */
  31:../../lpc_chip_11cxx_lib/inc/clock_11xx.h **** 
  32:../../lpc_chip_11cxx_lib/inc/clock_11xx.h **** #ifndef __CLOCK_11XX_H_
  33:../../lpc_chip_11cxx_lib/inc/clock_11xx.h **** #define __CLOCK_11XX_H_
  34:../../lpc_chip_11cxx_lib/inc/clock_11xx.h **** 
  35:../../lpc_chip_11cxx_lib/inc/clock_11xx.h **** #ifdef __cplusplus
  36:../../lpc_chip_11cxx_lib/inc/clock_11xx.h **** extern "C" {
  37:../../lpc_chip_11cxx_lib/inc/clock_11xx.h **** #endif
  38:../../lpc_chip_11cxx_lib/inc/clock_11xx.h **** 
  39:../../lpc_chip_11cxx_lib/inc/clock_11xx.h **** /** @defgroup CLOCK_11XX CHIP: LPC11xx Clock Control block driver
ARM GAS  /var/folders/f9/8bk2lnw15zn4cbgn6wrnb4lm0000gn/T//ccyV4EJ6.s 			page 4


  40:../../lpc_chip_11cxx_lib/inc/clock_11xx.h ****  * @ingroup CHIP_11XX_Drivers
  41:../../lpc_chip_11cxx_lib/inc/clock_11xx.h ****  * @{
  42:../../lpc_chip_11cxx_lib/inc/clock_11xx.h ****  */
  43:../../lpc_chip_11cxx_lib/inc/clock_11xx.h **** 
  44:../../lpc_chip_11cxx_lib/inc/clock_11xx.h **** /** Internal oscillator frequency */
  45:../../lpc_chip_11cxx_lib/inc/clock_11xx.h **** #define SYSCTL_IRC_FREQ (12000000)
  46:../../lpc_chip_11cxx_lib/inc/clock_11xx.h **** 
  47:../../lpc_chip_11cxx_lib/inc/clock_11xx.h **** /**
  48:../../lpc_chip_11cxx_lib/inc/clock_11xx.h ****  * @brief	Set System PLL divider values
  49:../../lpc_chip_11cxx_lib/inc/clock_11xx.h ****  * @param	msel    : PLL feedback divider value. M = msel + 1.
  50:../../lpc_chip_11cxx_lib/inc/clock_11xx.h ****  * @param	psel    : PLL post divider value. P =  (1<<psel).
  51:../../lpc_chip_11cxx_lib/inc/clock_11xx.h ****  * @return	Nothing
  52:../../lpc_chip_11cxx_lib/inc/clock_11xx.h ****  * @note	See the user manual for how to setup the PLL.
  53:../../lpc_chip_11cxx_lib/inc/clock_11xx.h ****  */
  54:../../lpc_chip_11cxx_lib/inc/clock_11xx.h **** STATIC INLINE void Chip_Clock_SetupSystemPLL(uint8_t msel, uint8_t psel)
  55:../../lpc_chip_11cxx_lib/inc/clock_11xx.h **** {
  56:../../lpc_chip_11cxx_lib/inc/clock_11xx.h **** 	LPC_SYSCTL->SYSPLLCTRL = (msel & 0x1F) | ((psel & 0x3) << 5);
  57:../../lpc_chip_11cxx_lib/inc/clock_11xx.h **** }
  58:../../lpc_chip_11cxx_lib/inc/clock_11xx.h **** 
  59:../../lpc_chip_11cxx_lib/inc/clock_11xx.h **** /**
  60:../../lpc_chip_11cxx_lib/inc/clock_11xx.h ****  * @brief	Read System PLL lock status
  61:../../lpc_chip_11cxx_lib/inc/clock_11xx.h ****  * @return	true of the PLL is locked. false if not locked
  62:../../lpc_chip_11cxx_lib/inc/clock_11xx.h ****  */
  63:../../lpc_chip_11cxx_lib/inc/clock_11xx.h **** STATIC INLINE bool Chip_Clock_IsSystemPLLLocked(void)
  64:../../lpc_chip_11cxx_lib/inc/clock_11xx.h **** {
  65:../../lpc_chip_11cxx_lib/inc/clock_11xx.h **** 	return (bool) ((LPC_SYSCTL->SYSPLLSTAT & 1) != 0);
  66:../../lpc_chip_11cxx_lib/inc/clock_11xx.h **** }
  67:../../lpc_chip_11cxx_lib/inc/clock_11xx.h **** 
  68:../../lpc_chip_11cxx_lib/inc/clock_11xx.h **** /**
  69:../../lpc_chip_11cxx_lib/inc/clock_11xx.h ****  * Clock sources for system and USB PLLs
  70:../../lpc_chip_11cxx_lib/inc/clock_11xx.h ****  */
  71:../../lpc_chip_11cxx_lib/inc/clock_11xx.h **** typedef enum CHIP_SYSCTL_PLLCLKSRC {
  72:../../lpc_chip_11cxx_lib/inc/clock_11xx.h **** 	SYSCTL_PLLCLKSRC_IRC = 0,		/*!< Internal oscillator in */
  73:../../lpc_chip_11cxx_lib/inc/clock_11xx.h **** 	SYSCTL_PLLCLKSRC_MAINOSC,		/*!< Crystal (main) oscillator in */
  74:../../lpc_chip_11cxx_lib/inc/clock_11xx.h **** #if defined(CHIP_LPC11AXX)
  75:../../lpc_chip_11cxx_lib/inc/clock_11xx.h **** 	SYSCTL_PLLCLKSRC_EXT_CLKIN,	/*!< External clock in (11Axx only) */
  76:../../lpc_chip_11cxx_lib/inc/clock_11xx.h **** #else
  77:../../lpc_chip_11cxx_lib/inc/clock_11xx.h **** 	SYSCTL_PLLCLKSRC_RESERVED1,	/*!< Reserved */
  78:../../lpc_chip_11cxx_lib/inc/clock_11xx.h **** #endif
  79:../../lpc_chip_11cxx_lib/inc/clock_11xx.h **** 	SYSCTL_PLLCLKSRC_RESERVED2,	/*!< Reserved */
  80:../../lpc_chip_11cxx_lib/inc/clock_11xx.h **** } CHIP_SYSCTL_PLLCLKSRC_T;
  81:../../lpc_chip_11cxx_lib/inc/clock_11xx.h **** 
  82:../../lpc_chip_11cxx_lib/inc/clock_11xx.h **** /**
  83:../../lpc_chip_11cxx_lib/inc/clock_11xx.h ****  * @brief	Set System PLL clock source
  84:../../lpc_chip_11cxx_lib/inc/clock_11xx.h ****  * @param	src	: Clock source for system PLL
  85:../../lpc_chip_11cxx_lib/inc/clock_11xx.h ****  * @return	Nothing
  86:../../lpc_chip_11cxx_lib/inc/clock_11xx.h ****  * @note	This function will also toggle the clock source update register
  87:../../lpc_chip_11cxx_lib/inc/clock_11xx.h ****  * to update the clock source.
  88:../../lpc_chip_11cxx_lib/inc/clock_11xx.h ****  */
  89:../../lpc_chip_11cxx_lib/inc/clock_11xx.h **** void Chip_Clock_SetSystemPLLSource(CHIP_SYSCTL_PLLCLKSRC_T src);
  90:../../lpc_chip_11cxx_lib/inc/clock_11xx.h **** 
  91:../../lpc_chip_11cxx_lib/inc/clock_11xx.h **** #if defined(CHIP_LPC11UXX)
  92:../../lpc_chip_11cxx_lib/inc/clock_11xx.h **** /**
  93:../../lpc_chip_11cxx_lib/inc/clock_11xx.h ****  * @brief	Set USB PLL divider values
  94:../../lpc_chip_11cxx_lib/inc/clock_11xx.h ****  * @param	msel    : PLL feedback divider value. M = msel + 1.
  95:../../lpc_chip_11cxx_lib/inc/clock_11xx.h ****  * @param	psel    : PLL post divider value. P = (1<<psel).
  96:../../lpc_chip_11cxx_lib/inc/clock_11xx.h ****  * @return	Nothing
ARM GAS  /var/folders/f9/8bk2lnw15zn4cbgn6wrnb4lm0000gn/T//ccyV4EJ6.s 			page 5


  97:../../lpc_chip_11cxx_lib/inc/clock_11xx.h ****  * @note	See the user manual for how to setup the PLL.
  98:../../lpc_chip_11cxx_lib/inc/clock_11xx.h ****  */
  99:../../lpc_chip_11cxx_lib/inc/clock_11xx.h **** STATIC INLINE void Chip_Clock_SetupUSBPLL(uint8_t msel, uint8_t psel)
 100:../../lpc_chip_11cxx_lib/inc/clock_11xx.h **** {
 101:../../lpc_chip_11cxx_lib/inc/clock_11xx.h **** 	LPC_SYSCTL->USBPLLCTRL = (msel & 0x1F) | ((psel & 0x3) << 5);
 102:../../lpc_chip_11cxx_lib/inc/clock_11xx.h **** }
 103:../../lpc_chip_11cxx_lib/inc/clock_11xx.h **** 
 104:../../lpc_chip_11cxx_lib/inc/clock_11xx.h **** /**
 105:../../lpc_chip_11cxx_lib/inc/clock_11xx.h ****  * @brief	Read USB PLL lock status
 106:../../lpc_chip_11cxx_lib/inc/clock_11xx.h ****  * @return	true of the PLL is locked. false if not locked
 107:../../lpc_chip_11cxx_lib/inc/clock_11xx.h ****  */
 108:../../lpc_chip_11cxx_lib/inc/clock_11xx.h **** STATIC INLINE bool Chip_Clock_IsUSBPLLLocked(void)
 109:../../lpc_chip_11cxx_lib/inc/clock_11xx.h **** {
 110:../../lpc_chip_11cxx_lib/inc/clock_11xx.h **** 	return (bool) ((LPC_SYSCTL->USBPLLSTAT & 1) != 0);
 111:../../lpc_chip_11cxx_lib/inc/clock_11xx.h **** }
 112:../../lpc_chip_11cxx_lib/inc/clock_11xx.h **** 
 113:../../lpc_chip_11cxx_lib/inc/clock_11xx.h **** /**
 114:../../lpc_chip_11cxx_lib/inc/clock_11xx.h ****  * @brief	Set USB PLL clock source
 115:../../lpc_chip_11cxx_lib/inc/clock_11xx.h ****  * @param	src	: Clock source for USB PLL
 116:../../lpc_chip_11cxx_lib/inc/clock_11xx.h ****  * @return	Nothing
 117:../../lpc_chip_11cxx_lib/inc/clock_11xx.h ****  * @note	This function will also toggle the clock source update register
 118:../../lpc_chip_11cxx_lib/inc/clock_11xx.h ****  * to update the clock source.
 119:../../lpc_chip_11cxx_lib/inc/clock_11xx.h ****  */
 120:../../lpc_chip_11cxx_lib/inc/clock_11xx.h **** void Chip_Clock_SetUSBPLLSource(CHIP_SYSCTL_PLLCLKSRC_T src);
 121:../../lpc_chip_11cxx_lib/inc/clock_11xx.h **** 
 122:../../lpc_chip_11cxx_lib/inc/clock_11xx.h **** #endif /*defined(CHIP_LPC11UXX)*/
 123:../../lpc_chip_11cxx_lib/inc/clock_11xx.h **** 
 124:../../lpc_chip_11cxx_lib/inc/clock_11xx.h **** /**
 125:../../lpc_chip_11cxx_lib/inc/clock_11xx.h ****  * @brief	Bypass System Oscillator and set oscillator frequency range
 126:../../lpc_chip_11cxx_lib/inc/clock_11xx.h ****  * @param	bypass	: Flag to bypass oscillator
 127:../../lpc_chip_11cxx_lib/inc/clock_11xx.h ****  * @param	highfr	: Flag to set oscillator range from 15-25 MHz
 128:../../lpc_chip_11cxx_lib/inc/clock_11xx.h ****  * @return	Nothing
 129:../../lpc_chip_11cxx_lib/inc/clock_11xx.h ****  * @note	Sets the PLL input to bypass the oscillator. This would be
 130:../../lpc_chip_11cxx_lib/inc/clock_11xx.h ****  * used if an external clock that is not an oscillator is attached
 131:../../lpc_chip_11cxx_lib/inc/clock_11xx.h ****  * to the XTALIN pin.
 132:../../lpc_chip_11cxx_lib/inc/clock_11xx.h ****  */
 133:../../lpc_chip_11cxx_lib/inc/clock_11xx.h **** void Chip_Clock_SetPLLBypass(bool bypass, bool highfr);
 134:../../lpc_chip_11cxx_lib/inc/clock_11xx.h **** 
 135:../../lpc_chip_11cxx_lib/inc/clock_11xx.h **** /**
 136:../../lpc_chip_11cxx_lib/inc/clock_11xx.h ****  * Watchdog and low frequency oscillator frequencies plus or minus 40%
 137:../../lpc_chip_11cxx_lib/inc/clock_11xx.h ****  */
 138:../../lpc_chip_11cxx_lib/inc/clock_11xx.h **** typedef enum CHIP_WDTLFO_OSC {
 139:../../lpc_chip_11cxx_lib/inc/clock_11xx.h **** 	WDTLFO_OSC_ILLEGAL,
 140:../../lpc_chip_11cxx_lib/inc/clock_11xx.h **** 	WDTLFO_OSC_0_60,	/*!< 0.6 MHz watchdog/LFO rate */
 141:../../lpc_chip_11cxx_lib/inc/clock_11xx.h **** 	WDTLFO_OSC_1_05,	/*!< 1.05 MHz watchdog/LFO rate */
 142:../../lpc_chip_11cxx_lib/inc/clock_11xx.h **** 	WDTLFO_OSC_1_40,	/*!< 1.4 MHz watchdog/LFO rate */
 143:../../lpc_chip_11cxx_lib/inc/clock_11xx.h **** 	WDTLFO_OSC_1_75,	/*!< 1.75 MHz watchdog/LFO rate */
 144:../../lpc_chip_11cxx_lib/inc/clock_11xx.h **** 	WDTLFO_OSC_2_10,	/*!< 2.1 MHz watchdog/LFO rate */
 145:../../lpc_chip_11cxx_lib/inc/clock_11xx.h **** 	WDTLFO_OSC_2_40,	/*!< 2.4 MHz watchdog/LFO rate */
 146:../../lpc_chip_11cxx_lib/inc/clock_11xx.h **** 	WDTLFO_OSC_2_70,	/*!< 2.7 MHz watchdog/LFO rate */
 147:../../lpc_chip_11cxx_lib/inc/clock_11xx.h **** 	WDTLFO_OSC_3_00,	/*!< 3.0 MHz watchdog/LFO rate */
 148:../../lpc_chip_11cxx_lib/inc/clock_11xx.h **** 	WDTLFO_OSC_3_25,	/*!< 3.25 MHz watchdog/LFO rate */
 149:../../lpc_chip_11cxx_lib/inc/clock_11xx.h **** 	WDTLFO_OSC_3_50,	/*!< 3.5 MHz watchdog/LFO rate */
 150:../../lpc_chip_11cxx_lib/inc/clock_11xx.h **** 	WDTLFO_OSC_3_75,	/*!< 3.75 MHz watchdog/LFO rate */
 151:../../lpc_chip_11cxx_lib/inc/clock_11xx.h **** 	WDTLFO_OSC_4_00,	/*!< 4.0 MHz watchdog/LFO rate */
 152:../../lpc_chip_11cxx_lib/inc/clock_11xx.h **** 	WDTLFO_OSC_4_20,	/*!< 4.2 MHz watchdog/LFO rate */
 153:../../lpc_chip_11cxx_lib/inc/clock_11xx.h **** 	WDTLFO_OSC_4_40,	/*!< 4.4 MHz watchdog/LFO rate */
ARM GAS  /var/folders/f9/8bk2lnw15zn4cbgn6wrnb4lm0000gn/T//ccyV4EJ6.s 			page 6


 154:../../lpc_chip_11cxx_lib/inc/clock_11xx.h **** 	WDTLFO_OSC_4_60		/*!< 4.6 MHz watchdog/LFO rate */
 155:../../lpc_chip_11cxx_lib/inc/clock_11xx.h **** } CHIP_WDTLFO_OSC_T;
 156:../../lpc_chip_11cxx_lib/inc/clock_11xx.h **** 
 157:../../lpc_chip_11cxx_lib/inc/clock_11xx.h **** /**
 158:../../lpc_chip_11cxx_lib/inc/clock_11xx.h ****  * @brief	Setup Watchdog oscillator rate and divider
 159:../../lpc_chip_11cxx_lib/inc/clock_11xx.h ****  * @param	wdtclk	: Selected watchdog clock rate
 160:../../lpc_chip_11cxx_lib/inc/clock_11xx.h ****  * @param	div		: Watchdog divider value, even value between 2 and 64
 161:../../lpc_chip_11cxx_lib/inc/clock_11xx.h ****  * @return	Nothing
 162:../../lpc_chip_11cxx_lib/inc/clock_11xx.h ****  * @note	Watchdog rate = selected rate divided by divider rate
 163:../../lpc_chip_11cxx_lib/inc/clock_11xx.h ****  */
 164:../../lpc_chip_11cxx_lib/inc/clock_11xx.h **** STATIC INLINE void Chip_Clock_SetWDTOSC(CHIP_WDTLFO_OSC_T wdtclk, uint8_t div)
 165:../../lpc_chip_11cxx_lib/inc/clock_11xx.h **** {
 166:../../lpc_chip_11cxx_lib/inc/clock_11xx.h **** 	LPC_SYSCTL->WDTOSCCTRL  = (((uint32_t) wdtclk) << 5) | ((div >> 1) - 1);
 167:../../lpc_chip_11cxx_lib/inc/clock_11xx.h **** }
 168:../../lpc_chip_11cxx_lib/inc/clock_11xx.h **** 
 169:../../lpc_chip_11cxx_lib/inc/clock_11xx.h **** #if defined(CHIP_LPC11AXX)
 170:../../lpc_chip_11cxx_lib/inc/clock_11xx.h **** /**
 171:../../lpc_chip_11cxx_lib/inc/clock_11xx.h ****  * @brief	Setup low frequency oscillator rate and divider
 172:../../lpc_chip_11cxx_lib/inc/clock_11xx.h ****  * @param	lfoclk	: Selected low frequency clock rate
 173:../../lpc_chip_11cxx_lib/inc/clock_11xx.h ****  * @param	div		: Low frequency divider value, even value between 2 and 64
 174:../../lpc_chip_11cxx_lib/inc/clock_11xx.h ****  * @return	Nothing
 175:../../lpc_chip_11cxx_lib/inc/clock_11xx.h ****  * @note	Low frequency oscillator rate = selected rate divided by divider rate
 176:../../lpc_chip_11cxx_lib/inc/clock_11xx.h ****  */
 177:../../lpc_chip_11cxx_lib/inc/clock_11xx.h **** STATIC INLINE void Chip_Clock_SetLFOSC(CHIP_WDTLFO_OSC_T lfoclk, uint8_t div)
 178:../../lpc_chip_11cxx_lib/inc/clock_11xx.h **** {
 179:../../lpc_chip_11cxx_lib/inc/clock_11xx.h **** 	LPC_SYSCTL->LFOSCCTRL  = (((uint32_t) lfoclk) << 5) | ((div >> 1) - 1);
 180:../../lpc_chip_11cxx_lib/inc/clock_11xx.h **** }
 181:../../lpc_chip_11cxx_lib/inc/clock_11xx.h **** 
 182:../../lpc_chip_11cxx_lib/inc/clock_11xx.h **** #endif /*CHIP_LPC11AXX*/
 183:../../lpc_chip_11cxx_lib/inc/clock_11xx.h **** 
 184:../../lpc_chip_11cxx_lib/inc/clock_11xx.h **** /**
 185:../../lpc_chip_11cxx_lib/inc/clock_11xx.h ****  * Clock sources for main system clock
 186:../../lpc_chip_11cxx_lib/inc/clock_11xx.h ****  */
 187:../../lpc_chip_11cxx_lib/inc/clock_11xx.h **** typedef enum CHIP_SYSCTL_MAINCLKSRC {
 188:../../lpc_chip_11cxx_lib/inc/clock_11xx.h **** 	SYSCTL_MAINCLKSRC_IRC = 0,		/*!< Internal oscillator */
 189:../../lpc_chip_11cxx_lib/inc/clock_11xx.h **** 	SYSCTL_MAINCLKSRC_PLLIN,		/*!< System PLL input */
 190:../../lpc_chip_11cxx_lib/inc/clock_11xx.h **** 	SYSCTL_MAINCLKSRC_LFOSC,		/*!< LF oscillator rate (11Axx only) */
 191:../../lpc_chip_11cxx_lib/inc/clock_11xx.h **** 	SYSCTL_MAINCLKSRC_WDTOSC = SYSCTL_MAINCLKSRC_LFOSC,	/*!< Watchdog oscillator rate */
 192:../../lpc_chip_11cxx_lib/inc/clock_11xx.h **** 	SYSCTL_MAINCLKSRC_PLLOUT,		/*!< System PLL output */
 193:../../lpc_chip_11cxx_lib/inc/clock_11xx.h **** } CHIP_SYSCTL_MAINCLKSRC_T;
 194:../../lpc_chip_11cxx_lib/inc/clock_11xx.h **** 
 195:../../lpc_chip_11cxx_lib/inc/clock_11xx.h **** /**
 196:../../lpc_chip_11cxx_lib/inc/clock_11xx.h ****  * @brief	Set main system clock source
 197:../../lpc_chip_11cxx_lib/inc/clock_11xx.h ****  * @param	src	: Clock source for main system
 198:../../lpc_chip_11cxx_lib/inc/clock_11xx.h ****  * @return	Nothing
 199:../../lpc_chip_11cxx_lib/inc/clock_11xx.h ****  * @note	This function will also toggle the clock source update register
 200:../../lpc_chip_11cxx_lib/inc/clock_11xx.h ****  * to update the clock source.
 201:../../lpc_chip_11cxx_lib/inc/clock_11xx.h ****  */
 202:../../lpc_chip_11cxx_lib/inc/clock_11xx.h **** void Chip_Clock_SetMainClockSource(CHIP_SYSCTL_MAINCLKSRC_T src);
 203:../../lpc_chip_11cxx_lib/inc/clock_11xx.h **** 
 204:../../lpc_chip_11cxx_lib/inc/clock_11xx.h **** /**
 205:../../lpc_chip_11cxx_lib/inc/clock_11xx.h ****  * @brief   Returns the main clock source
 206:../../lpc_chip_11cxx_lib/inc/clock_11xx.h ****  * @return	Which clock is used for the core clock source?
 207:../../lpc_chip_11cxx_lib/inc/clock_11xx.h ****  */
 208:../../lpc_chip_11cxx_lib/inc/clock_11xx.h **** STATIC INLINE CHIP_SYSCTL_MAINCLKSRC_T Chip_Clock_GetMainClockSource(void)
 209:../../lpc_chip_11cxx_lib/inc/clock_11xx.h **** {
 210:../../lpc_chip_11cxx_lib/inc/clock_11xx.h **** 	return (CHIP_SYSCTL_MAINCLKSRC_T) (LPC_SYSCTL->MAINCLKSEL);
ARM GAS  /var/folders/f9/8bk2lnw15zn4cbgn6wrnb4lm0000gn/T//ccyV4EJ6.s 			page 7


 211:../../lpc_chip_11cxx_lib/inc/clock_11xx.h **** }
 212:../../lpc_chip_11cxx_lib/inc/clock_11xx.h **** 
 213:../../lpc_chip_11cxx_lib/inc/clock_11xx.h **** /**
 214:../../lpc_chip_11cxx_lib/inc/clock_11xx.h ****  * @brief	Set system clock divider
 215:../../lpc_chip_11cxx_lib/inc/clock_11xx.h ****  * @param	div	: divider for system clock
 216:../../lpc_chip_11cxx_lib/inc/clock_11xx.h ****  * @return	Nothing
 217:../../lpc_chip_11cxx_lib/inc/clock_11xx.h ****  * @note	Use 0 to disable, or a divider value of 1 to 255. The system clock
 218:../../lpc_chip_11cxx_lib/inc/clock_11xx.h ****  * rate is the main system clock divided by this value.
 219:../../lpc_chip_11cxx_lib/inc/clock_11xx.h ****  */
 220:../../lpc_chip_11cxx_lib/inc/clock_11xx.h **** STATIC INLINE void Chip_Clock_SetSysClockDiv(uint32_t div)
 221:../../lpc_chip_11cxx_lib/inc/clock_11xx.h **** {
 222:../../lpc_chip_11cxx_lib/inc/clock_11xx.h **** 	LPC_SYSCTL->SYSAHBCLKDIV  = div;
 223:../../lpc_chip_11cxx_lib/inc/clock_11xx.h **** }
 224:../../lpc_chip_11cxx_lib/inc/clock_11xx.h **** 
 225:../../lpc_chip_11cxx_lib/inc/clock_11xx.h **** /**
 226:../../lpc_chip_11cxx_lib/inc/clock_11xx.h ****  * System and peripheral clocks
 227:../../lpc_chip_11cxx_lib/inc/clock_11xx.h ****  */
 228:../../lpc_chip_11cxx_lib/inc/clock_11xx.h **** typedef enum CHIP_SYSCTL_CLOCK {
 229:../../lpc_chip_11cxx_lib/inc/clock_11xx.h **** 	SYSCTL_CLOCK_SYS = 0,				/*!< 0: System clock */
 230:../../lpc_chip_11cxx_lib/inc/clock_11xx.h **** 	SYSCTL_CLOCK_ROM,					/*!<1:  ROM clock */
 231:../../lpc_chip_11cxx_lib/inc/clock_11xx.h **** 	SYSCTL_CLOCK_RAM,					/*!< 2: RAM clock */
 232:../../lpc_chip_11cxx_lib/inc/clock_11xx.h **** 	SYSCTL_CLOCK_FLASHREG,				/*!< 3: FLASH register interface clock */
 233:../../lpc_chip_11cxx_lib/inc/clock_11xx.h **** 	SYSCTL_CLOCK_FLASHARRAY,			/*!< 4: FLASH array access clock */
 234:../../lpc_chip_11cxx_lib/inc/clock_11xx.h **** #if defined(CHIP_LPC110X)
 235:../../lpc_chip_11cxx_lib/inc/clock_11xx.h **** 	SYSCTL_CLOCK_RESERVED5,				/*!< 5: Reserved */
 236:../../lpc_chip_11cxx_lib/inc/clock_11xx.h **** #else
 237:../../lpc_chip_11cxx_lib/inc/clock_11xx.h **** 	SYSCTL_CLOCK_I2C,					/*!< 5: I2C clock, not on LPC110x */
 238:../../lpc_chip_11cxx_lib/inc/clock_11xx.h **** #endif
 239:../../lpc_chip_11cxx_lib/inc/clock_11xx.h **** 	SYSCTL_CLOCK_GPIO,					/*!< 6: GPIO clock */
 240:../../lpc_chip_11cxx_lib/inc/clock_11xx.h **** 	SYSCTL_CLOCK_CT16B0,				/*!< 7: 16-bit Counter/timer 0 clock */
 241:../../lpc_chip_11cxx_lib/inc/clock_11xx.h **** 	SYSCTL_CLOCK_CT16B1,				/*!< 8: 16-bit Counter/timer 1 clock */
 242:../../lpc_chip_11cxx_lib/inc/clock_11xx.h **** 	SYSCTL_CLOCK_CT32B0,				/*!< 9: 32-bit Counter/timer 0 clock */
 243:../../lpc_chip_11cxx_lib/inc/clock_11xx.h **** 	SYSCTL_CLOCK_CT32B1,				/*!< 10: 32-bit Counter/timer 1 clock */
 244:../../lpc_chip_11cxx_lib/inc/clock_11xx.h **** 	SYSCTL_CLOCK_SSP0,					/*!< 11: SSP0 clock */
 245:../../lpc_chip_11cxx_lib/inc/clock_11xx.h **** 	SYSCTL_CLOCK_UART0,					/*!< 12: UART0 clock */
 246:../../lpc_chip_11cxx_lib/inc/clock_11xx.h **** 	SYSCTL_CLOCK_ADC,					/*!< 13: ADC clock */
 247:../../lpc_chip_11cxx_lib/inc/clock_11xx.h **** #if defined(CHIP_LPC11UXX)
 248:../../lpc_chip_11cxx_lib/inc/clock_11xx.h **** 	SYSCTL_CLOCK_USB,					/*!< 14: USB clock, LPC11Uxx only */
 249:../../lpc_chip_11cxx_lib/inc/clock_11xx.h **** #else
 250:../../lpc_chip_11cxx_lib/inc/clock_11xx.h **** 	SYSCTL_CLOCK_RESERVED14,			/*!< 14: Reserved */
 251:../../lpc_chip_11cxx_lib/inc/clock_11xx.h **** #endif
 252:../../lpc_chip_11cxx_lib/inc/clock_11xx.h **** 	SYSCTL_CLOCK_WDT,					/*!< 15: Watchdog timer clock */
 253:../../lpc_chip_11cxx_lib/inc/clock_11xx.h **** 	SYSCTL_CLOCK_IOCON,					/*!< 16: IOCON block clock */
 254:../../lpc_chip_11cxx_lib/inc/clock_11xx.h **** #if defined(CHIP_LPC11CXX)
 255:../../lpc_chip_11cxx_lib/inc/clock_11xx.h **** 	SYSCTL_CLOCK_CAN,					/*!< 17: CAN clock, LPC11Cxx only */
 256:../../lpc_chip_11cxx_lib/inc/clock_11xx.h **** #else
 257:../../lpc_chip_11cxx_lib/inc/clock_11xx.h **** 	SYSCTL_CLOCK_RESERVED17,			/*!< 17: Reserved */
 258:../../lpc_chip_11cxx_lib/inc/clock_11xx.h **** #endif
 259:../../lpc_chip_11cxx_lib/inc/clock_11xx.h **** #if !(defined(CHIP_LPC110X) || defined(CHIP_LPC11XXLV))  
 260:../../lpc_chip_11cxx_lib/inc/clock_11xx.h **** 	SYSCTL_CLOCK_SSP1,					/*!< 18: SSP1 clock, LPC11A/C/E/Uxx//1125 only */
 261:../../lpc_chip_11cxx_lib/inc/clock_11xx.h **** #if !defined(CHIP_LPC11CXX)
 262:../../lpc_chip_11cxx_lib/inc/clock_11xx.h **** 	SYSCTL_CLOCK_PINT,					/*!< 19: GPIO Pin int register interface clock, LPC11A/E/Uxx only */
 263:../../lpc_chip_11cxx_lib/inc/clock_11xx.h **** #if defined(CHIP_LPC11AXX)
 264:../../lpc_chip_11cxx_lib/inc/clock_11xx.h **** 	SYSCTL_CLOCK_ACOMP,					/*!< 20: Analog comparator clock, LPC11Axx only */
 265:../../lpc_chip_11cxx_lib/inc/clock_11xx.h **** 	SYSCTL_CLOCK_DAC,					/*!< 21: DAC clock, LPC11Axx only */
 266:../../lpc_chip_11cxx_lib/inc/clock_11xx.h **** #else
 267:../../lpc_chip_11cxx_lib/inc/clock_11xx.h **** 	SYSCTL_CLOCK_RESERVED20,			/*!< 20: Reserved */
ARM GAS  /var/folders/f9/8bk2lnw15zn4cbgn6wrnb4lm0000gn/T//ccyV4EJ6.s 			page 8


 268:../../lpc_chip_11cxx_lib/inc/clock_11xx.h **** 	SYSCTL_CLOCK_RESERVED21,			/*!< 21: Reserved */
 269:../../lpc_chip_11cxx_lib/inc/clock_11xx.h **** #endif
 270:../../lpc_chip_11cxx_lib/inc/clock_11xx.h **** 	SYSCTL_CLOCK_RESERVED22,			/*!< 22: Reserved */
 271:../../lpc_chip_11cxx_lib/inc/clock_11xx.h **** 	SYSCTL_CLOCK_P0INT,					/*!< 23: GPIO GROUP1 interrupt register clock, LPC11Axx only */
 272:../../lpc_chip_11cxx_lib/inc/clock_11xx.h **** 	SYSCTL_CLOCK_GROUP0INT = SYSCTL_CLOCK_P0INT,/*!< 23: GPIO GROUP0 interrupt register interface cloc
 273:../../lpc_chip_11cxx_lib/inc/clock_11xx.h **** 	SYSCTL_CLOCK_P1INT,					/*!< 24: GPIO GROUP1 interrupt register clock, LPC11Axx only */
 274:../../lpc_chip_11cxx_lib/inc/clock_11xx.h **** 	SYSCTL_CLOCK_GROUP1INT = SYSCTL_CLOCK_P1INT,/*!< 24: GPIO GROUP1 interrupt register interface cloc
 275:../../lpc_chip_11cxx_lib/inc/clock_11xx.h **** 	SYSCTL_CLOCK_RESERVED25,			/*!< 25: Reserved */
 276:../../lpc_chip_11cxx_lib/inc/clock_11xx.h **** #if defined(CHIP_LPC11EXX)  || defined(CHIP_LPC11UXX)
 277:../../lpc_chip_11cxx_lib/inc/clock_11xx.h **** 	SYSCTL_CLOCK_RAM1,					/*!< 26: SRAM block (0x20000000) clock, LPC11E/Uxx only */
 278:../../lpc_chip_11cxx_lib/inc/clock_11xx.h **** #else
 279:../../lpc_chip_11cxx_lib/inc/clock_11xx.h **** 	SYSCTL_CLOCK_RESERVED26,			/*!< 26: Reserved */
 280:../../lpc_chip_11cxx_lib/inc/clock_11xx.h **** #endif
 281:../../lpc_chip_11cxx_lib/inc/clock_11xx.h **** #if defined(CHIP_LPC11UXX)
 282:../../lpc_chip_11cxx_lib/inc/clock_11xx.h **** 	SYSCTL_CLOCK_USBRAM,				/*!< 27: USB SRAM block clock, LPC11Uxx only */
 283:../../lpc_chip_11cxx_lib/inc/clock_11xx.h **** #else
 284:../../lpc_chip_11cxx_lib/inc/clock_11xx.h **** 	SYSCTL_CLOCK_RESERVED27,			/*!< 27: Reserved */
 285:../../lpc_chip_11cxx_lib/inc/clock_11xx.h **** #endif
 286:../../lpc_chip_11cxx_lib/inc/clock_11xx.h **** #endif /* !defined(CHIP_LPC11CXX) */
 287:../../lpc_chip_11cxx_lib/inc/clock_11xx.h **** #endif /* !(defined(CHIP_LPC110X) || defined(CHIP_LPC11XXLV)) */
 288:../../lpc_chip_11cxx_lib/inc/clock_11xx.h **** } CHIP_SYSCTL_CLOCK_T;
 289:../../lpc_chip_11cxx_lib/inc/clock_11xx.h **** 
 290:../../lpc_chip_11cxx_lib/inc/clock_11xx.h **** /**
 291:../../lpc_chip_11cxx_lib/inc/clock_11xx.h ****  * @brief	Enable a system or peripheral clock
 292:../../lpc_chip_11cxx_lib/inc/clock_11xx.h ****  * @param	clk	: Clock to enable
 293:../../lpc_chip_11cxx_lib/inc/clock_11xx.h ****  * @return	Nothing
 294:../../lpc_chip_11cxx_lib/inc/clock_11xx.h ****  */
 295:../../lpc_chip_11cxx_lib/inc/clock_11xx.h **** STATIC INLINE void Chip_Clock_EnablePeriphClock(CHIP_SYSCTL_CLOCK_T clk)
 296:../../lpc_chip_11cxx_lib/inc/clock_11xx.h **** {
 297:../../lpc_chip_11cxx_lib/inc/clock_11xx.h **** 	LPC_SYSCTL->SYSAHBCLKCTRL |= (1 << clk);
  81              		.loc 2 297 0
  82 0000 084B     		ldr	r3, .L2	@ tmp113,
  83 0002 8022     		mov	r2, #128	@ tmp114,
  84              	.LBE69:
  85              	.LBE68:
  86              		.loc 1 52 0
  87 0004 10B5     		push	{r4, lr}	@
  88              		.cfi_def_cfa_offset 8
  89              		.cfi_offset 4, -8
  90              		.cfi_offset 14, -4
  91              	.LBB71:
  92              	.LBB70:
  93              		.loc 2 297 0
  94 0006 8021     		mov	r1, #128	@ tmp124,
  95 0008 9C58     		ldr	r4, [r3, r2]	@ D.6374, MEM[(struct LPC_SYSCTL_T *)1074036736B].SYSAHBCLKCTRL
  96 000a 4901     		lsl	r1, r1, #5	@ tmp115, tmp124,
  97 000c 2143     		orr	r1, r4	@ D.6374, D.6374
  98 000e 9950     		str	r1, [r3, r2]	@ D.6374, MEM[(struct LPC_SYSCTL_T *)1074036736B].SYSAHBCLKCTRL
  99              	.LVL1:
 100              	.LBE70:
 101              	.LBE71:
 102              	.LBB72:
 103              	.LBB73:
 298:../../lpc_chip_11cxx_lib/inc/clock_11xx.h **** }
 299:../../lpc_chip_11cxx_lib/inc/clock_11xx.h **** 
 300:../../lpc_chip_11cxx_lib/inc/clock_11xx.h **** /**
 301:../../lpc_chip_11cxx_lib/inc/clock_11xx.h ****  * @brief	Disable a system or peripheral clock
ARM GAS  /var/folders/f9/8bk2lnw15zn4cbgn6wrnb4lm0000gn/T//ccyV4EJ6.s 			page 9


 302:../../lpc_chip_11cxx_lib/inc/clock_11xx.h ****  * @param	clk	: Clock to disable
 303:../../lpc_chip_11cxx_lib/inc/clock_11xx.h ****  * @return	Nothing
 304:../../lpc_chip_11cxx_lib/inc/clock_11xx.h ****  */
 305:../../lpc_chip_11cxx_lib/inc/clock_11xx.h **** STATIC INLINE void Chip_Clock_DisablePeriphClock(CHIP_SYSCTL_CLOCK_T clk)
 306:../../lpc_chip_11cxx_lib/inc/clock_11xx.h **** {
 307:../../lpc_chip_11cxx_lib/inc/clock_11xx.h **** 	LPC_SYSCTL->SYSAHBCLKCTRL &= ~(1 << clk);
 308:../../lpc_chip_11cxx_lib/inc/clock_11xx.h **** }
 309:../../lpc_chip_11cxx_lib/inc/clock_11xx.h **** 
 310:../../lpc_chip_11cxx_lib/inc/clock_11xx.h **** /**
 311:../../lpc_chip_11cxx_lib/inc/clock_11xx.h ****  * @brief	Set SSP0 divider
 312:../../lpc_chip_11cxx_lib/inc/clock_11xx.h ****  * @param	div	: divider for SSP0 clock
 313:../../lpc_chip_11cxx_lib/inc/clock_11xx.h ****  * @return	Nothing
 314:../../lpc_chip_11cxx_lib/inc/clock_11xx.h ****  * @note	Use 0 to disable, or a divider value of 1 to 255. The SSP0 clock
 315:../../lpc_chip_11cxx_lib/inc/clock_11xx.h ****  * rate is the main system clock divided by this value.
 316:../../lpc_chip_11cxx_lib/inc/clock_11xx.h ****  */
 317:../../lpc_chip_11cxx_lib/inc/clock_11xx.h **** STATIC INLINE void Chip_Clock_SetSSP0ClockDiv(uint32_t div)
 318:../../lpc_chip_11cxx_lib/inc/clock_11xx.h **** {
 319:../../lpc_chip_11cxx_lib/inc/clock_11xx.h **** 	LPC_SYSCTL->SSP0CLKDIV  = div;
 320:../../lpc_chip_11cxx_lib/inc/clock_11xx.h **** }
 321:../../lpc_chip_11cxx_lib/inc/clock_11xx.h **** 
 322:../../lpc_chip_11cxx_lib/inc/clock_11xx.h **** /**
 323:../../lpc_chip_11cxx_lib/inc/clock_11xx.h ****  * @brief	Return SSP0 divider
 324:../../lpc_chip_11cxx_lib/inc/clock_11xx.h ****  * @return	divider for SSP0 clock
 325:../../lpc_chip_11cxx_lib/inc/clock_11xx.h ****  * @note	A value of 0 means the clock is disabled.
 326:../../lpc_chip_11cxx_lib/inc/clock_11xx.h ****  */
 327:../../lpc_chip_11cxx_lib/inc/clock_11xx.h **** STATIC INLINE uint32_t Chip_Clock_GetSSP0ClockDiv(void)
 328:../../lpc_chip_11cxx_lib/inc/clock_11xx.h **** {
 329:../../lpc_chip_11cxx_lib/inc/clock_11xx.h **** 	return LPC_SYSCTL->SSP0CLKDIV;
 330:../../lpc_chip_11cxx_lib/inc/clock_11xx.h **** }
 331:../../lpc_chip_11cxx_lib/inc/clock_11xx.h **** 
 332:../../lpc_chip_11cxx_lib/inc/clock_11xx.h **** /**
 333:../../lpc_chip_11cxx_lib/inc/clock_11xx.h ****  * @brief	Set UART divider clock
 334:../../lpc_chip_11cxx_lib/inc/clock_11xx.h ****  * @param	div	: divider for UART clock
 335:../../lpc_chip_11cxx_lib/inc/clock_11xx.h ****  * @return	Nothing
 336:../../lpc_chip_11cxx_lib/inc/clock_11xx.h ****  * @note	Use 0 to disable, or a divider value of 1 to 255. The UART clock
 337:../../lpc_chip_11cxx_lib/inc/clock_11xx.h ****  * rate is the main system clock divided by this value.
 338:../../lpc_chip_11cxx_lib/inc/clock_11xx.h ****  */
 339:../../lpc_chip_11cxx_lib/inc/clock_11xx.h **** STATIC INLINE void Chip_Clock_SetUARTClockDiv(uint32_t div)
 340:../../lpc_chip_11cxx_lib/inc/clock_11xx.h **** {
 341:../../lpc_chip_11cxx_lib/inc/clock_11xx.h **** 	LPC_SYSCTL->USARTCLKDIV  = div;
 104              		.loc 2 341 0
 105 0010 0121     		mov	r1, #1	@ tmp120,
 106 0012 9822     		mov	r2, #152	@ tmp119,
 107 0014 9950     		str	r1, [r3, r2]	@ tmp120, MEM[(struct LPC_SYSCTL_T *)1074036736B].USARTCLKDIV
 108              	.LVL2:
 109              	.LBE73:
 110              	.LBE72:
 111              	.LBB74:
 112              	.LBB75:
 113              		.file 3 "../../lpc_chip_11cxx_lib/inc/uart_11xx.h"
   1:../../lpc_chip_11cxx_lib/inc/uart_11xx.h **** /*
   2:../../lpc_chip_11cxx_lib/inc/uart_11xx.h ****  * @brief LPC11xx UART chip driver
   3:../../lpc_chip_11cxx_lib/inc/uart_11xx.h ****  *
   4:../../lpc_chip_11cxx_lib/inc/uart_11xx.h ****  * @note
   5:../../lpc_chip_11cxx_lib/inc/uart_11xx.h ****  * Copyright(C) NXP Semiconductors, 2012
   6:../../lpc_chip_11cxx_lib/inc/uart_11xx.h ****  * All rights reserved.
   7:../../lpc_chip_11cxx_lib/inc/uart_11xx.h ****  *
ARM GAS  /var/folders/f9/8bk2lnw15zn4cbgn6wrnb4lm0000gn/T//ccyV4EJ6.s 			page 10


   8:../../lpc_chip_11cxx_lib/inc/uart_11xx.h ****  * @par
   9:../../lpc_chip_11cxx_lib/inc/uart_11xx.h ****  * Software that is described herein is for illustrative purposes only
  10:../../lpc_chip_11cxx_lib/inc/uart_11xx.h ****  * which provides customers with programming information regarding the
  11:../../lpc_chip_11cxx_lib/inc/uart_11xx.h ****  * LPC products.  This software is supplied "AS IS" without any warranties of
  12:../../lpc_chip_11cxx_lib/inc/uart_11xx.h ****  * any kind, and NXP Semiconductors and its licensor disclaim any and
  13:../../lpc_chip_11cxx_lib/inc/uart_11xx.h ****  * all warranties, express or implied, including all implied warranties of
  14:../../lpc_chip_11cxx_lib/inc/uart_11xx.h ****  * merchantability, fitness for a particular purpose and non-infringement of
  15:../../lpc_chip_11cxx_lib/inc/uart_11xx.h ****  * intellectual property rights.  NXP Semiconductors assumes no responsibility
  16:../../lpc_chip_11cxx_lib/inc/uart_11xx.h ****  * or liability for the use of the software, conveys no license or rights under any
  17:../../lpc_chip_11cxx_lib/inc/uart_11xx.h ****  * patent, copyright, mask work right, or any other intellectual property rights in
  18:../../lpc_chip_11cxx_lib/inc/uart_11xx.h ****  * or to any products. NXP Semiconductors reserves the right to make changes
  19:../../lpc_chip_11cxx_lib/inc/uart_11xx.h ****  * in the software without notification. NXP Semiconductors also makes no
  20:../../lpc_chip_11cxx_lib/inc/uart_11xx.h ****  * representation or warranty that such application will be suitable for the
  21:../../lpc_chip_11cxx_lib/inc/uart_11xx.h ****  * specified use without further testing or modification.
  22:../../lpc_chip_11cxx_lib/inc/uart_11xx.h ****  *
  23:../../lpc_chip_11cxx_lib/inc/uart_11xx.h ****  * @par
  24:../../lpc_chip_11cxx_lib/inc/uart_11xx.h ****  * Permission to use, copy, modify, and distribute this software and its
  25:../../lpc_chip_11cxx_lib/inc/uart_11xx.h ****  * documentation is hereby granted, under NXP Semiconductors' and its
  26:../../lpc_chip_11cxx_lib/inc/uart_11xx.h ****  * licensor's relevant copyrights in the software, without fee, provided that it
  27:../../lpc_chip_11cxx_lib/inc/uart_11xx.h ****  * is used in conjunction with NXP Semiconductors microcontrollers.  This
  28:../../lpc_chip_11cxx_lib/inc/uart_11xx.h ****  * copyright, permission, and disclaimer notice must appear in all copies of
  29:../../lpc_chip_11cxx_lib/inc/uart_11xx.h ****  * this code.
  30:../../lpc_chip_11cxx_lib/inc/uart_11xx.h ****  */
  31:../../lpc_chip_11cxx_lib/inc/uart_11xx.h **** 
  32:../../lpc_chip_11cxx_lib/inc/uart_11xx.h **** #ifndef __UART_11XX_H_
  33:../../lpc_chip_11cxx_lib/inc/uart_11xx.h **** #define __UART_11XX_H_
  34:../../lpc_chip_11cxx_lib/inc/uart_11xx.h **** 
  35:../../lpc_chip_11cxx_lib/inc/uart_11xx.h **** #include "ring_buffer.h"
  36:../../lpc_chip_11cxx_lib/inc/uart_11xx.h **** 
  37:../../lpc_chip_11cxx_lib/inc/uart_11xx.h **** #ifdef __cplusplus
  38:../../lpc_chip_11cxx_lib/inc/uart_11xx.h **** extern "C" {
  39:../../lpc_chip_11cxx_lib/inc/uart_11xx.h **** #endif
  40:../../lpc_chip_11cxx_lib/inc/uart_11xx.h **** 
  41:../../lpc_chip_11cxx_lib/inc/uart_11xx.h **** /** @defgroup UART_11XX CHIP: LPC11xx UART driver
  42:../../lpc_chip_11cxx_lib/inc/uart_11xx.h ****  * @ingroup CHIP_11XX_Drivers
  43:../../lpc_chip_11cxx_lib/inc/uart_11xx.h ****  * @{
  44:../../lpc_chip_11cxx_lib/inc/uart_11xx.h ****  */
  45:../../lpc_chip_11cxx_lib/inc/uart_11xx.h **** 
  46:../../lpc_chip_11cxx_lib/inc/uart_11xx.h **** /**
  47:../../lpc_chip_11cxx_lib/inc/uart_11xx.h ****  * @brief USART register block structure
  48:../../lpc_chip_11cxx_lib/inc/uart_11xx.h ****  */
  49:../../lpc_chip_11cxx_lib/inc/uart_11xx.h **** typedef struct {					/*!< USARTn Structure       */
  50:../../lpc_chip_11cxx_lib/inc/uart_11xx.h **** 
  51:../../lpc_chip_11cxx_lib/inc/uart_11xx.h **** 	union {
  52:../../lpc_chip_11cxx_lib/inc/uart_11xx.h **** 		__IO uint32_t  DLL;			/*!< Divisor Latch LSB. Least significant byte of the baud rate divisor val
  53:../../lpc_chip_11cxx_lib/inc/uart_11xx.h **** 		__O  uint32_t  THR;			/*!< Transmit Holding Register. The next character to be transmitted is wri
  54:../../lpc_chip_11cxx_lib/inc/uart_11xx.h **** 		__I  uint32_t  RBR;			/*!< Receiver Buffer Register. Contains the next received character to be r
  55:../../lpc_chip_11cxx_lib/inc/uart_11xx.h **** 	};
  56:../../lpc_chip_11cxx_lib/inc/uart_11xx.h **** 
  57:../../lpc_chip_11cxx_lib/inc/uart_11xx.h **** 	union {
  58:../../lpc_chip_11cxx_lib/inc/uart_11xx.h **** 		__IO uint32_t IER;			/*!< Interrupt Enable Register. Contains individual interrupt enable bits fo
  59:../../lpc_chip_11cxx_lib/inc/uart_11xx.h **** 		__IO uint32_t DLM;			/*!< Divisor Latch MSB. Most significant byte of the baud rate divisor value
  60:../../lpc_chip_11cxx_lib/inc/uart_11xx.h **** 	};
  61:../../lpc_chip_11cxx_lib/inc/uart_11xx.h **** 
  62:../../lpc_chip_11cxx_lib/inc/uart_11xx.h **** 	union {
  63:../../lpc_chip_11cxx_lib/inc/uart_11xx.h **** 		__O  uint32_t FCR;			/*!< FIFO Control Register. Controls UART FIFO usage and modes. */
  64:../../lpc_chip_11cxx_lib/inc/uart_11xx.h **** 		__I  uint32_t IIR;			/*!< Interrupt ID Register. Identifies which interrupt(s) are pending. */
ARM GAS  /var/folders/f9/8bk2lnw15zn4cbgn6wrnb4lm0000gn/T//ccyV4EJ6.s 			page 11


  65:../../lpc_chip_11cxx_lib/inc/uart_11xx.h **** 	};
  66:../../lpc_chip_11cxx_lib/inc/uart_11xx.h **** 
  67:../../lpc_chip_11cxx_lib/inc/uart_11xx.h **** 	__IO uint32_t LCR;				/*!< Line Control Register. Contains controls for frame formatting and break
  68:../../lpc_chip_11cxx_lib/inc/uart_11xx.h **** 	__IO uint32_t MCR;				/*!< Modem Control Register. Only present on USART ports with full modem sup
  69:../../lpc_chip_11cxx_lib/inc/uart_11xx.h **** 	__I  uint32_t LSR;				/*!< Line Status Register. Contains flags for transmit and receive status, i
  70:../../lpc_chip_11cxx_lib/inc/uart_11xx.h **** 	__I  uint32_t MSR;				/*!< Modem Status Register. Only present on USART ports with full modem supp
  71:../../lpc_chip_11cxx_lib/inc/uart_11xx.h **** 	__IO uint32_t SCR;				/*!< Scratch Pad Register. Eight-bit temporary storage for software. */
  72:../../lpc_chip_11cxx_lib/inc/uart_11xx.h **** 	__IO uint32_t ACR;				/*!< Auto-baud Control Register. Contains controls for the auto-baud feature
  73:../../lpc_chip_11cxx_lib/inc/uart_11xx.h **** 	__IO uint32_t ICR;				/*!< IrDA control register (not all UARTS) */
  74:../../lpc_chip_11cxx_lib/inc/uart_11xx.h **** 	__IO uint32_t FDR;				/*!< Fractional Divider Register. Generates a clock input for the baud rate 
  75:../../lpc_chip_11cxx_lib/inc/uart_11xx.h **** 	__IO uint32_t OSR;				/*!< Oversampling Register. Controls the degree of oversampling during each 
  76:../../lpc_chip_11cxx_lib/inc/uart_11xx.h **** 	__IO uint32_t TER1;				/*!< Transmit Enable Register. Turns off USART transmitter for use with sof
  77:../../lpc_chip_11cxx_lib/inc/uart_11xx.h **** 	uint32_t  RESERVED0[3];
  78:../../lpc_chip_11cxx_lib/inc/uart_11xx.h ****     __IO uint32_t HDEN;				/*!< Half-duplex enable Register- only on some UARTs */
  79:../../lpc_chip_11cxx_lib/inc/uart_11xx.h **** 	__I  uint32_t RESERVED1[1];
  80:../../lpc_chip_11cxx_lib/inc/uart_11xx.h **** 	__IO uint32_t SCICTRL;			/*!< Smart card interface control register- only on some UARTs */
  81:../../lpc_chip_11cxx_lib/inc/uart_11xx.h **** 
  82:../../lpc_chip_11cxx_lib/inc/uart_11xx.h **** 	__IO uint32_t RS485CTRL;		/*!< RS-485/EIA-485 Control. Contains controls to configure various aspe
  83:../../lpc_chip_11cxx_lib/inc/uart_11xx.h **** 	__IO uint32_t RS485ADRMATCH;	/*!< RS-485/EIA-485 address match. Contains the address match value f
  84:../../lpc_chip_11cxx_lib/inc/uart_11xx.h **** 	__IO uint32_t RS485DLY;			/*!< RS-485/EIA-485 direction control delay. */
  85:../../lpc_chip_11cxx_lib/inc/uart_11xx.h **** 
  86:../../lpc_chip_11cxx_lib/inc/uart_11xx.h **** 	union {
  87:../../lpc_chip_11cxx_lib/inc/uart_11xx.h **** 		__IO uint32_t SYNCCTRL;		/*!< Synchronous mode control register. Only on USARTs. */
  88:../../lpc_chip_11cxx_lib/inc/uart_11xx.h **** 		__I  uint32_t FIFOLVL;		/*!< FIFO Level register. Provides the current fill levels of the transmi
  89:../../lpc_chip_11cxx_lib/inc/uart_11xx.h **** 	};
  90:../../lpc_chip_11cxx_lib/inc/uart_11xx.h **** 
  91:../../lpc_chip_11cxx_lib/inc/uart_11xx.h **** 	__IO uint32_t TER2;				/*!< Transmit Enable Register. Only on LPC177X_8X UART4 and LPC18XX/43XX US
  92:../../lpc_chip_11cxx_lib/inc/uart_11xx.h **** } LPC_USART_T;
  93:../../lpc_chip_11cxx_lib/inc/uart_11xx.h **** 
  94:../../lpc_chip_11cxx_lib/inc/uart_11xx.h **** 
  95:../../lpc_chip_11cxx_lib/inc/uart_11xx.h **** /**
  96:../../lpc_chip_11cxx_lib/inc/uart_11xx.h ****  * @brief Macro defines for UART Receive Buffer register
  97:../../lpc_chip_11cxx_lib/inc/uart_11xx.h ****  */
  98:../../lpc_chip_11cxx_lib/inc/uart_11xx.h **** #define UART_RBR_MASKBIT    (0xFF)		        /*!< UART Received Buffer mask bit (8 bits) */
  99:../../lpc_chip_11cxx_lib/inc/uart_11xx.h **** 
 100:../../lpc_chip_11cxx_lib/inc/uart_11xx.h **** /**
 101:../../lpc_chip_11cxx_lib/inc/uart_11xx.h ****  * @brief Macro defines for UART Divisor Latch LSB register
 102:../../lpc_chip_11cxx_lib/inc/uart_11xx.h ****  */
 103:../../lpc_chip_11cxx_lib/inc/uart_11xx.h **** #define UART_LOAD_DLL(div)  ((div) & 0xFF)		/*!< Macro for loading LSB of divisor */
 104:../../lpc_chip_11cxx_lib/inc/uart_11xx.h **** #define UART_DLL_MASKBIT    (0xFF)	            /*!< Divisor latch LSB bit mask */
 105:../../lpc_chip_11cxx_lib/inc/uart_11xx.h **** 
 106:../../lpc_chip_11cxx_lib/inc/uart_11xx.h **** /**
 107:../../lpc_chip_11cxx_lib/inc/uart_11xx.h ****  * @brief Macro defines for UART Divisor Latch MSB register
 108:../../lpc_chip_11cxx_lib/inc/uart_11xx.h ****  */
 109:../../lpc_chip_11cxx_lib/inc/uart_11xx.h **** #define UART_LOAD_DLM(div)  (((div) >> 8) & 0xFF)	/*!< Macro for loading MSB of divisors */
 110:../../lpc_chip_11cxx_lib/inc/uart_11xx.h **** #define UART_DLM_MASKBIT    (0xFF)		            /*!< Divisor latch MSB bit mask */
 111:../../lpc_chip_11cxx_lib/inc/uart_11xx.h **** 
 112:../../lpc_chip_11cxx_lib/inc/uart_11xx.h **** /**
 113:../../lpc_chip_11cxx_lib/inc/uart_11xx.h ****  * @brief Macro defines for UART Interrupt Enable Register
 114:../../lpc_chip_11cxx_lib/inc/uart_11xx.h ****  */
 115:../../lpc_chip_11cxx_lib/inc/uart_11xx.h **** #define UART_IER_RBRINT      (1 << 0)	/*!< RBR Interrupt enable */
 116:../../lpc_chip_11cxx_lib/inc/uart_11xx.h **** #define UART_IER_THREINT     (1 << 1)	/*!< THR Interrupt enable */
 117:../../lpc_chip_11cxx_lib/inc/uart_11xx.h **** #define UART_IER_RLSINT      (1 << 2)	/*!< RX line status interrupt enable */
 118:../../lpc_chip_11cxx_lib/inc/uart_11xx.h **** #define UART_IER_MSINT       (1 << 3)	/*!< Modem status interrupt enable - valid for 11xx, 17xx/40x
 119:../../lpc_chip_11cxx_lib/inc/uart_11xx.h **** #define UART_IER_CTSINT      (1 << 7)	/*!< CTS signal transition interrupt enable - valid for 17xx/
 120:../../lpc_chip_11cxx_lib/inc/uart_11xx.h **** #define UART_IER_ABEOINT     (1 << 8)	/*!< Enables the end of auto-baud interrupt */
 121:../../lpc_chip_11cxx_lib/inc/uart_11xx.h **** #define UART_IER_ABTOINT     (1 << 9)	/*!< Enables the auto-baud time-out interrupt */
ARM GAS  /var/folders/f9/8bk2lnw15zn4cbgn6wrnb4lm0000gn/T//ccyV4EJ6.s 			page 12


 122:../../lpc_chip_11cxx_lib/inc/uart_11xx.h **** #define UART_IER_BITMASK     (0x307)	/*!< UART interrupt enable register bit mask  - valid for 13xx
 123:../../lpc_chip_11cxx_lib/inc/uart_11xx.h **** #define UART1_IER_BITMASK    (0x30F)	/*!< UART1 interrupt enable register bit mask - valid for 11xx
 124:../../lpc_chip_11cxx_lib/inc/uart_11xx.h **** #define UART2_IER_BITMASK    (0x38F)	/*!< UART2 interrupt enable register bit mask - valid for 17xx
 125:../../lpc_chip_11cxx_lib/inc/uart_11xx.h **** 
 126:../../lpc_chip_11cxx_lib/inc/uart_11xx.h **** /**
 127:../../lpc_chip_11cxx_lib/inc/uart_11xx.h ****  * @brief Macro defines for UART Interrupt Identification Register
 128:../../lpc_chip_11cxx_lib/inc/uart_11xx.h ****  */
 129:../../lpc_chip_11cxx_lib/inc/uart_11xx.h **** #define UART_IIR_INTSTAT_PEND   (1 << 0)	/*!< Interrupt pending status - Active low */
 130:../../lpc_chip_11cxx_lib/inc/uart_11xx.h **** #define UART_IIR_FIFO_EN        (3 << 6)	/*!< These bits are equivalent to FCR[0] */
 131:../../lpc_chip_11cxx_lib/inc/uart_11xx.h **** #define UART_IIR_ABEO_INT       (1 << 8)	/*!< End of auto-baud interrupt */
 132:../../lpc_chip_11cxx_lib/inc/uart_11xx.h **** #define UART_IIR_ABTO_INT       (1 << 9)	/*!< Auto-baud time-out interrupt */
 133:../../lpc_chip_11cxx_lib/inc/uart_11xx.h **** #define UART_IIR_BITMASK        (0x3CF)		/*!< UART interrupt identification register bit mask */
 134:../../lpc_chip_11cxx_lib/inc/uart_11xx.h **** 
 135:../../lpc_chip_11cxx_lib/inc/uart_11xx.h **** /* Interrupt ID bit definitions */
 136:../../lpc_chip_11cxx_lib/inc/uart_11xx.h **** #define UART_IIR_INTID_MASK     (7 << 1)	/*!< Interrupt identification: Interrupt ID mask */
 137:../../lpc_chip_11cxx_lib/inc/uart_11xx.h **** #define UART_IIR_INTID_RLS      (3 << 1)	/*!< Interrupt identification: Receive line interrupt */
 138:../../lpc_chip_11cxx_lib/inc/uart_11xx.h **** #define UART_IIR_INTID_RDA      (2 << 1)	/*!< Interrupt identification: Receive data available inte
 139:../../lpc_chip_11cxx_lib/inc/uart_11xx.h **** #define UART_IIR_INTID_CTI      (6 << 1)	/*!< Interrupt identification: Character time-out indicato
 140:../../lpc_chip_11cxx_lib/inc/uart_11xx.h **** #define UART_IIR_INTID_THRE     (1 << 1)	/*!< Interrupt identification: THRE interrupt */
 141:../../lpc_chip_11cxx_lib/inc/uart_11xx.h **** #define UART_IIR_INTID_MODEM    (0 << 1)	/*!< Interrupt identification: Modem interrupt */
 142:../../lpc_chip_11cxx_lib/inc/uart_11xx.h **** 
 143:../../lpc_chip_11cxx_lib/inc/uart_11xx.h **** /**
 144:../../lpc_chip_11cxx_lib/inc/uart_11xx.h ****  * @brief Macro defines for UART FIFO Control Register
 145:../../lpc_chip_11cxx_lib/inc/uart_11xx.h ****  */
 146:../../lpc_chip_11cxx_lib/inc/uart_11xx.h **** #define UART_FCR_FIFO_EN        (1 << 0)	/*!< UART FIFO enable */
 147:../../lpc_chip_11cxx_lib/inc/uart_11xx.h **** #define UART_FCR_RX_RS          (1 << 1)	/*!< UART RX FIFO reset */
 148:../../lpc_chip_11cxx_lib/inc/uart_11xx.h **** #define UART_FCR_TX_RS          (1 << 2)	/*!< UART TX FIFO reset */
 149:../../lpc_chip_11cxx_lib/inc/uart_11xx.h **** #define UART_FCR_DMAMODE_SEL    (1 << 3)	/*!< UART DMA mode selection - valid for 17xx/40xx, 18xx/4
 150:../../lpc_chip_11cxx_lib/inc/uart_11xx.h **** #define UART_FCR_BITMASK        (0xCF)		/*!< UART FIFO control bit mask */
 151:../../lpc_chip_11cxx_lib/inc/uart_11xx.h **** 
 152:../../lpc_chip_11cxx_lib/inc/uart_11xx.h **** #define UART_TX_FIFO_SIZE       (16)
 153:../../lpc_chip_11cxx_lib/inc/uart_11xx.h **** 
 154:../../lpc_chip_11cxx_lib/inc/uart_11xx.h **** /* FIFO trigger level bit definitions */
 155:../../lpc_chip_11cxx_lib/inc/uart_11xx.h **** #define UART_FCR_TRG_LEV0       (0)			/*!< UART FIFO trigger level 0: 1 character */
 156:../../lpc_chip_11cxx_lib/inc/uart_11xx.h **** #define UART_FCR_TRG_LEV1       (1 << 6)	/*!< UART FIFO trigger level 1: 4 character */
 157:../../lpc_chip_11cxx_lib/inc/uart_11xx.h **** #define UART_FCR_TRG_LEV2       (2 << 6)	/*!< UART FIFO trigger level 2: 8 character */
 158:../../lpc_chip_11cxx_lib/inc/uart_11xx.h **** #define UART_FCR_TRG_LEV3       (3 << 6)	/*!< UART FIFO trigger level 3: 14 character */
 159:../../lpc_chip_11cxx_lib/inc/uart_11xx.h **** 
 160:../../lpc_chip_11cxx_lib/inc/uart_11xx.h **** /**
 161:../../lpc_chip_11cxx_lib/inc/uart_11xx.h ****  * @brief Macro defines for UART Line Control Register
 162:../../lpc_chip_11cxx_lib/inc/uart_11xx.h ****  */
 163:../../lpc_chip_11cxx_lib/inc/uart_11xx.h **** /* UART word length select bit definitions */
 164:../../lpc_chip_11cxx_lib/inc/uart_11xx.h **** #define UART_LCR_WLEN_MASK      (3 << 0)		/*!< UART word length select bit mask */
 165:../../lpc_chip_11cxx_lib/inc/uart_11xx.h **** #define UART_LCR_WLEN5          (0 << 0)		/*!< UART word length select: 5 bit data mode */
 166:../../lpc_chip_11cxx_lib/inc/uart_11xx.h **** #define UART_LCR_WLEN6          (1 << 0)		/*!< UART word length select: 6 bit data mode */
 167:../../lpc_chip_11cxx_lib/inc/uart_11xx.h **** #define UART_LCR_WLEN7          (2 << 0)		/*!< UART word length select: 7 bit data mode */
 168:../../lpc_chip_11cxx_lib/inc/uart_11xx.h **** #define UART_LCR_WLEN8          (3 << 0)		/*!< UART word length select: 8 bit data mode */
 169:../../lpc_chip_11cxx_lib/inc/uart_11xx.h **** 
 170:../../lpc_chip_11cxx_lib/inc/uart_11xx.h **** /* UART Stop bit select bit definitions */
 171:../../lpc_chip_11cxx_lib/inc/uart_11xx.h **** #define UART_LCR_SBS_MASK       (1 << 2)		/*!< UART stop bit select: bit mask */
 172:../../lpc_chip_11cxx_lib/inc/uart_11xx.h **** #define UART_LCR_SBS_1BIT       (0 << 2)		/*!< UART stop bit select: 1 stop bit */
 173:../../lpc_chip_11cxx_lib/inc/uart_11xx.h **** #define UART_LCR_SBS_2BIT       (1 << 2)		/*!< UART stop bit select: 2 stop bits (in 5 bit data mod
 174:../../lpc_chip_11cxx_lib/inc/uart_11xx.h **** 
 175:../../lpc_chip_11cxx_lib/inc/uart_11xx.h **** /* UART Parity enable bit definitions */
 176:../../lpc_chip_11cxx_lib/inc/uart_11xx.h **** #define UART_LCR_PARITY_EN      (1 << 3)		/*!< UART Parity Enable */
 177:../../lpc_chip_11cxx_lib/inc/uart_11xx.h **** #define UART_LCR_PARITY_DIS     (0 << 3)		/*!< UART Parity Disable */
 178:../../lpc_chip_11cxx_lib/inc/uart_11xx.h **** #define UART_LCR_PARITY_ODD     (0 << 4)		/*!< UART Parity select: Odd parity */
ARM GAS  /var/folders/f9/8bk2lnw15zn4cbgn6wrnb4lm0000gn/T//ccyV4EJ6.s 			page 13


 179:../../lpc_chip_11cxx_lib/inc/uart_11xx.h **** #define UART_LCR_PARITY_EVEN    (1 << 4)		/*!< UART Parity select: Even parity */
 180:../../lpc_chip_11cxx_lib/inc/uart_11xx.h **** #define UART_LCR_PARITY_F_1     (2 << 4)		/*!< UART Parity select: Forced 1 stick parity */
 181:../../lpc_chip_11cxx_lib/inc/uart_11xx.h **** #define UART_LCR_PARITY_F_0     (3 << 4)		/*!< UART Parity select: Forced 0 stick parity */
 182:../../lpc_chip_11cxx_lib/inc/uart_11xx.h **** #define UART_LCR_BREAK_EN       (1 << 6)		/*!< UART Break transmission enable */
 183:../../lpc_chip_11cxx_lib/inc/uart_11xx.h **** #define UART_LCR_DLAB_EN        (1 << 7)		/*!< UART Divisor Latches Access bit enable */
 184:../../lpc_chip_11cxx_lib/inc/uart_11xx.h **** #define UART_LCR_BITMASK        (0xFF)			/*!< UART line control bit mask */
 185:../../lpc_chip_11cxx_lib/inc/uart_11xx.h **** 
 186:../../lpc_chip_11cxx_lib/inc/uart_11xx.h **** /**
 187:../../lpc_chip_11cxx_lib/inc/uart_11xx.h ****  * @brief Macro defines for UART Modem Control Register
 188:../../lpc_chip_11cxx_lib/inc/uart_11xx.h ****  */
 189:../../lpc_chip_11cxx_lib/inc/uart_11xx.h **** #define UART_MCR_DTR_CTRL       (1 << 0)		/*!< Source for modem output pin DTR */
 190:../../lpc_chip_11cxx_lib/inc/uart_11xx.h **** #define UART_MCR_RTS_CTRL       (1 << 1)		/*!< Source for modem output pin RTS */
 191:../../lpc_chip_11cxx_lib/inc/uart_11xx.h **** #define UART_MCR_LOOPB_EN       (1 << 4)		/*!< Loop back mode select */
 192:../../lpc_chip_11cxx_lib/inc/uart_11xx.h **** #define UART_MCR_AUTO_RTS_EN    (1 << 6)		/*!< Enable Auto RTS flow-control */
 193:../../lpc_chip_11cxx_lib/inc/uart_11xx.h **** #define UART_MCR_AUTO_CTS_EN    (1 << 7)		/*!< Enable Auto CTS flow-control */
 194:../../lpc_chip_11cxx_lib/inc/uart_11xx.h **** #define UART_MCR_BITMASK        (0xD3)			/*!< UART bit mask value */
 195:../../lpc_chip_11cxx_lib/inc/uart_11xx.h **** 
 196:../../lpc_chip_11cxx_lib/inc/uart_11xx.h **** /**
 197:../../lpc_chip_11cxx_lib/inc/uart_11xx.h ****  * @brief Macro defines for UART Line Status Register
 198:../../lpc_chip_11cxx_lib/inc/uart_11xx.h ****  */
 199:../../lpc_chip_11cxx_lib/inc/uart_11xx.h **** #define UART_LSR_RDR        (1 << 0)	/*!< Line status: Receive data ready */
 200:../../lpc_chip_11cxx_lib/inc/uart_11xx.h **** #define UART_LSR_OE         (1 << 1)	/*!< Line status: Overrun error */
 201:../../lpc_chip_11cxx_lib/inc/uart_11xx.h **** #define UART_LSR_PE         (1 << 2)	/*!< Line status: Parity error */
 202:../../lpc_chip_11cxx_lib/inc/uart_11xx.h **** #define UART_LSR_FE         (1 << 3)	/*!< Line status: Framing error */
 203:../../lpc_chip_11cxx_lib/inc/uart_11xx.h **** #define UART_LSR_BI         (1 << 4)	/*!< Line status: Break interrupt */
 204:../../lpc_chip_11cxx_lib/inc/uart_11xx.h **** #define UART_LSR_THRE       (1 << 5)	/*!< Line status: Transmit holding register empty */
 205:../../lpc_chip_11cxx_lib/inc/uart_11xx.h **** #define UART_LSR_TEMT       (1 << 6)	/*!< Line status: Transmitter empty */
 206:../../lpc_chip_11cxx_lib/inc/uart_11xx.h **** #define UART_LSR_RXFE       (1 << 7)	/*!< Line status: Error in RX FIFO */
 207:../../lpc_chip_11cxx_lib/inc/uart_11xx.h **** #define UART_LSR_TXFE       (1 << 8)	/*!< Line status: Error in RX FIFO */
 208:../../lpc_chip_11cxx_lib/inc/uart_11xx.h **** #define UART_LSR_BITMASK    (0xFF)		/*!< UART Line status bit mask */
 209:../../lpc_chip_11cxx_lib/inc/uart_11xx.h **** #define UART1_LSR_BITMASK   (0x1FF)		/*!< UART1 Line status bit mask - valid for 11xx, 18xx/43xx UA
 210:../../lpc_chip_11cxx_lib/inc/uart_11xx.h **** 
 211:../../lpc_chip_11cxx_lib/inc/uart_11xx.h **** /**
 212:../../lpc_chip_11cxx_lib/inc/uart_11xx.h ****  * @brief Macro defines for UART Modem Status Register
 213:../../lpc_chip_11cxx_lib/inc/uart_11xx.h ****  */
 214:../../lpc_chip_11cxx_lib/inc/uart_11xx.h **** #define UART_MSR_DELTA_CTS      (1 << 0)	/*!< Modem status: State change of input CTS */
 215:../../lpc_chip_11cxx_lib/inc/uart_11xx.h **** #define UART_MSR_DELTA_DSR      (1 << 1)	/*!< Modem status: State change of input DSR */
 216:../../lpc_chip_11cxx_lib/inc/uart_11xx.h **** #define UART_MSR_LO2HI_RI       (1 << 2)	/*!< Modem status: Low to high transition of input RI */
 217:../../lpc_chip_11cxx_lib/inc/uart_11xx.h **** #define UART_MSR_DELTA_DCD      (1 << 3)	/*!< Modem status: State change of input DCD */
 218:../../lpc_chip_11cxx_lib/inc/uart_11xx.h **** #define UART_MSR_CTS            (1 << 4)	/*!< Modem status: Clear To Send State */
 219:../../lpc_chip_11cxx_lib/inc/uart_11xx.h **** #define UART_MSR_DSR            (1 << 5)	/*!< Modem status: Data Set Ready State */
 220:../../lpc_chip_11cxx_lib/inc/uart_11xx.h **** #define UART_MSR_RI             (1 << 6)	/*!< Modem status: Ring Indicator State */
 221:../../lpc_chip_11cxx_lib/inc/uart_11xx.h **** #define UART_MSR_DCD            (1 << 7)	/*!< Modem status: Data Carrier Detect State */
 222:../../lpc_chip_11cxx_lib/inc/uart_11xx.h **** #define UART_MSR_BITMASK        (0xFF)		/*!< Modem status: MSR register bit-mask value */
 223:../../lpc_chip_11cxx_lib/inc/uart_11xx.h **** 
 224:../../lpc_chip_11cxx_lib/inc/uart_11xx.h **** /**
 225:../../lpc_chip_11cxx_lib/inc/uart_11xx.h ****  * @brief Macro defines for UART Auto baudrate control register
 226:../../lpc_chip_11cxx_lib/inc/uart_11xx.h ****  */
 227:../../lpc_chip_11cxx_lib/inc/uart_11xx.h **** #define UART_ACR_START              (1 << 0)	/*!< UART Auto-baud start */
 228:../../lpc_chip_11cxx_lib/inc/uart_11xx.h **** #define UART_ACR_MODE               (1 << 1)	/*!< UART Auto baudrate Mode 1 */
 229:../../lpc_chip_11cxx_lib/inc/uart_11xx.h **** #define UART_ACR_AUTO_RESTART       (1 << 2)	/*!< UART Auto baudrate restart */
 230:../../lpc_chip_11cxx_lib/inc/uart_11xx.h **** #define UART_ACR_ABEOINT_CLR        (1 << 8)	/*!< UART End of auto-baud interrupt clear */
 231:../../lpc_chip_11cxx_lib/inc/uart_11xx.h **** #define UART_ACR_ABTOINT_CLR        (1 << 9)	/*!< UART Auto-baud time-out interrupt clear */
 232:../../lpc_chip_11cxx_lib/inc/uart_11xx.h **** #define UART_ACR_BITMASK            (0x307)		/*!< UART Auto Baudrate register bit mask */
 233:../../lpc_chip_11cxx_lib/inc/uart_11xx.h **** 
 234:../../lpc_chip_11cxx_lib/inc/uart_11xx.h **** /**
 235:../../lpc_chip_11cxx_lib/inc/uart_11xx.h ****  * @brief Macro defines for UART RS485 Control register
ARM GAS  /var/folders/f9/8bk2lnw15zn4cbgn6wrnb4lm0000gn/T//ccyV4EJ6.s 			page 14


 236:../../lpc_chip_11cxx_lib/inc/uart_11xx.h ****  */
 237:../../lpc_chip_11cxx_lib/inc/uart_11xx.h **** #define UART_RS485CTRL_NMM_EN       (1 << 0)	/*!< RS-485/EIA-485 Normal Multi-drop Mode (NMM) is di
 238:../../lpc_chip_11cxx_lib/inc/uart_11xx.h **** #define UART_RS485CTRL_RX_DIS       (1 << 1)	/*!< The receiver is disabled */
 239:../../lpc_chip_11cxx_lib/inc/uart_11xx.h **** #define UART_RS485CTRL_AADEN        (1 << 2)	/*!< Auto Address Detect (AAD) is enabled */
 240:../../lpc_chip_11cxx_lib/inc/uart_11xx.h **** #define UART_RS485CTRL_SEL_DTR      (1 << 3)	/*!< If direction control is enabled (bit DCTRL = 1), 
 241:../../lpc_chip_11cxx_lib/inc/uart_11xx.h **** 												        used for direction control */
 242:../../lpc_chip_11cxx_lib/inc/uart_11xx.h **** #define UART_RS485CTRL_DCTRL_EN     (1 << 4)	/*!< Enable Auto Direction Control */
 243:../../lpc_chip_11cxx_lib/inc/uart_11xx.h **** #define UART_RS485CTRL_OINV_1       (1 << 5)	/*!< This bit reverses the polarity of the direction
 244:../../lpc_chip_11cxx_lib/inc/uart_11xx.h **** 												       control signal on the RTS (or DTR) pin. The direction control pin
 245:../../lpc_chip_11cxx_lib/inc/uart_11xx.h **** 												       will be driven to logic "1" when the transmitter has data to be sent */
 246:../../lpc_chip_11cxx_lib/inc/uart_11xx.h **** #define UART_RS485CTRL_BITMASK      (0x3F)		/*!< RS485 control bit-mask value */
 247:../../lpc_chip_11cxx_lib/inc/uart_11xx.h **** 
 248:../../lpc_chip_11cxx_lib/inc/uart_11xx.h **** /**
 249:../../lpc_chip_11cxx_lib/inc/uart_11xx.h ****  * @brief Macro defines for UART IrDA Control Register - valid for 11xx, 17xx/40xx UART0/2/3, 18xx/
 250:../../lpc_chip_11cxx_lib/inc/uart_11xx.h ****  */
 251:../../lpc_chip_11cxx_lib/inc/uart_11xx.h **** #define UART_ICR_IRDAEN         (1 << 0)			/*!< IrDA mode enable */
 252:../../lpc_chip_11cxx_lib/inc/uart_11xx.h **** #define UART_ICR_IRDAINV        (1 << 1)			/*!< IrDA serial input inverted */
 253:../../lpc_chip_11cxx_lib/inc/uart_11xx.h **** #define UART_ICR_FIXPULSE_EN    (1 << 2)			/*!< IrDA fixed pulse width mode */
 254:../../lpc_chip_11cxx_lib/inc/uart_11xx.h **** #define UART_ICR_PULSEDIV(n)    ((n & 0x07) << 3)	/*!< PulseDiv - Configures the pulse when FixPuls
 255:../../lpc_chip_11cxx_lib/inc/uart_11xx.h **** #define UART_ICR_BITMASK        (0x3F)				/*!< UART IRDA bit mask */
 256:../../lpc_chip_11cxx_lib/inc/uart_11xx.h **** 
 257:../../lpc_chip_11cxx_lib/inc/uart_11xx.h **** /**
 258:../../lpc_chip_11cxx_lib/inc/uart_11xx.h ****  * @brief Macro defines for UART half duplex register - ????
 259:../../lpc_chip_11cxx_lib/inc/uart_11xx.h ****  */
 260:../../lpc_chip_11cxx_lib/inc/uart_11xx.h **** #define UART_HDEN_HDEN          ((1 << 0))			/*!< enable half-duplex mode*/
 261:../../lpc_chip_11cxx_lib/inc/uart_11xx.h **** 
 262:../../lpc_chip_11cxx_lib/inc/uart_11xx.h **** /**
 263:../../lpc_chip_11cxx_lib/inc/uart_11xx.h ****  * @brief Macro defines for UART Smart card interface Control Register - valid for 11xx, 18xx/43xx 
 264:../../lpc_chip_11cxx_lib/inc/uart_11xx.h ****  */
 265:../../lpc_chip_11cxx_lib/inc/uart_11xx.h **** #define UART_SCICTRL_SCIEN        (1 << 0)			/*!< enable asynchronous half-duplex smart card interf
 266:../../lpc_chip_11cxx_lib/inc/uart_11xx.h **** #define UART_SCICTRL_NACKDIS      (1 << 1)			/*!< NACK response is inhibited*/
 267:../../lpc_chip_11cxx_lib/inc/uart_11xx.h **** #define UART_SCICTRL_PROTSEL_T1   (1 << 2)			/*!< ISO7816-3 protocol T1 is selected*/
 268:../../lpc_chip_11cxx_lib/inc/uart_11xx.h **** #define UART_SCICTRL_TXRETRY(n)   ((n & 0x07) << 5)	/*!< number of retransmission*/
 269:../../lpc_chip_11cxx_lib/inc/uart_11xx.h **** #define UART_SCICTRL_GUARDTIME(n) ((n & 0xFF) << 8)	/*!< Extra guard time*/
 270:../../lpc_chip_11cxx_lib/inc/uart_11xx.h **** 
 271:../../lpc_chip_11cxx_lib/inc/uart_11xx.h **** /**
 272:../../lpc_chip_11cxx_lib/inc/uart_11xx.h ****  * @brief Macro defines for UART Fractional Divider Register
 273:../../lpc_chip_11cxx_lib/inc/uart_11xx.h ****  */
 274:../../lpc_chip_11cxx_lib/inc/uart_11xx.h **** #define UART_FDR_DIVADDVAL(n)   (n & 0x0F)			/*!< Baud-rate generation pre-scaler divisor */
 275:../../lpc_chip_11cxx_lib/inc/uart_11xx.h **** #define UART_FDR_MULVAL(n)      ((n << 4) & 0xF0)	/*!< Baud-rate pre-scaler multiplier value */
 276:../../lpc_chip_11cxx_lib/inc/uart_11xx.h **** #define UART_FDR_BITMASK        (0xFF)				/*!< UART Fractional Divider register bit mask */
 277:../../lpc_chip_11cxx_lib/inc/uart_11xx.h **** 
 278:../../lpc_chip_11cxx_lib/inc/uart_11xx.h **** /**
 279:../../lpc_chip_11cxx_lib/inc/uart_11xx.h ****  * @brief Macro defines for UART Tx Enable Register
 280:../../lpc_chip_11cxx_lib/inc/uart_11xx.h ****  */
 281:../../lpc_chip_11cxx_lib/inc/uart_11xx.h **** #define UART_TER1_TXEN      (1 << 7)		/*!< Transmit enable bit  - valid for 11xx, 13xx, 17xx/40xx o
 282:../../lpc_chip_11cxx_lib/inc/uart_11xx.h **** #define UART_TER2_TXEN      (1 << 0)		/*!< Transmit enable bit  - valid for 18xx/43xx only */
 283:../../lpc_chip_11cxx_lib/inc/uart_11xx.h **** 
 284:../../lpc_chip_11cxx_lib/inc/uart_11xx.h **** /**
 285:../../lpc_chip_11cxx_lib/inc/uart_11xx.h ****  * @brief Macro defines for UART Synchronous Control Register - 11xx, 18xx/43xx UART0/2/3 only 
 286:../../lpc_chip_11cxx_lib/inc/uart_11xx.h ****  */
 287:../../lpc_chip_11cxx_lib/inc/uart_11xx.h **** #define UART_SYNCCTRL_SYNC             (1 << 0)			/*!< enable synchronous mode*/
 288:../../lpc_chip_11cxx_lib/inc/uart_11xx.h **** #define UART_SYNCCTRL_CSRC_MASTER      (1 << 1)  		/*!< synchronous master mode*/
 289:../../lpc_chip_11cxx_lib/inc/uart_11xx.h **** #define UART_SYNCCTRL_FES              (1 << 2)			/*!< sample on falling edge*/
 290:../../lpc_chip_11cxx_lib/inc/uart_11xx.h **** #define UART_SYNCCTRL_TSBYPASS         (1 << 3)			/*!< to be defined*/
 291:../../lpc_chip_11cxx_lib/inc/uart_11xx.h **** #define UART_SYNCCTRL_CSCEN            (1 << 4)			/*!< Continuous running clock enable (master mode
 292:../../lpc_chip_11cxx_lib/inc/uart_11xx.h **** #define UART_SYNCCTRL_STARTSTOPDISABLE (1 << 5)	        /*!< Do not send start/stop bit*/
ARM GAS  /var/folders/f9/8bk2lnw15zn4cbgn6wrnb4lm0000gn/T//ccyV4EJ6.s 			page 15


 293:../../lpc_chip_11cxx_lib/inc/uart_11xx.h **** #define UART_SYNCCTRL_CCCLR            (1 << 6)			/*!< stop continuous clock*/
 294:../../lpc_chip_11cxx_lib/inc/uart_11xx.h **** 
 295:../../lpc_chip_11cxx_lib/inc/uart_11xx.h **** /**
 296:../../lpc_chip_11cxx_lib/inc/uart_11xx.h ****  * @brief	Enable transmission on UART TxD pin
 297:../../lpc_chip_11cxx_lib/inc/uart_11xx.h ****  * @param	pUART	: Pointer to selected pUART peripheral
 298:../../lpc_chip_11cxx_lib/inc/uart_11xx.h ****  * @return Nothing
 299:../../lpc_chip_11cxx_lib/inc/uart_11xx.h ****  */
 300:../../lpc_chip_11cxx_lib/inc/uart_11xx.h **** STATIC INLINE void Chip_UART_TXEnable(LPC_USART_T *pUART)
 301:../../lpc_chip_11cxx_lib/inc/uart_11xx.h **** {
 302:../../lpc_chip_11cxx_lib/inc/uart_11xx.h **** 	pUART->TER1 = UART_TER1_TXEN;
 303:../../lpc_chip_11cxx_lib/inc/uart_11xx.h **** }
 304:../../lpc_chip_11cxx_lib/inc/uart_11xx.h **** 
 305:../../lpc_chip_11cxx_lib/inc/uart_11xx.h **** /**
 306:../../lpc_chip_11cxx_lib/inc/uart_11xx.h ****  * @brief	Disable transmission on UART TxD pin
 307:../../lpc_chip_11cxx_lib/inc/uart_11xx.h ****  * @param	pUART	: Pointer to selected pUART peripheral
 308:../../lpc_chip_11cxx_lib/inc/uart_11xx.h ****  * @return Nothing
 309:../../lpc_chip_11cxx_lib/inc/uart_11xx.h ****  */
 310:../../lpc_chip_11cxx_lib/inc/uart_11xx.h **** STATIC INLINE void Chip_UART_TXDisable(LPC_USART_T *pUART)
 311:../../lpc_chip_11cxx_lib/inc/uart_11xx.h **** {
 312:../../lpc_chip_11cxx_lib/inc/uart_11xx.h **** 	pUART->TER1 = 0;
 313:../../lpc_chip_11cxx_lib/inc/uart_11xx.h **** }
 314:../../lpc_chip_11cxx_lib/inc/uart_11xx.h **** 
 315:../../lpc_chip_11cxx_lib/inc/uart_11xx.h **** /**
 316:../../lpc_chip_11cxx_lib/inc/uart_11xx.h ****  * @brief	Transmit a single data byte through the UART peripheral
 317:../../lpc_chip_11cxx_lib/inc/uart_11xx.h ****  * @param	pUART	: Pointer to selected UART peripheral
 318:../../lpc_chip_11cxx_lib/inc/uart_11xx.h ****  * @param	data	: Byte to transmit
 319:../../lpc_chip_11cxx_lib/inc/uart_11xx.h ****  * @return	Nothing
 320:../../lpc_chip_11cxx_lib/inc/uart_11xx.h ****  * @note	This function attempts to place a byte into the UART transmit
 321:../../lpc_chip_11cxx_lib/inc/uart_11xx.h ****  *			FIFO or transmit hold register regard regardless of UART state
 322:../../lpc_chip_11cxx_lib/inc/uart_11xx.h ****  */
 323:../../lpc_chip_11cxx_lib/inc/uart_11xx.h **** STATIC INLINE void Chip_UART_SendByte(LPC_USART_T *pUART, uint8_t data)
 324:../../lpc_chip_11cxx_lib/inc/uart_11xx.h **** {
 325:../../lpc_chip_11cxx_lib/inc/uart_11xx.h **** 	pUART->THR = (uint32_t) data;
 326:../../lpc_chip_11cxx_lib/inc/uart_11xx.h **** }
 327:../../lpc_chip_11cxx_lib/inc/uart_11xx.h **** 
 328:../../lpc_chip_11cxx_lib/inc/uart_11xx.h **** /**
 329:../../lpc_chip_11cxx_lib/inc/uart_11xx.h ****  * @brief	Read a single byte data from the UART peripheral
 330:../../lpc_chip_11cxx_lib/inc/uart_11xx.h ****  * @param	pUART	: Pointer to selected UART peripheral
 331:../../lpc_chip_11cxx_lib/inc/uart_11xx.h ****  * @return	A single byte of data read
 332:../../lpc_chip_11cxx_lib/inc/uart_11xx.h ****  * @note	This function reads a byte from the UART receive FIFO or
 333:../../lpc_chip_11cxx_lib/inc/uart_11xx.h ****  *			receive hold register regard regardless of UART state. The
 334:../../lpc_chip_11cxx_lib/inc/uart_11xx.h ****  *			FIFO status should be read first prior to using this function
 335:../../lpc_chip_11cxx_lib/inc/uart_11xx.h ****  */
 336:../../lpc_chip_11cxx_lib/inc/uart_11xx.h **** STATIC INLINE uint8_t Chip_UART_ReadByte(LPC_USART_T *pUART)
 337:../../lpc_chip_11cxx_lib/inc/uart_11xx.h **** {
 338:../../lpc_chip_11cxx_lib/inc/uart_11xx.h **** 	return (uint8_t) (pUART->RBR & UART_RBR_MASKBIT);
 339:../../lpc_chip_11cxx_lib/inc/uart_11xx.h **** }
 340:../../lpc_chip_11cxx_lib/inc/uart_11xx.h **** 
 341:../../lpc_chip_11cxx_lib/inc/uart_11xx.h **** /**
 342:../../lpc_chip_11cxx_lib/inc/uart_11xx.h ****  * @brief	Enable UART interrupts
 343:../../lpc_chip_11cxx_lib/inc/uart_11xx.h ****  * @param	pUART	: Pointer to selected UART peripheral
 344:../../lpc_chip_11cxx_lib/inc/uart_11xx.h ****  * @param	intMask	: OR'ed Interrupts to enable in the Interrupt Enable Register (IER)
 345:../../lpc_chip_11cxx_lib/inc/uart_11xx.h ****  * @return	Nothing
 346:../../lpc_chip_11cxx_lib/inc/uart_11xx.h ****  * @note	Use an OR'ed value of UART_IER_* definitions with this function
 347:../../lpc_chip_11cxx_lib/inc/uart_11xx.h ****  *			to enable specific UART interrupts. The Divisor Latch Access Bit
 348:../../lpc_chip_11cxx_lib/inc/uart_11xx.h ****  *			(DLAB) in LCR must be cleared in order to access the IER register.
 349:../../lpc_chip_11cxx_lib/inc/uart_11xx.h ****  *			This function doesn't alter the DLAB state
ARM GAS  /var/folders/f9/8bk2lnw15zn4cbgn6wrnb4lm0000gn/T//ccyV4EJ6.s 			page 16


 350:../../lpc_chip_11cxx_lib/inc/uart_11xx.h ****  */
 351:../../lpc_chip_11cxx_lib/inc/uart_11xx.h **** STATIC INLINE void Chip_UART_IntEnable(LPC_USART_T *pUART, uint32_t intMask)
 352:../../lpc_chip_11cxx_lib/inc/uart_11xx.h **** {
 353:../../lpc_chip_11cxx_lib/inc/uart_11xx.h **** 	pUART->IER |= intMask;
 354:../../lpc_chip_11cxx_lib/inc/uart_11xx.h **** }
 355:../../lpc_chip_11cxx_lib/inc/uart_11xx.h **** 
 356:../../lpc_chip_11cxx_lib/inc/uart_11xx.h **** /**
 357:../../lpc_chip_11cxx_lib/inc/uart_11xx.h ****  * @brief	Disable UART interrupts
 358:../../lpc_chip_11cxx_lib/inc/uart_11xx.h ****  * @param	pUART	: Pointer to selected UART peripheral
 359:../../lpc_chip_11cxx_lib/inc/uart_11xx.h ****  * @param	intMask	: OR'ed Interrupts to disable in the Interrupt Enable Register (IER)
 360:../../lpc_chip_11cxx_lib/inc/uart_11xx.h ****  * @return	Nothing
 361:../../lpc_chip_11cxx_lib/inc/uart_11xx.h ****  * @note	Use an OR'ed value of UART_IER_* definitions with this function
 362:../../lpc_chip_11cxx_lib/inc/uart_11xx.h ****  *			to disable specific UART interrupts. The Divisor Latch Access Bit
 363:../../lpc_chip_11cxx_lib/inc/uart_11xx.h ****  *			(DLAB) in LCR must be cleared in order to access the IER register.
 364:../../lpc_chip_11cxx_lib/inc/uart_11xx.h ****  *			This function doesn't alter the DLAB state
 365:../../lpc_chip_11cxx_lib/inc/uart_11xx.h ****  */
 366:../../lpc_chip_11cxx_lib/inc/uart_11xx.h **** STATIC INLINE void Chip_UART_IntDisable(LPC_USART_T *pUART, uint32_t intMask)
 367:../../lpc_chip_11cxx_lib/inc/uart_11xx.h **** {
 368:../../lpc_chip_11cxx_lib/inc/uart_11xx.h **** 	pUART->IER &= ~intMask;
 369:../../lpc_chip_11cxx_lib/inc/uart_11xx.h **** }
 370:../../lpc_chip_11cxx_lib/inc/uart_11xx.h **** 
 371:../../lpc_chip_11cxx_lib/inc/uart_11xx.h **** /**
 372:../../lpc_chip_11cxx_lib/inc/uart_11xx.h ****  * @brief	Returns UART interrupts that are enabled
 373:../../lpc_chip_11cxx_lib/inc/uart_11xx.h ****  * @param	pUART	: Pointer to selected UART peripheral
 374:../../lpc_chip_11cxx_lib/inc/uart_11xx.h ****  * @return	Returns the enabled UART interrupts
 375:../../lpc_chip_11cxx_lib/inc/uart_11xx.h ****  * @note	Use an OR'ed value of UART_IER_* definitions with this function
 376:../../lpc_chip_11cxx_lib/inc/uart_11xx.h ****  *			to determine which interrupts are enabled. You can check
 377:../../lpc_chip_11cxx_lib/inc/uart_11xx.h ****  *			for multiple enabled bits if needed.
 378:../../lpc_chip_11cxx_lib/inc/uart_11xx.h ****  */
 379:../../lpc_chip_11cxx_lib/inc/uart_11xx.h **** STATIC INLINE uint32_t Chip_UART_GetIntsEnabled(LPC_USART_T *pUART)
 380:../../lpc_chip_11cxx_lib/inc/uart_11xx.h **** {
 381:../../lpc_chip_11cxx_lib/inc/uart_11xx.h **** 	return pUART->IER;
 382:../../lpc_chip_11cxx_lib/inc/uart_11xx.h **** }
 383:../../lpc_chip_11cxx_lib/inc/uart_11xx.h **** 
 384:../../lpc_chip_11cxx_lib/inc/uart_11xx.h **** /**
 385:../../lpc_chip_11cxx_lib/inc/uart_11xx.h ****  * @brief	Read the Interrupt Identification Register (IIR)
 386:../../lpc_chip_11cxx_lib/inc/uart_11xx.h ****  * @param	pUART	: Pointer to selected UART peripheral
 387:../../lpc_chip_11cxx_lib/inc/uart_11xx.h ****  * @return	Current pending interrupt status per the IIR register
 388:../../lpc_chip_11cxx_lib/inc/uart_11xx.h ****  */
 389:../../lpc_chip_11cxx_lib/inc/uart_11xx.h **** STATIC INLINE uint32_t Chip_UART_ReadIntIDReg(LPC_USART_T *pUART)
 390:../../lpc_chip_11cxx_lib/inc/uart_11xx.h **** {
 391:../../lpc_chip_11cxx_lib/inc/uart_11xx.h **** 	return pUART->IIR;
 392:../../lpc_chip_11cxx_lib/inc/uart_11xx.h **** }
 393:../../lpc_chip_11cxx_lib/inc/uart_11xx.h **** 
 394:../../lpc_chip_11cxx_lib/inc/uart_11xx.h **** /**
 395:../../lpc_chip_11cxx_lib/inc/uart_11xx.h ****  * @brief	Setup the UART FIFOs
 396:../../lpc_chip_11cxx_lib/inc/uart_11xx.h ****  * @param	pUART	: Pointer to selected UART peripheral
 397:../../lpc_chip_11cxx_lib/inc/uart_11xx.h ****  * @param	fcr		: FIFO control register setup OR'ed flags
 398:../../lpc_chip_11cxx_lib/inc/uart_11xx.h ****  * @return	Nothing
 399:../../lpc_chip_11cxx_lib/inc/uart_11xx.h ****  * @note	Use OR'ed value of UART_FCR_* definitions with this function
 400:../../lpc_chip_11cxx_lib/inc/uart_11xx.h ****  *			to select specific options. For example, to enable the FIFOs
 401:../../lpc_chip_11cxx_lib/inc/uart_11xx.h ****  *			with a RX trip level of 8 characters, use something like
 402:../../lpc_chip_11cxx_lib/inc/uart_11xx.h ****  *			(UART_FCR_FIFO_EN | UART_FCR_TRG_LEV2)
 403:../../lpc_chip_11cxx_lib/inc/uart_11xx.h ****  */
 404:../../lpc_chip_11cxx_lib/inc/uart_11xx.h **** STATIC INLINE void Chip_UART_SetupFIFOS(LPC_USART_T *pUART, uint32_t fcr)
 405:../../lpc_chip_11cxx_lib/inc/uart_11xx.h **** {
 406:../../lpc_chip_11cxx_lib/inc/uart_11xx.h **** 	pUART->FCR = fcr;
ARM GAS  /var/folders/f9/8bk2lnw15zn4cbgn6wrnb4lm0000gn/T//ccyV4EJ6.s 			page 17


 114              		.loc 3 406 0
 115 0016 0723     		mov	r3, #7	@ tmp121,
 116 0018 8360     		str	r3, [r0, #8]	@ tmp121, pUART_4(D)->D.4996.FCR
 117              	.LVL3:
 118              	.LBE75:
 119              	.LBE74:
 120              	.LBB76:
 121              	.LBB77:
 407:../../lpc_chip_11cxx_lib/inc/uart_11xx.h **** }
 408:../../lpc_chip_11cxx_lib/inc/uart_11xx.h **** 
 409:../../lpc_chip_11cxx_lib/inc/uart_11xx.h **** /**
 410:../../lpc_chip_11cxx_lib/inc/uart_11xx.h ****  * @brief	Configure data width, parity and stop bits
 411:../../lpc_chip_11cxx_lib/inc/uart_11xx.h ****  * @param	pUART	: Pointer to selected pUART peripheral
 412:../../lpc_chip_11cxx_lib/inc/uart_11xx.h ****  * @param	config	: UART configuration, OR'ed values of UART_LCR_* defines
 413:../../lpc_chip_11cxx_lib/inc/uart_11xx.h ****  * @return	Nothing
 414:../../lpc_chip_11cxx_lib/inc/uart_11xx.h ****  * @note	Select OR'ed config options for the UART from the UART_LCR_*
 415:../../lpc_chip_11cxx_lib/inc/uart_11xx.h ****  *			definitions. For example, a configuration of 8 data bits, 1
 416:../../lpc_chip_11cxx_lib/inc/uart_11xx.h ****  *			stop bit, and even (enabled) parity would be
 417:../../lpc_chip_11cxx_lib/inc/uart_11xx.h ****  *			(UART_LCR_WLEN8 | UART_LCR_SBS_1BIT | UART_LCR_PARITY_EN | UART_LCR_PARITY_EVEN)
 418:../../lpc_chip_11cxx_lib/inc/uart_11xx.h ****  */
 419:../../lpc_chip_11cxx_lib/inc/uart_11xx.h **** STATIC INLINE void Chip_UART_ConfigData(LPC_USART_T *pUART, uint32_t config)
 420:../../lpc_chip_11cxx_lib/inc/uart_11xx.h **** {
 421:../../lpc_chip_11cxx_lib/inc/uart_11xx.h **** 	pUART->LCR = config;
 122              		.loc 3 421 0
 123 001a 0323     		mov	r3, #3	@ tmp122,
 124 001c C360     		str	r3, [r0, #12]	@ tmp122, pUART_4(D)->LCR
 125              	.LBE77:
 126              	.LBE76:
  53:../../lpc_chip_11cxx_lib/src/uart_11xx.c **** 	Chip_Clock_EnablePeriphClock(SYSCTL_CLOCK_UART0);
  54:../../lpc_chip_11cxx_lib/src/uart_11xx.c **** 	Chip_Clock_SetUARTClockDiv(1);
  55:../../lpc_chip_11cxx_lib/src/uart_11xx.c **** 
  56:../../lpc_chip_11cxx_lib/src/uart_11xx.c **** 	/* Enable FIFOs by default, reset them */
  57:../../lpc_chip_11cxx_lib/src/uart_11xx.c **** 	Chip_UART_SetupFIFOS(pUART, (UART_FCR_FIFO_EN | UART_FCR_RX_RS | UART_FCR_TX_RS));
  58:../../lpc_chip_11cxx_lib/src/uart_11xx.c **** 
  59:../../lpc_chip_11cxx_lib/src/uart_11xx.c **** 	/* Default 8N1, with DLAB disabled */
  60:../../lpc_chip_11cxx_lib/src/uart_11xx.c **** 	Chip_UART_ConfigData(pUART, (UART_LCR_WLEN8 | UART_LCR_SBS_1BIT | UART_LCR_PARITY_DIS));
  61:../../lpc_chip_11cxx_lib/src/uart_11xx.c **** 
  62:../../lpc_chip_11cxx_lib/src/uart_11xx.c **** 	/* Disable fractional divider */
  63:../../lpc_chip_11cxx_lib/src/uart_11xx.c **** 	pUART->FDR = 0x10;
 127              		.loc 1 63 0
 128 001e 1023     		mov	r3, #16	@ tmp123,
 129 0020 8362     		str	r3, [r0, #40]	@ tmp123, pUART_4(D)->FDR
  64:../../lpc_chip_11cxx_lib/src/uart_11xx.c **** }
 130              		.loc 1 64 0
 131              		@ sp needed	@
 132 0022 10BD     		pop	{r4, pc}
 133              	.L3:
 134              		.align	2
 135              	.L2:
 136 0024 00800440 		.word	1074036736
 137              		.cfi_endproc
 138              	.LFE198:
 139              		.size	Chip_UART_Init, .-Chip_UART_Init
 140              		.section	.text.Chip_UART_DeInit,"ax",%progbits
 141              		.align	2
 142              		.global	Chip_UART_DeInit
 143              		.code	16
ARM GAS  /var/folders/f9/8bk2lnw15zn4cbgn6wrnb4lm0000gn/T//ccyV4EJ6.s 			page 18


 144              		.thumb_func
 145              		.type	Chip_UART_DeInit, %function
 146              	Chip_UART_DeInit:
 147              	.LFB199:
  65:../../lpc_chip_11cxx_lib/src/uart_11xx.c **** 
  66:../../lpc_chip_11cxx_lib/src/uart_11xx.c **** /* De-initializes the pUART peripheral */
  67:../../lpc_chip_11cxx_lib/src/uart_11xx.c **** void Chip_UART_DeInit(LPC_USART_T *pUART)
  68:../../lpc_chip_11cxx_lib/src/uart_11xx.c **** {
 148              		.loc 1 68 0
 149              		.cfi_startproc
 150              	.LVL4:
 151              	.LBB78:
 152              	.LBB79:
 307:../../lpc_chip_11cxx_lib/inc/clock_11xx.h **** 	LPC_SYSCTL->SYSAHBCLKCTRL &= ~(1 << clk);
 153              		.loc 2 307 0
 154 0000 034A     		ldr	r2, .L5	@ tmp113,
 155 0002 8023     		mov	r3, #128	@ tmp114,
 156 0004 D058     		ldr	r0, [r2, r3]	@ D.6377, MEM[(struct LPC_SYSCTL_T *)1074036736B].SYSAHBCLKCTRL
 157              	.LVL5:
 158 0006 0349     		ldr	r1, .L5+4	@ tmp115,
 159              	.LBE79:
 160              	.LBE78:
  69:../../lpc_chip_11cxx_lib/src/uart_11xx.c **** 	UNUSED(pUART);
  70:../../lpc_chip_11cxx_lib/src/uart_11xx.c **** 	Chip_Clock_DisablePeriphClock(SYSCTL_CLOCK_UART0);
  71:../../lpc_chip_11cxx_lib/src/uart_11xx.c **** }
 161              		.loc 1 71 0
 162              		@ sp needed	@
 163              	.LBB81:
 164              	.LBB80:
 307:../../lpc_chip_11cxx_lib/inc/clock_11xx.h **** 	LPC_SYSCTL->SYSAHBCLKCTRL &= ~(1 << clk);
 165              		.loc 2 307 0
 166 0008 0140     		and	r1, r0	@ D.6377, D.6377
 167 000a D150     		str	r1, [r2, r3]	@ D.6377, MEM[(struct LPC_SYSCTL_T *)1074036736B].SYSAHBCLKCTRL
 168              	.LBE80:
 169              	.LBE81:
 170              		.loc 1 71 0
 171 000c 7047     		bx	lr
 172              	.L6:
 173 000e C046     		.align	2
 174              	.L5:
 175 0010 00800440 		.word	1074036736
 176 0014 FFEFFFFF 		.word	-4097
 177              		.cfi_endproc
 178              	.LFE199:
 179              		.size	Chip_UART_DeInit, .-Chip_UART_DeInit
 180              		.section	.text.Chip_UART_Send,"ax",%progbits
 181              		.align	2
 182              		.global	Chip_UART_Send
 183              		.code	16
 184              		.thumb_func
 185              		.type	Chip_UART_Send, %function
 186              	Chip_UART_Send:
 187              	.LFB200:
  72:../../lpc_chip_11cxx_lib/src/uart_11xx.c **** 
  73:../../lpc_chip_11cxx_lib/src/uart_11xx.c **** /* Transmit a byte array through the UART peripheral (non-blocking) */
  74:../../lpc_chip_11cxx_lib/src/uart_11xx.c **** int Chip_UART_Send(LPC_USART_T *pUART, const void *data, int numBytes)
  75:../../lpc_chip_11cxx_lib/src/uart_11xx.c **** {
ARM GAS  /var/folders/f9/8bk2lnw15zn4cbgn6wrnb4lm0000gn/T//ccyV4EJ6.s 			page 19


 188              		.loc 1 75 0
 189              		.cfi_startproc
 190              	.LVL6:
 191 0000 30B5     		push	{r4, r5, lr}	@
 192              		.cfi_def_cfa_offset 12
 193              		.cfi_offset 4, -12
 194              		.cfi_offset 5, -8
 195              		.cfi_offset 14, -4
  76:../../lpc_chip_11cxx_lib/src/uart_11xx.c **** 	int sent = 0;
  77:../../lpc_chip_11cxx_lib/src/uart_11xx.c **** 	uint8_t *p8 = (uint8_t *) data;
  78:../../lpc_chip_11cxx_lib/src/uart_11xx.c **** 
  79:../../lpc_chip_11cxx_lib/src/uart_11xx.c **** 	/* Send until the transmit FIFO is full or out of bytes */
  80:../../lpc_chip_11cxx_lib/src/uart_11xx.c **** 	while ((sent < numBytes) &&
 196              		.loc 1 80 0
 197 0002 002A     		cmp	r2, #0	@ numBytes,
 198 0004 0FDD     		ble	.L11	@,
 199              	.LVL7:
 200              	.LBB82:
 201              	.LBB83:
 422:../../lpc_chip_11cxx_lib/inc/uart_11xx.h **** }
 423:../../lpc_chip_11cxx_lib/inc/uart_11xx.h **** 
 424:../../lpc_chip_11cxx_lib/inc/uart_11xx.h **** /**
 425:../../lpc_chip_11cxx_lib/inc/uart_11xx.h ****  * @brief	Enable access to Divisor Latches
 426:../../lpc_chip_11cxx_lib/inc/uart_11xx.h ****  * @param	pUART	: Pointer to selected UART peripheral
 427:../../lpc_chip_11cxx_lib/inc/uart_11xx.h ****  * @return	Nothing
 428:../../lpc_chip_11cxx_lib/inc/uart_11xx.h ****  */
 429:../../lpc_chip_11cxx_lib/inc/uart_11xx.h **** STATIC INLINE void Chip_UART_EnableDivisorAccess(LPC_USART_T *pUART)
 430:../../lpc_chip_11cxx_lib/inc/uart_11xx.h **** {
 431:../../lpc_chip_11cxx_lib/inc/uart_11xx.h **** 	pUART->LCR |= UART_LCR_DLAB_EN;
 432:../../lpc_chip_11cxx_lib/inc/uart_11xx.h **** }
 433:../../lpc_chip_11cxx_lib/inc/uart_11xx.h **** 
 434:../../lpc_chip_11cxx_lib/inc/uart_11xx.h **** /**
 435:../../lpc_chip_11cxx_lib/inc/uart_11xx.h ****  * @brief	Disable access to Divisor Latches
 436:../../lpc_chip_11cxx_lib/inc/uart_11xx.h ****  * @param	pUART	: Pointer to selected UART peripheral
 437:../../lpc_chip_11cxx_lib/inc/uart_11xx.h ****  * @return	Nothing
 438:../../lpc_chip_11cxx_lib/inc/uart_11xx.h ****  */
 439:../../lpc_chip_11cxx_lib/inc/uart_11xx.h **** STATIC INLINE void Chip_UART_DisableDivisorAccess(LPC_USART_T *pUART)
 440:../../lpc_chip_11cxx_lib/inc/uart_11xx.h **** {
 441:../../lpc_chip_11cxx_lib/inc/uart_11xx.h **** 	pUART->LCR &= ~UART_LCR_DLAB_EN;
 442:../../lpc_chip_11cxx_lib/inc/uart_11xx.h **** }
 443:../../lpc_chip_11cxx_lib/inc/uart_11xx.h **** 
 444:../../lpc_chip_11cxx_lib/inc/uart_11xx.h **** /**
 445:../../lpc_chip_11cxx_lib/inc/uart_11xx.h ****  * @brief	Set LSB and MSB divisor latch registers
 446:../../lpc_chip_11cxx_lib/inc/uart_11xx.h ****  * @param	pUART	: Pointer to selected UART peripheral
 447:../../lpc_chip_11cxx_lib/inc/uart_11xx.h ****  * @param	dll		: Divisor Latch LSB value
 448:../../lpc_chip_11cxx_lib/inc/uart_11xx.h ****  * @param	dlm		: Divisor Latch MSB value
 449:../../lpc_chip_11cxx_lib/inc/uart_11xx.h ****  * @return	Nothing
 450:../../lpc_chip_11cxx_lib/inc/uart_11xx.h ****  * @note	The Divisor Latch Access Bit (DLAB) in LCR must be set in
 451:../../lpc_chip_11cxx_lib/inc/uart_11xx.h ****  *			order to access the USART Divisor Latches. This function
 452:../../lpc_chip_11cxx_lib/inc/uart_11xx.h ****  *			doesn't alter the DLAB state.
 453:../../lpc_chip_11cxx_lib/inc/uart_11xx.h ****  */
 454:../../lpc_chip_11cxx_lib/inc/uart_11xx.h **** STATIC INLINE void Chip_UART_SetDivisorLatches(LPC_USART_T *pUART, uint8_t dll, uint8_t dlm)
 455:../../lpc_chip_11cxx_lib/inc/uart_11xx.h **** {
 456:../../lpc_chip_11cxx_lib/inc/uart_11xx.h **** 	pUART->DLL = (uint32_t) dll;
 457:../../lpc_chip_11cxx_lib/inc/uart_11xx.h **** 	pUART->DLM = (uint32_t) dlm;
 458:../../lpc_chip_11cxx_lib/inc/uart_11xx.h **** }
 459:../../lpc_chip_11cxx_lib/inc/uart_11xx.h **** 
ARM GAS  /var/folders/f9/8bk2lnw15zn4cbgn6wrnb4lm0000gn/T//ccyV4EJ6.s 			page 20


 460:../../lpc_chip_11cxx_lib/inc/uart_11xx.h **** /**
 461:../../lpc_chip_11cxx_lib/inc/uart_11xx.h ****  * @brief	Return modem control register/status
 462:../../lpc_chip_11cxx_lib/inc/uart_11xx.h ****  * @param	pUART	: Pointer to selected UART peripheral
 463:../../lpc_chip_11cxx_lib/inc/uart_11xx.h ****  * @return	Modem control register (status)
 464:../../lpc_chip_11cxx_lib/inc/uart_11xx.h ****  * @note	Mask bits of the returned status value with UART_MCR_*
 465:../../lpc_chip_11cxx_lib/inc/uart_11xx.h ****  *			definitions for specific statuses.
 466:../../lpc_chip_11cxx_lib/inc/uart_11xx.h ****  */
 467:../../lpc_chip_11cxx_lib/inc/uart_11xx.h **** STATIC INLINE uint32_t Chip_UART_ReadModemControl(LPC_USART_T *pUART)
 468:../../lpc_chip_11cxx_lib/inc/uart_11xx.h **** {
 469:../../lpc_chip_11cxx_lib/inc/uart_11xx.h **** 	return pUART->MCR;
 470:../../lpc_chip_11cxx_lib/inc/uart_11xx.h **** }
 471:../../lpc_chip_11cxx_lib/inc/uart_11xx.h **** 
 472:../../lpc_chip_11cxx_lib/inc/uart_11xx.h **** /**
 473:../../lpc_chip_11cxx_lib/inc/uart_11xx.h ****  * @brief	Set modem control register/status
 474:../../lpc_chip_11cxx_lib/inc/uart_11xx.h ****  * @param	pUART	: Pointer to selected UART peripheral
 475:../../lpc_chip_11cxx_lib/inc/uart_11xx.h ****  * @param	mcr		: Modem control register flags to set
 476:../../lpc_chip_11cxx_lib/inc/uart_11xx.h ****  * @return	Nothing
 477:../../lpc_chip_11cxx_lib/inc/uart_11xx.h ****  * @note	Use an Or'ed value of UART_MCR_* definitions with this
 478:../../lpc_chip_11cxx_lib/inc/uart_11xx.h ****  *			call to set specific options.
 479:../../lpc_chip_11cxx_lib/inc/uart_11xx.h ****  */
 480:../../lpc_chip_11cxx_lib/inc/uart_11xx.h **** STATIC INLINE void Chip_UART_SetModemControl(LPC_USART_T *pUART, uint32_t mcr)
 481:../../lpc_chip_11cxx_lib/inc/uart_11xx.h **** {
 482:../../lpc_chip_11cxx_lib/inc/uart_11xx.h **** 	pUART->MCR |= mcr;
 483:../../lpc_chip_11cxx_lib/inc/uart_11xx.h **** }
 484:../../lpc_chip_11cxx_lib/inc/uart_11xx.h **** 
 485:../../lpc_chip_11cxx_lib/inc/uart_11xx.h **** /**
 486:../../lpc_chip_11cxx_lib/inc/uart_11xx.h ****  * @brief	Clear modem control register/status
 487:../../lpc_chip_11cxx_lib/inc/uart_11xx.h ****  * @param	pUART	: Pointer to selected UART peripheral
 488:../../lpc_chip_11cxx_lib/inc/uart_11xx.h ****  * @param	mcr		: Modem control register flags to clear
 489:../../lpc_chip_11cxx_lib/inc/uart_11xx.h ****  * @return	Nothing
 490:../../lpc_chip_11cxx_lib/inc/uart_11xx.h ****  * @note	Use an Or'ed value of UART_MCR_* definitions with this
 491:../../lpc_chip_11cxx_lib/inc/uart_11xx.h ****  *			call to clear specific options.
 492:../../lpc_chip_11cxx_lib/inc/uart_11xx.h ****  */
 493:../../lpc_chip_11cxx_lib/inc/uart_11xx.h **** STATIC INLINE void Chip_UART_ClearModemControl(LPC_USART_T *pUART, uint32_t mcr)
 494:../../lpc_chip_11cxx_lib/inc/uart_11xx.h **** {
 495:../../lpc_chip_11cxx_lib/inc/uart_11xx.h **** 	pUART->MCR &= ~mcr;
 496:../../lpc_chip_11cxx_lib/inc/uart_11xx.h **** }
 497:../../lpc_chip_11cxx_lib/inc/uart_11xx.h **** 
 498:../../lpc_chip_11cxx_lib/inc/uart_11xx.h **** /**
 499:../../lpc_chip_11cxx_lib/inc/uart_11xx.h ****  * @brief	Return Line Status register/status (LSR)
 500:../../lpc_chip_11cxx_lib/inc/uart_11xx.h ****  * @param	pUART	: Pointer to selected UART peripheral
 501:../../lpc_chip_11cxx_lib/inc/uart_11xx.h ****  * @return	Line Status register (status)
 502:../../lpc_chip_11cxx_lib/inc/uart_11xx.h ****  * @note	Mask bits of the returned status value with UART_LSR_*
 503:../../lpc_chip_11cxx_lib/inc/uart_11xx.h ****  *			definitions for specific statuses.
 504:../../lpc_chip_11cxx_lib/inc/uart_11xx.h ****  */
 505:../../lpc_chip_11cxx_lib/inc/uart_11xx.h **** STATIC INLINE uint32_t Chip_UART_ReadLineStatus(LPC_USART_T *pUART)
 506:../../lpc_chip_11cxx_lib/inc/uart_11xx.h **** {
 507:../../lpc_chip_11cxx_lib/inc/uart_11xx.h **** 	return pUART->LSR;
 202              		.loc 3 507 0
 203 0006 4369     		ldr	r3, [r0, #20]	@ D.6390, pUART_7(D)->LSR
 204              	.LBE83:
 205              	.LBE82:
 206              		.loc 1 80 0
 207 0008 9C06     		lsl	r4, r3, #26	@, D.6390,
 208 000a 0CD5     		bpl	.L11	@,
  76:../../lpc_chip_11cxx_lib/src/uart_11xx.c **** 	int sent = 0;
 209              		.loc 1 76 0
ARM GAS  /var/folders/f9/8bk2lnw15zn4cbgn6wrnb4lm0000gn/T//ccyV4EJ6.s 			page 21


 210 000c 0023     		mov	r3, #0	@ sent,
  81:../../lpc_chip_11cxx_lib/src/uart_11xx.c **** 		   ((Chip_UART_ReadLineStatus(pUART) & UART_LSR_THRE) != 0)) {
 211              		.loc 1 81 0
 212 000e 2025     		mov	r5, #32	@ tmp151,
 213 0010 02E0     		b	.L9	@
 214              	.LVL8:
 215              	.L16:
 216              	.LBB85:
 217              	.LBB84:
 218              		.loc 3 507 0
 219 0012 4469     		ldr	r4, [r0, #20]	@ D.6390, pUART_7(D)->LSR
 220              	.LVL9:
 221              	.LBE84:
 222              	.LBE85:
  80:../../lpc_chip_11cxx_lib/src/uart_11xx.c **** 	while ((sent < numBytes) &&
 223              		.loc 1 80 0
 224 0014 2542     		tst	r5, r4	@ tmp151, D.6390
 225 0016 04D0     		beq	.L8	@,
 226              	.LVL10:
 227              	.L9:
 228              	.LBB86:
 229              	.LBB87:
 325:../../lpc_chip_11cxx_lib/inc/uart_11xx.h **** 	pUART->THR = (uint32_t) data;
 230              		.loc 3 325 0
 231 0018 CC5C     		ldrb	r4, [r1, r3]	@ D.6388, MEM[base: data_4(D), index: _1, offset: 0B]
 232              	.LBE87:
 233              	.LBE86:
  82:../../lpc_chip_11cxx_lib/src/uart_11xx.c **** 		Chip_UART_SendByte(pUART, *p8);
  83:../../lpc_chip_11cxx_lib/src/uart_11xx.c **** 		p8++;
  84:../../lpc_chip_11cxx_lib/src/uart_11xx.c **** 		sent++;
 234              		.loc 1 84 0
 235 001a 0133     		add	r3, r3, #1	@ sent,
 236              	.LVL11:
 237              	.LBB89:
 238              	.LBB88:
 325:../../lpc_chip_11cxx_lib/inc/uart_11xx.h **** 	pUART->THR = (uint32_t) data;
 239              		.loc 3 325 0
 240 001c 0460     		str	r4, [r0]	@ D.6388, pUART_7(D)->D.4988.THR
 241              	.LVL12:
 242              	.LBE88:
 243              	.LBE89:
  80:../../lpc_chip_11cxx_lib/src/uart_11xx.c **** 	while ((sent < numBytes) &&
 244              		.loc 1 80 0
 245 001e 9342     		cmp	r3, r2	@ sent, numBytes
 246 0020 F7D1     		bne	.L16	@,
 247              	.LVL13:
 248              	.L8:
  85:../../lpc_chip_11cxx_lib/src/uart_11xx.c **** 	}
  86:../../lpc_chip_11cxx_lib/src/uart_11xx.c **** 
  87:../../lpc_chip_11cxx_lib/src/uart_11xx.c **** 	return sent;
  88:../../lpc_chip_11cxx_lib/src/uart_11xx.c **** }
 249              		.loc 1 88 0
 250 0022 181C     		mov	r0, r3	@, sent
 251              	.LVL14:
 252              		@ sp needed	@
 253 0024 30BD     		pop	{r4, r5, pc}
 254              	.LVL15:
ARM GAS  /var/folders/f9/8bk2lnw15zn4cbgn6wrnb4lm0000gn/T//ccyV4EJ6.s 			page 22


 255              	.L11:
  76:../../lpc_chip_11cxx_lib/src/uart_11xx.c **** 	int sent = 0;
 256              		.loc 1 76 0
 257 0026 0023     		mov	r3, #0	@ sent,
 258 0028 FBE7     		b	.L8	@
 259              		.cfi_endproc
 260              	.LFE200:
 261              		.size	Chip_UART_Send, .-Chip_UART_Send
 262 002a C046     		.section	.text.Chip_UART_SendBlocking,"ax",%progbits
 263              		.align	2
 264              		.global	Chip_UART_SendBlocking
 265              		.code	16
 266              		.thumb_func
 267              		.type	Chip_UART_SendBlocking, %function
 268              	Chip_UART_SendBlocking:
 269              	.LFB201:
  89:../../lpc_chip_11cxx_lib/src/uart_11xx.c **** 
  90:../../lpc_chip_11cxx_lib/src/uart_11xx.c **** /* Transmit a byte array through the UART peripheral (blocking) */
  91:../../lpc_chip_11cxx_lib/src/uart_11xx.c **** int Chip_UART_SendBlocking(LPC_USART_T *pUART, const void *data, int numBytes)
  92:../../lpc_chip_11cxx_lib/src/uart_11xx.c **** {
 270              		.loc 1 92 0
 271              		.cfi_startproc
 272              	.LVL16:
 273 0000 70B5     		push	{r4, r5, r6, lr}	@
 274              		.cfi_def_cfa_offset 16
 275              		.cfi_offset 4, -16
 276              		.cfi_offset 5, -12
 277              		.cfi_offset 6, -8
 278              		.cfi_offset 14, -4
  93:../../lpc_chip_11cxx_lib/src/uart_11xx.c **** 	int pass, sent = 0;
 279              		.loc 1 93 0
 280 0002 0026     		mov	r6, #0	@ sent,
  94:../../lpc_chip_11cxx_lib/src/uart_11xx.c **** 	uint8_t *p8 = (uint8_t *) data;
  95:../../lpc_chip_11cxx_lib/src/uart_11xx.c **** 
  96:../../lpc_chip_11cxx_lib/src/uart_11xx.c **** 	while (numBytes > 0) {
 281              		.loc 1 96 0
 282 0004 002A     		cmp	r2, #0	@ numBytes,
 283 0006 0EDD     		ble	.L18	@,
 284              	.LBB90:
 285              	.LBB91:
  81:../../lpc_chip_11cxx_lib/src/uart_11xx.c **** 		   ((Chip_UART_ReadLineStatus(pUART) & UART_LSR_THRE) != 0)) {
 286              		.loc 1 81 0
 287 0008 2025     		mov	r5, #32	@ tmp127,
 288              	.LVL17:
 289              	.L19:
 290              	.LBE91:
 291              	.LBE90:
  92:../../lpc_chip_11cxx_lib/src/uart_11xx.c **** {
 292              		.loc 1 92 0
 293 000a 0023     		mov	r3, #0	@ pass,
 294              	.LVL18:
 295              	.L22:
 296              	.LBB99:
 297              	.LBB98:
 298              	.LBB92:
 299              	.LBB93:
 300              		.loc 3 507 0
ARM GAS  /var/folders/f9/8bk2lnw15zn4cbgn6wrnb4lm0000gn/T//ccyV4EJ6.s 			page 23


 301 000c 4469     		ldr	r4, [r0, #20]	@ D.6400, pUART_8(D)->LSR
 302              	.LBE93:
 303              	.LBE92:
  80:../../lpc_chip_11cxx_lib/src/uart_11xx.c **** 	while ((sent < numBytes) &&
 304              		.loc 1 80 0
 305 000e 2542     		tst	r5, r4	@ tmp127, D.6400
 306 0010 04D0     		beq	.L20	@,
 307              	.LVL19:
 308              	.LBB94:
 309              	.LBB95:
 325:../../lpc_chip_11cxx_lib/inc/uart_11xx.h **** 	pUART->THR = (uint32_t) data;
 310              		.loc 3 325 0
 311 0012 CC5C     		ldrb	r4, [r1, r3]	@ D.6399, MEM[base: data_14, index: _2, offset: 0B]
 312              	.LBE95:
 313              	.LBE94:
  84:../../lpc_chip_11cxx_lib/src/uart_11xx.c **** 		sent++;
 314              		.loc 1 84 0
 315 0014 0133     		add	r3, r3, #1	@ pass,
 316              	.LVL20:
 317              	.LBB97:
 318              	.LBB96:
 325:../../lpc_chip_11cxx_lib/inc/uart_11xx.h **** 	pUART->THR = (uint32_t) data;
 319              		.loc 3 325 0
 320 0016 0460     		str	r4, [r0]	@ D.6399, pUART_8(D)->D.4988.THR
 321              	.LVL21:
 322              	.LBE96:
 323              	.LBE97:
  80:../../lpc_chip_11cxx_lib/src/uart_11xx.c **** 	while ((sent < numBytes) &&
 324              		.loc 1 80 0
 325 0018 9342     		cmp	r3, r2	@ pass, numBytes
 326 001a F7DB     		blt	.L22	@,
 327              	.LVL22:
 328              	.L20:
 329              	.LBE98:
 330              	.LBE99:
  97:../../lpc_chip_11cxx_lib/src/uart_11xx.c **** 		pass = Chip_UART_Send(pUART, p8, numBytes);
  98:../../lpc_chip_11cxx_lib/src/uart_11xx.c **** 		numBytes -= pass;
 331              		.loc 1 98 0
 332 001c D21A     		sub	r2, r2, r3	@ numBytes, numBytes, pass
 333              	.LVL23:
  99:../../lpc_chip_11cxx_lib/src/uart_11xx.c **** 		sent += pass;
 334              		.loc 1 99 0
 335 001e F618     		add	r6, r6, r3	@ sent, sent, pass
 336              	.LVL24:
 100:../../lpc_chip_11cxx_lib/src/uart_11xx.c **** 		p8 += pass;
 337              		.loc 1 100 0
 338 0020 C918     		add	r1, r1, r3	@ data, data, pass
 339              	.LVL25:
  96:../../lpc_chip_11cxx_lib/src/uart_11xx.c **** 	while (numBytes > 0) {
 340              		.loc 1 96 0
 341 0022 002A     		cmp	r2, #0	@ numBytes,
 342 0024 F1DC     		bgt	.L19	@,
 343              	.LVL26:
 344              	.L18:
 101:../../lpc_chip_11cxx_lib/src/uart_11xx.c **** 	}
 102:../../lpc_chip_11cxx_lib/src/uart_11xx.c **** 
 103:../../lpc_chip_11cxx_lib/src/uart_11xx.c **** 	return sent;
ARM GAS  /var/folders/f9/8bk2lnw15zn4cbgn6wrnb4lm0000gn/T//ccyV4EJ6.s 			page 24


 104:../../lpc_chip_11cxx_lib/src/uart_11xx.c **** }
 345              		.loc 1 104 0
 346 0026 301C     		mov	r0, r6	@, sent
 347              	.LVL27:
 348              		@ sp needed	@
 349 0028 70BD     		pop	{r4, r5, r6, pc}
 350              		.cfi_endproc
 351              	.LFE201:
 352              		.size	Chip_UART_SendBlocking, .-Chip_UART_SendBlocking
 353 002a C046     		.section	.text.Chip_UART_Read,"ax",%progbits
 354              		.align	2
 355              		.global	Chip_UART_Read
 356              		.code	16
 357              		.thumb_func
 358              		.type	Chip_UART_Read, %function
 359              	Chip_UART_Read:
 360              	.LFB202:
 105:../../lpc_chip_11cxx_lib/src/uart_11xx.c **** 
 106:../../lpc_chip_11cxx_lib/src/uart_11xx.c **** /* Read data through the UART peripheral (non-blocking) */
 107:../../lpc_chip_11cxx_lib/src/uart_11xx.c **** int Chip_UART_Read(LPC_USART_T *pUART, void *data, int numBytes)
 108:../../lpc_chip_11cxx_lib/src/uart_11xx.c **** {
 361              		.loc 1 108 0
 362              		.cfi_startproc
 363              	.LVL28:
 364 0000 30B5     		push	{r4, r5, lr}	@
 365              		.cfi_def_cfa_offset 12
 366              		.cfi_offset 4, -12
 367              		.cfi_offset 5, -8
 368              		.cfi_offset 14, -4
 109:../../lpc_chip_11cxx_lib/src/uart_11xx.c **** 	int readBytes = 0;
 110:../../lpc_chip_11cxx_lib/src/uart_11xx.c **** 	uint8_t *p8 = (uint8_t *) data;
 111:../../lpc_chip_11cxx_lib/src/uart_11xx.c **** 
 112:../../lpc_chip_11cxx_lib/src/uart_11xx.c **** 	/* Send until the transmit FIFO is full or out of bytes */
 113:../../lpc_chip_11cxx_lib/src/uart_11xx.c **** 	while ((readBytes < numBytes) &&
 369              		.loc 1 113 0
 370 0002 002A     		cmp	r2, #0	@ numBytes,
 371 0004 0FDD     		ble	.L28	@,
 372              	.LVL29:
 373              	.LBB100:
 374              	.LBB101:
 375              		.loc 3 507 0
 376 0006 4369     		ldr	r3, [r0, #20]	@ D.6410, pUART_7(D)->LSR
 377              	.LBE101:
 378              	.LBE100:
 379              		.loc 1 113 0
 380 0008 DC07     		lsl	r4, r3, #31	@, D.6410,
 381 000a 0CD5     		bpl	.L28	@,
 109:../../lpc_chip_11cxx_lib/src/uart_11xx.c **** 	int readBytes = 0;
 382              		.loc 1 109 0
 383 000c 0023     		mov	r3, #0	@ readBytes,
 114:../../lpc_chip_11cxx_lib/src/uart_11xx.c **** 		   ((Chip_UART_ReadLineStatus(pUART) & UART_LSR_RDR) != 0)) {
 384              		.loc 1 114 0
 385 000e 0125     		mov	r5, #1	@ tmp128,
 386 0010 02E0     		b	.L26	@
 387              	.LVL30:
 388              	.L32:
 389              	.LBB103:
ARM GAS  /var/folders/f9/8bk2lnw15zn4cbgn6wrnb4lm0000gn/T//ccyV4EJ6.s 			page 25


 390              	.LBB102:
 391              		.loc 3 507 0
 392 0012 4469     		ldr	r4, [r0, #20]	@ D.6410, pUART_7(D)->LSR
 393              	.LBE102:
 394              	.LBE103:
 113:../../lpc_chip_11cxx_lib/src/uart_11xx.c **** 	while ((readBytes < numBytes) &&
 395              		.loc 1 113 0
 396 0014 2542     		tst	r5, r4	@ tmp128, D.6410
 397 0016 04D0     		beq	.L25	@,
 398              	.LVL31:
 399              	.L26:
 400              	.LBB104:
 401              	.LBB105:
 338:../../lpc_chip_11cxx_lib/inc/uart_11xx.h **** 	return (uint8_t) (pUART->RBR & UART_RBR_MASKBIT);
 402              		.loc 3 338 0
 403 0018 0468     		ldr	r4, [r0]	@ D.6408, pUART_7(D)->D.4988.RBR
 404 001a CC54     		strb	r4, [r1, r3]	@ D.6408, MEM[base: data_4(D), index: _1, offset: 0B]
 405              	.LVL32:
 406              	.LBE105:
 407              	.LBE104:
 115:../../lpc_chip_11cxx_lib/src/uart_11xx.c **** 		*p8 = Chip_UART_ReadByte(pUART);
 116:../../lpc_chip_11cxx_lib/src/uart_11xx.c **** 		p8++;
 117:../../lpc_chip_11cxx_lib/src/uart_11xx.c **** 		readBytes++;
 408              		.loc 1 117 0
 409 001c 0133     		add	r3, r3, #1	@ readBytes,
 410              	.LVL33:
 113:../../lpc_chip_11cxx_lib/src/uart_11xx.c **** 	while ((readBytes < numBytes) &&
 411              		.loc 1 113 0
 412 001e 9342     		cmp	r3, r2	@ readBytes, numBytes
 413 0020 F7D1     		bne	.L32	@,
 414              	.LVL34:
 415              	.L25:
 118:../../lpc_chip_11cxx_lib/src/uart_11xx.c **** 	}
 119:../../lpc_chip_11cxx_lib/src/uart_11xx.c **** 
 120:../../lpc_chip_11cxx_lib/src/uart_11xx.c **** 	return readBytes;
 121:../../lpc_chip_11cxx_lib/src/uart_11xx.c **** }
 416              		.loc 1 121 0
 417 0022 181C     		mov	r0, r3	@, readBytes
 418              	.LVL35:
 419              		@ sp needed	@
 420 0024 30BD     		pop	{r4, r5, pc}
 421              	.LVL36:
 422              	.L28:
 109:../../lpc_chip_11cxx_lib/src/uart_11xx.c **** 	int readBytes = 0;
 423              		.loc 1 109 0
 424 0026 0023     		mov	r3, #0	@ readBytes,
 425 0028 FBE7     		b	.L25	@
 426              		.cfi_endproc
 427              	.LFE202:
 428              		.size	Chip_UART_Read, .-Chip_UART_Read
 429 002a C046     		.section	.text.Chip_UART_ReadBlocking,"ax",%progbits
 430              		.align	2
 431              		.global	Chip_UART_ReadBlocking
 432              		.code	16
 433              		.thumb_func
 434              		.type	Chip_UART_ReadBlocking, %function
 435              	Chip_UART_ReadBlocking:
ARM GAS  /var/folders/f9/8bk2lnw15zn4cbgn6wrnb4lm0000gn/T//ccyV4EJ6.s 			page 26


 436              	.LFB203:
 122:../../lpc_chip_11cxx_lib/src/uart_11xx.c **** 
 123:../../lpc_chip_11cxx_lib/src/uart_11xx.c **** /* Read data through the UART peripheral (blocking) */
 124:../../lpc_chip_11cxx_lib/src/uart_11xx.c **** int Chip_UART_ReadBlocking(LPC_USART_T *pUART, void *data, int numBytes)
 125:../../lpc_chip_11cxx_lib/src/uart_11xx.c **** {
 437              		.loc 1 125 0
 438              		.cfi_startproc
 439              	.LVL37:
 440 0000 70B5     		push	{r4, r5, r6, lr}	@
 441              		.cfi_def_cfa_offset 16
 442              		.cfi_offset 4, -16
 443              		.cfi_offset 5, -12
 444              		.cfi_offset 6, -8
 445              		.cfi_offset 14, -4
 126:../../lpc_chip_11cxx_lib/src/uart_11xx.c **** 	int pass, readBytes = 0;
 446              		.loc 1 126 0
 447 0002 0026     		mov	r6, #0	@ readBytes,
 127:../../lpc_chip_11cxx_lib/src/uart_11xx.c **** 	uint8_t *p8 = (uint8_t *) data;
 128:../../lpc_chip_11cxx_lib/src/uart_11xx.c **** 
 129:../../lpc_chip_11cxx_lib/src/uart_11xx.c **** 	while (readBytes < numBytes) {
 448              		.loc 1 129 0
 449 0004 002A     		cmp	r2, #0	@ numBytes,
 450 0006 0EDD     		ble	.L34	@,
 451              	.LBB106:
 452              	.LBB107:
 114:../../lpc_chip_11cxx_lib/src/uart_11xx.c **** 		   ((Chip_UART_ReadLineStatus(pUART) & UART_LSR_RDR) != 0)) {
 453              		.loc 1 114 0
 454 0008 0125     		mov	r5, #1	@ tmp128,
 455              	.LVL38:
 456              	.L35:
 457              	.LBE107:
 458              	.LBE106:
 125:../../lpc_chip_11cxx_lib/src/uart_11xx.c **** {
 459              		.loc 1 125 0
 460 000a 0023     		mov	r3, #0	@ pass,
 461              	.LVL39:
 462              	.L38:
 463              	.LBB113:
 464              	.LBB112:
 465              	.LBB108:
 466              	.LBB109:
 467              		.loc 3 507 0
 468 000c 4469     		ldr	r4, [r0, #20]	@ D.6420, pUART_8(D)->LSR
 469              	.LBE109:
 470              	.LBE108:
 113:../../lpc_chip_11cxx_lib/src/uart_11xx.c **** 	while ((readBytes < numBytes) &&
 471              		.loc 1 113 0
 472 000e 2542     		tst	r5, r4	@ tmp128, D.6420
 473 0010 04D0     		beq	.L36	@,
 474              	.LVL40:
 475              	.LBB110:
 476              	.LBB111:
 338:../../lpc_chip_11cxx_lib/inc/uart_11xx.h **** 	return (uint8_t) (pUART->RBR & UART_RBR_MASKBIT);
 477              		.loc 3 338 0
 478 0012 0468     		ldr	r4, [r0]	@ D.6418, pUART_8(D)->D.4988.RBR
 479 0014 CC54     		strb	r4, [r1, r3]	@ D.6418, MEM[base: data_14, index: _2, offset: 0B]
 480              	.LVL41:
ARM GAS  /var/folders/f9/8bk2lnw15zn4cbgn6wrnb4lm0000gn/T//ccyV4EJ6.s 			page 27


 481              	.LBE111:
 482              	.LBE110:
 117:../../lpc_chip_11cxx_lib/src/uart_11xx.c **** 		readBytes++;
 483              		.loc 1 117 0
 484 0016 0133     		add	r3, r3, #1	@ pass,
 485              	.LVL42:
 113:../../lpc_chip_11cxx_lib/src/uart_11xx.c **** 	while ((readBytes < numBytes) &&
 486              		.loc 1 113 0
 487 0018 9342     		cmp	r3, r2	@ pass, numBytes
 488 001a F7DB     		blt	.L38	@,
 489              	.LVL43:
 490              	.L36:
 491              	.LBE112:
 492              	.LBE113:
 130:../../lpc_chip_11cxx_lib/src/uart_11xx.c **** 		pass = Chip_UART_Read(pUART, p8, numBytes);
 131:../../lpc_chip_11cxx_lib/src/uart_11xx.c **** 		numBytes -= pass;
 132:../../lpc_chip_11cxx_lib/src/uart_11xx.c **** 		readBytes += pass;
 493              		.loc 1 132 0
 494 001c F618     		add	r6, r6, r3	@ readBytes, readBytes, pass
 495              	.LVL44:
 131:../../lpc_chip_11cxx_lib/src/uart_11xx.c **** 		numBytes -= pass;
 496              		.loc 1 131 0
 497 001e D21A     		sub	r2, r2, r3	@ numBytes, numBytes, pass
 498              	.LVL45:
 133:../../lpc_chip_11cxx_lib/src/uart_11xx.c **** 		p8 += pass;
 499              		.loc 1 133 0
 500 0020 C918     		add	r1, r1, r3	@ data, data, pass
 501              	.LVL46:
 129:../../lpc_chip_11cxx_lib/src/uart_11xx.c **** 	while (readBytes < numBytes) {
 502              		.loc 1 129 0
 503 0022 B242     		cmp	r2, r6	@ numBytes, readBytes
 504 0024 F1DC     		bgt	.L35	@,
 505              	.LVL47:
 506              	.L34:
 134:../../lpc_chip_11cxx_lib/src/uart_11xx.c **** 	}
 135:../../lpc_chip_11cxx_lib/src/uart_11xx.c **** 
 136:../../lpc_chip_11cxx_lib/src/uart_11xx.c **** 	return readBytes;
 137:../../lpc_chip_11cxx_lib/src/uart_11xx.c **** }
 507              		.loc 1 137 0
 508 0026 301C     		mov	r0, r6	@, readBytes
 509              	.LVL48:
 510              		@ sp needed	@
 511 0028 70BD     		pop	{r4, r5, r6, pc}
 512              		.cfi_endproc
 513              	.LFE203:
 514              		.size	Chip_UART_ReadBlocking, .-Chip_UART_ReadBlocking
 515              		.global	__aeabi_uidiv
 516 002a C046     		.section	.text.Chip_UART_SetBaud,"ax",%progbits
 517              		.align	2
 518              		.global	Chip_UART_SetBaud
 519              		.code	16
 520              		.thumb_func
 521              		.type	Chip_UART_SetBaud, %function
 522              	Chip_UART_SetBaud:
 523              	.LFB204:
 138:../../lpc_chip_11cxx_lib/src/uart_11xx.c **** 
 139:../../lpc_chip_11cxx_lib/src/uart_11xx.c **** /* Determines and sets best dividers to get a target bit rate */
ARM GAS  /var/folders/f9/8bk2lnw15zn4cbgn6wrnb4lm0000gn/T//ccyV4EJ6.s 			page 28


 140:../../lpc_chip_11cxx_lib/src/uart_11xx.c **** uint32_t Chip_UART_SetBaud(LPC_USART_T *pUART, uint32_t baudrate)
 141:../../lpc_chip_11cxx_lib/src/uart_11xx.c **** {
 524              		.loc 1 141 0
 525              		.cfi_startproc
 526              	.LVL49:
 527 0000 70B5     		push	{r4, r5, r6, lr}	@
 528              		.cfi_def_cfa_offset 16
 529              		.cfi_offset 4, -16
 530              		.cfi_offset 5, -12
 531              		.cfi_offset 6, -8
 532              		.cfi_offset 14, -4
 533              		.loc 1 141 0
 534 0002 041C     		mov	r4, r0	@ pUART, pUART
 535 0004 0E1C     		mov	r6, r1	@ baudrate, baudrate
 142:../../lpc_chip_11cxx_lib/src/uart_11xx.c **** 	uint32_t div, divh, divl, clkin;
 143:../../lpc_chip_11cxx_lib/src/uart_11xx.c **** 
 144:../../lpc_chip_11cxx_lib/src/uart_11xx.c **** 	/* Determine UART clock in rate without FDR */
 145:../../lpc_chip_11cxx_lib/src/uart_11xx.c **** 	clkin = Chip_Clock_GetMainClockRate();
 536              		.loc 1 145 0
 537 0006 FFF7FEFF 		bl	Chip_Clock_GetMainClockRate	@
 538              	.LVL50:
 146:../../lpc_chip_11cxx_lib/src/uart_11xx.c **** 	div = clkin / (baudrate * 16);
 539              		.loc 1 146 0
 540 000a 3101     		lsl	r1, r6, #4	@ D.6423, baudrate,
 145:../../lpc_chip_11cxx_lib/src/uart_11xx.c **** 	clkin = Chip_Clock_GetMainClockRate();
 541              		.loc 1 145 0
 542 000c 051C     		mov	r5, r0	@ clkin,
 543              	.LVL51:
 544              		.loc 1 146 0
 545 000e FFF7FEFF 		bl	__aeabi_uidiv	@
 546              	.LVL52:
 547              	.LBB114:
 548              	.LBB115:
 431:../../lpc_chip_11cxx_lib/inc/uart_11xx.h **** 	pUART->LCR |= UART_LCR_DLAB_EN;
 549              		.loc 3 431 0
 550 0012 E268     		ldr	r2, [r4, #12]	@ D.6423, pUART_10(D)->LCR
 551 0014 8023     		mov	r3, #128	@ tmp130,
 552              	.LBE115:
 553              	.LBE114:
 554              		.loc 1 146 0
 555 0016 011C     		mov	r1, r0	@ tmp129,
 556              	.LVL53:
 557              	.LBB117:
 558              	.LBB116:
 431:../../lpc_chip_11cxx_lib/inc/uart_11xx.h **** 	pUART->LCR |= UART_LCR_DLAB_EN;
 559              		.loc 3 431 0
 560 0018 1A43     		orr	r2, r3	@ D.6423, tmp130
 561 001a E260     		str	r2, [r4, #12]	@ D.6423, pUART_10(D)->LCR
 562              	.LVL54:
 563              	.LBE116:
 564              	.LBE117:
 565              	.LBB118:
 566              	.LBB119:
 456:../../lpc_chip_11cxx_lib/inc/uart_11xx.h **** 	pUART->DLL = (uint32_t) dll;
 567              		.loc 3 456 0
 568 001c 0E1C     		mov	r6, r1	@ D.6423, tmp129
 569              	.LVL55:
ARM GAS  /var/folders/f9/8bk2lnw15zn4cbgn6wrnb4lm0000gn/T//ccyV4EJ6.s 			page 29


 570              	.LBE119:
 571              	.LBE118:
 147:../../lpc_chip_11cxx_lib/src/uart_11xx.c **** 
 148:../../lpc_chip_11cxx_lib/src/uart_11xx.c **** 	/* High and low halves of the divider */
 149:../../lpc_chip_11cxx_lib/src/uart_11xx.c **** 	divh = div / 256;
 150:../../lpc_chip_11cxx_lib/src/uart_11xx.c **** 	divl = div - (divh * 256);
 572              		.loc 1 150 0
 573 001e 000A     		lsr	r0, r0, #8	@ divh, tmp129,
 574              	.LVL56:
 575              	.LBB121:
 576              	.LBB120:
 456:../../lpc_chip_11cxx_lib/inc/uart_11xx.h **** 	pUART->DLL = (uint32_t) dll;
 577              		.loc 3 456 0
 578 0020 FF22     		mov	r2, #255	@ tmp133,
 579 0022 1640     		and	r6, r2	@ D.6423, tmp133
 457:../../lpc_chip_11cxx_lib/inc/uart_11xx.h **** 	pUART->DLM = (uint32_t) dlm;
 580              		.loc 3 457 0
 581 0024 0240     		and	r2, r0	@ D.6423, divh
 456:../../lpc_chip_11cxx_lib/inc/uart_11xx.h **** 	pUART->DLL = (uint32_t) dll;
 582              		.loc 3 456 0
 583 0026 2660     		str	r6, [r4]	@ D.6423, pUART_10(D)->D.4988.DLL
 457:../../lpc_chip_11cxx_lib/inc/uart_11xx.h **** 	pUART->DLM = (uint32_t) dlm;
 584              		.loc 3 457 0
 585 0028 6260     		str	r2, [r4, #4]	@ D.6423, pUART_10(D)->D.4992.DLM
 586              	.LVL57:
 587              	.LBE120:
 588              	.LBE121:
 589              	.LBB122:
 590              	.LBB123:
 441:../../lpc_chip_11cxx_lib/inc/uart_11xx.h **** 	pUART->LCR &= ~UART_LCR_DLAB_EN;
 591              		.loc 3 441 0
 592 002a E268     		ldr	r2, [r4, #12]	@ D.6423, pUART_10(D)->LCR
 593              	.LBE123:
 594              	.LBE122:
 151:../../lpc_chip_11cxx_lib/src/uart_11xx.c **** 
 152:../../lpc_chip_11cxx_lib/src/uart_11xx.c **** 	Chip_UART_EnableDivisorAccess(pUART);
 153:../../lpc_chip_11cxx_lib/src/uart_11xx.c **** 	Chip_UART_SetDivisorLatches(pUART, divl, divh);
 154:../../lpc_chip_11cxx_lib/src/uart_11xx.c **** 	Chip_UART_DisableDivisorAccess(pUART);
 155:../../lpc_chip_11cxx_lib/src/uart_11xx.c **** 
 156:../../lpc_chip_11cxx_lib/src/uart_11xx.c **** 	/* Fractional FDR alreadt setup for 1 in UART init */
 157:../../lpc_chip_11cxx_lib/src/uart_11xx.c **** 
 158:../../lpc_chip_11cxx_lib/src/uart_11xx.c **** 	return clkin / div;
 595              		.loc 1 158 0
 596 002c 281C     		mov	r0, r5	@, clkin
 597              	.LVL58:
 598              	.LBB125:
 599              	.LBB124:
 441:../../lpc_chip_11cxx_lib/inc/uart_11xx.h **** 	pUART->LCR &= ~UART_LCR_DLAB_EN;
 600              		.loc 3 441 0
 601 002e 9A43     		bic	r2, r3	@ D.6423, tmp130
 602 0030 E260     		str	r2, [r4, #12]	@ D.6423, pUART_10(D)->LCR
 603              	.LBE124:
 604              	.LBE125:
 605              		.loc 1 158 0
 606 0032 FFF7FEFF 		bl	__aeabi_uidiv	@
 607              	.LVL59:
 159:../../lpc_chip_11cxx_lib/src/uart_11xx.c **** }
ARM GAS  /var/folders/f9/8bk2lnw15zn4cbgn6wrnb4lm0000gn/T//ccyV4EJ6.s 			page 30


 608              		.loc 1 159 0
 609              		@ sp needed	@
 610              	.LVL60:
 611              	.LVL61:
 612 0036 70BD     		pop	{r4, r5, r6, pc}
 613              		.cfi_endproc
 614              	.LFE204:
 615              		.size	Chip_UART_SetBaud, .-Chip_UART_SetBaud
 616              		.section	.text.Chip_UART_RXIntHandlerRB,"ax",%progbits
 617              		.align	2
 618              		.global	Chip_UART_RXIntHandlerRB
 619              		.code	16
 620              		.thumb_func
 621              		.type	Chip_UART_RXIntHandlerRB, %function
 622              	Chip_UART_RXIntHandlerRB:
 623              	.LFB205:
 160:../../lpc_chip_11cxx_lib/src/uart_11xx.c **** 
 161:../../lpc_chip_11cxx_lib/src/uart_11xx.c **** /* UART receive-only interrupt handler for ring buffers */
 162:../../lpc_chip_11cxx_lib/src/uart_11xx.c **** void Chip_UART_RXIntHandlerRB(LPC_USART_T *pUART, RINGBUFF_T *pRB)
 163:../../lpc_chip_11cxx_lib/src/uart_11xx.c **** {
 624              		.loc 1 163 0
 625              		.cfi_startproc
 626              	.LVL62:
 627 0000 F0B5     		push	{r4, r5, r6, r7, lr}	@
 628              		.cfi_def_cfa_offset 20
 629              		.cfi_offset 4, -20
 630              		.cfi_offset 5, -16
 631              		.cfi_offset 6, -12
 632              		.cfi_offset 7, -8
 633              		.cfi_offset 14, -4
 634              	.LBB126:
 635              	.LBB127:
 636              		.loc 3 507 0
 637 0002 4369     		ldr	r3, [r0, #20]	@ D.6429, pUART_3(D)->LSR
 638              	.LBE127:
 639              	.LBE126:
 640              		.loc 1 163 0
 641 0004 83B0     		sub	sp, sp, #12	@,,
 642              		.cfi_def_cfa_offset 32
 643 0006 6D46     		mov	r5, sp	@ tmp125,
 644              		.loc 1 163 0
 645 0008 041C     		mov	r4, r0	@ pUART, pUART
 646 000a 0F1C     		mov	r7, r1	@ pRB, pRB
 647 000c 0735     		add	r5, r5, #7	@ tmp125,
 164:../../lpc_chip_11cxx_lib/src/uart_11xx.c **** 	/* New data will be ignored if data not popped in time */
 165:../../lpc_chip_11cxx_lib/src/uart_11xx.c **** 	while (Chip_UART_ReadLineStatus(pUART) & UART_LSR_RDR) {
 648              		.loc 1 165 0
 649 000e 0126     		mov	r6, #1	@ tmp126,
 650 0010 DA07     		lsl	r2, r3, #31	@, D.6429,
 651 0012 08D5     		bpl	.L41	@,
 652              	.LVL63:
 653              	.L48:
 654              	.LBB129:
 655              	.LBB130:
 656              	.LBB131:
 338:../../lpc_chip_11cxx_lib/inc/uart_11xx.h **** 	return (uint8_t) (pUART->RBR & UART_RBR_MASKBIT);
 657              		.loc 3 338 0
ARM GAS  /var/folders/f9/8bk2lnw15zn4cbgn6wrnb4lm0000gn/T//ccyV4EJ6.s 			page 31


 658 0014 2368     		ldr	r3, [r4]	@ D.6427, pUART_3(D)->D.4988.RBR
 659              	.LBE131:
 660              	.LBE130:
 166:../../lpc_chip_11cxx_lib/src/uart_11xx.c **** 		uint8_t ch = Chip_UART_ReadByte(pUART);
 167:../../lpc_chip_11cxx_lib/src/uart_11xx.c **** 		RingBuffer_Insert(pRB, &ch);
 661              		.loc 1 167 0
 662 0016 381C     		mov	r0, r7	@, pRB
 663 0018 291C     		mov	r1, r5	@, tmp125
 664              	.LBB133:
 665              	.LBB132:
 338:../../lpc_chip_11cxx_lib/inc/uart_11xx.h **** 	return (uint8_t) (pUART->RBR & UART_RBR_MASKBIT);
 666              		.loc 3 338 0
 667 001a 2B70     		strb	r3, [r5]	@ D.6427, ch
 668              	.LBE132:
 669              	.LBE133:
 670              		.loc 1 167 0
 671 001c FFF7FEFF 		bl	RingBuffer_Insert	@
 672              	.LVL64:
 673              	.LBE129:
 674              	.LBB134:
 675              	.LBB128:
 676              		.loc 3 507 0
 677 0020 6369     		ldr	r3, [r4, #20]	@ D.6429, pUART_3(D)->LSR
 678              	.LBE128:
 679              	.LBE134:
 165:../../lpc_chip_11cxx_lib/src/uart_11xx.c **** 	while (Chip_UART_ReadLineStatus(pUART) & UART_LSR_RDR) {
 680              		.loc 1 165 0
 681 0022 1E42     		tst	r6, r3	@ tmp126, D.6429
 682 0024 F6D1     		bne	.L48	@,
 683              	.LVL65:
 684              	.L41:
 168:../../lpc_chip_11cxx_lib/src/uart_11xx.c **** 	}
 169:../../lpc_chip_11cxx_lib/src/uart_11xx.c **** }
 685              		.loc 1 169 0
 686 0026 03B0     		add	sp, sp, #12	@,,
 687              		@ sp needed	@
 688              	.LVL66:
 689              	.LVL67:
 690 0028 F0BD     		pop	{r4, r5, r6, r7, pc}
 691              		.cfi_endproc
 692              	.LFE205:
 693              		.size	Chip_UART_RXIntHandlerRB, .-Chip_UART_RXIntHandlerRB
 694 002a C046     		.section	.text.Chip_UART_TXIntHandlerRB,"ax",%progbits
 695              		.align	2
 696              		.global	Chip_UART_TXIntHandlerRB
 697              		.code	16
 698              		.thumb_func
 699              		.type	Chip_UART_TXIntHandlerRB, %function
 700              	Chip_UART_TXIntHandlerRB:
 701              	.LFB206:
 170:../../lpc_chip_11cxx_lib/src/uart_11xx.c **** 
 171:../../lpc_chip_11cxx_lib/src/uart_11xx.c **** /* UART transmit-only interrupt handler for ring buffers */
 172:../../lpc_chip_11cxx_lib/src/uart_11xx.c **** void Chip_UART_TXIntHandlerRB(LPC_USART_T *pUART, RINGBUFF_T *pRB)
 173:../../lpc_chip_11cxx_lib/src/uart_11xx.c **** {
 702              		.loc 1 173 0
 703              		.cfi_startproc
 704              	.LVL68:
ARM GAS  /var/folders/f9/8bk2lnw15zn4cbgn6wrnb4lm0000gn/T//ccyV4EJ6.s 			page 32


 705 0000 F0B5     		push	{r4, r5, r6, r7, lr}	@
 706              		.cfi_def_cfa_offset 20
 707              		.cfi_offset 4, -20
 708              		.cfi_offset 5, -16
 709              		.cfi_offset 6, -12
 710              		.cfi_offset 7, -8
 711              		.cfi_offset 14, -4
 712              	.LBB135:
 713              	.LBB136:
 714              		.loc 3 507 0
 715 0002 4369     		ldr	r3, [r0, #20]	@ D.6434, pUART_4(D)->LSR
 716              	.LBE136:
 717              	.LBE135:
 718              		.loc 1 173 0
 719 0004 83B0     		sub	sp, sp, #12	@,,
 720              		.cfi_def_cfa_offset 32
 721 0006 6D46     		mov	r5, sp	@ tmp125,
 722              		.loc 1 173 0
 723 0008 041C     		mov	r4, r0	@ pUART, pUART
 724 000a 0E1C     		mov	r6, r1	@ pRB, pRB
 725 000c 0735     		add	r5, r5, #7	@ tmp125,
 174:../../lpc_chip_11cxx_lib/src/uart_11xx.c **** 	uint8_t ch;
 175:../../lpc_chip_11cxx_lib/src/uart_11xx.c **** 
 176:../../lpc_chip_11cxx_lib/src/uart_11xx.c **** 	/* Fill FIFO until full or until TX ring buffer is empty */
 177:../../lpc_chip_11cxx_lib/src/uart_11xx.c **** 	while ((Chip_UART_ReadLineStatus(pUART) & UART_LSR_THRE) != 0 &&
 726              		.loc 1 177 0
 727 000e 2027     		mov	r7, #32	@ tmp126,
 728 0010 9A06     		lsl	r2, r3, #26	@, D.6434,
 729 0012 05D4     		bmi	.L59	@,
 730 0014 0AE0     		b	.L49	@
 731              	.LVL69:
 732              	.L60:
 733              	.LBB138:
 734              	.LBB139:
 325:../../lpc_chip_11cxx_lib/inc/uart_11xx.h **** 	pUART->THR = (uint32_t) data;
 735              		.loc 3 325 0
 736 0016 2B78     		ldrb	r3, [r5]	@ D.6432, ch
 737 0018 2360     		str	r3, [r4]	@ D.6432, pUART_4(D)->D.4988.THR
 738              	.LBE139:
 739              	.LBE138:
 740              	.LBB140:
 741              	.LBB137:
 742              		.loc 3 507 0
 743 001a 6369     		ldr	r3, [r4, #20]	@ D.6434, pUART_4(D)->LSR
 744              	.LBE137:
 745              	.LBE140:
 746              		.loc 1 177 0
 747 001c 1F42     		tst	r7, r3	@ tmp126, D.6434
 748 001e 05D0     		beq	.L49	@,
 749              	.LVL70:
 750              	.L59:
 178:../../lpc_chip_11cxx_lib/src/uart_11xx.c **** 		   RingBuffer_Pop(pRB, &ch)) {
 751              		.loc 1 178 0
 752 0020 301C     		mov	r0, r6	@, pRB
 753 0022 291C     		mov	r1, r5	@, tmp125
 754 0024 FFF7FEFF 		bl	RingBuffer_Pop	@
 755              	.LVL71:
ARM GAS  /var/folders/f9/8bk2lnw15zn4cbgn6wrnb4lm0000gn/T//ccyV4EJ6.s 			page 33


 177:../../lpc_chip_11cxx_lib/src/uart_11xx.c **** 	while ((Chip_UART_ReadLineStatus(pUART) & UART_LSR_THRE) != 0 &&
 756              		.loc 1 177 0
 757 0028 0028     		cmp	r0, #0	@ D.6433,
 758 002a F4D1     		bne	.L60	@,
 759              	.L49:
 179:../../lpc_chip_11cxx_lib/src/uart_11xx.c **** 		Chip_UART_SendByte(pUART, ch);
 180:../../lpc_chip_11cxx_lib/src/uart_11xx.c **** 	}
 181:../../lpc_chip_11cxx_lib/src/uart_11xx.c **** }
 760              		.loc 1 181 0
 761 002c 03B0     		add	sp, sp, #12	@,,
 762              		@ sp needed	@
 763              	.LVL72:
 764              	.LVL73:
 765 002e F0BD     		pop	{r4, r5, r6, r7, pc}
 766              		.cfi_endproc
 767              	.LFE206:
 768              		.size	Chip_UART_TXIntHandlerRB, .-Chip_UART_TXIntHandlerRB
 769              		.section	.text.Chip_UART_SendRB,"ax",%progbits
 770              		.align	2
 771              		.global	Chip_UART_SendRB
 772              		.code	16
 773              		.thumb_func
 774              		.type	Chip_UART_SendRB, %function
 775              	Chip_UART_SendRB:
 776              	.LFB207:
 182:../../lpc_chip_11cxx_lib/src/uart_11xx.c **** 
 183:../../lpc_chip_11cxx_lib/src/uart_11xx.c **** /* Populate a transmit ring buffer and start UART transmit */
 184:../../lpc_chip_11cxx_lib/src/uart_11xx.c **** uint32_t Chip_UART_SendRB(LPC_USART_T *pUART, RINGBUFF_T *pRB, const void *data, int bytes)
 185:../../lpc_chip_11cxx_lib/src/uart_11xx.c **** {
 777              		.loc 1 185 0
 778              		.cfi_startproc
 779              	.LVL74:
 780 0000 F8B5     		push	{r3, r4, r5, r6, r7, lr}	@
 781              		.cfi_def_cfa_offset 24
 782              		.cfi_offset 3, -24
 783              		.cfi_offset 4, -20
 784              		.cfi_offset 5, -16
 785              		.cfi_offset 6, -12
 786              		.cfi_offset 7, -8
 787              		.cfi_offset 14, -4
 788 0002 4F46     		mov	r7, r9	@,
 789 0004 4646     		mov	r6, r8	@,
 790 0006 C0B4     		push	{r6, r7}	@
 791              		.cfi_def_cfa_offset 32
 792              		.cfi_offset 8, -32
 793              		.cfi_offset 9, -28
 794              		.loc 1 185 0
 795 0008 9846     		mov	r8, r3	@ bytes, bytes
 796              	.LBB141:
 797              	.LBB142:
 368:../../lpc_chip_11cxx_lib/inc/uart_11xx.h **** 	pUART->IER &= ~intMask;
 798              		.loc 3 368 0
 799 000a 4368     		ldr	r3, [r0, #4]	@ D.6439, pUART_3(D)->D.4992.IER
 800              	.LVL75:
 801 000c 0227     		mov	r7, #2	@ tmp128,
 802 000e BB43     		bic	r3, r7	@ D.6439, tmp128
 803              	.LBE142:
ARM GAS  /var/folders/f9/8bk2lnw15zn4cbgn6wrnb4lm0000gn/T//ccyV4EJ6.s 			page 34


 804              	.LBE141:
 805              		.loc 1 185 0
 806 0010 041C     		mov	r4, r0	@ pUART, pUART
 807 0012 0E1C     		mov	r6, r1	@ pRB, pRB
 808 0014 9146     		mov	r9, r2	@ data, data
 809              	.LBB144:
 810              	.LBB143:
 368:../../lpc_chip_11cxx_lib/inc/uart_11xx.h **** 	pUART->IER &= ~intMask;
 811              		.loc 3 368 0
 812 0016 4360     		str	r3, [r0, #4]	@ D.6439, pUART_3(D)->D.4992.IER
 813              	.LBE143:
 814              	.LBE144:
 186:../../lpc_chip_11cxx_lib/src/uart_11xx.c **** 	uint32_t ret;
 187:../../lpc_chip_11cxx_lib/src/uart_11xx.c **** 	uint8_t *p8 = (uint8_t *) data;
 188:../../lpc_chip_11cxx_lib/src/uart_11xx.c **** 
 189:../../lpc_chip_11cxx_lib/src/uart_11xx.c **** 	/* Don't let UART transmit ring buffer change in the UART IRQ handler */
 190:../../lpc_chip_11cxx_lib/src/uart_11xx.c **** 	Chip_UART_IntDisable(pUART, UART_IER_THREINT);
 191:../../lpc_chip_11cxx_lib/src/uart_11xx.c **** 
 192:../../lpc_chip_11cxx_lib/src/uart_11xx.c **** 	/* Move as much data as possible into transmit ring buffer */
 193:../../lpc_chip_11cxx_lib/src/uart_11xx.c **** 	ret = RingBuffer_InsertMult(pRB, p8, bytes);
 815              		.loc 1 193 0
 816 0018 081C     		mov	r0, r1	@, pRB
 817              	.LVL76:
 818 001a 111C     		mov	r1, r2	@, data
 819              	.LVL77:
 820 001c 4246     		mov	r2, r8	@, bytes
 821              	.LVL78:
 822 001e FFF7FEFF 		bl	RingBuffer_InsertMult	@
 823              	.LVL79:
 194:../../lpc_chip_11cxx_lib/src/uart_11xx.c **** 	Chip_UART_TXIntHandlerRB(pUART, pRB);
 824              		.loc 1 194 0
 825 0022 311C     		mov	r1, r6	@, pRB
 193:../../lpc_chip_11cxx_lib/src/uart_11xx.c **** 	ret = RingBuffer_InsertMult(pRB, p8, bytes);
 826              		.loc 1 193 0
 827 0024 051C     		mov	r5, r0	@ D.6437,
 828              	.LVL80:
 829              		.loc 1 194 0
 830 0026 201C     		mov	r0, r4	@, pUART
 831              	.LVL81:
 832 0028 FFF7FEFF 		bl	Chip_UART_TXIntHandlerRB	@
 833              	.LVL82:
 195:../../lpc_chip_11cxx_lib/src/uart_11xx.c **** 
 196:../../lpc_chip_11cxx_lib/src/uart_11xx.c **** 	/* Add additional data to transmit ring buffer if possible */
 197:../../lpc_chip_11cxx_lib/src/uart_11xx.c **** 	ret += RingBuffer_InsertMult(pRB, (p8 + ret), (bytes - ret));
 834              		.loc 1 197 0
 835 002c 4B46     		mov	r3, r9	@, data
 836 002e 5919     		add	r1, r3, r5	@ D.6438,, D.6437
 837 0030 4346     		mov	r3, r8	@, bytes
 838 0032 5A1B     		sub	r2, r3, r5	@ D.6439,, D.6437
 839 0034 301C     		mov	r0, r6	@, pRB
 840 0036 FFF7FEFF 		bl	RingBuffer_InsertMult	@
 841              	.LVL83:
 842              	.LBB145:
 843              	.LBB146:
 353:../../lpc_chip_11cxx_lib/inc/uart_11xx.h **** 	pUART->IER |= intMask;
 844              		.loc 3 353 0
 845 003a 6368     		ldr	r3, [r4, #4]	@ D.6439, pUART_3(D)->D.4992.IER
ARM GAS  /var/folders/f9/8bk2lnw15zn4cbgn6wrnb4lm0000gn/T//ccyV4EJ6.s 			page 35


 846              	.LBE146:
 847              	.LBE145:
 848              		.loc 1 197 0
 849 003c 4019     		add	r0, r0, r5	@ ret, D.6437, D.6437
 850              	.LVL84:
 851              	.LBB148:
 852              	.LBB147:
 353:../../lpc_chip_11cxx_lib/inc/uart_11xx.h **** 	pUART->IER |= intMask;
 853              		.loc 3 353 0
 854 003e 1F43     		orr	r7, r3	@ D.6439, D.6439
 855 0040 6760     		str	r7, [r4, #4]	@ D.6439, pUART_3(D)->D.4992.IER
 856              	.LBE147:
 857              	.LBE148:
 198:../../lpc_chip_11cxx_lib/src/uart_11xx.c **** 
 199:../../lpc_chip_11cxx_lib/src/uart_11xx.c **** 	/* Enable UART transmit interrupt */
 200:../../lpc_chip_11cxx_lib/src/uart_11xx.c **** 	Chip_UART_IntEnable(pUART, UART_IER_THREINT);
 201:../../lpc_chip_11cxx_lib/src/uart_11xx.c **** 
 202:../../lpc_chip_11cxx_lib/src/uart_11xx.c **** 	return ret;
 203:../../lpc_chip_11cxx_lib/src/uart_11xx.c **** }
 858              		.loc 1 203 0
 859              		@ sp needed	@
 860              	.LVL85:
 861              	.LVL86:
 862              	.LVL87:
 863              	.LVL88:
 864 0042 0CBC     		pop	{r2, r3}
 865 0044 9046     		mov	r8, r2
 866 0046 9946     		mov	r9, r3
 867 0048 F8BD     		pop	{r3, r4, r5, r6, r7, pc}
 868              		.cfi_endproc
 869              	.LFE207:
 870              		.size	Chip_UART_SendRB, .-Chip_UART_SendRB
 871 004a C046     		.section	.text.Chip_UART_ReadRB,"ax",%progbits
 872              		.align	2
 873              		.global	Chip_UART_ReadRB
 874              		.code	16
 875              		.thumb_func
 876              		.type	Chip_UART_ReadRB, %function
 877              	Chip_UART_ReadRB:
 878              	.LFB208:
 204:../../lpc_chip_11cxx_lib/src/uart_11xx.c **** 
 205:../../lpc_chip_11cxx_lib/src/uart_11xx.c **** /* Copy data from a receive ring buffer */
 206:../../lpc_chip_11cxx_lib/src/uart_11xx.c **** int Chip_UART_ReadRB(LPC_USART_T *pUART, RINGBUFF_T *pRB, void *data, int bytes)
 207:../../lpc_chip_11cxx_lib/src/uart_11xx.c **** {
 879              		.loc 1 207 0
 880              		.cfi_startproc
 881              	.LVL89:
 882 0000 08B5     		push	{r3, lr}	@
 883              		.cfi_def_cfa_offset 8
 884              		.cfi_offset 3, -8
 885              		.cfi_offset 14, -4
 208:../../lpc_chip_11cxx_lib/src/uart_11xx.c **** 	(void) pUART;
 209:../../lpc_chip_11cxx_lib/src/uart_11xx.c **** 
 210:../../lpc_chip_11cxx_lib/src/uart_11xx.c **** 	return RingBuffer_PopMult(pRB, (uint8_t *) data, bytes);
 886              		.loc 1 210 0
 887 0002 081C     		mov	r0, r1	@, pRB
 888              	.LVL90:
ARM GAS  /var/folders/f9/8bk2lnw15zn4cbgn6wrnb4lm0000gn/T//ccyV4EJ6.s 			page 36


 889 0004 111C     		mov	r1, r2	@, data
 890              	.LVL91:
 891 0006 1A1C     		mov	r2, r3	@, bytes
 892              	.LVL92:
 893 0008 FFF7FEFF 		bl	RingBuffer_PopMult	@
 894              	.LVL93:
 211:../../lpc_chip_11cxx_lib/src/uart_11xx.c **** }
 895              		.loc 1 211 0
 896              		@ sp needed	@
 897 000c 08BD     		pop	{r3, pc}
 898              		.cfi_endproc
 899              	.LFE208:
 900              		.size	Chip_UART_ReadRB, .-Chip_UART_ReadRB
 901 000e C046     		.section	.text.Chip_UART_IRQRBHandler,"ax",%progbits
 902              		.align	2
 903              		.global	Chip_UART_IRQRBHandler
 904              		.code	16
 905              		.thumb_func
 906              		.type	Chip_UART_IRQRBHandler, %function
 907              	Chip_UART_IRQRBHandler:
 908              	.LFB209:
 212:../../lpc_chip_11cxx_lib/src/uart_11xx.c **** 
 213:../../lpc_chip_11cxx_lib/src/uart_11xx.c **** /* UART receive/transmit interrupt handler for ring buffers */
 214:../../lpc_chip_11cxx_lib/src/uart_11xx.c **** void Chip_UART_IRQRBHandler(LPC_USART_T *pUART, RINGBUFF_T *pRXRB, RINGBUFF_T *pTXRB)
 215:../../lpc_chip_11cxx_lib/src/uart_11xx.c **** {
 909              		.loc 1 215 0
 910              		.cfi_startproc
 911              	.LVL94:
 912 0000 F0B5     		push	{r4, r5, r6, r7, lr}	@
 913              		.cfi_def_cfa_offset 20
 914              		.cfi_offset 4, -20
 915              		.cfi_offset 5, -16
 916              		.cfi_offset 6, -12
 917              		.cfi_offset 7, -8
 918              		.cfi_offset 14, -4
 216:../../lpc_chip_11cxx_lib/src/uart_11xx.c **** 	/* Handle transmit interrupt if enabled */
 217:../../lpc_chip_11cxx_lib/src/uart_11xx.c **** 	if (pUART->IER & UART_IER_THREINT) {
 919              		.loc 1 217 0
 920 0002 4368     		ldr	r3, [r0, #4]	@ D.6445, pUART_3(D)->D.4992.IER
 921 0004 0225     		mov	r5, #2	@ tmp125,
 215:../../lpc_chip_11cxx_lib/src/uart_11xx.c **** {
 922              		.loc 1 215 0
 923 0006 83B0     		sub	sp, sp, #12	@,,
 924              		.cfi_def_cfa_offset 32
 215:../../lpc_chip_11cxx_lib/src/uart_11xx.c **** {
 925              		.loc 1 215 0
 926 0008 041C     		mov	r4, r0	@ pUART, pUART
 927 000a 0F1C     		mov	r7, r1	@ pRXRB, pRXRB
 928 000c 161C     		mov	r6, r2	@ pTXRB, pTXRB
 929              		.loc 1 217 0
 930 000e 1D42     		tst	r5, r3	@ tmp125, D.6445
 931 0010 10D1     		bne	.L74	@,
 932              	.LVL95:
 933              	.L65:
 934              	.LBB149:
 935              	.LBB150:
 936              	.LBB151:
ARM GAS  /var/folders/f9/8bk2lnw15zn4cbgn6wrnb4lm0000gn/T//ccyV4EJ6.s 			page 37


 937              	.LBB152:
 938              		.loc 3 507 0
 939 0012 6369     		ldr	r3, [r4, #20]	@ D.6447, pUART_3(D)->LSR
 940 0014 6D46     		mov	r5, sp	@ tmp135,
 941 0016 0735     		add	r5, r5, #7	@ tmp135,
 942              	.LBE152:
 943              	.LBE151:
 165:../../lpc_chip_11cxx_lib/src/uart_11xx.c **** 	while (Chip_UART_ReadLineStatus(pUART) & UART_LSR_RDR) {
 944              		.loc 1 165 0
 945 0018 0126     		mov	r6, #1	@ tmp136,
 946              	.LVL96:
 947 001a DA07     		lsl	r2, r3, #31	@, D.6447,
 948 001c 08D5     		bpl	.L63	@,
 949              	.L73:
 950              	.LVL97:
 951              	.LBB154:
 952              	.LBB155:
 953              	.LBB156:
 338:../../lpc_chip_11cxx_lib/inc/uart_11xx.h **** 	return (uint8_t) (pUART->RBR & UART_RBR_MASKBIT);
 954              		.loc 3 338 0
 955 001e 2368     		ldr	r3, [r4]	@ D.6445, pUART_3(D)->D.4988.RBR
 956              	.LBE156:
 957              	.LBE155:
 167:../../lpc_chip_11cxx_lib/src/uart_11xx.c **** 		RingBuffer_Insert(pRB, &ch);
 958              		.loc 1 167 0
 959 0020 381C     		mov	r0, r7	@, pRXRB
 960 0022 291C     		mov	r1, r5	@, tmp135
 961              	.LBB158:
 962              	.LBB157:
 338:../../lpc_chip_11cxx_lib/inc/uart_11xx.h **** 	return (uint8_t) (pUART->RBR & UART_RBR_MASKBIT);
 963              		.loc 3 338 0
 964 0024 2B70     		strb	r3, [r5]	@ D.6445, ch
 965              	.LBE157:
 966              	.LBE158:
 167:../../lpc_chip_11cxx_lib/src/uart_11xx.c **** 		RingBuffer_Insert(pRB, &ch);
 967              		.loc 1 167 0
 968 0026 FFF7FEFF 		bl	RingBuffer_Insert	@
 969              	.LVL98:
 970              	.LBE154:
 971              	.LBB159:
 972              	.LBB153:
 973              		.loc 3 507 0
 974 002a 6369     		ldr	r3, [r4, #20]	@ D.6447, pUART_3(D)->LSR
 975              	.LBE153:
 976              	.LBE159:
 165:../../lpc_chip_11cxx_lib/src/uart_11xx.c **** 	while (Chip_UART_ReadLineStatus(pUART) & UART_LSR_RDR) {
 977              		.loc 1 165 0
 978 002c 1E42     		tst	r6, r3	@ tmp136, D.6447
 979 002e F6D1     		bne	.L73	@,
 980              	.LVL99:
 981              	.L63:
 982              	.LBE150:
 983              	.LBE149:
 218:../../lpc_chip_11cxx_lib/src/uart_11xx.c **** 		Chip_UART_TXIntHandlerRB(pUART, pTXRB);
 219:../../lpc_chip_11cxx_lib/src/uart_11xx.c **** 
 220:../../lpc_chip_11cxx_lib/src/uart_11xx.c **** 		/* Disable transmit interrupt if the ring buffer is empty */
 221:../../lpc_chip_11cxx_lib/src/uart_11xx.c **** 		if (RingBuffer_IsEmpty(pTXRB)) {
ARM GAS  /var/folders/f9/8bk2lnw15zn4cbgn6wrnb4lm0000gn/T//ccyV4EJ6.s 			page 38


 222:../../lpc_chip_11cxx_lib/src/uart_11xx.c **** 			Chip_UART_IntDisable(pUART, UART_IER_THREINT);
 223:../../lpc_chip_11cxx_lib/src/uart_11xx.c **** 		}
 224:../../lpc_chip_11cxx_lib/src/uart_11xx.c **** 	}
 225:../../lpc_chip_11cxx_lib/src/uart_11xx.c **** 
 226:../../lpc_chip_11cxx_lib/src/uart_11xx.c **** 	/* Handle receive interrupt */
 227:../../lpc_chip_11cxx_lib/src/uart_11xx.c **** 	Chip_UART_RXIntHandlerRB(pUART, pRXRB);
 228:../../lpc_chip_11cxx_lib/src/uart_11xx.c **** }
 984              		.loc 1 228 0
 985 0030 03B0     		add	sp, sp, #12	@,,
 986              		@ sp needed	@
 987              	.LVL100:
 988              	.LVL101:
 989 0032 F0BD     		pop	{r4, r5, r6, r7, pc}
 990              	.LVL102:
 991              	.L74:
 218:../../lpc_chip_11cxx_lib/src/uart_11xx.c **** 		Chip_UART_TXIntHandlerRB(pUART, pTXRB);
 992              		.loc 1 218 0
 993 0034 111C     		mov	r1, r2	@, pTXRB
 994              	.LVL103:
 995 0036 FFF7FEFF 		bl	Chip_UART_TXIntHandlerRB	@
 996              	.LVL104:
 997              	.LBB160:
 998              	.LBB161:
 999              		.file 4 "../../lpc_chip_11cxx_lib/inc/ring_buffer.h"
   1:../../lpc_chip_11cxx_lib/inc/ring_buffer.h **** /*
   2:../../lpc_chip_11cxx_lib/inc/ring_buffer.h ****  * @brief Common ring buffer support functions
   3:../../lpc_chip_11cxx_lib/inc/ring_buffer.h ****  *
   4:../../lpc_chip_11cxx_lib/inc/ring_buffer.h ****  * @note
   5:../../lpc_chip_11cxx_lib/inc/ring_buffer.h ****  * Copyright(C) NXP Semiconductors, 2012
   6:../../lpc_chip_11cxx_lib/inc/ring_buffer.h ****  * All rights reserved.
   7:../../lpc_chip_11cxx_lib/inc/ring_buffer.h ****  *
   8:../../lpc_chip_11cxx_lib/inc/ring_buffer.h ****  * @par
   9:../../lpc_chip_11cxx_lib/inc/ring_buffer.h ****  * Software that is described herein is for illustrative purposes only
  10:../../lpc_chip_11cxx_lib/inc/ring_buffer.h ****  * which provides customers with programming information regarding the
  11:../../lpc_chip_11cxx_lib/inc/ring_buffer.h ****  * LPC products.  This software is supplied "AS IS" without any warranties of
  12:../../lpc_chip_11cxx_lib/inc/ring_buffer.h ****  * any kind, and NXP Semiconductors and its licensor disclaim any and
  13:../../lpc_chip_11cxx_lib/inc/ring_buffer.h ****  * all warranties, express or implied, including all implied warranties of
  14:../../lpc_chip_11cxx_lib/inc/ring_buffer.h ****  * merchantability, fitness for a particular purpose and non-infringement of
  15:../../lpc_chip_11cxx_lib/inc/ring_buffer.h ****  * intellectual property rights.  NXP Semiconductors assumes no responsibility
  16:../../lpc_chip_11cxx_lib/inc/ring_buffer.h ****  * or liability for the use of the software, conveys no license or rights under any
  17:../../lpc_chip_11cxx_lib/inc/ring_buffer.h ****  * patent, copyright, mask work right, or any other intellectual property rights in
  18:../../lpc_chip_11cxx_lib/inc/ring_buffer.h ****  * or to any products. NXP Semiconductors reserves the right to make changes
  19:../../lpc_chip_11cxx_lib/inc/ring_buffer.h ****  * in the software without notification. NXP Semiconductors also makes no
  20:../../lpc_chip_11cxx_lib/inc/ring_buffer.h ****  * representation or warranty that such application will be suitable for the
  21:../../lpc_chip_11cxx_lib/inc/ring_buffer.h ****  * specified use without further testing or modification.
  22:../../lpc_chip_11cxx_lib/inc/ring_buffer.h ****  *
  23:../../lpc_chip_11cxx_lib/inc/ring_buffer.h ****  * @par
  24:../../lpc_chip_11cxx_lib/inc/ring_buffer.h ****  * Permission to use, copy, modify, and distribute this software and its
  25:../../lpc_chip_11cxx_lib/inc/ring_buffer.h ****  * documentation is hereby granted, under NXP Semiconductors' and its
  26:../../lpc_chip_11cxx_lib/inc/ring_buffer.h ****  * licensor's relevant copyrights in the software, without fee, provided that it
  27:../../lpc_chip_11cxx_lib/inc/ring_buffer.h ****  * is used in conjunction with NXP Semiconductors microcontrollers.  This
  28:../../lpc_chip_11cxx_lib/inc/ring_buffer.h ****  * copyright, permission, and disclaimer notice must appear in all copies of
  29:../../lpc_chip_11cxx_lib/inc/ring_buffer.h ****  * this code.
  30:../../lpc_chip_11cxx_lib/inc/ring_buffer.h ****  */
  31:../../lpc_chip_11cxx_lib/inc/ring_buffer.h **** 
  32:../../lpc_chip_11cxx_lib/inc/ring_buffer.h **** #ifndef __RING_BUFFER_H_
  33:../../lpc_chip_11cxx_lib/inc/ring_buffer.h **** #define __RING_BUFFER_H_
ARM GAS  /var/folders/f9/8bk2lnw15zn4cbgn6wrnb4lm0000gn/T//ccyV4EJ6.s 			page 39


  34:../../lpc_chip_11cxx_lib/inc/ring_buffer.h **** 
  35:../../lpc_chip_11cxx_lib/inc/ring_buffer.h **** #include "lpc_types.h"
  36:../../lpc_chip_11cxx_lib/inc/ring_buffer.h **** 
  37:../../lpc_chip_11cxx_lib/inc/ring_buffer.h **** /** @defgroup Ring_Buffer CHIP: Simple ring buffer implementation
  38:../../lpc_chip_11cxx_lib/inc/ring_buffer.h ****  * @ingroup CHIP_Common
  39:../../lpc_chip_11cxx_lib/inc/ring_buffer.h ****  * @{
  40:../../lpc_chip_11cxx_lib/inc/ring_buffer.h ****  */
  41:../../lpc_chip_11cxx_lib/inc/ring_buffer.h **** 
  42:../../lpc_chip_11cxx_lib/inc/ring_buffer.h **** /**
  43:../../lpc_chip_11cxx_lib/inc/ring_buffer.h ****  * @brief Ring buffer structure
  44:../../lpc_chip_11cxx_lib/inc/ring_buffer.h ****  */
  45:../../lpc_chip_11cxx_lib/inc/ring_buffer.h **** typedef struct {
  46:../../lpc_chip_11cxx_lib/inc/ring_buffer.h **** 	void *data;
  47:../../lpc_chip_11cxx_lib/inc/ring_buffer.h **** 	int count;
  48:../../lpc_chip_11cxx_lib/inc/ring_buffer.h **** 	int itemSz;
  49:../../lpc_chip_11cxx_lib/inc/ring_buffer.h **** 	uint32_t head;
  50:../../lpc_chip_11cxx_lib/inc/ring_buffer.h **** 	uint32_t tail;
  51:../../lpc_chip_11cxx_lib/inc/ring_buffer.h **** } RINGBUFF_T;
  52:../../lpc_chip_11cxx_lib/inc/ring_buffer.h **** 
  53:../../lpc_chip_11cxx_lib/inc/ring_buffer.h **** /**
  54:../../lpc_chip_11cxx_lib/inc/ring_buffer.h ****  * @def		RB_VHEAD(rb)
  55:../../lpc_chip_11cxx_lib/inc/ring_buffer.h ****  * volatile typecasted head index
  56:../../lpc_chip_11cxx_lib/inc/ring_buffer.h ****  */
  57:../../lpc_chip_11cxx_lib/inc/ring_buffer.h **** #define RB_VHEAD(rb)              (*(volatile uint32_t *) &(rb)->head)
  58:../../lpc_chip_11cxx_lib/inc/ring_buffer.h **** 
  59:../../lpc_chip_11cxx_lib/inc/ring_buffer.h **** /**
  60:../../lpc_chip_11cxx_lib/inc/ring_buffer.h ****  * @def		RB_VTAIL(rb)
  61:../../lpc_chip_11cxx_lib/inc/ring_buffer.h ****  * volatile typecasted tail index
  62:../../lpc_chip_11cxx_lib/inc/ring_buffer.h ****  */
  63:../../lpc_chip_11cxx_lib/inc/ring_buffer.h **** #define RB_VTAIL(rb)              (*(volatile uint32_t *) &(rb)->tail)
  64:../../lpc_chip_11cxx_lib/inc/ring_buffer.h **** 
  65:../../lpc_chip_11cxx_lib/inc/ring_buffer.h **** /**
  66:../../lpc_chip_11cxx_lib/inc/ring_buffer.h ****  * @brief	Initialize ring buffer
  67:../../lpc_chip_11cxx_lib/inc/ring_buffer.h ****  * @param	RingBuff	: Pointer to ring buffer to initialize
  68:../../lpc_chip_11cxx_lib/inc/ring_buffer.h ****  * @param	buffer		: Pointer to buffer to associate with RingBuff
  69:../../lpc_chip_11cxx_lib/inc/ring_buffer.h ****  * @param	itemSize	: Size of each buffer item size
  70:../../lpc_chip_11cxx_lib/inc/ring_buffer.h ****  * @param	count		: Size of ring buffer
  71:../../lpc_chip_11cxx_lib/inc/ring_buffer.h ****  * @note	Memory pointed by @a buffer must have correct alignment of
  72:../../lpc_chip_11cxx_lib/inc/ring_buffer.h ****  * 			@a itemSize, and @a count must be a power of 2 and must at
  73:../../lpc_chip_11cxx_lib/inc/ring_buffer.h ****  * 			least be 2 or greater.
  74:../../lpc_chip_11cxx_lib/inc/ring_buffer.h ****  * @return	Nothing
  75:../../lpc_chip_11cxx_lib/inc/ring_buffer.h ****  */
  76:../../lpc_chip_11cxx_lib/inc/ring_buffer.h **** int RingBuffer_Init(RINGBUFF_T *RingBuff, void *buffer, int itemSize, int count);
  77:../../lpc_chip_11cxx_lib/inc/ring_buffer.h **** 
  78:../../lpc_chip_11cxx_lib/inc/ring_buffer.h **** /**
  79:../../lpc_chip_11cxx_lib/inc/ring_buffer.h ****  * @brief	Resets the ring buffer to empty
  80:../../lpc_chip_11cxx_lib/inc/ring_buffer.h ****  * @param	RingBuff	: Pointer to ring buffer
  81:../../lpc_chip_11cxx_lib/inc/ring_buffer.h ****  * @return	Nothing
  82:../../lpc_chip_11cxx_lib/inc/ring_buffer.h ****  */
  83:../../lpc_chip_11cxx_lib/inc/ring_buffer.h **** STATIC INLINE void RingBuffer_Flush(RINGBUFF_T *RingBuff)
  84:../../lpc_chip_11cxx_lib/inc/ring_buffer.h **** {
  85:../../lpc_chip_11cxx_lib/inc/ring_buffer.h **** 	RingBuff->head = RingBuff->tail = 0;
  86:../../lpc_chip_11cxx_lib/inc/ring_buffer.h **** }
  87:../../lpc_chip_11cxx_lib/inc/ring_buffer.h **** 
  88:../../lpc_chip_11cxx_lib/inc/ring_buffer.h **** /**
  89:../../lpc_chip_11cxx_lib/inc/ring_buffer.h ****  * @brief	Return size the ring buffer
  90:../../lpc_chip_11cxx_lib/inc/ring_buffer.h ****  * @param	RingBuff	: Pointer to ring buffer
ARM GAS  /var/folders/f9/8bk2lnw15zn4cbgn6wrnb4lm0000gn/T//ccyV4EJ6.s 			page 40


  91:../../lpc_chip_11cxx_lib/inc/ring_buffer.h ****  * @return	Size of the ring buffer in bytes
  92:../../lpc_chip_11cxx_lib/inc/ring_buffer.h ****  */
  93:../../lpc_chip_11cxx_lib/inc/ring_buffer.h **** STATIC INLINE int RingBuffer_GetSize(RINGBUFF_T *RingBuff)
  94:../../lpc_chip_11cxx_lib/inc/ring_buffer.h **** {
  95:../../lpc_chip_11cxx_lib/inc/ring_buffer.h **** 	return RingBuff->count;
  96:../../lpc_chip_11cxx_lib/inc/ring_buffer.h **** }
  97:../../lpc_chip_11cxx_lib/inc/ring_buffer.h **** 
  98:../../lpc_chip_11cxx_lib/inc/ring_buffer.h **** /**
  99:../../lpc_chip_11cxx_lib/inc/ring_buffer.h ****  * @brief	Return number of items in the ring buffer
 100:../../lpc_chip_11cxx_lib/inc/ring_buffer.h ****  * @param	RingBuff	: Pointer to ring buffer
 101:../../lpc_chip_11cxx_lib/inc/ring_buffer.h ****  * @return	Number of items in the ring buffer
 102:../../lpc_chip_11cxx_lib/inc/ring_buffer.h ****  */
 103:../../lpc_chip_11cxx_lib/inc/ring_buffer.h **** STATIC INLINE int RingBuffer_GetCount(RINGBUFF_T *RingBuff)
 104:../../lpc_chip_11cxx_lib/inc/ring_buffer.h **** {
 105:../../lpc_chip_11cxx_lib/inc/ring_buffer.h **** 	return RB_VHEAD(RingBuff) - RB_VTAIL(RingBuff);
 106:../../lpc_chip_11cxx_lib/inc/ring_buffer.h **** }
 107:../../lpc_chip_11cxx_lib/inc/ring_buffer.h **** 
 108:../../lpc_chip_11cxx_lib/inc/ring_buffer.h **** /**
 109:../../lpc_chip_11cxx_lib/inc/ring_buffer.h ****  * @brief	Return number of free items in the ring buffer
 110:../../lpc_chip_11cxx_lib/inc/ring_buffer.h ****  * @param	RingBuff	: Pointer to ring buffer
 111:../../lpc_chip_11cxx_lib/inc/ring_buffer.h ****  * @return	Number of free items in the ring buffer
 112:../../lpc_chip_11cxx_lib/inc/ring_buffer.h ****  */
 113:../../lpc_chip_11cxx_lib/inc/ring_buffer.h **** STATIC INLINE int RingBuffer_GetFree(RINGBUFF_T *RingBuff)
 114:../../lpc_chip_11cxx_lib/inc/ring_buffer.h **** {
 115:../../lpc_chip_11cxx_lib/inc/ring_buffer.h **** 	return RingBuff->count - RingBuffer_GetCount(RingBuff);
 116:../../lpc_chip_11cxx_lib/inc/ring_buffer.h **** }
 117:../../lpc_chip_11cxx_lib/inc/ring_buffer.h **** 
 118:../../lpc_chip_11cxx_lib/inc/ring_buffer.h **** /**
 119:../../lpc_chip_11cxx_lib/inc/ring_buffer.h ****  * @brief	Return number of items in the ring buffer
 120:../../lpc_chip_11cxx_lib/inc/ring_buffer.h ****  * @param	RingBuff	: Pointer to ring buffer
 121:../../lpc_chip_11cxx_lib/inc/ring_buffer.h ****  * @return	1 if the ring buffer is full, otherwise 0
 122:../../lpc_chip_11cxx_lib/inc/ring_buffer.h ****  */
 123:../../lpc_chip_11cxx_lib/inc/ring_buffer.h **** STATIC INLINE int RingBuffer_IsFull(RINGBUFF_T *RingBuff)
 124:../../lpc_chip_11cxx_lib/inc/ring_buffer.h **** {
 125:../../lpc_chip_11cxx_lib/inc/ring_buffer.h **** 	return (RingBuffer_GetCount(RingBuff) >= RingBuff->count);
 126:../../lpc_chip_11cxx_lib/inc/ring_buffer.h **** }
 127:../../lpc_chip_11cxx_lib/inc/ring_buffer.h **** 
 128:../../lpc_chip_11cxx_lib/inc/ring_buffer.h **** /**
 129:../../lpc_chip_11cxx_lib/inc/ring_buffer.h ****  * @brief	Return empty status of ring buffer
 130:../../lpc_chip_11cxx_lib/inc/ring_buffer.h ****  * @param	RingBuff	: Pointer to ring buffer
 131:../../lpc_chip_11cxx_lib/inc/ring_buffer.h ****  * @return	1 if the ring buffer is empty, otherwise 0
 132:../../lpc_chip_11cxx_lib/inc/ring_buffer.h ****  */
 133:../../lpc_chip_11cxx_lib/inc/ring_buffer.h **** STATIC INLINE int RingBuffer_IsEmpty(RINGBUFF_T *RingBuff)
 134:../../lpc_chip_11cxx_lib/inc/ring_buffer.h **** {
 135:../../lpc_chip_11cxx_lib/inc/ring_buffer.h **** 	return RB_VHEAD(RingBuff) == RB_VTAIL(RingBuff);
 1000              		.loc 4 135 0
 1001 003a F268     		ldr	r2, [r6, #12]	@ D.6445, MEM[(volatile uint32_t *)pTXRB_6(D) + 12B]
 1002 003c 3369     		ldr	r3, [r6, #16]	@ D.6445, MEM[(volatile uint32_t *)pTXRB_6(D) + 16B]
 1003              	.LBE161:
 1004              	.LBE160:
 221:../../lpc_chip_11cxx_lib/src/uart_11xx.c **** 		if (RingBuffer_IsEmpty(pTXRB)) {
 1005              		.loc 1 221 0
 1006 003e 9A42     		cmp	r2, r3	@ D.6445, D.6445
 1007 0040 E7D1     		bne	.L65	@,
 1008              	.LVL105:
 1009              	.LBB162:
 1010              	.LBB163:
ARM GAS  /var/folders/f9/8bk2lnw15zn4cbgn6wrnb4lm0000gn/T//ccyV4EJ6.s 			page 41


 368:../../lpc_chip_11cxx_lib/inc/uart_11xx.h **** 	pUART->IER &= ~intMask;
 1011              		.loc 3 368 0
 1012 0042 6368     		ldr	r3, [r4, #4]	@ D.6445, pUART_3(D)->D.4992.IER
 1013 0044 AB43     		bic	r3, r5	@ D.6445, tmp125
 1014 0046 6360     		str	r3, [r4, #4]	@ D.6445, pUART_3(D)->D.4992.IER
 1015 0048 E3E7     		b	.L65	@
 1016              	.LBE163:
 1017              	.LBE162:
 1018              		.cfi_endproc
 1019              	.LFE209:
 1020              		.size	Chip_UART_IRQRBHandler, .-Chip_UART_IRQRBHandler
 1021              		.global	__aeabi_uidivmod
 1022 004a C046     		.section	.text.Chip_UART_SetBaudFDR,"ax",%progbits
 1023              		.align	2
 1024              		.global	Chip_UART_SetBaudFDR
 1025              		.code	16
 1026              		.thumb_func
 1027              		.type	Chip_UART_SetBaudFDR, %function
 1028              	Chip_UART_SetBaudFDR:
 1029              	.LFB210:
 229:../../lpc_chip_11cxx_lib/src/uart_11xx.c **** 
 230:../../lpc_chip_11cxx_lib/src/uart_11xx.c **** /* Determines and sets best dividers to get a target baud rate */
 231:../../lpc_chip_11cxx_lib/src/uart_11xx.c **** uint32_t Chip_UART_SetBaudFDR(LPC_USART_T *pUART, uint32_t baudrate)
 232:../../lpc_chip_11cxx_lib/src/uart_11xx.c **** 
 233:../../lpc_chip_11cxx_lib/src/uart_11xx.c **** {
 1030              		.loc 1 233 0
 1031              		.cfi_startproc
 1032              	.LVL106:
 1033 0000 F8B5     		push	{r3, r4, r5, r6, r7, lr}	@
 1034              		.cfi_def_cfa_offset 24
 1035              		.cfi_offset 3, -24
 1036              		.cfi_offset 4, -20
 1037              		.cfi_offset 5, -16
 1038              		.cfi_offset 6, -12
 1039              		.cfi_offset 7, -8
 1040              		.cfi_offset 14, -4
 1041 0002 4646     		mov	r6, r8	@,
 1042 0004 4F46     		mov	r7, r9	@,
 1043 0006 C0B4     		push	{r6, r7}	@
 1044              		.cfi_def_cfa_offset 32
 1045              		.cfi_offset 8, -32
 1046              		.cfi_offset 9, -28
 234:../../lpc_chip_11cxx_lib/src/uart_11xx.c **** 	uint32_t uClk;
 235:../../lpc_chip_11cxx_lib/src/uart_11xx.c ****     uint32_t dval;
 236:../../lpc_chip_11cxx_lib/src/uart_11xx.c ****     uint32_t mval = 0;
 237:../../lpc_chip_11cxx_lib/src/uart_11xx.c ****     uint32_t dl;
 238:../../lpc_chip_11cxx_lib/src/uart_11xx.c ****     uint32_t rate16 = 16 * baudrate;
 1047              		.loc 1 238 0
 1048 0008 0D01     		lsl	r5, r1, #4	@ rate16, baudrate,
 1049              	.LVL107:
 233:../../lpc_chip_11cxx_lib/src/uart_11xx.c **** {
 1050              		.loc 1 233 0
 1051 000a 041C     		mov	r4, r0	@ pUART, pUART
 239:../../lpc_chip_11cxx_lib/src/uart_11xx.c **** 	uint32_t actualRate = 0;
 240:../../lpc_chip_11cxx_lib/src/uart_11xx.c **** 
 241:../../lpc_chip_11cxx_lib/src/uart_11xx.c **** 	/* Get Clock rate */
 242:../../lpc_chip_11cxx_lib/src/uart_11xx.c **** 	uClk = Chip_Clock_GetMainClockRate();
ARM GAS  /var/folders/f9/8bk2lnw15zn4cbgn6wrnb4lm0000gn/T//ccyV4EJ6.s 			page 42


 1052              		.loc 1 242 0
 1053 000c FFF7FEFF 		bl	Chip_Clock_GetMainClockRate	@
 1054              	.LVL108:
 243:../../lpc_chip_11cxx_lib/src/uart_11xx.c **** 
 244:../../lpc_chip_11cxx_lib/src/uart_11xx.c ****     /* The fractional is calculated as (PCLK  % (16 * Baudrate)) / (16 * Baudrate)
 245:../../lpc_chip_11cxx_lib/src/uart_11xx.c ****      * Let's make it to be the ratio DivVal / MulVal
 246:../../lpc_chip_11cxx_lib/src/uart_11xx.c ****      */
 247:../../lpc_chip_11cxx_lib/src/uart_11xx.c **** 	dval = uClk % rate16;
 1055              		.loc 1 247 0
 1056 0010 291C     		mov	r1, r5	@, rate16
 242:../../lpc_chip_11cxx_lib/src/uart_11xx.c **** 	uClk = Chip_Clock_GetMainClockRate();
 1057              		.loc 1 242 0
 1058 0012 061C     		mov	r6, r0	@ uClk,
 1059              	.LVL109:
 1060              		.loc 1 247 0
 1061 0014 FFF7FEFF 		bl	__aeabi_uidivmod	@
 1062              	.LVL110:
 248:../../lpc_chip_11cxx_lib/src/uart_11xx.c **** 
 249:../../lpc_chip_11cxx_lib/src/uart_11xx.c ****    /* The PCLK / (16 * Baudrate) is fractional
 250:../../lpc_chip_11cxx_lib/src/uart_11xx.c ****     * => dval = pclk % rate16
 251:../../lpc_chip_11cxx_lib/src/uart_11xx.c ****     * mval = rate16;
 252:../../lpc_chip_11cxx_lib/src/uart_11xx.c ****     * now mormalize the ratio
 253:../../lpc_chip_11cxx_lib/src/uart_11xx.c ****     * dval / mval = 1 / new_mval
 254:../../lpc_chip_11cxx_lib/src/uart_11xx.c ****     * new_mval = mval / dval
 255:../../lpc_chip_11cxx_lib/src/uart_11xx.c ****     * new_dval = 1
 256:../../lpc_chip_11cxx_lib/src/uart_11xx.c ****     */
 257:../../lpc_chip_11cxx_lib/src/uart_11xx.c ****     if (dval > 0) {
 1063              		.loc 1 257 0
 1064 0018 0029     		cmp	r1, #0	@ tmp143,
 1065 001a 36D0     		beq	.L78	@,
 258:../../lpc_chip_11cxx_lib/src/uart_11xx.c ****         mval = rate16 / dval;
 1066              		.loc 1 258 0
 1067 001c 281C     		mov	r0, r5	@, rate16
 1068 001e FFF7FEFF 		bl	__aeabi_uidiv	@
 1069              	.LVL111:
 259:../../lpc_chip_11cxx_lib/src/uart_11xx.c ****         dval = 1;
 260:../../lpc_chip_11cxx_lib/src/uart_11xx.c **** 
 261:../../lpc_chip_11cxx_lib/src/uart_11xx.c ****         /* In case mval still bigger then 4 bits
 262:../../lpc_chip_11cxx_lib/src/uart_11xx.c ****         * no adjustment require
 263:../../lpc_chip_11cxx_lib/src/uart_11xx.c ****         */
 264:../../lpc_chip_11cxx_lib/src/uart_11xx.c ****         if (mval > 12) {
 1070              		.loc 1 264 0
 1071 0022 0C22     		mov	r2, #12	@ tmp152,
 1072 0024 0023     		mov	r3, #0	@ tmp153,
 1073 0026 8242     		cmp	r2, r0	@ tmp152, tmp149
 1074 0028 5B41     		adc	r3, r3, r3	@ tmp153, tmp153, tmp153
 1075 002a 0F27     		mov	r7, #15	@ tmp154,
 1076 002c 9946     		mov	r9, r3	@ D.6451, tmp153
 1077 002e 0740     		and	r7, r0	@ D.6452, tmp149
 1078 0030 3B01     		lsl	r3, r7, #4	@ D.6450, D.6452,
 1079 0032 4A46     		mov	r2, r9	@, D.6451
 1080 0034 4846     		mov	r0, r9	@ D.6450, D.6451
 1081              	.LVL112:
 1082 0036 1A43     		orr	r2, r3	@, D.6450
 1083 0038 6843     		mul	r0, r5	@ D.6450, rate16
 1084 003a 391C     		mov	r1, r7	@, D.6452
 1085 003c 9046     		mov	r8, r2	@ D.6450,
ARM GAS  /var/folders/f9/8bk2lnw15zn4cbgn6wrnb4lm0000gn/T//ccyV4EJ6.s 			page 43


 1086 003e FFF7FEFF 		bl	__aeabi_uidiv	@
 1087              	.LVL113:
 1088 0042 4119     		add	r1, r0, r5	@ D.6450, D.6450, rate16
 1089 0044 301C     		mov	r0, r6	@, uClk
 1090 0046 FFF7FEFF 		bl	__aeabi_uidiv	@
 1091              	.LVL114:
 1092 004a 4B46     		mov	r3, r9	@, D.6451
 1093 004c 051C     		mov	r5, r0	@ D.6452,
 1094              	.LVL115:
 1095 004e 1801     		lsl	r0, r3, #4	@ D.6450,,
 1096 0050 6843     		mul	r0, r5	@ D.6450, D.6452
 1097 0052 391C     		mov	r1, r7	@, D.6452
 1098 0054 FFF7FEFF 		bl	__aeabi_uidiv	@
 1099              	.LVL116:
 1100              	.L77:
 1101              	.LBB164:
 1102              	.LBB165:
 431:../../lpc_chip_11cxx_lib/inc/uart_11xx.h **** 	pUART->LCR |= UART_LCR_DLAB_EN;
 1103              		.loc 3 431 0
 1104 0058 E268     		ldr	r2, [r4, #12]	@ D.6450, pUART_16(D)->LCR
 1105 005a 8023     		mov	r3, #128	@ tmp170,
 1106 005c 1A43     		orr	r2, r3	@ D.6450, tmp170
 1107 005e E260     		str	r2, [r4, #12]	@ D.6450, pUART_16(D)->LCR
 1108              	.LVL117:
 1109              	.LBE165:
 1110              	.LBE164:
 1111              	.LBB166:
 1112              	.LBB167:
 456:../../lpc_chip_11cxx_lib/inc/uart_11xx.h **** 	pUART->DLL = (uint32_t) dll;
 1113              		.loc 3 456 0
 1114 0060 FF22     		mov	r2, #255	@ tmp171,
 1115 0062 111C     		mov	r1, r2	@ D.6450, tmp171
 1116 0064 2940     		and	r1, r5	@ D.6450, D.6452
 1117 0066 2160     		str	r1, [r4]	@ D.6450, pUART_16(D)->D.4988.DLL
 1118              	.LBE167:
 1119              	.LBE166:
 265:../../lpc_chip_11cxx_lib/src/uart_11xx.c ****          dval = 0;
 266:../../lpc_chip_11cxx_lib/src/uart_11xx.c ****       }
 267:../../lpc_chip_11cxx_lib/src/uart_11xx.c ****     }
 268:../../lpc_chip_11cxx_lib/src/uart_11xx.c ****     dval &= 0xf;
 269:../../lpc_chip_11cxx_lib/src/uart_11xx.c ****     mval &= 0xf;
 270:../../lpc_chip_11cxx_lib/src/uart_11xx.c ****     dl = uClk / (rate16 + rate16 *dval / mval);
 271:../../lpc_chip_11cxx_lib/src/uart_11xx.c **** 
 272:../../lpc_chip_11cxx_lib/src/uart_11xx.c ****     /* Update UART registers */
 273:../../lpc_chip_11cxx_lib/src/uart_11xx.c ****     Chip_UART_EnableDivisorAccess(pUART);
 274:../../lpc_chip_11cxx_lib/src/uart_11xx.c **** 	Chip_UART_SetDivisorLatches(pUART, UART_LOAD_DLL(dl), UART_LOAD_DLM(dl));
 1120              		.loc 1 274 0
 1121 0068 290A     		lsr	r1, r5, #8	@ D.6450, D.6452,
 1122              	.LBB169:
 1123              	.LBB168:
 457:../../lpc_chip_11cxx_lib/inc/uart_11xx.h **** 	pUART->DLM = (uint32_t) dlm;
 1124              		.loc 3 457 0
 1125 006a 0A40     		and	r2, r1	@ D.6450, D.6450
 1126 006c 6260     		str	r2, [r4, #4]	@ D.6450, pUART_16(D)->D.4992.DLM
 1127              	.LVL118:
 1128              	.LBE168:
 1129              	.LBE169:
ARM GAS  /var/folders/f9/8bk2lnw15zn4cbgn6wrnb4lm0000gn/T//ccyV4EJ6.s 			page 44


 1130              	.LBB170:
 1131              	.LBB171:
 441:../../lpc_chip_11cxx_lib/inc/uart_11xx.h **** 	pUART->LCR &= ~UART_LCR_DLAB_EN;
 1132              		.loc 3 441 0
 1133 006e E268     		ldr	r2, [r4, #12]	@ D.6450, pUART_16(D)->LCR
 1134              	.LBE171:
 1135              	.LBE170:
 275:../../lpc_chip_11cxx_lib/src/uart_11xx.c **** 	Chip_UART_DisableDivisorAccess(pUART);
 276:../../lpc_chip_11cxx_lib/src/uart_11xx.c **** 
 277:../../lpc_chip_11cxx_lib/src/uart_11xx.c **** 	/* Set best fractional divider */
 278:../../lpc_chip_11cxx_lib/src/uart_11xx.c **** 	pUART->FDR = (UART_FDR_MULVAL(mval) | UART_FDR_DIVADDVAL(dval));
 279:../../lpc_chip_11cxx_lib/src/uart_11xx.c **** 
 280:../../lpc_chip_11cxx_lib/src/uart_11xx.c **** 	/* Return actual baud rate */
 281:../../lpc_chip_11cxx_lib/src/uart_11xx.c **** 	actualRate = uClk / (16 * dl + 16 * dl * dval / mval);
 1136              		.loc 1 281 0
 1137 0070 2D01     		lsl	r5, r5, #4	@ D.6450, D.6452,
 1138              	.LVL119:
 1139              	.LBB173:
 1140              	.LBB172:
 441:../../lpc_chip_11cxx_lib/inc/uart_11xx.h **** 	pUART->LCR &= ~UART_LCR_DLAB_EN;
 1141              		.loc 3 441 0
 1142 0072 9A43     		bic	r2, r3	@ D.6450, tmp170
 1143 0074 E260     		str	r2, [r4, #12]	@ D.6450, pUART_16(D)->LCR
 1144              	.LBE172:
 1145              	.LBE173:
 278:../../lpc_chip_11cxx_lib/src/uart_11xx.c **** 	pUART->FDR = (UART_FDR_MULVAL(mval) | UART_FDR_DIVADDVAL(dval));
 1146              		.loc 1 278 0
 1147 0076 4246     		mov	r2, r8	@, D.6450
 1148              		.loc 1 281 0
 1149 0078 2918     		add	r1, r5, r0	@ D.6450, D.6450, D.6450
 278:../../lpc_chip_11cxx_lib/src/uart_11xx.c **** 	pUART->FDR = (UART_FDR_MULVAL(mval) | UART_FDR_DIVADDVAL(dval));
 1150              		.loc 1 278 0
 1151 007a A262     		str	r2, [r4, #40]	@, pUART_16(D)->FDR
 1152              	.LVL120:
 1153              		.loc 1 281 0
 1154 007c 301C     		mov	r0, r6	@, uClk
 1155 007e FFF7FEFF 		bl	__aeabi_uidiv	@
 1156              	.LVL121:
 282:../../lpc_chip_11cxx_lib/src/uart_11xx.c **** 	return actualRate;
 283:../../lpc_chip_11cxx_lib/src/uart_11xx.c **** }
 1157              		.loc 1 283 0
 1158              		@ sp needed	@
 1159              	.LVL122:
 1160              	.LVL123:
 1161 0082 0CBC     		pop	{r2, r3}
 1162 0084 9046     		mov	r8, r2
 1163 0086 9946     		mov	r9, r3
 1164 0088 F8BD     		pop	{r3, r4, r5, r6, r7, pc}
 1165              	.LVL124:
 1166              	.L78:
 1167 008a 291C     		mov	r1, r5	@, rate16
 1168              	.LVL125:
 1169 008c 301C     		mov	r0, r6	@, uClk
 1170 008e FFF7FEFF 		bl	__aeabi_uidiv	@
 1171              	.LVL126:
 1172 0092 051C     		mov	r5, r0	@ D.6452,
 1173              	.LVL127:
ARM GAS  /var/folders/f9/8bk2lnw15zn4cbgn6wrnb4lm0000gn/T//ccyV4EJ6.s 			page 45


 257:../../lpc_chip_11cxx_lib/src/uart_11xx.c ****     if (dval > 0) {
 1174              		.loc 1 257 0
 1175 0094 0020     		mov	r0, #0	@ D.6450,
 1176 0096 8046     		mov	r8, r0	@ D.6450, D.6450
 1177 0098 DEE7     		b	.L77	@
 1178              		.cfi_endproc
 1179              	.LFE210:
 1180              		.size	Chip_UART_SetBaudFDR, .-Chip_UART_SetBaudFDR
 1181 009a C046     		.text
 1182              	.Letext0:
 1183              		.file 5 "/usr/local/Cellar/gcc-arm-none-eabi/20140805/arm-none-eabi/include/machine/_default_types
 1184              		.file 6 "/usr/local/Cellar/gcc-arm-none-eabi/20140805/arm-none-eabi/include/stdint.h"
 1185              		.file 7 "../../lpc_chip_11cxx_lib/inc/sysctl_11xx.h"
 1186              		.file 8 "../../lpc_chip_11cxx_lib/inc/chip.h"