ARM GAS  /var/folders/f9/8bk2lnw15zn4cbgn6wrnb4lm0000gn/T//cc5RSyFq.s 			page 1


   1              		.cpu cortex-m0
   2              		.fpu softvfp
   3              		.eabi_attribute 20, 1	@ Tag_ABI_FP_denormal
   4              		.eabi_attribute 21, 1	@ Tag_ABI_FP_exceptions
   5              		.eabi_attribute 23, 3	@ Tag_ABI_FP_number_model
   6              		.eabi_attribute 24, 1	@ Tag_ABI_align8_needed
   7              		.eabi_attribute 25, 1	@ Tag_ABI_align8_preserved
   8              		.eabi_attribute 26, 1	@ Tag_ABI_enum_size
   9              		.eabi_attribute 30, 2	@ Tag_ABI_optimization_goals
  10              		.eabi_attribute 34, 0	@ Tag_CPU_unaligned_access
  11              		.eabi_attribute 18, 4	@ Tag_ABI_PCS_wchar_t
  12              		.file	"util.c"
  13              	@ GNU C (GNU Tools for ARM Embedded Processors) version 4.8.4 20140725 (release) [ARM/embedded-4_8-
  14              	@	compiled by GNU C version 4.2.1 (Based on Apple Inc. build 5658) (LLVM build 2336.9.00), GMP vers
  15              	@ GGC heuristics: --param ggc-min-expand=100 --param ggc-min-heapsize=131072
  16              	@ options passed:  -I . -I ../../lpc_chip_11cxx_lib/inc
  17              	@ -I ../../evt_lib/inc -imultilib armv6-m
  18              	@ -iprefix /usr/local/Cellar/gcc-arm-none-eabi/20140805/bin/../lib/gcc/arm-none-eabi/4.8.4/
  19              	@ -isysroot /usr/local/Cellar/gcc-arm-none-eabi/20140805/bin/../arm-none-eabi
  20              	@ -MD bin/util.d -MF bin/util.d -MP -MQ bin/util.o -D__USES_INITFINI__
  21              	@ -D CORE_M0 ../../evt_lib/src/util.c -mcpu=cortex-m0 -mthumb
  22              	@ -auxbase-strip bin/util.o -g -ggdb3 -O2 -Wall -Wstrict-prototypes -Wextra
  23              	@ -std=gnu90 -ffunction-sections -fdata-sections -fverbose-asm
  24              	@ options enabled:  -faggressive-loop-optimizations -fauto-inc-dec
  25              	@ -fbranch-count-reg -fcaller-saves -fcombine-stack-adjustments -fcommon
  26              	@ -fcompare-elim -fcprop-registers -fcrossjumping -fcse-follow-jumps
  27              	@ -fdata-sections -fdefer-pop -fdelete-null-pointer-checks -fdevirtualize
  28              	@ -fdwarf2-cfi-asm -fearly-inlining -feliminate-unused-debug-types
  29              	@ -fexpensive-optimizations -fforward-propagate -ffunction-cse
  30              	@ -ffunction-sections -fgcse -fgcse-lm -fgnu-runtime -fgnu-unique
  31              	@ -fguess-branch-probability -fhoist-adjacent-loads -fident -fif-conversion
  32              	@ -fif-conversion2 -findirect-inlining -finline -finline-atomics
  33              	@ -finline-functions-called-once -finline-small-functions -fipa-cp
  34              	@ -fipa-profile -fipa-pure-const -fipa-reference -fipa-sra
  35              	@ -fira-hoist-pressure -fira-share-save-slots -fira-share-spill-slots
  36              	@ -fivopts -fkeep-static-consts -fleading-underscore -fmath-errno
  37              	@ -fmerge-constants -fmerge-debug-strings -fmove-loop-invariants
  38              	@ -fomit-frame-pointer -foptimize-register-move -foptimize-sibling-calls
  39              	@ -foptimize-strlen -fpartial-inlining -fpeephole -fpeephole2
  40              	@ -fprefetch-loop-arrays -freg-struct-return -fregmove -freorder-blocks
  41              	@ -freorder-functions -frerun-cse-after-loop
  42              	@ -fsched-critical-path-heuristic -fsched-dep-count-heuristic
  43              	@ -fsched-group-heuristic -fsched-interblock -fsched-last-insn-heuristic
  44              	@ -fsched-pressure -fsched-rank-heuristic -fsched-spec
  45              	@ -fsched-spec-insn-heuristic -fsched-stalled-insns-dep -fschedule-insns2
  46              	@ -fsection-anchors -fshow-column -fshrink-wrap -fsigned-zeros
  47              	@ -fsplit-ivs-in-unroller -fsplit-wide-types -fstrict-aliasing
  48              	@ -fstrict-overflow -fstrict-volatile-bitfields -fsync-libcalls
  49              	@ -fthread-jumps -ftoplevel-reorder -ftrapping-math -ftree-bit-ccp
  50              	@ -ftree-builtin-call-dce -ftree-ccp -ftree-ch -ftree-coalesce-vars
  51              	@ -ftree-copy-prop -ftree-copyrename -ftree-cselim -ftree-dce
  52              	@ -ftree-dominator-opts -ftree-dse -ftree-forwprop -ftree-fre
  53              	@ -ftree-loop-if-convert -ftree-loop-im -ftree-loop-ivcanon
  54              	@ -ftree-loop-optimize -ftree-parallelize-loops= -ftree-phiprop -ftree-pre
  55              	@ -ftree-pta -ftree-reassoc -ftree-scev-cprop -ftree-sink
  56              	@ -ftree-slp-vectorize -ftree-slsr -ftree-sra -ftree-switch-conversion
  57              	@ -ftree-tail-merge -ftree-ter -ftree-vect-loop-version -ftree-vrp
ARM GAS  /var/folders/f9/8bk2lnw15zn4cbgn6wrnb4lm0000gn/T//cc5RSyFq.s 			page 2


  58              	@ -funit-at-a-time -fvar-tracking -fvar-tracking-assignments -fverbose-asm
  59              	@ -fzero-initialized-in-bss -mlittle-endian -mpic-data-is-text-relative
  60              	@ -msched-prolog -mthumb -mvectorize-with-neon-quad
  61              	
  62              		.text
  63              	.Ltext0:
  64              		.cfi_sections	.debug_frame
  65              		.section	.text.__reverse,"ax",%progbits
  66              		.align	2
  67              		.global	__reverse
  68              		.code	16
  69              		.thumb_func
  70              		.type	__reverse, %function
  71              	__reverse:
  72              	.LFB0:
  73              		.file 1 "../../evt_lib/src/util.c"
   1:../../evt_lib/src/util.c **** #include "util.h"
   2:../../evt_lib/src/util.c **** 
   3:../../evt_lib/src/util.c **** void __reverse(char* begin,char* end) {
  74              		.loc 1 3 0
  75              		.cfi_startproc
  76              	.LVL0:
  77 0000 06E0     		b	.L6	@
  78              	.L5:
   4:../../evt_lib/src/util.c **** 	char temp;
   5:../../evt_lib/src/util.c **** 
   6:../../evt_lib/src/util.c **** 	while (end  >begin)
   7:../../evt_lib/src/util.c **** 	{
   8:../../evt_lib/src/util.c **** 		temp = *end;
   9:../../evt_lib/src/util.c **** 		*end-- = *begin;
  79              		.loc 1 9 0
  80 0002 0378     		ldrb	r3, [r0]	@ D.4207, MEM[base: begin_14, offset: 0B]
   8:../../evt_lib/src/util.c **** 		temp = *end;
  81              		.loc 1 8 0
  82 0004 0A78     		ldrb	r2, [r1]	@ temp, MEM[base: end_17, offset: 0B]
  83              	.LVL1:
  10:../../evt_lib/src/util.c **** 		*begin++ = temp;
  84              		.loc 1 10 0
  85 0006 0130     		add	r0, r0, #1	@ begin,
  86              	.LVL2:
   9:../../evt_lib/src/util.c **** 		*end-- = *begin;
  87              		.loc 1 9 0
  88 0008 0139     		sub	r1, r1, #1	@ end,
  89              	.LVL3:
  90 000a 4B70     		strb	r3, [r1, #1]	@ D.4207, MEM[base: end_8, offset: 1B]
  91              	.LVL4:
  92 000c 431E     		sub	r3, r0, #1	@ D.4208, begin,
  93              		.loc 1 10 0
  94 000e 1A70     		strb	r2, [r3]	@ temp, MEM[base: _19, offset: 0B]
  95              	.LVL5:
  96              	.L6:
   6:../../evt_lib/src/util.c **** 	while (end  >begin)
  97              		.loc 1 6 0
  98 0010 8142     		cmp	r1, r0	@ end, begin
  99 0012 F6D8     		bhi	.L5	@,
  11:../../evt_lib/src/util.c **** 	}
  12:../../evt_lib/src/util.c **** }
ARM GAS  /var/folders/f9/8bk2lnw15zn4cbgn6wrnb4lm0000gn/T//cc5RSyFq.s 			page 3


 100              		.loc 1 12 0
 101              		@ sp needed	@
 102 0014 7047     		bx	lr
 103              		.cfi_endproc
 104              	.LFE0:
 105              		.size	__reverse, .-__reverse
 106              		.global	__aeabi_idiv
 107              		.global	__aeabi_idivmod
 108 0016 C046     		.section	.text.itoa,"ax",%progbits
 109              		.align	2
 110              		.global	itoa
 111              		.code	16
 112              		.thumb_func
 113              		.type	itoa, %function
 114              	itoa:
 115              	.LFB1:
  13:../../evt_lib/src/util.c **** 
  14:../../evt_lib/src/util.c **** char* itoa(int value, char* buffer, int base) {
 116              		.loc 1 14 0
 117              		.cfi_startproc
 118              	.LVL6:
 119 0000 F8B5     		push	{r3, r4, r5, r6, r7, lr}	@
 120              		.cfi_def_cfa_offset 24
 121              		.cfi_offset 3, -24
 122              		.cfi_offset 4, -20
 123              		.cfi_offset 5, -16
 124              		.cfi_offset 6, -12
 125              		.cfi_offset 7, -8
 126              		.cfi_offset 14, -4
 127 0002 4446     		mov	r4, r8	@,
 128 0004 5F46     		mov	r7, fp	@,
 129 0006 4D46     		mov	r5, r9	@,
 130 0008 5646     		mov	r6, r10	@,
  15:../../evt_lib/src/util.c **** 	static const char digits[] = "0123456789abcdef";
  16:../../evt_lib/src/util.c **** 
  17:../../evt_lib/src/util.c **** 	char* buffer_copy = buffer;
  18:../../evt_lib/src/util.c **** 	int32_t sign = 0;
  19:../../evt_lib/src/util.c **** 	int32_t quot, rem;
  20:../../evt_lib/src/util.c **** 
  21:../../evt_lib/src/util.c **** 	if ((base >= 2) && (base <= 16))				// is the base valid?
 131              		.loc 1 21 0
 132 000a 931E     		sub	r3, r2, #2	@ D.4222, base,
  14:../../evt_lib/src/util.c **** char* itoa(int value, char* buffer, int base) {
 133              		.loc 1 14 0
 134 000c F0B4     		push	{r4, r5, r6, r7}	@
 135              		.cfi_def_cfa_offset 40
 136              		.cfi_offset 8, -40
 137              		.cfi_offset 9, -36
 138              		.cfi_offset 10, -32
 139              		.cfi_offset 11, -28
  14:../../evt_lib/src/util.c **** char* itoa(int value, char* buffer, int base) {
 140              		.loc 1 14 0
 141 000e 8946     		mov	r9, r1	@ buffer, buffer
 142 0010 041C     		mov	r4, r0	@ value, value
 143 0012 171C     		mov	r7, r2	@ base, base
 144 0014 8846     		mov	r8, r1	@ buffer, buffer
 145              		.loc 1 21 0
ARM GAS  /var/folders/f9/8bk2lnw15zn4cbgn6wrnb4lm0000gn/T//cc5RSyFq.s 			page 4


 146 0016 0E2B     		cmp	r3, #14	@ D.4222,
 147 0018 2AD8     		bhi	.L9	@,
  18:../../evt_lib/src/util.c **** 	int32_t sign = 0;
 148              		.loc 1 18 0
 149 001a 0022     		mov	r2, #0	@,
 150              	.LVL7:
 151 001c 9346     		mov	fp, r2	@ value,
  22:../../evt_lib/src/util.c **** 	{
  23:../../evt_lib/src/util.c **** 		if (base == 10 && (sign = value) < 0)// negative value and base == 10? store the copy (sign)
 152              		.loc 1 23 0
 153 001e 0A2F     		cmp	r7, #10	@ base,
 154 0020 30D0     		beq	.L17	@,
 155              	.LVL8:
 156              	.L10:
 157 0022 1D4A     		ldr	r2, .L20	@,
 158 0024 4D46     		mov	r5, r9	@ buffer, buffer
 159 0026 9246     		mov	r10, r2	@ tmp151,
 160 0028 01E0     		b	.L12	@
 161              	.LVL9:
 162              	.L18:
  24:../../evt_lib/src/util.c **** 			value = -value;					// make it positive
  25:../../evt_lib/src/util.c **** 		do {
  26:../../evt_lib/src/util.c **** 			quot = value / base;				// calculate quotient and remainder
  27:../../evt_lib/src/util.c **** 			rem = value % base;
  28:../../evt_lib/src/util.c **** 			*buffer++ = digits[rem];		// append the remainder to the string
  29:../../evt_lib/src/util.c **** 		} while ((value = quot));				// loop while there is something to convert
 163              		.loc 1 29 0
 164 002a 341C     		mov	r4, r6	@ value, tmp132
 165              	.LVL10:
  28:../../evt_lib/src/util.c **** 			*buffer++ = digits[rem];		// append the remainder to the string
 166              		.loc 1 28 0
 167 002c 4546     		mov	r5, r8	@ buffer, buffer
 168              	.LVL11:
 169              	.L12:
  26:../../evt_lib/src/util.c **** 			quot = value / base;				// calculate quotient and remainder
 170              		.loc 1 26 0 discriminator 1
 171 002e 391C     		mov	r1, r7	@, base
 172 0030 201C     		mov	r0, r4	@, value
 173 0032 FFF7FEFF 		bl	__aeabi_idiv	@
 174              	.LVL12:
  28:../../evt_lib/src/util.c **** 			*buffer++ = digits[rem];		// append the remainder to the string
 175              		.loc 1 28 0 discriminator 1
 176 0036 6B1C     		add	r3, r5, #1	@, buffer,
  26:../../evt_lib/src/util.c **** 			quot = value / base;				// calculate quotient and remainder
 177              		.loc 1 26 0 discriminator 1
 178 0038 061C     		mov	r6, r0	@ tmp132,
 179              	.LVL13:
  27:../../evt_lib/src/util.c **** 			rem = value % base;
 180              		.loc 1 27 0 discriminator 1
 181 003a 391C     		mov	r1, r7	@, base
 182 003c 201C     		mov	r0, r4	@, value
 183              	.LVL14:
  28:../../evt_lib/src/util.c **** 			*buffer++ = digits[rem];		// append the remainder to the string
 184              		.loc 1 28 0 discriminator 1
 185 003e 9846     		mov	r8, r3	@ buffer,
 186              	.LVL15:
  27:../../evt_lib/src/util.c **** 			rem = value % base;
ARM GAS  /var/folders/f9/8bk2lnw15zn4cbgn6wrnb4lm0000gn/T//cc5RSyFq.s 			page 5


 187              		.loc 1 27 0 discriminator 1
 188 0040 FFF7FEFF 		bl	__aeabi_idivmod	@
 189              	.LVL16:
  28:../../evt_lib/src/util.c **** 			*buffer++ = digits[rem];		// append the remainder to the string
 190              		.loc 1 28 0 discriminator 1
 191 0044 5246     		mov	r2, r10	@, tmp151
 192 0046 535C     		ldrb	r3, [r2, r1]	@ tmp141, digits
 193 0048 2B70     		strb	r3, [r5]	@ tmp141, MEM[base: _5, offset: 0B]
 194              	.LVL17:
 195              		.loc 1 29 0 discriminator 1
 196 004a 002E     		cmp	r6, #0	@ tmp132,
 197 004c EDD1     		bne	.L18	@,
  30:../../evt_lib/src/util.c **** 
  31:../../evt_lib/src/util.c **** 		if (sign<0)							// was the value negative?
 198              		.loc 1 31 0
 199 004e 5B46     		mov	r3, fp	@, value
 200 0050 002B     		cmp	r3, #0	@,
 201 0052 1CDB     		blt	.L19	@,
 202              	.L13:
  32:../../evt_lib/src/util.c **** 			*buffer++ = '-';					// append the sign
  33:../../evt_lib/src/util.c **** 
  34:../../evt_lib/src/util.c **** 		__reverse(buffer_copy, buffer-1);		// reverse the string
 203              		.loc 1 34 0
 204 0054 4346     		mov	r3, r8	@ end, buffer
 205 0056 013B     		sub	r3, r3, #1	@ end,
 206              	.LVL18:
 207              	.LBB4:
 208              	.LBB5:
   6:../../evt_lib/src/util.c **** 	while (end  >begin)
 209              		.loc 1 6 0
 210 0058 9945     		cmp	r9, r3	@ buffer, end
 211 005a 09D2     		bcs	.L9	@,
 212 005c 4A46     		mov	r2, r9	@ buffer, buffer
 213              	.LVL19:
 214              	.L14:
   9:../../evt_lib/src/util.c **** 		*end-- = *begin;
 215              		.loc 1 9 0
 216 005e 1178     		ldrb	r1, [r2]	@ D.4223, MEM[base: buffer_38, offset: 0B]
   8:../../evt_lib/src/util.c **** 		temp = *end;
 217              		.loc 1 8 0
 218 0060 1878     		ldrb	r0, [r3]	@ temp, MEM[base: end_45, offset: 0B]
 219              	.LVL20:
  10:../../evt_lib/src/util.c **** 		*begin++ = temp;
 220              		.loc 1 10 0
 221 0062 0132     		add	r2, r2, #1	@ buffer,
 222              	.LVL21:
   9:../../evt_lib/src/util.c **** 		*end-- = *begin;
 223              		.loc 1 9 0
 224 0064 013B     		sub	r3, r3, #1	@ end,
 225              	.LVL22:
 226 0066 5970     		strb	r1, [r3, #1]	@ D.4223, MEM[base: end_31, offset: 1B]
 227              	.LVL23:
 228 0068 511E     		sub	r1, r2, #1	@ D.4221, buffer,
  10:../../evt_lib/src/util.c **** 		*begin++ = temp;
 229              		.loc 1 10 0
 230 006a 0870     		strb	r0, [r1]	@ temp, MEM[base: _22, offset: 0B]
   6:../../evt_lib/src/util.c **** 	while (end  >begin)
ARM GAS  /var/folders/f9/8bk2lnw15zn4cbgn6wrnb4lm0000gn/T//cc5RSyFq.s 			page 6


 231              		.loc 1 6 0
 232 006c 9342     		cmp	r3, r2	@ end, buffer
 233 006e F6D8     		bhi	.L14	@,
 234              	.LVL24:
 235              	.L9:
 236              	.LBE5:
 237              	.LBE4:
  35:../../evt_lib/src/util.c **** 	}
  36:../../evt_lib/src/util.c **** 
  37:../../evt_lib/src/util.c **** 	*buffer='\0';
 238              		.loc 1 37 0
 239 0070 4246     		mov	r2, r8	@, buffer
 240 0072 0023     		mov	r3, #0	@ tmp148,
  38:../../evt_lib/src/util.c **** 	return buffer_copy;
  39:../../evt_lib/src/util.c **** }...
 241              		.loc 1 39 0
 242 0074 4846     		mov	r0, r9	@, buffer
  37:../../evt_lib/src/util.c **** 	*buffer='\0';
 243              		.loc 1 37 0
 244 0076 1370     		strb	r3, [r2]	@ tmp148, *buffer_4
 245              		.loc 1 39 0
 246              		@ sp needed	@
 247              	.LVL25:
 248              	.LVL26:
 249              	.LVL27:
 250 0078 3CBC     		pop	{r2, r3, r4, r5}
 251 007a 9046     		mov	r8, r2
 252 007c 9946     		mov	r9, r3
 253 007e A246     		mov	r10, r4
 254 0080 AB46     		mov	fp, r5
 255 0082 F8BD     		pop	{r3, r4, r5, r6, r7, pc}
 256              	.LVL28:
 257              	.L17:
 258 0084 C317     		asr	r3, r0, #31	@, value,
 259 0086 C418     		add	r4, r0, r3	@ value, value,
 260 0088 8346     		mov	fp, r0	@ value, value
 261 008a 5C40     		eor	r4, r3	@ value,
 262 008c C9E7     		b	.L10	@
 263              	.LVL29:
 264              	.L19:
  32:../../evt_lib/src/util.c **** 			*buffer++ = '-';					// append the sign
 265              		.loc 1 32 0
 266 008e AA1C     		add	r2, r5, #2	@, buffer,
 267 0090 2D23     		mov	r3, #45	@ tmp143,
 268              	.LVL30:
 269 0092 9046     		mov	r8, r2	@ buffer,
 270              	.LVL31:
 271 0094 6B70     		strb	r3, [r5, #1]	@ tmp143, MEM[(char *)buffer_35 + 1B]
 272 0096 DDE7     		b	.L13	@
 273              	.L21:
 274              		.align	2
 275              	.L20:
 276 0098 00000000 		.word	.LANCHOR0
 277              		.cfi_endproc
 278              	.LFE1:
 279              		.size	itoa, .-itoa
 280              		.section	.rodata.digits.4160,"a",%progbits
ARM GAS  /var/folders/f9/8bk2lnw15zn4cbgn6wrnb4lm0000gn/T//cc5RSyFq.s 			page 7


 281              		.align	2
 282              		.set	.LANCHOR0,. + 0
 283              		.type	digits.4160, %object
 284              		.size	digits.4160, 17
 285              	digits.4160:
 286 0000 30313233 		.ascii	"0123456789abcdef\000"
 286      34353637 
 286      38396162 
 286      63646566 
 286      00
 287 0011 000000   		.text
 288              	.Letext0:
 289              		.file 2 "/usr/local/Cellar/gcc-arm-none-eabi/20140805/arm-none-eabi/include/machine/_default_types
 290              		.file 3 "/usr/local/Cellar/gcc-arm-none-eabi/20140805/arm-none-eabi/include/stdint.h"