ARM GAS  /var/folders/f9/8bk2lnw15zn4cbgn6wrnb4lm0000gn/T//cc5RSyFq.s 			page 1


   1              		.cpu cortex-m0
   2              		.fpu softvfp
   3              		.eabi_attribute 20, 1	@ Tag_ABI_FP_denormal
   4              		.eabi_attribute 21, 1	@ Tag_ABI_FP_exceptions
   5              		.eabi_attribute 23, 3	@ Tag_ABI_FP_number_model
   6              		.eabi_attribute 24, 1	@ Tag_ABI_align8_needed
   7              		.eabi_attribute 25, 1	@ Tag_ABI_align8_preserved
   8              		.eabi_attribute 26, 1	@ Tag_ABI_enum_size
   9              		.eabi_attribute 30, 2	@ Tag_ABI_optimization_goals
  10              		.eabi_attribute 34, 0	@ Tag_CPU_unaligned_access
  11              		.eabi_attribute 18, 4	@ Tag_ABI_PCS_wchar_t
  12              		.file	"util.c"
  13              	@ GNU C (GNU Tools for ARM Embedded Processors) version 4.8.4 20140725 (release) [ARM/embedded-4_8-
  14              	@	compiled by GNU C version 4.2.1 (Based on Apple Inc. build 5658) (LLVM build 2336.9.00), GMP vers
  15              	@ GGC heuristics: --param ggc-min-expand=100 --param ggc-min-heapsize=131072
  16              	@ options passed:  -I . -I ../../lpc_chip_11cxx_lib/inc
  17              	@ -I ../../evt_lib/inc -imultilib armv6-m
  18              	@ -iprefix /usr/local/Cellar/gcc-arm-none-eabi/20140805/bin/../lib/gcc/arm-none-eabi/4.8.4/
  19              	@ -isysroot /usr/local/Cellar/gcc-arm-none-eabi/20140805/bin/../arm-none-eabi
  20              	@ -MD bin/util.d -MF bin/util.d -MP -MQ bin/util.o -D__USES_INITFINI__
  21              	@ -D CORE_M0 ../../evt_lib/src/util.c -mcpu=cortex-m0 -mthumb
  22              	@ -auxbase-strip bin/util.o -g -ggdb3 -O2 -Wall -Wstrict-prototypes -Wextra
  23              	@ -std=gnu90 -ffunction-sections -fdata-sections -fverbose-asm
  24              	@ options enabled:  -faggressive-loop-optimizations -fauto-inc-dec
  25              	@ -fbranch-count-reg -fcaller-saves -fcombine-stack-adjustments -fcommon
  26              	@ -fcompare-elim -fcprop-registers -fcrossjumping -fcse-follow-jumps
  27              	@ -fdata-sections -fdefer-pop -fdelete-null-pointer-checks -fdevirtualize
  28              	@ -fdwarf2-cfi-asm -fearly-inlining -feliminate-unused-debug-types
  29              	@ -fexpensive-optimizations -fforward-propagate -ffunction-cse
  30              	@ -ffunction-sections -fgcse -fgcse-lm -fgnu-runtime -fgnu-unique
  31              	@ -fguess-branch-probability -fhoist-adjacent-loads -fident -fif-conversion
  32              	@ -fif-conversion2 -findirect-inlining -finline -finline-atomics
  33              	@ -finline-functions-called-once -finline-small-functions -fipa-cp
  34              	@ -fipa-profile -fipa-pure-const -fipa-reference -fipa-sra
  35              	@ -fira-hoist-pressure -fira-share-save-slots -fira-share-spill-slots
  36              	@ -fivopts -fkeep-static-consts -fleading-underscore -fmath-errno
  37              	@ -fmerge-constants -fmerge-debug-strings -fmove-loop-invariants
  38              	@ -fomit-frame-pointer -foptimize-register-move -foptimize-sibling-calls
  39              	@ -foptimize-strlen -fpartial-inlining -fpeephole -fpeephole2
  40              	@ -fprefetch-loop-arrays -freg-struct-return -fregmove -freorder-blocks
  41              	@ -freorder-functions -frerun-cse-after-loop
  42              	@ -fsched-critical-path-heuristic -fsched-dep-count-heuristic
  43              	@ -fsched-group-heuristic -fsched-interblock -fsched-last-insn-heuristic
  44              	@ -fsched-pressure -fsched-rank-heuristic -fsched-spec
  45              	@ -fsched-spec-insn-heuristic -fsched-stalled-insns-dep -fschedule-insns2
  46              	@ -fsection-anchors -fshow-column -fshrink-wrap -fsigned-zeros
  47              	@ -fsplit-ivs-in-unroller -fsplit-wide-types -fstrict-aliasing
  48              	@ -fstrict-overflow -fstrict-volatile-bitfields -fsync-libcalls
  49              	@ -fthread-jumps -ftoplevel-reorder -ftrapping-math -ftree-bit-ccp
  50              	@ -ftree-builtin-call-dce -ftree-ccp -ftree-ch -ftree-coalesce-vars
  51              	@ -ftree-copy-prop -ftree-copyrename -ftree-cselim -ftree-dce
  52              	@ -ftree-dominator-opts -ftree-dse -ftree-forwprop -ftree-fre
  53              	@ -ftree-loop-if-convert -ftree-loop-im -ftree-loop-ivcanon
  54              	@ -ftree-loop-optimize -ftree-parallelize-loops= -ftree-phiprop -ftree-pre
  55              	@ -ftree-pta -ftree-reassoc -ftree-scev-cprop -ftree-sink
  56              	@ -ftree-slp-vectorize -ftree-slsr -ftree-sra -ftree-switch-conversion
  57              	@ -ftree-tail-merge -ftree-ter -ftree-vect-loop-version -ftree-vrp
ARM GAS  /var/folders/f9/8bk2lnw15zn4cbgn6wrnb4lm0000gn/T//cc5RSyFq.s 			page 2


  58              	@ -funit-at-a-time -fvar-tracking -fvar-tracking-assignments -fverbose-asm
  59              	@ -fzero-initialized-in-bss -mlittle-endian -mpic-data-is-text-relative
  60              	@ -msched-prolog -mthumb -mvectorize-with-neon-quad
  61              	
  62              		.text
  63              	.Ltext0:
  64              		.cfi_sections	.debug_frame
  65              		.section	.text.__reverse,"ax",%progbits
  66              		.align	2
  67              		.global	__reverse
  68              		.code	16
  69              		.thumb_func
  70              		.type	__reverse, %function
  71              	__reverse:
  72              	.LFB0:
  73              		.file 1 "../../evt_lib/src/util.c"
   1:../../evt_lib/src/util.c **** #include "util.h"
   2:../../evt_lib/src/util.c **** 
   3:../../evt_lib/src/util.c **** void __reverse(char* begin,char* end) {
  74              		.loc 1 3 0
  75              		.cfi_startproc
  76              	.LVL0:
  77 0000 06E0     		b	.L6	@
  78              	.L5:
   4:../../evt_lib/src/util.c **** 	char temp;
   5:../../evt_lib/src/util.c **** 
   6:../../evt_lib/src/util.c **** 	while (end  >begin)
   7:../../evt_lib/src/util.c **** 	{
   8:../../evt_lib/src/util.c **** 		temp = *end;
   9:../../evt_lib/src/util.c **** 		*end-- = *begin;
  79              		.loc 1 9 0
  80 0002 0378     		ldrb	r3, [r0]	@ D.4207, MEM[base: begin_14, offset: 0B]
   8:../../evt_lib/src/util.c **** 		temp = *end;
  81              		.loc 1 8 0
  82 0004 0A78     		ldrb	r2, [r1]	@ temp, MEM[base: end_17, offset: 0B]
  83              	.LVL1:
  10:../../evt_lib/src/util.c **** 		*begin++ = temp;
  84              		.loc 1 10 0
  85 0006 0130     		add	r0, r0, #1	@ begin,
  86              	.LVL2:
   9:../../evt_lib/src/util.c **** 		*end-- = *begin;
  87              		.loc 1 9 0
  88 0008 0139     		sub	r1, r1, #1	@ end,
  89              	.LVL3:
  90 000a 4B70     		strb	r3, [r1, #1]	@ D.4207, MEM[base: end_8, offset: 1B]
  91              	.LVL4:
  92 000c 431E     		sub	r3, r0, #1	@ D.4208, begin,
  93              		.loc 1 10 0
  94 000e 1A70     		strb	r2, [r3]	@ temp, MEM[base: _19, offset: 0B]
  95              	.LVL5:
  96              	.L6:
   6:../../evt_lib/src/util.c **** 	while (end  >begin)
  97              		.loc 1 6 0
  98 0010 8142     		cmp	r1, r0	@ end, begin
  99 0012 F6D8     		bhi	.L5	@,
  11:../../evt_lib/src/util.c **** 	}
  12:../../evt_lib/src/util.c **** }
ARM GAS  /var/folders/f9/8bk2lnw15zn4cbgn6wrnb4lm0000gn/T//cc5RSyFq.s 			page 3


 100              		.loc 1 12 0
 101              		@ sp needed	@
 102 0014 7047     		bx	lr
 103              		.cfi_endproc
 104              	.LFE0:
 105              		.size	__reverse, .-__reverse
 106              		.global	__aeabi_idiv
 107              		.global	__aeabi_idivmod
 108 0016 C046     		.section	.text.itoa,"ax",%progbits
 109              		.align	2
 110              		.global	itoa
 111              		.code	16
 112              		.thumb_func
 113              		.type	itoa, %function
 114              	itoa:
 115              	.LFB1:
  13:../../evt_lib/src/util.c **** 
  14:../../evt_lib/src/util.c **** char* itoa(int value, char* buffer, int base) {
 116              		.loc 1 14 0
 117              		.cfi_startproc
 118              	.LVL6:
 119 0000 F8B5     		push	{r3, r4, r5, r6, r7, lr}	@
 120              		.cfi_def_cfa_offset 24
 121              		.cfi_offset 3, -24
 122              		.cfi_offset 4, -20
 123              		.cfi_offset 5, -16
 124              		.cfi_offset 6, -12
 125              		.cfi_offset 7, -8
 126              		.cfi_offset 14, -4
 127 0002 4446     		mov	r4, r8	@,
 128 0004 5F46     		mov	r7, fp	@,
 129 0006 4D46     		mov	r5, r9	@,
 130 0008 5646     		mov	r6, r10	@,
  15:../../evt_lib/src/util.c **** 	static const char digits[] = "0123456789abcdef";
  16:../../evt_lib/src/util.c **** 
  17:../../evt_lib/src/util.c **** 	char* buffer_copy = buffer;
  18:../../evt_lib/src/util.c **** 	int32_t sign = 0;
  19:../../evt_lib/src/util.c **** 	int32_t quot, rem;
  20:../../evt_lib/src/util.c **** 
  21:../../evt_lib/src/util.c **** 	if ((base >= 2) && (base <= 16))				// is the base valid?
 131              		.loc 1 21 0
 132 000a 931E     		sub	r3, r2, #2	@ D.4222, base,
  14:../../evt_lib/src/util.c **** char* itoa(int value, char* buffer, int base) {
 133              		.loc 1 14 0
 134 000c F0B4     		push	{r4, r5, r6, r7}	@
 135              		.cfi_def_cfa_offset 40
 136              		.cfi_offset 8, -40
 137              		.cfi_offset 9, -36
 138              		.cfi_offset 10, -32
 139              		.cfi_offset 11, -28
  14:../../evt_lib/src/util.c **** char* itoa(int value, char* buffer, int base) {
 140              		.loc 1 14 0
 141 000e 8946     		mov	r9, r1	@ buffer, buffer
 142 0010 041C     		mov	r4, r0	@ value, value
 143 0012 171C     		mov	r7, r2	@ base, base
 144 0014 8846     		mov	r8, r1	@ buffer, buffer
 145              		.loc 1 21 0
ARM GAS  /var/folders/f9/8bk2lnw15zn4cbgn6wrnb4lm0000gn/T//cc5RSyFq.s 			page 4


 146 0016 0E2B     		cmp	r3, #14	@ D.4222,
 147 0018 2AD8     		bhi	.L9	@,
  18:../../evt_lib/src/util.c **** 	int32_t sign = 0;
 148              		.loc 1 18 0
 149 001a 0022     		mov	r2, #0	@,
 150              	.LVL7:
 151 001c 9346     		mov	fp, r2	@ value,
  22:../../evt_lib/src/util.c **** 	{
  23:../../evt_lib/src/util.c **** 		if (base == 10 && (sign = value) < 0)// negative value and base == 10? store the copy (sign)
 152              		.loc 1 23 0
 153 001e 0A2F     		cmp	r7, #10	@ base,
 154 0020 30D0     		beq	.L17	@,
 155              	.LVL8:
 156              	.L10:
 157 0022 1D4A     		ldr	r2, .L20	@,
 158 0024 4D46     		mov	r5, r9	@ buffer, buffer
 159 0026 9246     		mov	r10, r2	@ tmp151,
 160 0028 01E0     		b	.L12	@
 161              	.LVL9:
 162              	.L18:
  24:../../evt_lib/src/util.c **** 			value = -value;					// make it positive
  25:../../evt_lib/src/util.c **** 		do {
  26:../../evt_lib/src/util.c **** 			quot = value / base;				// calculate quotient and remainder
  27:../../evt_lib/src/util.c **** 			rem = value % base;
  28:../../evt_lib/src/util.c **** 			*buffer++ = digits[rem];		// append the remainder to the string
  29:../../evt_lib/src/util.c **** 		} while ((value = quot));				// loop while there is something to convert
 163              		.loc 1 29 0
 164 002a 341C     		mov	r4, r6	@ value, tmp132
 165              	.LVL10:
  28:../../evt_lib/src/util.c **** 			*buffer++ = digits[rem];		// append the remainder to the string
 166              		.loc 1 28 0
 167 002c 4546     		mov	r5, r8	@ buffer, buffer
 168              	.LVL11:
 169              	.L12:
  26:../../evt_lib/src/util.c **** 			quot = value / base;				// calculate quotient and remainder
 170              		.loc 1 26 0 discriminator 1
 171 002e 391C     		mov	r1, r7	@, base
 172 0030 201C     		mov	r0, r4	@, value
 173 0032 FFF7FEFF 		bl	__aeabi_idiv	@
 174              	.LVL12:
  28:../../evt_lib/src/util.c **** 			*buffer++ = digits[rem];		// append the remainder to the string
 175              		.loc 1 28 0 discriminator 1
 176 0036 6B1C     		add	r3, r5, #1	@, buffer,
  26:../../evt_lib/src/util.c **** 			quot = value / base;				// calculate quotient and remainder
 177              		.loc 1 26 0 discriminator 1
 178 0038 061C     		mov	r6, r0	@ tmp132,
 179              	.LVL13:
  27:../../evt_lib/src/util.c **** 			rem = value % base;
 180              		.loc 1 27 0 discriminator 1
 181 003a 391C     		mov	r1, r7	@, base
 182 003c 201C     		mov	r0, r4	@, value
 183              	.LVL14:
  28:../../evt_lib/src/util.c **** 			*buffer++ = digits[rem];		// append the remainder to the string
 184              		.loc 1 28 0 discriminator 1
 185 003e 9846     		mov	r8, r3	@ buffer,
 186              	.LVL15:
  27:../../evt_lib/src/util.c **** 			rem = value % base;
ARM GAS  /var/folders/f9/8bk2lnw15zn4cbgn6wrnb4lm0000gn/T//cc5RSyFq.s 			page 5


 187              		.loc 1 27 0 discriminator 1
 188 0040 FFF7FEFF 		bl	__aeabi_idivmod	@
 189              	.LVL16:
  28:../../evt_lib/src/util.c **** 			*buffer++ = digits[rem];		// append the remainder to the string
 190              		.loc 1 28 0 discriminator 1
 191 0044 5246     		mov	r2, r10	@, tmp151
 192 0046 535C     		ldrb	r3, [r2, r1]	@ tmp141, digits
 193 0048 2B70     		strb	r3, [r5]	@ tmp141, MEM[base: _5, offset: 0B]
 194              	.LVL17:
 195              		.loc 1 29 0 discriminator 1
 196 004a 002E     		cmp	r6, #0	@ tmp132,
 197 004c EDD1     		bne	.L18	@,
  30:../../evt_lib/src/util.c **** 
  31:../../evt_lib/src/util.c **** 		if (sign<0)							// was the value negative?
 198              		.loc 1 31 0
 199 004e 5B46     		mov	r3, fp	@, value
 200 0050 002B     		cmp	r3, #0	@,
 201 0052 1CDB     		blt	.L19	@,
 202              	.L13:
  32:../../evt_lib/src/util.c **** 			*buffer++ = '-';					// append the sign
  33:../../evt_lib/src/util.c **** 
  34:../../evt_lib/src/util.c **** 		__reverse(buffer_copy, buffer-1);		// reverse the string
 203              		.loc 1 34 0
 204 0054 4346     		mov	r3, r8	@ end, buffer
 205 0056 013B     		sub	r3, r3, #1	@ end,
 206              	.LVL18:
 207              	.LBB4:
 208              	.LBB5:
   6:../../evt_lib/src/util.c **** 	while (end  >begin)
 209              		.loc 1 6 0
 210 0058 9945     		cmp	r9, r3	@ buffer, end
 211 005a 09D2     		bcs	.L9	@,
 212 005c 4A46     		mov	r2, r9	@ buffer, buffer
 213              	.LVL19:
 214              	.L14:
   9:../../evt_lib/src/util.c **** 		*end-- = *begin;
 215              		.loc 1 9 0
 216 005e 1178     		ldrb	r1, [r2]	@ D.4223, MEM[base: buffer_38, offset: 0B]
   8:../../evt_lib/src/util.c **** 		temp = *end;
 217              		.loc 1 8 0
 218 0060 1878     		ldrb	r0, [r3]	@ temp, MEM[base: end_45, offset: 0B]
 219              	.LVL20:
  10:../../evt_lib/src/util.c **** 		*begin++ = temp;
 220              		.loc 1 10 0
 221 0062 0132     		add	r2, r2, #1	@ buffer,
 222              	.LVL21:
   9:../../evt_lib/src/util.c **** 		*end-- = *begin;
 223              		.loc 1 9 0
 224 0064 013B     		sub	r3, r3, #1	@ end,
 225              	.LVL22:
 226 0066 5970     		strb	r1, [r3, #1]	@ D.4223, MEM[base: end_31, offset: 1B]
 227              	.LVL23:
 228 0068 511E     		sub	r1, r2, #1	@ D.4221, buffer,
  10:../../evt_lib/src/util.c **** 		*begin++ = temp;
 229              		.loc 1 10 0
 230 006a 0870     		strb	r0, [r1]	@ temp, MEM[base: _22, offset: 0B]
   6:../../evt_lib/src/util.c **** 	while (end  >begin)
ARM GAS  /var/folders/f9/8bk2lnw15zn4cbgn6wrnb4lm0000gn/T//cc5RSyFq.s 			page 6


 231              		.loc 1 6 0
 232 006c 9342     		cmp	r3, r2	@ end, buffer
 233 006e F6D8     		bhi	.L14	@,
 234              	.LVL24:
 235              	.L9:
 236              	.LBE5:
 237              	.LBE4:
  35:../../evt_lib/src/util.c **** 	}
  36:../../evt_lib/src/util.c **** 
  37:../../evt_lib/src/util.c **** 	*buffer='\0';
 238              		.loc 1 37 0
 239 0070 4246     		mov	r2, r8	@, buffer
 240 0072 0023     		mov	r3, #0	@ tmp148,
  38:../../evt_lib/src/util.c **** 	return buffer_copy;
  39:../../evt_lib/src/util.c **** }...
 241              		.loc 1 39 0
 242 0074 4846     		mov	r0, r9	@, buffer
  37:../../evt_lib/src/util.c **** 	*buffer='\0';
 243              		.loc 1 37 0
 244 0076 1370     		strb	r3, [r2]	@ tmp148, *buffer_4
 245              		.loc 1 39 0
 246              		@ sp needed	@
 247              	.LVL25:
 248              	.LVL26:
 249              	.LVL27:
 250 0078 3CBC     		pop	{r2, r3, r4, r5}
 251 007a 9046     		mov	r8, r2
 252 007c 9946     		mov	r9, r3
 253 007e A246     		mov	r10, r4
 254 0080 AB46     		mov	fp, r5
 255 0082 F8BD     		pop	{r3, r4, r5, r6, r7, pc}
 256              	.LVL28:
 257              	.L17:
 258 0084 C317     		asr	r3, r0, #31	@, value,
 259 0086 C418     		add	r4, r0, r3	@ value, value,
 260 0088 8346     		mov	fp, r0	@ value, value
 261 008a 5C40     		eor	r4, r3	@ value,
 262 008c C9E7     		b	.L10	@
 263              	.LVL29:
 264              	.L19:
  32:../../evt_lib/src/util.c **** 			*buffer++ = '-';					// append the sign
 265              		.loc 1 32 0
 266 008e AA1C     		add	r2, r5, #2	@, buffer,
 267 0090 2D23     		mov	r3, #45	@ tmp143,
 268              	.LVL30:
 269 0092 9046     		mov	r8, r2	@ buffer,
 270              	.LVL31:
 271 0094 6B70     		strb	r3, [r5, #1]	@ tmp143, MEM[(char *)buffer_35 + 1B]
 272 0096 DDE7     		b	.L13	@
 273              	.L21:
 274              		.align	2
 275              	.L20:
 276 0098 00000000 		.word	.LANCHOR0
 277              		.cfi_endproc
 278              	.LFE1:
 279              		.size	itoa, .-itoa
 280              		.section	.rodata.digits.4160,"a",%progbits
ARM GAS  /var/folders/f9/8bk2lnw15zn4cbgn6wrnb4lm0000gn/T//cc5RSyFq.s 			page 7


 281              		.align	2
 282              		.set	.LANCHOR0,. + 0
 283              		.type	digits.4160, %object
 284              		.size	digits.4160, 17
 285              	digits.4160:
 286 0000 30313233 		.ascii	"0123456789abcdef\000"
 286      34353637 
 286      38396162 
 286      63646566 
 286      00
 287 0011 000000   		.text
 288              	.Letext0:
 289              		.file 2 "/usr/local/Cellar/gcc-arm-none-eabi/20140805/arm-none-eabi/include/machine/_default_types
 290              		.file 3 "/usr/local/Cellar/gcc-arm-none-eabi/20140805/arm-none-eabi/include/stdint.h"
 291              		.section	.debug_info,"",%progbits
 292              	.Ldebug_info0:
 293 0000 D8010000 		.4byte	0x1d8
 294 0004 0400     		.2byte	0x4
 295 0006 00000000 		.4byte	.Ldebug_abbrev0
 296 000a 04       		.byte	0x4
 297 000b 01       		.uleb128 0x1
 298 000c 1A230000 		.4byte	.LASF478
 299 0010 01       		.byte	0x1
 300 0011 B6060000 		.4byte	.LASF479
 301 0015 532C0000 		.4byte	.LASF480
 302 0019 00000000 		.4byte	.Ldebug_ranges0+0
 303 001d 00000000 		.4byte	0
 304 0021 00000000 		.4byte	.Ldebug_line0
 305 0025 00000000 		.4byte	.Ldebug_macro0
 306 0029 02       		.uleb128 0x2
 307 002a 01       		.byte	0x1
 308 002b 06       		.byte	0x6
 309 002c D8080000 		.4byte	.LASF456
 310 0030 02       		.uleb128 0x2
 311 0031 01       		.byte	0x1
 312 0032 08       		.byte	0x8
 313 0033 0E280000 		.4byte	.LASF457
 314 0037 02       		.uleb128 0x2
 315 0038 02       		.byte	0x2
 316 0039 05       		.byte	0x5
 317 003a C51F0000 		.4byte	.LASF458
 318 003e 02       		.uleb128 0x2
 319 003f 02       		.byte	0x2
 320 0040 07       		.byte	0x7
 321 0041 212C0000 		.4byte	.LASF459
 322 0045 03       		.uleb128 0x3
 323 0046 CF040000 		.4byte	.LASF465
 324 004a 02       		.byte	0x2
 325 004b 37       		.byte	0x37
 326 004c 50000000 		.4byte	0x50
 327 0050 02       		.uleb128 0x2
 328 0051 04       		.byte	0x4
 329 0052 05       		.byte	0x5
 330 0053 47200000 		.4byte	.LASF460
 331 0057 02       		.uleb128 0x2
 332 0058 04       		.byte	0x4
 333 0059 07       		.byte	0x7
ARM GAS  /var/folders/f9/8bk2lnw15zn4cbgn6wrnb4lm0000gn/T//cc5RSyFq.s 			page 8


 334 005a D8250000 		.4byte	.LASF461
 335 005e 02       		.uleb128 0x2
 336 005f 08       		.byte	0x8
 337 0060 05       		.byte	0x5
 338 0061 50160000 		.4byte	.LASF462
 339 0065 02       		.uleb128 0x2
 340 0066 08       		.byte	0x8
 341 0067 07       		.byte	0x7
 342 0068 EB0A0000 		.4byte	.LASF463
 343 006c 04       		.uleb128 0x4
 344 006d 04       		.byte	0x4
 345 006e 05       		.byte	0x5
 346 006f 696E7400 		.ascii	"int\000"
 347 0073 02       		.uleb128 0x2
 348 0074 04       		.byte	0x4
 349 0075 07       		.byte	0x7
 350 0076 D0030000 		.4byte	.LASF464
 351 007a 03       		.uleb128 0x3
 352 007b 92260000 		.4byte	.LASF466
 353 007f 03       		.byte	0x3
 354 0080 41       		.byte	0x41
 355 0081 45000000 		.4byte	0x45
 356 0085 02       		.uleb128 0x2
 357 0086 01       		.byte	0x1
 358 0087 08       		.byte	0x8
 359 0088 901E0000 		.4byte	.LASF467
 360 008c 02       		.uleb128 0x2
 361 008d 01       		.byte	0x1
 362 008e 02       		.byte	0x2
 363 008f C51B0000 		.4byte	.LASF468
 364 0093 05       		.uleb128 0x5
 365 0094 DD140000 		.4byte	.LASF481
 366 0098 01       		.byte	0x1
 367 0099 03       		.byte	0x3
 368 009a 01       		.byte	0x1
 369 009b C1000000 		.4byte	0xc1
 370 009f 06       		.uleb128 0x6
 371 00a0 342C0000 		.4byte	.LASF469
 372 00a4 01       		.byte	0x1
 373 00a5 03       		.byte	0x3
 374 00a6 C1000000 		.4byte	0xc1
 375 00aa 07       		.uleb128 0x7
 376 00ab 656E6400 		.ascii	"end\000"
 377 00af 01       		.byte	0x1
 378 00b0 03       		.byte	0x3
 379 00b1 C1000000 		.4byte	0xc1
 380 00b5 08       		.uleb128 0x8
 381 00b6 0D020000 		.4byte	.LASF482
 382 00ba 01       		.byte	0x1
 383 00bb 04       		.byte	0x4
 384 00bc 85000000 		.4byte	0x85
 385 00c0 00       		.byte	0
 386 00c1 09       		.uleb128 0x9
 387 00c2 04       		.byte	0x4
 388 00c3 85000000 		.4byte	0x85
 389 00c7 0A       		.uleb128 0xa
 390 00c8 93000000 		.4byte	0x93
ARM GAS  /var/folders/f9/8bk2lnw15zn4cbgn6wrnb4lm0000gn/T//cc5RSyFq.s 			page 9


 391 00cc 00000000 		.4byte	.LFB0
 392 00d0 16000000 		.4byte	.LFE0-.LFB0
 393 00d4 01       		.uleb128 0x1
 394 00d5 9C       		.byte	0x9c
 395 00d6 F6000000 		.4byte	0xf6
 396 00da 0B       		.uleb128 0xb
 397 00db 9F000000 		.4byte	0x9f
 398 00df 00000000 		.4byte	.LLST0
 399 00e3 0B       		.uleb128 0xb
 400 00e4 AA000000 		.4byte	0xaa
 401 00e8 2B000000 		.4byte	.LLST1
 402 00ec 0C       		.uleb128 0xc
 403 00ed B5000000 		.4byte	0xb5
 404 00f1 49000000 		.4byte	.LLST2
 405 00f5 00       		.byte	0
 406 00f6 0D       		.uleb128 0xd
 407 00f7 73180000 		.4byte	.LASF483
 408 00fb 01       		.byte	0x1
 409 00fc 0E       		.byte	0xe
 410 00fd C1000000 		.4byte	0xc1
 411 0101 00000000 		.4byte	.LFB1
 412 0105 9C000000 		.4byte	.LFE1-.LFB1
 413 0109 01       		.uleb128 0x1
 414 010a 9C       		.byte	0x9c
 415 010b BF010000 		.4byte	0x1bf
 416 010f 0E       		.uleb128 0xe
 417 0110 9E0D0000 		.4byte	.LASF470
 418 0114 01       		.byte	0x1
 419 0115 0E       		.byte	0xe
 420 0116 6C000000 		.4byte	0x6c
 421 011a 74000000 		.4byte	.LLST3
 422 011e 0E       		.uleb128 0xe
 423 011f AE020000 		.4byte	.LASF471
 424 0123 01       		.byte	0x1
 425 0124 0E       		.byte	0xe
 426 0125 C1000000 		.4byte	0xc1
 427 0129 BE000000 		.4byte	.LLST4
 428 012d 0E       		.uleb128 0xe
 429 012e F2090000 		.4byte	.LASF472
 430 0132 01       		.byte	0x1
 431 0133 0E       		.byte	0xe
 432 0134 6C000000 		.4byte	0x6c
 433 0138 29010000 		.4byte	.LLST5
 434 013c 0F       		.uleb128 0xf
 435 013d 8A0C0000 		.4byte	.LASF473
 436 0141 01       		.byte	0x1
 437 0142 0F       		.byte	0xf
 438 0143 D6010000 		.4byte	0x1d6
 439 0147 05       		.uleb128 0x5
 440 0148 03       		.byte	0x3
 441 0149 00000000 		.4byte	digits.4160
 442 014d 10       		.uleb128 0x10
 443 014e 27210000 		.4byte	.LASF474
 444 0152 01       		.byte	0x1
 445 0153 11       		.byte	0x11
 446 0154 C1000000 		.4byte	0xc1
 447 0158 60010000 		.4byte	.LLST6
ARM GAS  /var/folders/f9/8bk2lnw15zn4cbgn6wrnb4lm0000gn/T//cc5RSyFq.s 			page 10


 448 015c 10       		.uleb128 0x10
 449 015d E60E0000 		.4byte	.LASF475
 450 0161 01       		.byte	0x1
 451 0162 12       		.byte	0x12
 452 0163 7A000000 		.4byte	0x7a
 453 0167 9F010000 		.4byte	.LLST7
 454 016b 10       		.uleb128 0x10
 455 016c A6140000 		.4byte	.LASF476
 456 0170 01       		.byte	0x1
 457 0171 13       		.byte	0x13
 458 0172 7A000000 		.4byte	0x7a
 459 0176 DF010000 		.4byte	.LLST8
 460 017a 11       		.uleb128 0x11
 461 017b 72656D00 		.ascii	"rem\000"
 462 017f 01       		.byte	0x1
 463 0180 13       		.byte	0x13
 464 0181 7A000000 		.4byte	0x7a
 465 0185 13020000 		.4byte	.LLST9
 466 0189 12       		.uleb128 0x12
 467 018a 93000000 		.4byte	0x93
 468 018e 58000000 		.4byte	.LBB4
 469 0192 18000000 		.4byte	.LBE4-.LBB4
 470 0196 01       		.byte	0x1
 471 0197 22       		.byte	0x22
 472 0198 0B       		.uleb128 0xb
 473 0199 AA000000 		.4byte	0xaa
 474 019d 57020000 		.4byte	.LLST10
 475 01a1 0B       		.uleb128 0xb
 476 01a2 9F000000 		.4byte	0x9f
 477 01a6 6A020000 		.4byte	.LLST11
 478 01aa 13       		.uleb128 0x13
 479 01ab 58000000 		.4byte	.LBB5
 480 01af 18000000 		.4byte	.LBE5-.LBB5
 481 01b3 0C       		.uleb128 0xc
 482 01b4 B5000000 		.4byte	0xb5
 483 01b8 A0020000 		.4byte	.LLST12
 484 01bc 00       		.byte	0
 485 01bd 00       		.byte	0
 486 01be 00       		.byte	0
 487 01bf 14       		.uleb128 0x14
 488 01c0 85000000 		.4byte	0x85
 489 01c4 CF010000 		.4byte	0x1cf
 490 01c8 15       		.uleb128 0x15
 491 01c9 CF010000 		.4byte	0x1cf
 492 01cd 10       		.byte	0x10
 493 01ce 00       		.byte	0
 494 01cf 02       		.uleb128 0x2
 495 01d0 04       		.byte	0x4
 496 01d1 07       		.byte	0x7
 497 01d2 B1250000 		.4byte	.LASF477
 498 01d6 16       		.uleb128 0x16
 499 01d7 BF010000 		.4byte	0x1bf
 500 01db 00       		.byte	0
 501              		.section	.debug_abbrev,"",%progbits
 502              	.Ldebug_abbrev0:
 503 0000 01       		.uleb128 0x1
 504 0001 11       		.uleb128 0x11
ARM GAS  /var/folders/f9/8bk2lnw15zn4cbgn6wrnb4lm0000gn/T//cc5RSyFq.s 			page 11


 505 0002 01       		.byte	0x1
 506 0003 25       		.uleb128 0x25
 507 0004 0E       		.uleb128 0xe
 508 0005 13       		.uleb128 0x13
 509 0006 0B       		.uleb128 0xb
 510 0007 03       		.uleb128 0x3
 511 0008 0E       		.uleb128 0xe
 512 0009 1B       		.uleb128 0x1b
 513 000a 0E       		.uleb128 0xe
 514 000b 55       		.uleb128 0x55
 515 000c 17       		.uleb128 0x17
 516 000d 11       		.uleb128 0x11
 517 000e 01       		.uleb128 0x1
 518 000f 10       		.uleb128 0x10
 519 0010 17       		.uleb128 0x17
 520 0011 9942     		.uleb128 0x2119
 521 0013 17       		.uleb128 0x17
 522 0014 00       		.byte	0
 523 0015 00       		.byte	0
 524 0016 02       		.uleb128 0x2
 525 0017 24       		.uleb128 0x24
 526 0018 00       		.byte	0
 527 0019 0B       		.uleb128 0xb
 528 001a 0B       		.uleb128 0xb
 529 001b 3E       		.uleb128 0x3e
 530 001c 0B       		.uleb128 0xb
 531 001d 03       		.uleb128 0x3
 532 001e 0E       		.uleb128 0xe
 533 001f 00       		.byte	0
 534 0020 00       		.byte	0
 535 0021 03       		.uleb128 0x3
 536 0022 16       		.uleb128 0x16
 537 0023 00       		.byte	0
 538 0024 03       		.uleb128 0x3
 539 0025 0E       		.uleb128 0xe
 540 0026 3A       		.uleb128 0x3a
 541 0027 0B       		.uleb128 0xb
 542 0028 3B       		.uleb128 0x3b
 543 0029 0B       		.uleb128 0xb
 544 002a 49       		.uleb128 0x49
 545 002b 13       		.uleb128 0x13
 546 002c 00       		.byte	0
 547 002d 00       		.byte	0
 548 002e 04       		.uleb128 0x4
 549 002f 24       		.uleb128 0x24
 550 0030 00       		.byte	0
 551 0031 0B       		.uleb128 0xb
 552 0032 0B       		.uleb128 0xb
 553 0033 3E       		.uleb128 0x3e
 554 0034 0B       		.uleb128 0xb
 555 0035 03       		.uleb128 0x3
 556 0036 08       		.uleb128 0x8
 557 0037 00       		.byte	0
 558 0038 00       		.byte	0
 559 0039 05       		.uleb128 0x5
 560 003a 2E       		.uleb128 0x2e
 561 003b 01       		.byte	0x1
ARM GAS  /var/folders/f9/8bk2lnw15zn4cbgn6wrnb4lm0000gn/T//cc5RSyFq.s 			page 12


 562 003c 3F       		.uleb128 0x3f
 563 003d 19       		.uleb128 0x19
 564 003e 03       		.uleb128 0x3
 565 003f 0E       		.uleb128 0xe
 566 0040 3A       		.uleb128 0x3a
 567 0041 0B       		.uleb128 0xb
 568 0042 3B       		.uleb128 0x3b
 569 0043 0B       		.uleb128 0xb
 570 0044 27       		.uleb128 0x27
 571 0045 19       		.uleb128 0x19
 572 0046 20       		.uleb128 0x20
 573 0047 0B       		.uleb128 0xb
 574 0048 01       		.uleb128 0x1
 575 0049 13       		.uleb128 0x13
 576 004a 00       		.byte	0
 577 004b 00       		.byte	0
 578 004c 06       		.uleb128 0x6
 579 004d 05       		.uleb128 0x5
 580 004e 00       		.byte	0
 581 004f 03       		.uleb128 0x3
 582 0050 0E       		.uleb128 0xe
 583 0051 3A       		.uleb128 0x3a
 584 0052 0B       		.uleb128 0xb
 585 0053 3B       		.uleb128 0x3b
 586 0054 0B       		.uleb128 0xb
 587 0055 49       		.uleb128 0x49
 588 0056 13       		.uleb128 0x13
 589 0057 00       		.byte	0
 590 0058 00       		.byte	0
 591 0059 07       		.uleb128 0x7
 592 005a 05       		.uleb128 0x5
 593 005b 00       		.byte	0
 594 005c 03       		.uleb128 0x3
 595 005d 08       		.uleb128 0x8
 596 005e 3A       		.uleb128 0x3a
 597 005f 0B       		.uleb128 0xb
 598 0060 3B       		.uleb128 0x3b
 599 0061 0B       		.uleb128 0xb
 600 0062 49       		.uleb128 0x49
 601 0063 13       		.uleb128 0x13
 602 0064 00       		.byte	0
 603 0065 00       		.byte	0
 604 0066 08       		.uleb128 0x8
 605 0067 34       		.uleb128 0x34
 606 0068 00       		.byte	0
 607 0069 03       		.uleb128 0x3
 608 006a 0E       		.uleb128 0xe
 609 006b 3A       		.uleb128 0x3a
 610 006c 0B       		.uleb128 0xb
 611 006d 3B       		.uleb128 0x3b
 612 006e 0B       		.uleb128 0xb
 613 006f 49       		.uleb128 0x49
 614 0070 13       		.uleb128 0x13
 615 0071 00       		.byte	0
 616 0072 00       		.byte	0
 617 0073 09       		.uleb128 0x9
 618 0074 0F       		.uleb128 0xf
ARM GAS  /var/folders/f9/8bk2lnw15zn4cbgn6wrnb4lm0000gn/T//cc5RSyFq.s 			page 13


 619 0075 00       		.byte	0
 620 0076 0B       		.uleb128 0xb
 621 0077 0B       		.uleb128 0xb
 622 0078 49       		.uleb128 0x49
 623 0079 13       		.uleb128 0x13
 624 007a 00       		.byte	0
 625 007b 00       		.byte	0
 626 007c 0A       		.uleb128 0xa
 627 007d 2E       		.uleb128 0x2e
 628 007e 01       		.byte	0x1
 629 007f 31       		.uleb128 0x31
 630 0080 13       		.uleb128 0x13
 631 0081 11       		.uleb128 0x11
 632 0082 01       		.uleb128 0x1
 633 0083 12       		.uleb128 0x12
 634 0084 06       		.uleb128 0x6
 635 0085 40       		.uleb128 0x40
 636 0086 18       		.uleb128 0x18
 637 0087 9742     		.uleb128 0x2117
 638 0089 19       		.uleb128 0x19
 639 008a 01       		.uleb128 0x1
 640 008b 13       		.uleb128 0x13
 641 008c 00       		.byte	0
 642 008d 00       		.byte	0
 643 008e 0B       		.uleb128 0xb
 644 008f 05       		.uleb128 0x5
 645 0090 00       		.byte	0
 646 0091 31       		.uleb128 0x31
 647 0092 13       		.uleb128 0x13
 648 0093 02       		.uleb128 0x2
 649 0094 17       		.uleb128 0x17
 650 0095 00       		.byte	0
 651 0096 00       		.byte	0
 652 0097 0C       		.uleb128 0xc
 653 0098 34       		.uleb128 0x34
 654 0099 00       		.byte	0
 655 009a 31       		.uleb128 0x31
 656 009b 13       		.uleb128 0x13
 657 009c 02       		.uleb128 0x2
 658 009d 17       		.uleb128 0x17
 659 009e 00       		.byte	0
 660 009f 00       		.byte	0
 661 00a0 0D       		.uleb128 0xd
 662 00a1 2E       		.uleb128 0x2e
 663 00a2 01       		.byte	0x1
 664 00a3 3F       		.uleb128 0x3f
 665 00a4 19       		.uleb128 0x19
 666 00a5 03       		.uleb128 0x3
 667 00a6 0E       		.uleb128 0xe
 668 00a7 3A       		.uleb128 0x3a
 669 00a8 0B       		.uleb128 0xb
 670 00a9 3B       		.uleb128 0x3b
 671 00aa 0B       		.uleb128 0xb
 672 00ab 27       		.uleb128 0x27
 673 00ac 19       		.uleb128 0x19
 674 00ad 49       		.uleb128 0x49
 675 00ae 13       		.uleb128 0x13
ARM GAS  /var/folders/f9/8bk2lnw15zn4cbgn6wrnb4lm0000gn/T//cc5RSyFq.s 			page 14


 676 00af 11       		.uleb128 0x11
 677 00b0 01       		.uleb128 0x1
 678 00b1 12       		.uleb128 0x12
 679 00b2 06       		.uleb128 0x6
 680 00b3 40       		.uleb128 0x40
 681 00b4 18       		.uleb128 0x18
 682 00b5 9642     		.uleb128 0x2116
 683 00b7 19       		.uleb128 0x19
 684 00b8 01       		.uleb128 0x1
 685 00b9 13       		.uleb128 0x13
 686 00ba 00       		.byte	0
 687 00bb 00       		.byte	0
 688 00bc 0E       		.uleb128 0xe
 689 00bd 05       		.uleb128 0x5
 690 00be 00       		.byte	0
 691 00bf 03       		.uleb128 0x3
 692 00c0 0E       		.uleb128 0xe
 693 00c1 3A       		.uleb128 0x3a
 694 00c2 0B       		.uleb128 0xb
 695 00c3 3B       		.uleb128 0x3b
 696 00c4 0B       		.uleb128 0xb
 697 00c5 49       		.uleb128 0x49
 698 00c6 13       		.uleb128 0x13
 699 00c7 02       		.uleb128 0x2
 700 00c8 17       		.uleb128 0x17
 701 00c9 00       		.byte	0
 702 00ca 00       		.byte	0
 703 00cb 0F       		.uleb128 0xf
 704 00cc 34       		.uleb128 0x34
 705 00cd 00       		.byte	0
 706 00ce 03       		.uleb128 0x3
 707 00cf 0E       		.uleb128 0xe
 708 00d0 3A       		.uleb128 0x3a
 709 00d1 0B       		.uleb128 0xb
 710 00d2 3B       		.uleb128 0x3b
 711 00d3 0B       		.uleb128 0xb
 712 00d4 49       		.uleb128 0x49
 713 00d5 13       		.uleb128 0x13
 714 00d6 02       		.uleb128 0x2
 715 00d7 18       		.uleb128 0x18
 716 00d8 00       		.byte	0
 717 00d9 00       		.byte	0
 718 00da 10       		.uleb128 0x10
 719 00db 34       		.uleb128 0x34
 720 00dc 00       		.byte	0
 721 00dd 03       		.uleb128 0x3
 722 00de 0E       		.uleb128 0xe
 723 00df 3A       		.uleb128 0x3a
 724 00e0 0B       		.uleb128 0xb
 725 00e1 3B       		.uleb128 0x3b
 726 00e2 0B       		.uleb128 0xb
 727 00e3 49       		.uleb128 0x49
 728 00e4 13       		.uleb128 0x13
 729 00e5 02       		.uleb128 0x2
 730 00e6 17       		.uleb128 0x17
 731 00e7 00       		.byte	0
 732 00e8 00       		.byte	0
ARM GAS  /var/folders/f9/8bk2lnw15zn4cbgn6wrnb4lm0000gn/T//cc5RSyFq.s 			page 15


 733 00e9 11       		.uleb128 0x11
 734 00ea 34       		.uleb128 0x34
 735 00eb 00       		.byte	0
 736 00ec 03       		.uleb128 0x3
 737 00ed 08       		.uleb128 0x8
 738 00ee 3A       		.uleb128 0x3a
 739 00ef 0B       		.uleb128 0xb
 740 00f0 3B       		.uleb128 0x3b
 741 00f1 0B       		.uleb128 0xb
 742 00f2 49       		.uleb128 0x49
 743 00f3 13       		.uleb128 0x13
 744 00f4 02       		.uleb128 0x2
 745 00f5 17       		.uleb128 0x17
 746 00f6 00       		.byte	0
 747 00f7 00       		.byte	0
 748 00f8 12       		.uleb128 0x12
 749 00f9 1D       		.uleb128 0x1d
 750 00fa 01       		.byte	0x1
 751 00fb 31       		.uleb128 0x31
 752 00fc 13       		.uleb128 0x13
 753 00fd 11       		.uleb128 0x11
 754 00fe 01       		.uleb128 0x1
 755 00ff 12       		.uleb128 0x12
 756 0100 06       		.uleb128 0x6
 757 0101 58       		.uleb128 0x58
 758 0102 0B       		.uleb128 0xb
 759 0103 59       		.uleb128 0x59
 760 0104 0B       		.uleb128 0xb
 761 0105 00       		.byte	0
 762 0106 00       		.byte	0
 763 0107 13       		.uleb128 0x13
 764 0108 0B       		.uleb128 0xb
 765 0109 01       		.byte	0x1
 766 010a 11       		.uleb128 0x11
 767 010b 01       		.uleb128 0x1
 768 010c 12       		.uleb128 0x12
 769 010d 06       		.uleb128 0x6
 770 010e 00       		.byte	0
 771 010f 00       		.byte	0
 772 0110 14       		.uleb128 0x14
 773 0111 01       		.uleb128 0x1
 774 0112 01       		.byte	0x1
 775 0113 49       		.uleb128 0x49
 776 0114 13       		.uleb128 0x13
 777 0115 01       		.uleb128 0x1
 778 0116 13       		.uleb128 0x13
 779 0117 00       		.byte	0
 780 0118 00       		.byte	0
 781 0119 15       		.uleb128 0x15
 782 011a 21       		.uleb128 0x21
 783 011b 00       		.byte	0
 784 011c 49       		.uleb128 0x49
 785 011d 13       		.uleb128 0x13
 786 011e 2F       		.uleb128 0x2f
 787 011f 0B       		.uleb128 0xb
 788 0120 00       		.byte	0
 789 0121 00       		.byte	0
ARM GAS  /var/folders/f9/8bk2lnw15zn4cbgn6wrnb4lm0000gn/T//cc5RSyFq.s 			page 16


 790 0122 16       		.uleb128 0x16
 791 0123 26       		.uleb128 0x26
 792 0124 00       		.byte	0
 793 0125 49       		.uleb128 0x49
 794 0126 13       		.uleb128 0x13
 795 0127 00       		.byte	0
 796 0128 00       		.byte	0
 797 0129 00       		.byte	0
 798              		.section	.debug_loc,"",%progbits
 799              	.Ldebug_loc0:
 800              	.LLST0:
 801 0000 00000000 		.4byte	.LVL0
 802 0004 08000000 		.4byte	.LVL2
 803 0008 0100     		.2byte	0x1
 804 000a 50       		.byte	0x50
 805 000b 08000000 		.4byte	.LVL2
 806 000f 0A000000 		.4byte	.LVL3
 807 0013 0300     		.2byte	0x3
 808 0015 70       		.byte	0x70
 809 0016 7F       		.sleb128 -1
 810 0017 9F       		.byte	0x9f
 811 0018 0A000000 		.4byte	.LVL3
 812 001c 16000000 		.4byte	.LFE0
 813 0020 0100     		.2byte	0x1
 814 0022 50       		.byte	0x50
 815 0023 00000000 		.4byte	0
 816 0027 00000000 		.4byte	0
 817              	.LLST1:
 818 002b 00000000 		.4byte	.LVL0
 819 002f 0A000000 		.4byte	.LVL3
 820 0033 0100     		.2byte	0x1
 821 0035 51       		.byte	0x51
 822 0036 0A000000 		.4byte	.LVL3
 823 003a 16000000 		.4byte	.LFE0
 824 003e 0100     		.2byte	0x1
 825 0040 51       		.byte	0x51
 826 0041 00000000 		.4byte	0
 827 0045 00000000 		.4byte	0
 828              	.LLST2:
 829 0049 06000000 		.4byte	.LVL1
 830 004d 0A000000 		.4byte	.LVL3
 831 0051 0200     		.2byte	0x2
 832 0053 71       		.byte	0x71
 833 0054 00       		.sleb128 0
 834 0055 0A000000 		.4byte	.LVL3
 835 0059 0C000000 		.4byte	.LVL4
 836 005d 0200     		.2byte	0x2
 837 005f 71       		.byte	0x71
 838 0060 01       		.sleb128 1
 839 0061 0C000000 		.4byte	.LVL4
 840 0065 10000000 		.4byte	.LVL5
 841 0069 0100     		.2byte	0x1
 842 006b 52       		.byte	0x52
 843 006c 00000000 		.4byte	0
 844 0070 00000000 		.4byte	0
 845              	.LLST3:
 846 0074 00000000 		.4byte	.LVL6
ARM GAS  /var/folders/f9/8bk2lnw15zn4cbgn6wrnb4lm0000gn/T//cc5RSyFq.s 			page 17


 847 0078 2A000000 		.4byte	.LVL9
 848 007c 0100     		.2byte	0x1
 849 007e 50       		.byte	0x50
 850 007f 2A000000 		.4byte	.LVL9
 851 0083 2E000000 		.4byte	.LVL11
 852 0087 0100     		.2byte	0x1
 853 0089 56       		.byte	0x56
 854 008a 2E000000 		.4byte	.LVL11
 855 008e 4A000000 		.4byte	.LVL17
 856 0092 0100     		.2byte	0x1
 857 0094 54       		.byte	0x54
 858 0095 4A000000 		.4byte	.LVL17
 859 0099 70000000 		.4byte	.LVL24
 860 009d 0100     		.2byte	0x1
 861 009f 56       		.byte	0x56
 862 00a0 84000000 		.4byte	.LVL28
 863 00a4 8E000000 		.4byte	.LVL29
 864 00a8 0100     		.2byte	0x1
 865 00aa 50       		.byte	0x50
 866 00ab 8E000000 		.4byte	.LVL29
 867 00af 9C000000 		.4byte	.LFE1
 868 00b3 0100     		.2byte	0x1
 869 00b5 56       		.byte	0x56
 870 00b6 00000000 		.4byte	0
 871 00ba 00000000 		.4byte	0
 872              	.LLST4:
 873 00be 00000000 		.4byte	.LVL6
 874 00c2 2A000000 		.4byte	.LVL9
 875 00c6 0100     		.2byte	0x1
 876 00c8 51       		.byte	0x51
 877 00c9 2A000000 		.4byte	.LVL9
 878 00cd 2E000000 		.4byte	.LVL11
 879 00d1 0100     		.2byte	0x1
 880 00d3 58       		.byte	0x58
 881 00d4 2E000000 		.4byte	.LVL11
 882 00d8 40000000 		.4byte	.LVL15
 883 00dc 0100     		.2byte	0x1
 884 00de 55       		.byte	0x55
 885 00df 40000000 		.4byte	.LVL15
 886 00e3 43000000 		.4byte	.LVL16-1
 887 00e7 0100     		.2byte	0x1
 888 00e9 53       		.byte	0x53
 889 00ea 43000000 		.4byte	.LVL16-1
 890 00ee 78000000 		.4byte	.LVL26
 891 00f2 0100     		.2byte	0x1
 892 00f4 58       		.byte	0x58
 893 00f5 78000000 		.4byte	.LVL26
 894 00f9 84000000 		.4byte	.LVL28
 895 00fd 0100     		.2byte	0x1
 896 00ff 52       		.byte	0x52
 897 0100 84000000 		.4byte	.LVL28
 898 0104 8E000000 		.4byte	.LVL29
 899 0108 0100     		.2byte	0x1
 900 010a 51       		.byte	0x51
 901 010b 8E000000 		.4byte	.LVL29
 902 010f 94000000 		.4byte	.LVL31
 903 0113 0100     		.2byte	0x1
ARM GAS  /var/folders/f9/8bk2lnw15zn4cbgn6wrnb4lm0000gn/T//cc5RSyFq.s 			page 18


 904 0115 58       		.byte	0x58
 905 0116 94000000 		.4byte	.LVL31
 906 011a 9C000000 		.4byte	.LFE1
 907 011e 0100     		.2byte	0x1
 908 0120 52       		.byte	0x52
 909 0121 00000000 		.4byte	0
 910 0125 00000000 		.4byte	0
 911              	.LLST5:
 912 0129 00000000 		.4byte	.LVL6
 913 012d 1C000000 		.4byte	.LVL7
 914 0131 0100     		.2byte	0x1
 915 0133 52       		.byte	0x52
 916 0134 1C000000 		.4byte	.LVL7
 917 0138 78000000 		.4byte	.LVL25
 918 013c 0100     		.2byte	0x1
 919 013e 57       		.byte	0x57
 920 013f 78000000 		.4byte	.LVL25
 921 0143 84000000 		.4byte	.LVL28
 922 0147 0400     		.2byte	0x4
 923 0149 F3       		.byte	0xf3
 924 014a 01       		.uleb128 0x1
 925 014b 52       		.byte	0x52
 926 014c 9F       		.byte	0x9f
 927 014d 84000000 		.4byte	.LVL28
 928 0151 9C000000 		.4byte	.LFE1
 929 0155 0100     		.2byte	0x1
 930 0157 57       		.byte	0x57
 931 0158 00000000 		.4byte	0
 932 015c 00000000 		.4byte	0
 933              	.LLST6:
 934 0160 00000000 		.4byte	.LVL6
 935 0164 2A000000 		.4byte	.LVL9
 936 0168 0100     		.2byte	0x1
 937 016a 51       		.byte	0x51
 938 016b 2A000000 		.4byte	.LVL9
 939 016f 78000000 		.4byte	.LVL27
 940 0173 0100     		.2byte	0x1
 941 0175 59       		.byte	0x59
 942 0176 78000000 		.4byte	.LVL27
 943 017a 84000000 		.4byte	.LVL28
 944 017e 0100     		.2byte	0x1
 945 0180 50       		.byte	0x50
 946 0181 84000000 		.4byte	.LVL28
 947 0185 8E000000 		.4byte	.LVL29
 948 0189 0100     		.2byte	0x1
 949 018b 51       		.byte	0x51
 950 018c 8E000000 		.4byte	.LVL29
 951 0190 9C000000 		.4byte	.LFE1
 952 0194 0100     		.2byte	0x1
 953 0196 59       		.byte	0x59
 954 0197 00000000 		.4byte	0
 955 019b 00000000 		.4byte	0
 956              	.LLST7:
 957 019f 00000000 		.4byte	.LVL6
 958 01a3 22000000 		.4byte	.LVL8
 959 01a7 0200     		.2byte	0x2
 960 01a9 30       		.byte	0x30
ARM GAS  /var/folders/f9/8bk2lnw15zn4cbgn6wrnb4lm0000gn/T//cc5RSyFq.s 			page 19


 961 01aa 9F       		.byte	0x9f
 962 01ab 2A000000 		.4byte	.LVL9
 963 01af 70000000 		.4byte	.LVL24
 964 01b3 0100     		.2byte	0x1
 965 01b5 5B       		.byte	0x5b
 966 01b6 84000000 		.4byte	.LVL28
 967 01ba 8E000000 		.4byte	.LVL29
 968 01be 0100     		.2byte	0x1
 969 01c0 50       		.byte	0x50
 970 01c1 8E000000 		.4byte	.LVL29
 971 01c5 92000000 		.4byte	.LVL30
 972 01c9 0100     		.2byte	0x1
 973 01cb 53       		.byte	0x53
 974 01cc 92000000 		.4byte	.LVL30
 975 01d0 9C000000 		.4byte	.LFE1
 976 01d4 0100     		.2byte	0x1
 977 01d6 5B       		.byte	0x5b
 978 01d7 00000000 		.4byte	0
 979 01db 00000000 		.4byte	0
 980              	.LLST8:
 981 01df 2A000000 		.4byte	.LVL9
 982 01e3 2E000000 		.4byte	.LVL11
 983 01e7 0100     		.2byte	0x1
 984 01e9 56       		.byte	0x56
 985 01ea 3A000000 		.4byte	.LVL13
 986 01ee 3E000000 		.4byte	.LVL14
 987 01f2 0100     		.2byte	0x1
 988 01f4 50       		.byte	0x50
 989 01f5 3E000000 		.4byte	.LVL14
 990 01f9 70000000 		.4byte	.LVL24
 991 01fd 0100     		.2byte	0x1
 992 01ff 56       		.byte	0x56
 993 0200 8E000000 		.4byte	.LVL29
 994 0204 9C000000 		.4byte	.LFE1
 995 0208 0100     		.2byte	0x1
 996 020a 56       		.byte	0x56
 997 020b 00000000 		.4byte	0
 998 020f 00000000 		.4byte	0
 999              	.LLST9:
 1000 0213 2A000000 		.4byte	.LVL9
 1001 0217 2C000000 		.4byte	.LVL10
 1002 021b 0A00     		.2byte	0xa
 1003 021d 74       		.byte	0x74
 1004 021e 00       		.sleb128 0
 1005 021f 77       		.byte	0x77
 1006 0220 00       		.sleb128 0
 1007 0221 14       		.byte	0x14
 1008 0222 14       		.byte	0x14
 1009 0223 1B       		.byte	0x1b
 1010 0224 1E       		.byte	0x1e
 1011 0225 1C       		.byte	0x1c
 1012 0226 9F       		.byte	0x9f
 1013 0227 3A000000 		.4byte	.LVL13
 1014 022b 70000000 		.4byte	.LVL24
 1015 022f 0A00     		.2byte	0xa
 1016 0231 74       		.byte	0x74
 1017 0232 00       		.sleb128 0
ARM GAS  /var/folders/f9/8bk2lnw15zn4cbgn6wrnb4lm0000gn/T//cc5RSyFq.s 			page 20


 1018 0233 77       		.byte	0x77
 1019 0234 00       		.sleb128 0
 1020 0235 14       		.byte	0x14
 1021 0236 14       		.byte	0x14
 1022 0237 1B       		.byte	0x1b
 1023 0238 1E       		.byte	0x1e
 1024 0239 1C       		.byte	0x1c
 1025 023a 9F       		.byte	0x9f
 1026 023b 8E000000 		.4byte	.LVL29
 1027 023f 9C000000 		.4byte	.LFE1
 1028 0243 0A00     		.2byte	0xa
 1029 0245 74       		.byte	0x74
 1030 0246 00       		.sleb128 0
 1031 0247 77       		.byte	0x77
 1032 0248 00       		.sleb128 0
 1033 0249 14       		.byte	0x14
 1034 024a 14       		.byte	0x14
 1035 024b 1B       		.byte	0x1b
 1036 024c 1E       		.byte	0x1e
 1037 024d 1C       		.byte	0x1c
 1038 024e 9F       		.byte	0x9f
 1039 024f 00000000 		.4byte	0
 1040 0253 00000000 		.4byte	0
 1041              	.LLST10:
 1042 0257 58000000 		.4byte	.LVL18
 1043 025b 70000000 		.4byte	.LVL24
 1044 025f 0100     		.2byte	0x1
 1045 0261 53       		.byte	0x53
 1046 0262 00000000 		.4byte	0
 1047 0266 00000000 		.4byte	0
 1048              	.LLST11:
 1049 026a 58000000 		.4byte	.LVL18
 1050 026e 5E000000 		.4byte	.LVL19
 1051 0272 0100     		.2byte	0x1
 1052 0274 59       		.byte	0x59
 1053 0275 5E000000 		.4byte	.LVL19
 1054 0279 64000000 		.4byte	.LVL21
 1055 027d 0100     		.2byte	0x1
 1056 027f 52       		.byte	0x52
 1057 0280 64000000 		.4byte	.LVL21
 1058 0284 66000000 		.4byte	.LVL22
 1059 0288 0300     		.2byte	0x3
 1060 028a 72       		.byte	0x72
 1061 028b 7F       		.sleb128 -1
 1062 028c 9F       		.byte	0x9f
 1063 028d 66000000 		.4byte	.LVL22
 1064 0291 70000000 		.4byte	.LVL24
 1065 0295 0100     		.2byte	0x1
 1066 0297 52       		.byte	0x52
 1067 0298 00000000 		.4byte	0
 1068 029c 00000000 		.4byte	0
 1069              	.LLST12:
 1070 02a0 62000000 		.4byte	.LVL20
 1071 02a4 66000000 		.4byte	.LVL22
 1072 02a8 0200     		.2byte	0x2
 1073 02aa 73       		.byte	0x73
 1074 02ab 00       		.sleb128 0
ARM GAS  /var/folders/f9/8bk2lnw15zn4cbgn6wrnb4lm0000gn/T//cc5RSyFq.s 			page 21


 1075 02ac 66000000 		.4byte	.LVL22
 1076 02b0 68000000 		.4byte	.LVL23
 1077 02b4 0200     		.2byte	0x2
 1078 02b6 73       		.byte	0x73
 1079 02b7 01       		.sleb128 1
 1080 02b8 68000000 		.4byte	.LVL23
 1081 02bc 70000000 		.4byte	.LVL24
 1082 02c0 0100     		.2byte	0x1
 1083 02c2 50       		.byte	0x50
 1084 02c3 00000000 		.4byte	0
 1085 02c7 00000000 		.4byte	0
 1086              		.section	.debug_aranges,"",%progbits
 1087 0000 24000000 		.4byte	0x24
 1088 0004 0200     		.2byte	0x2
 1089 0006 00000000 		.4byte	.Ldebug_info0
 1090 000a 04       		.byte	0x4
 1091 000b 00       		.byte	0
 1092 000c 0000     		.2byte	0
 1093 000e 0000     		.2byte	0
 1094 0010 00000000 		.4byte	.LFB0
 1095 0014 16000000 		.4byte	.LFE0-.LFB0
 1096 0018 00000000 		.4byte	.LFB1
 1097 001c 9C000000 		.4byte	.LFE1-.LFB1
 1098 0020 00000000 		.4byte	0
 1099 0024 00000000 		.4byte	0
 1100              		.section	.debug_ranges,"",%progbits
 1101              	.Ldebug_ranges0:
 1102 0000 00000000 		.4byte	.LFB0
 1103 0004 16000000 		.4byte	.LFE0
 1104 0008 00000000 		.4byte	.LFB1
 1105 000c 9C000000 		.4byte	.LFE1
 1106 0010 00000000 		.4byte	0
 1107 0014 00000000 		.4byte	0
 1108              		.section	.debug_macro,"",%progbits
 1109              	.Ldebug_macro0:
 1110 0000 0400     		.2byte	0x4
 1111 0002 02       		.byte	0x2
 1112 0003 00000000 		.4byte	.Ldebug_line0
 1113 0007 07       		.byte	0x7
 1114 0008 00000000 		.4byte	.Ldebug_macro1
 1115 000c 03       		.byte	0x3
 1116 000d 00       		.uleb128 0
 1117 000e 01       		.uleb128 0x1
 1118              		.file 4 "../../evt_lib/inc/util.h"
 1119 000f 03       		.byte	0x3
 1120 0010 01       		.uleb128 0x1
 1121 0011 04       		.uleb128 0x4
 1122 0012 05       		.byte	0x5
 1123 0013 02       		.uleb128 0x2
 1124 0014 350F0000 		.4byte	.LASF341
 1125              		.file 5 "../../lpc_chip_11cxx_lib/inc/lpc_types.h"
 1126 0018 03       		.byte	0x3
 1127 0019 04       		.uleb128 0x4
 1128 001a 05       		.uleb128 0x5
 1129 001b 05       		.byte	0x5
 1130 001c 21       		.uleb128 0x21
 1131 001d F0240000 		.4byte	.LASF342
ARM GAS  /var/folders/f9/8bk2lnw15zn4cbgn6wrnb4lm0000gn/T//cc5RSyFq.s 			page 22


 1132              		.file 6 "/usr/local/Cellar/gcc-arm-none-eabi/20140805/lib/gcc/arm-none-eabi/4.8.4/include/stdint.h
 1133 0021 03       		.byte	0x3
 1134 0022 23       		.uleb128 0x23
 1135 0023 06       		.uleb128 0x6
 1136 0024 03       		.byte	0x3
 1137 0025 09       		.uleb128 0x9
 1138 0026 03       		.uleb128 0x3
 1139 0027 05       		.byte	0x5
 1140 0028 0A       		.uleb128 0xa
 1141 0029 9D0E0000 		.4byte	.LASF343
 1142 002d 03       		.byte	0x3
 1143 002e 0C       		.uleb128 0xc
 1144 002f 02       		.uleb128 0x2
 1145 0030 05       		.byte	0x5
 1146 0031 06       		.uleb128 0x6
 1147 0032 BB150000 		.4byte	.LASF344
 1148              		.file 7 "/usr/local/Cellar/gcc-arm-none-eabi/20140805/arm-none-eabi/include/sys/features.h"
 1149 0036 03       		.byte	0x3
 1150 0037 08       		.uleb128 0x8
 1151 0038 07       		.uleb128 0x7
 1152 0039 07       		.byte	0x7
 1153 003a 00000000 		.4byte	.Ldebug_macro2
 1154 003e 04       		.byte	0x4
 1155 003f 07       		.byte	0x7
 1156 0040 00000000 		.4byte	.Ldebug_macro3
 1157 0044 04       		.byte	0x4
 1158 0045 07       		.byte	0x7
 1159 0046 00000000 		.4byte	.Ldebug_macro4
 1160 004a 04       		.byte	0x4
 1161 004b 05       		.byte	0x5
 1162 004c 0D       		.uleb128 0xd
 1163 004d FD080000 		.4byte	.LASF434
 1164 0051 04       		.byte	0x4
 1165              		.file 8 "/usr/local/Cellar/gcc-arm-none-eabi/20140805/lib/gcc/arm-none-eabi/4.8.4/include/stdbool.
 1166 0052 03       		.byte	0x3
 1167 0053 24       		.uleb128 0x24
 1168 0054 08       		.uleb128 0x8
 1169 0055 07       		.byte	0x7
 1170 0056 00000000 		.4byte	.Ldebug_macro5
 1171 005a 04       		.byte	0x4
 1172 005b 07       		.byte	0x7
 1173 005c 00000000 		.4byte	.Ldebug_macro6
 1174 0060 04       		.byte	0x4
 1175 0061 04       		.byte	0x4
 1176 0062 04       		.byte	0x4
 1177 0063 00       		.byte	0
 1178              		.section	.debug_macro,"G",%progbits,wm4.0.121fbee677f1a8a7d8c40a6e8762ca43,comdat
 1179              	.Ldebug_macro1:
 1180 0000 0400     		.2byte	0x4
 1181 0002 00       		.byte	0
 1182 0003 05       		.byte	0x5
 1183 0004 00       		.uleb128 0
 1184 0005 B0180000 		.4byte	.LASF0
 1185 0009 05       		.byte	0x5
 1186 000a 00       		.uleb128 0
 1187 000b 9A260000 		.4byte	.LASF1
 1188 000f 05       		.byte	0x5
ARM GAS  /var/folders/f9/8bk2lnw15zn4cbgn6wrnb4lm0000gn/T//cc5RSyFq.s 			page 23


 1189 0010 00       		.uleb128 0
 1190 0011 7E040000 		.4byte	.LASF2
 1191 0015 05       		.byte	0x5
 1192 0016 00       		.uleb128 0
 1193 0017 BF030000 		.4byte	.LASF3
 1194 001b 05       		.byte	0x5
 1195 001c 00       		.uleb128 0
 1196 001d 751A0000 		.4byte	.LASF4
 1197 0021 05       		.byte	0x5
 1198 0022 00       		.uleb128 0
 1199 0023 302E0000 		.4byte	.LASF5
 1200 0027 05       		.byte	0x5
 1201 0028 00       		.uleb128 0
 1202 0029 9B070000 		.4byte	.LASF6
 1203 002d 05       		.byte	0x5
 1204 002e 00       		.uleb128 0
 1205 002f 0E060000 		.4byte	.LASF7
 1206 0033 05       		.byte	0x5
 1207 0034 00       		.uleb128 0
 1208 0035 46180000 		.4byte	.LASF8
 1209 0039 05       		.byte	0x5
 1210 003a 00       		.uleb128 0
 1211 003b 42050000 		.4byte	.LASF9
 1212 003f 05       		.byte	0x5
 1213 0040 00       		.uleb128 0
 1214 0041 2A050000 		.4byte	.LASF10
 1215 0045 05       		.byte	0x5
 1216 0046 00       		.uleb128 0
 1217 0047 0E190000 		.4byte	.LASF11
 1218 004b 05       		.byte	0x5
 1219 004c 00       		.uleb128 0
 1220 004d D1050000 		.4byte	.LASF12
 1221 0051 05       		.byte	0x5
 1222 0052 00       		.uleb128 0
 1223 0053 E1160000 		.4byte	.LASF13
 1224 0057 05       		.byte	0x5
 1225 0058 00       		.uleb128 0
 1226 0059 C22A0000 		.4byte	.LASF14
 1227 005d 05       		.byte	0x5
 1228 005e 00       		.uleb128 0
 1229 005f BB180000 		.4byte	.LASF15
 1230 0063 05       		.byte	0x5
 1231 0064 00       		.uleb128 0
 1232 0065 2C130000 		.4byte	.LASF16
 1233 0069 05       		.byte	0x5
 1234 006a 00       		.uleb128 0
 1235 006b 09040000 		.4byte	.LASF17
 1236 006f 05       		.byte	0x5
 1237 0070 00       		.uleb128 0
 1238 0071 A80E0000 		.4byte	.LASF18
 1239 0075 05       		.byte	0x5
 1240 0076 00       		.uleb128 0
 1241 0077 3B1A0000 		.4byte	.LASF19
 1242 007b 05       		.byte	0x5
 1243 007c 00       		.uleb128 0
 1244 007d 65040000 		.4byte	.LASF20
 1245 0081 05       		.byte	0x5
ARM GAS  /var/folders/f9/8bk2lnw15zn4cbgn6wrnb4lm0000gn/T//cc5RSyFq.s 			page 24


 1246 0082 00       		.uleb128 0
 1247 0083 56260000 		.4byte	.LASF21
 1248 0087 05       		.byte	0x5
 1249 0088 00       		.uleb128 0
 1250 0089 47260000 		.4byte	.LASF22
 1251 008d 05       		.byte	0x5
 1252 008e 00       		.uleb128 0
 1253 008f 7C0F0000 		.4byte	.LASF23
 1254 0093 05       		.byte	0x5
 1255 0094 00       		.uleb128 0
 1256 0095 E40D0000 		.4byte	.LASF24
 1257 0099 05       		.byte	0x5
 1258 009a 00       		.uleb128 0
 1259 009b 89040000 		.4byte	.LASF25
 1260 009f 05       		.byte	0x5
 1261 00a0 00       		.uleb128 0
 1262 00a1 4D1E0000 		.4byte	.LASF26
 1263 00a5 05       		.byte	0x5
 1264 00a6 00       		.uleb128 0
 1265 00a7 CF060000 		.4byte	.LASF27
 1266 00ab 05       		.byte	0x5
 1267 00ac 00       		.uleb128 0
 1268 00ad ED1B0000 		.4byte	.LASF28
 1269 00b1 05       		.byte	0x5
 1270 00b2 00       		.uleb128 0
 1271 00b3 AC240000 		.4byte	.LASF29
 1272 00b7 05       		.byte	0x5
 1273 00b8 00       		.uleb128 0
 1274 00b9 55290000 		.4byte	.LASF30
 1275 00bd 05       		.byte	0x5
 1276 00be 00       		.uleb128 0
 1277 00bf 7D2D0000 		.4byte	.LASF31
 1278 00c3 05       		.byte	0x5
 1279 00c4 00       		.uleb128 0
 1280 00c5 DB190000 		.4byte	.LASF32
 1281 00c9 05       		.byte	0x5
 1282 00ca 00       		.uleb128 0
 1283 00cb 80190000 		.4byte	.LASF33
 1284 00cf 05       		.byte	0x5
 1285 00d0 00       		.uleb128 0
 1286 00d1 D32A0000 		.4byte	.LASF34
 1287 00d5 05       		.byte	0x5
 1288 00d6 00       		.uleb128 0
 1289 00d7 34280000 		.4byte	.LASF35
 1290 00db 05       		.byte	0x5
 1291 00dc 00       		.uleb128 0
 1292 00dd 1C040000 		.4byte	.LASF36
 1293 00e1 05       		.byte	0x5
 1294 00e2 00       		.uleb128 0
 1295 00e3 C31C0000 		.4byte	.LASF37
 1296 00e7 05       		.byte	0x5
 1297 00e8 00       		.uleb128 0
 1298 00e9 F92E0000 		.4byte	.LASF38
 1299 00ed 05       		.byte	0x5
 1300 00ee 00       		.uleb128 0
 1301 00ef 74210000 		.4byte	.LASF39
 1302 00f3 05       		.byte	0x5
ARM GAS  /var/folders/f9/8bk2lnw15zn4cbgn6wrnb4lm0000gn/T//cc5RSyFq.s 			page 25


 1303 00f4 00       		.uleb128 0
 1304 00f5 82050000 		.4byte	.LASF40
 1305 00f9 05       		.byte	0x5
 1306 00fa 00       		.uleb128 0
 1307 00fb 15200000 		.4byte	.LASF41
 1308 00ff 05       		.byte	0x5
 1309 0100 00       		.uleb128 0
 1310 0101 4C110000 		.4byte	.LASF42
 1311 0105 05       		.byte	0x5
 1312 0106 00       		.uleb128 0
 1313 0107 C7230000 		.4byte	.LASF43
 1314 010b 05       		.byte	0x5
 1315 010c 00       		.uleb128 0
 1316 010d B1100000 		.4byte	.LASF44
 1317 0111 05       		.byte	0x5
 1318 0112 00       		.uleb128 0
 1319 0113 6F240000 		.4byte	.LASF45
 1320 0117 05       		.byte	0x5
 1321 0118 00       		.uleb128 0
 1322 0119 C92B0000 		.4byte	.LASF46
 1323 011d 05       		.byte	0x5
 1324 011e 00       		.uleb128 0
 1325 011f 2C110000 		.4byte	.LASF47
 1326 0123 05       		.byte	0x5
 1327 0124 00       		.uleb128 0
 1328 0125 BE140000 		.4byte	.LASF48
 1329 0129 05       		.byte	0x5
 1330 012a 00       		.uleb128 0
 1331 012b 500B0000 		.4byte	.LASF49
 1332 012f 05       		.byte	0x5
 1333 0130 00       		.uleb128 0
 1334 0131 F11C0000 		.4byte	.LASF50
 1335 0135 05       		.byte	0x5
 1336 0136 00       		.uleb128 0
 1337 0137 2D070000 		.4byte	.LASF51
 1338 013b 05       		.byte	0x5
 1339 013c 00       		.uleb128 0
 1340 013d 671E0000 		.4byte	.LASF52
 1341 0141 05       		.byte	0x5
 1342 0142 00       		.uleb128 0
 1343 0143 511D0000 		.4byte	.LASF53
 1344 0147 05       		.byte	0x5
 1345 0148 00       		.uleb128 0
 1346 0149 FD040000 		.4byte	.LASF54
 1347 014d 05       		.byte	0x5
 1348 014e 00       		.uleb128 0
 1349 014f 510C0000 		.4byte	.LASF55
 1350 0153 05       		.byte	0x5
 1351 0154 00       		.uleb128 0
 1352 0155 76100000 		.4byte	.LASF56
 1353 0159 05       		.byte	0x5
 1354 015a 00       		.uleb128 0
 1355 015b 802A0000 		.4byte	.LASF57
 1356 015f 05       		.byte	0x5
 1357 0160 00       		.uleb128 0
 1358 0161 A8080000 		.4byte	.LASF58
 1359 0165 05       		.byte	0x5
ARM GAS  /var/folders/f9/8bk2lnw15zn4cbgn6wrnb4lm0000gn/T//cc5RSyFq.s 			page 26


 1360 0166 00       		.uleb128 0
 1361 0167 79130000 		.4byte	.LASF59
 1362 016b 05       		.byte	0x5
 1363 016c 00       		.uleb128 0
 1364 016d 680C0000 		.4byte	.LASF60
 1365 0171 05       		.byte	0x5
 1366 0172 00       		.uleb128 0
 1367 0173 F8280000 		.4byte	.LASF61
 1368 0177 05       		.byte	0x5
 1369 0178 00       		.uleb128 0
 1370 0179 561B0000 		.4byte	.LASF62
 1371 017d 05       		.byte	0x5
 1372 017e 00       		.uleb128 0
 1373 017f A7280000 		.4byte	.LASF63
 1374 0183 05       		.byte	0x5
 1375 0184 00       		.uleb128 0
 1376 0185 1C090000 		.4byte	.LASF64
 1377 0189 05       		.byte	0x5
 1378 018a 00       		.uleb128 0
 1379 018b 1F100000 		.4byte	.LASF65
 1380 018f 05       		.byte	0x5
 1381 0190 00       		.uleb128 0
 1382 0191 7F1F0000 		.4byte	.LASF66
 1383 0195 05       		.byte	0x5
 1384 0196 00       		.uleb128 0
 1385 0197 4F170000 		.4byte	.LASF67
 1386 019b 05       		.byte	0x5
 1387 019c 00       		.uleb128 0
 1388 019d E22E0000 		.4byte	.LASF68
 1389 01a1 05       		.byte	0x5
 1390 01a2 00       		.uleb128 0
 1391 01a3 D2290000 		.4byte	.LASF69
 1392 01a7 05       		.byte	0x5
 1393 01a8 00       		.uleb128 0
 1394 01a9 3F000000 		.4byte	.LASF70
 1395 01ad 05       		.byte	0x5
 1396 01ae 00       		.uleb128 0
 1397 01af 98000000 		.4byte	.LASF71
 1398 01b3 05       		.byte	0x5
 1399 01b4 00       		.uleb128 0
 1400 01b5 582A0000 		.4byte	.LASF72
 1401 01b9 05       		.byte	0x5
 1402 01ba 00       		.uleb128 0
 1403 01bb 121F0000 		.4byte	.LASF73
 1404 01bf 05       		.byte	0x5
 1405 01c0 00       		.uleb128 0
 1406 01c1 A51A0000 		.4byte	.LASF74
 1407 01c5 05       		.byte	0x5
 1408 01c6 00       		.uleb128 0
 1409 01c7 24000000 		.4byte	.LASF75
 1410 01cb 05       		.byte	0x5
 1411 01cc 00       		.uleb128 0
 1412 01cd 55050000 		.4byte	.LASF76
 1413 01d1 05       		.byte	0x5
 1414 01d2 00       		.uleb128 0
 1415 01d3 C2260000 		.4byte	.LASF77
 1416 01d7 05       		.byte	0x5
ARM GAS  /var/folders/f9/8bk2lnw15zn4cbgn6wrnb4lm0000gn/T//cc5RSyFq.s 			page 27


 1417 01d8 00       		.uleb128 0
 1418 01d9 F12A0000 		.4byte	.LASF78
 1419 01dd 05       		.byte	0x5
 1420 01de 00       		.uleb128 0
 1421 01df 6A260000 		.4byte	.LASF79
 1422 01e3 05       		.byte	0x5
 1423 01e4 00       		.uleb128 0
 1424 01e5 70060000 		.4byte	.LASF80
 1425 01e9 05       		.byte	0x5
 1426 01ea 00       		.uleb128 0
 1427 01eb 22250000 		.4byte	.LASF81
 1428 01ef 05       		.byte	0x5
 1429 01f0 00       		.uleb128 0
 1430 01f1 4D1C0000 		.4byte	.LASF82
 1431 01f5 05       		.byte	0x5
 1432 01f6 00       		.uleb128 0
 1433 01f7 63010000 		.4byte	.LASF83
 1434 01fb 05       		.byte	0x5
 1435 01fc 00       		.uleb128 0
 1436 01fd 3C160000 		.4byte	.LASF84
 1437 0201 05       		.byte	0x5
 1438 0202 00       		.uleb128 0
 1439 0203 AE010000 		.4byte	.LASF85
 1440 0207 05       		.byte	0x5
 1441 0208 00       		.uleb128 0
 1442 0209 83220000 		.4byte	.LASF86
 1443 020d 05       		.byte	0x5
 1444 020e 00       		.uleb128 0
 1445 020f E61D0000 		.4byte	.LASF87
 1446 0213 05       		.byte	0x5
 1447 0214 00       		.uleb128 0
 1448 0215 32260000 		.4byte	.LASF88
 1449 0219 05       		.byte	0x5
 1450 021a 00       		.uleb128 0
 1451 021b D6120000 		.4byte	.LASF89
 1452 021f 05       		.byte	0x5
 1453 0220 00       		.uleb128 0
 1454 0221 81080000 		.4byte	.LASF90
 1455 0225 05       		.byte	0x5
 1456 0226 00       		.uleb128 0
 1457 0227 28010000 		.4byte	.LASF91
 1458 022b 05       		.byte	0x5
 1459 022c 00       		.uleb128 0
 1460 022d CA080000 		.4byte	.LASF92
 1461 0231 05       		.byte	0x5
 1462 0232 00       		.uleb128 0
 1463 0233 A70F0000 		.4byte	.LASF93
 1464 0237 05       		.byte	0x5
 1465 0238 00       		.uleb128 0
 1466 0239 21060000 		.4byte	.LASF94
 1467 023d 05       		.byte	0x5
 1468 023e 00       		.uleb128 0
 1469 023f 86140000 		.4byte	.LASF95
 1470 0243 05       		.byte	0x5
 1471 0244 00       		.uleb128 0
 1472 0245 4A2D0000 		.4byte	.LASF96
 1473 0249 05       		.byte	0x5
ARM GAS  /var/folders/f9/8bk2lnw15zn4cbgn6wrnb4lm0000gn/T//cc5RSyFq.s 			page 28


 1474 024a 00       		.uleb128 0
 1475 024b 70020000 		.4byte	.LASF97
 1476 024f 05       		.byte	0x5
 1477 0250 00       		.uleb128 0
 1478 0251 FC230000 		.4byte	.LASF98
 1479 0255 05       		.byte	0x5
 1480 0256 00       		.uleb128 0
 1481 0257 F6060000 		.4byte	.LASF99
 1482 025b 05       		.byte	0x5
 1483 025c 00       		.uleb128 0
 1484 025d 9F010000 		.4byte	.LASF100
 1485 0261 05       		.byte	0x5
 1486 0262 00       		.uleb128 0
 1487 0263 38240000 		.4byte	.LASF101
 1488 0267 05       		.byte	0x5
 1489 0268 00       		.uleb128 0
 1490 0269 F9030000 		.4byte	.LASF102
 1491 026d 05       		.byte	0x5
 1492 026e 00       		.uleb128 0
 1493 026f 7A170000 		.4byte	.LASF103
 1494 0273 05       		.byte	0x5
 1495 0274 00       		.uleb128 0
 1496 0275 BB0E0000 		.4byte	.LASF104
 1497 0279 05       		.byte	0x5
 1498 027a 00       		.uleb128 0
 1499 027b F20B0000 		.4byte	.LASF105
 1500 027f 05       		.byte	0x5
 1501 0280 00       		.uleb128 0
 1502 0281 61250000 		.4byte	.LASF106
 1503 0285 05       		.byte	0x5
 1504 0286 00       		.uleb128 0
 1505 0287 38290000 		.4byte	.LASF107
 1506 028b 05       		.byte	0x5
 1507 028c 00       		.uleb128 0
 1508 028d DE270000 		.4byte	.LASF108
 1509 0291 05       		.byte	0x5
 1510 0292 00       		.uleb128 0
 1511 0293 6E0B0000 		.4byte	.LASF109
 1512 0297 05       		.byte	0x5
 1513 0298 00       		.uleb128 0
 1514 0299 10270000 		.4byte	.LASF110
 1515 029d 05       		.byte	0x5
 1516 029e 00       		.uleb128 0
 1517 029f 52080000 		.4byte	.LASF111
 1518 02a3 05       		.byte	0x5
 1519 02a4 00       		.uleb128 0
 1520 02a5 D9220000 		.4byte	.LASF112
 1521 02a9 05       		.byte	0x5
 1522 02aa 00       		.uleb128 0
 1523 02ab A51F0000 		.4byte	.LASF113
 1524 02af 05       		.byte	0x5
 1525 02b0 00       		.uleb128 0
 1526 02b1 EB210000 		.4byte	.LASF114
 1527 02b5 05       		.byte	0x5
 1528 02b6 00       		.uleb128 0
 1529 02b7 9B190000 		.4byte	.LASF115
 1530 02bb 05       		.byte	0x5
ARM GAS  /var/folders/f9/8bk2lnw15zn4cbgn6wrnb4lm0000gn/T//cc5RSyFq.s 			page 29


 1531 02bc 00       		.uleb128 0
 1532 02bd 50070000 		.4byte	.LASF116
 1533 02c1 05       		.byte	0x5
 1534 02c2 00       		.uleb128 0
 1535 02c3 5E130000 		.4byte	.LASF117
 1536 02c7 05       		.byte	0x5
 1537 02c8 00       		.uleb128 0
 1538 02c9 93120000 		.4byte	.LASF118
 1539 02cd 05       		.byte	0x5
 1540 02ce 00       		.uleb128 0
 1541 02cf 28290000 		.4byte	.LASF119
 1542 02d3 05       		.byte	0x5
 1543 02d4 00       		.uleb128 0
 1544 02d5 1E120000 		.4byte	.LASF120
 1545 02d9 05       		.byte	0x5
 1546 02da 00       		.uleb128 0
 1547 02db 73090000 		.4byte	.LASF121
 1548 02df 05       		.byte	0x5
 1549 02e0 00       		.uleb128 0
 1550 02e1 E62C0000 		.4byte	.LASF122
 1551 02e5 05       		.byte	0x5
 1552 02e6 00       		.uleb128 0
 1553 02e7 3F2A0000 		.4byte	.LASF123
 1554 02eb 05       		.byte	0x5
 1555 02ec 00       		.uleb128 0
 1556 02ed 9B270000 		.4byte	.LASF124
 1557 02f1 05       		.byte	0x5
 1558 02f2 00       		.uleb128 0
 1559 02f3 69110000 		.4byte	.LASF125
 1560 02f7 05       		.byte	0x5
 1561 02f8 00       		.uleb128 0
 1562 02f9 951E0000 		.4byte	.LASF126
 1563 02fd 05       		.byte	0x5
 1564 02fe 00       		.uleb128 0
 1565 02ff 12020000 		.4byte	.LASF127
 1566 0303 05       		.byte	0x5
 1567 0304 00       		.uleb128 0
 1568 0305 41150000 		.4byte	.LASF128
 1569 0309 05       		.byte	0x5
 1570 030a 00       		.uleb128 0
 1571 030b 11240000 		.4byte	.LASF129
 1572 030f 05       		.byte	0x5
 1573 0310 00       		.uleb128 0
 1574 0311 AE0B0000 		.4byte	.LASF130
 1575 0315 05       		.byte	0x5
 1576 0316 00       		.uleb128 0
 1577 0317 DA2F0000 		.4byte	.LASF131
 1578 031b 05       		.byte	0x5
 1579 031c 00       		.uleb128 0
 1580 031d 2F080000 		.4byte	.LASF132
 1581 0321 05       		.byte	0x5
 1582 0322 00       		.uleb128 0
 1583 0323 AA2A0000 		.4byte	.LASF133
 1584 0327 05       		.byte	0x5
 1585 0328 00       		.uleb128 0
 1586 0329 E9040000 		.4byte	.LASF134
 1587 032d 05       		.byte	0x5
ARM GAS  /var/folders/f9/8bk2lnw15zn4cbgn6wrnb4lm0000gn/T//cc5RSyFq.s 			page 30


 1588 032e 00       		.uleb128 0
 1589 032f E7140000 		.4byte	.LASF135
 1590 0333 05       		.byte	0x5
 1591 0334 00       		.uleb128 0
 1592 0335 36020000 		.4byte	.LASF136
 1593 0339 05       		.byte	0x5
 1594 033a 00       		.uleb128 0
 1595 033b A9120000 		.4byte	.LASF137
 1596 033f 05       		.byte	0x5
 1597 0340 00       		.uleb128 0
 1598 0341 CD180000 		.4byte	.LASF138
 1599 0345 05       		.byte	0x5
 1600 0346 00       		.uleb128 0
 1601 0347 F02B0000 		.4byte	.LASF139
 1602 034b 05       		.byte	0x5
 1603 034c 00       		.uleb128 0
 1604 034d B2000000 		.4byte	.LASF140
 1605 0351 05       		.byte	0x5
 1606 0352 00       		.uleb128 0
 1607 0353 09030000 		.4byte	.LASF141
 1608 0357 05       		.byte	0x5
 1609 0358 00       		.uleb128 0
 1610 0359 9D290000 		.4byte	.LASF142
 1611 035d 05       		.byte	0x5
 1612 035e 00       		.uleb128 0
 1613 035f 81090000 		.4byte	.LASF143
 1614 0363 05       		.byte	0x5
 1615 0364 00       		.uleb128 0
 1616 0365 932B0000 		.4byte	.LASF144
 1617 0369 05       		.byte	0x5
 1618 036a 00       		.uleb128 0
 1619 036b 922D0000 		.4byte	.LASF145
 1620 036f 05       		.byte	0x5
 1621 0370 00       		.uleb128 0
 1622 0371 692A0000 		.4byte	.LASF146
 1623 0375 05       		.byte	0x5
 1624 0376 00       		.uleb128 0
 1625 0377 68120000 		.4byte	.LASF147
 1626 037b 05       		.byte	0x5
 1627 037c 00       		.uleb128 0
 1628 037d 1D170000 		.4byte	.LASF148
 1629 0381 05       		.byte	0x5
 1630 0382 00       		.uleb128 0
 1631 0383 C1050000 		.4byte	.LASF149
 1632 0387 05       		.byte	0x5
 1633 0388 00       		.uleb128 0
 1634 0389 821B0000 		.4byte	.LASF150
 1635 038d 05       		.byte	0x5
 1636 038e 00       		.uleb128 0
 1637 038f 91240000 		.4byte	.LASF151
 1638 0393 05       		.byte	0x5
 1639 0394 00       		.uleb128 0
 1640 0395 64200000 		.4byte	.LASF152
 1641 0399 05       		.byte	0x5
 1642 039a 00       		.uleb128 0
 1643 039b 991C0000 		.4byte	.LASF153
 1644 039f 05       		.byte	0x5
ARM GAS  /var/folders/f9/8bk2lnw15zn4cbgn6wrnb4lm0000gn/T//cc5RSyFq.s 			page 31


 1645 03a0 00       		.uleb128 0
 1646 03a1 372D0000 		.4byte	.LASF154
 1647 03a5 05       		.byte	0x5
 1648 03a6 00       		.uleb128 0
 1649 03a7 BB160000 		.4byte	.LASF155
 1650 03ab 05       		.byte	0x5
 1651 03ac 00       		.uleb128 0
 1652 03ad 091B0000 		.4byte	.LASF156
 1653 03b1 05       		.byte	0x5
 1654 03b2 00       		.uleb128 0
 1655 03b3 7E280000 		.4byte	.LASF157
 1656 03b7 05       		.byte	0x5
 1657 03b8 00       		.uleb128 0
 1658 03b9 A40D0000 		.4byte	.LASF158
 1659 03bd 05       		.byte	0x5
 1660 03be 00       		.uleb128 0
 1661 03bf 772F0000 		.4byte	.LASF159
 1662 03c3 05       		.byte	0x5
 1663 03c4 00       		.uleb128 0
 1664 03c5 3E1B0000 		.4byte	.LASF160
 1665 03c9 05       		.byte	0x5
 1666 03ca 00       		.uleb128 0
 1667 03cb 5B210000 		.4byte	.LASF161
 1668 03cf 05       		.byte	0x5
 1669 03d0 00       		.uleb128 0
 1670 03d1 381C0000 		.4byte	.LASF162
 1671 03d5 05       		.byte	0x5
 1672 03d6 00       		.uleb128 0
 1673 03d7 1C280000 		.4byte	.LASF163
 1674 03db 05       		.byte	0x5
 1675 03dc 00       		.uleb128 0
 1676 03dd D10E0000 		.4byte	.LASF164
 1677 03e1 05       		.byte	0x5
 1678 03e2 00       		.uleb128 0
 1679 03e3 F7090000 		.4byte	.LASF165
 1680 03e7 05       		.byte	0x5
 1681 03e8 00       		.uleb128 0
 1682 03e9 BE0A0000 		.4byte	.LASF166
 1683 03ed 05       		.byte	0x5
 1684 03ee 00       		.uleb128 0
 1685 03ef EA200000 		.4byte	.LASF167
 1686 03f3 05       		.byte	0x5
 1687 03f4 00       		.uleb128 0
 1688 03f5 F9170000 		.4byte	.LASF168
 1689 03f9 05       		.byte	0x5
 1690 03fa 00       		.uleb128 0
 1691 03fb C42F0000 		.4byte	.LASF169
 1692 03ff 05       		.byte	0x5
 1693 0400 00       		.uleb128 0
 1694 0401 CD130000 		.4byte	.LASF170
 1695 0405 05       		.byte	0x5
 1696 0406 00       		.uleb128 0
 1697 0407 EF1F0000 		.4byte	.LASF171
 1698 040b 05       		.byte	0x5
 1699 040c 00       		.uleb128 0
 1700 040d AD2E0000 		.4byte	.LASF172
 1701 0411 05       		.byte	0x5
ARM GAS  /var/folders/f9/8bk2lnw15zn4cbgn6wrnb4lm0000gn/T//cc5RSyFq.s 			page 32


 1702 0412 00       		.uleb128 0
 1703 0413 FD0C0000 		.4byte	.LASF173
 1704 0417 05       		.byte	0x5
 1705 0418 00       		.uleb128 0
 1706 0419 0E010000 		.4byte	.LASF174
 1707 041d 05       		.byte	0x5
 1708 041e 00       		.uleb128 0
 1709 041f 67000000 		.4byte	.LASF175
 1710 0423 05       		.byte	0x5
 1711 0424 00       		.uleb128 0
 1712 0425 6E0E0000 		.4byte	.LASF176
 1713 0429 05       		.byte	0x5
 1714 042a 00       		.uleb128 0
 1715 042b 160B0000 		.4byte	.LASF177
 1716 042f 05       		.byte	0x5
 1717 0430 00       		.uleb128 0
 1718 0431 D2200000 		.4byte	.LASF178
 1719 0435 05       		.byte	0x5
 1720 0436 00       		.uleb128 0
 1721 0437 5E160000 		.4byte	.LASF179
 1722 043b 05       		.byte	0x5
 1723 043c 00       		.uleb128 0
 1724 043d FD2C0000 		.4byte	.LASF180
 1725 0441 05       		.byte	0x5
 1726 0442 00       		.uleb128 0
 1727 0443 F71E0000 		.4byte	.LASF181
 1728 0447 05       		.byte	0x5
 1729 0448 00       		.uleb128 0
 1730 0449 3A1F0000 		.4byte	.LASF182
 1731 044d 05       		.byte	0x5
 1732 044e 00       		.uleb128 0
 1733 044f B11C0000 		.4byte	.LASF183
 1734 0453 05       		.byte	0x5
 1735 0454 00       		.uleb128 0
 1736 0455 08230000 		.4byte	.LASF184
 1737 0459 05       		.byte	0x5
 1738 045a 00       		.uleb128 0
 1739 045b 180E0000 		.4byte	.LASF185
 1740 045f 05       		.byte	0x5
 1741 0460 00       		.uleb128 0
 1742 0461 A50A0000 		.4byte	.LASF186
 1743 0465 05       		.byte	0x5
 1744 0466 00       		.uleb128 0
 1745 0467 95250000 		.4byte	.LASF187
 1746 046b 05       		.byte	0x5
 1747 046c 00       		.uleb128 0
 1748 046d A7220000 		.4byte	.LASF188
 1749 0471 05       		.byte	0x5
 1750 0472 00       		.uleb128 0
 1751 0473 E5280000 		.4byte	.LASF189
 1752 0477 05       		.byte	0x5
 1753 0478 00       		.uleb128 0
 1754 0479 38030000 		.4byte	.LASF190
 1755 047d 05       		.byte	0x5
 1756 047e 00       		.uleb128 0
 1757 047f C10F0000 		.4byte	.LASF191
 1758 0483 05       		.byte	0x5
ARM GAS  /var/folders/f9/8bk2lnw15zn4cbgn6wrnb4lm0000gn/T//cc5RSyFq.s 			page 33


 1759 0484 00       		.uleb128 0
 1760 0485 CD210000 		.4byte	.LASF192
 1761 0489 05       		.byte	0x5
 1762 048a 00       		.uleb128 0
 1763 048b 1A130000 		.4byte	.LASF193
 1764 048f 05       		.byte	0x5
 1765 0490 00       		.uleb128 0
 1766 0491 F81A0000 		.4byte	.LASF194
 1767 0495 05       		.byte	0x5
 1768 0496 00       		.uleb128 0
 1769 0497 230D0000 		.4byte	.LASF195
 1770 049b 05       		.byte	0x5
 1771 049c 00       		.uleb128 0
 1772 049d 8B1A0000 		.4byte	.LASF196
 1773 04a1 05       		.byte	0x5
 1774 04a2 00       		.uleb128 0
 1775 04a3 242A0000 		.4byte	.LASF197
 1776 04a7 05       		.byte	0x5
 1777 04a8 00       		.uleb128 0
 1778 04a9 E6170000 		.4byte	.LASF198
 1779 04ad 05       		.byte	0x5
 1780 04ae 00       		.uleb128 0
 1781 04af F2120000 		.4byte	.LASF199
 1782 04b3 05       		.byte	0x5
 1783 04b4 00       		.uleb128 0
 1784 04b5 C91A0000 		.4byte	.LASF200
 1785 04b9 05       		.byte	0x5
 1786 04ba 00       		.uleb128 0
 1787 04bb 890A0000 		.4byte	.LASF201
 1788 04bf 05       		.byte	0x5
 1789 04c0 00       		.uleb128 0
 1790 04c1 24150000 		.4byte	.LASF202
 1791 04c5 05       		.byte	0x5
 1792 04c6 00       		.uleb128 0
 1793 04c7 AB140000 		.4byte	.LASF203
 1794 04cb 05       		.byte	0x5
 1795 04cc 00       		.uleb128 0
 1796 04cd 0E070000 		.4byte	.LASF204
 1797 04d1 05       		.byte	0x5
 1798 04d2 00       		.uleb128 0
 1799 04d3 9E200000 		.4byte	.LASF205
 1800 04d7 05       		.byte	0x5
 1801 04d8 00       		.uleb128 0
 1802 04d9 102E0000 		.4byte	.LASF206
 1803 04dd 05       		.byte	0x5
 1804 04de 00       		.uleb128 0
 1805 04df 340C0000 		.4byte	.LASF207
 1806 04e3 05       		.byte	0x5
 1807 04e4 00       		.uleb128 0
 1808 04e5 C7190000 		.4byte	.LASF208
 1809 04e9 05       		.byte	0x5
 1810 04ea 00       		.uleb128 0
 1811 04eb 8C0B0000 		.4byte	.LASF209
 1812 04ef 05       		.byte	0x5
 1813 04f0 00       		.uleb128 0
 1814 04f1 07120000 		.4byte	.LASF210
 1815 04f5 05       		.byte	0x5
ARM GAS  /var/folders/f9/8bk2lnw15zn4cbgn6wrnb4lm0000gn/T//cc5RSyFq.s 			page 34


 1816 04f6 00       		.uleb128 0
 1817 04f7 CE240000 		.4byte	.LASF211
 1818 04fb 05       		.byte	0x5
 1819 04fc 00       		.uleb128 0
 1820 04fd 310B0000 		.4byte	.LASF212
 1821 0501 05       		.byte	0x5
 1822 0502 00       		.uleb128 0
 1823 0503 FA130000 		.4byte	.LASF213
 1824 0507 05       		.byte	0x5
 1825 0508 00       		.uleb128 0
 1826 0509 460E0000 		.4byte	.LASF214
 1827 050d 05       		.byte	0x5
 1828 050e 00       		.uleb128 0
 1829 050f 112F0000 		.4byte	.LASF215
 1830 0513 05       		.byte	0x5
 1831 0514 00       		.uleb128 0
 1832 0515 49090000 		.4byte	.LASF216
 1833 0519 05       		.byte	0x5
 1834 051a 00       		.uleb128 0
 1835 051b 7A1C0000 		.4byte	.LASF217
 1836 051f 05       		.byte	0x5
 1837 0520 00       		.uleb128 0
 1838 0521 9B1B0000 		.4byte	.LASF218
 1839 0525 05       		.byte	0x5
 1840 0526 00       		.uleb128 0
 1841 0527 7E070000 		.4byte	.LASF219
 1842 052b 05       		.byte	0x5
 1843 052c 00       		.uleb128 0
 1844 052d D90B0000 		.4byte	.LASF220
 1845 0531 05       		.byte	0x5
 1846 0532 00       		.uleb128 0
 1847 0533 A3040000 		.4byte	.LASF221
 1848 0537 05       		.byte	0x5
 1849 0538 00       		.uleb128 0
 1850 0539 562F0000 		.4byte	.LASF222
 1851 053d 05       		.byte	0x5
 1852 053e 00       		.uleb128 0
 1853 053f C70C0000 		.4byte	.LASF223
 1854 0543 05       		.byte	0x5
 1855 0544 00       		.uleb128 0
 1856 0545 982A0000 		.4byte	.LASF224
 1857 0549 05       		.byte	0x5
 1858 054a 00       		.uleb128 0
 1859 054b 00250000 		.4byte	.LASF225
 1860 054f 05       		.byte	0x5
 1861 0550 00       		.uleb128 0
 1862 0551 F8160000 		.4byte	.LASF226
 1863 0555 05       		.byte	0x5
 1864 0556 00       		.uleb128 0
 1865 0557 45100000 		.4byte	.LASF227
 1866 055b 05       		.byte	0x5
 1867 055c 00       		.uleb128 0
 1868 055d D10D0000 		.4byte	.LASF228
 1869 0561 05       		.byte	0x5
 1870 0562 00       		.uleb128 0
 1871 0563 C3120000 		.4byte	.LASF229
 1872 0567 05       		.byte	0x5
ARM GAS  /var/folders/f9/8bk2lnw15zn4cbgn6wrnb4lm0000gn/T//cc5RSyFq.s 			page 35


 1873 0568 00       		.uleb128 0
 1874 0569 CE280000 		.4byte	.LASF230
 1875 056d 05       		.byte	0x5
 1876 056e 00       		.uleb128 0
 1877 056f 881D0000 		.4byte	.LASF231
 1878 0573 05       		.byte	0x5
 1879 0574 00       		.uleb128 0
 1880 0575 2D0A0000 		.4byte	.LASF232
 1881 0579 05       		.byte	0x5
 1882 057a 00       		.uleb128 0
 1883 057b 9A130000 		.4byte	.LASF233
 1884 057f 05       		.byte	0x5
 1885 0580 00       		.uleb128 0
 1886 0581 FC270000 		.4byte	.LASF234
 1887 0585 05       		.byte	0x5
 1888 0586 00       		.uleb128 0
 1889 0587 1A1A0000 		.4byte	.LASF235
 1890 058b 05       		.byte	0x5
 1891 058c 00       		.uleb128 0
 1892 058d 1A1C0000 		.4byte	.LASF236
 1893 0591 05       		.byte	0x5
 1894 0592 00       		.uleb128 0
 1895 0593 A0150000 		.4byte	.LASF237
 1896 0597 05       		.byte	0x5
 1897 0598 00       		.uleb128 0
 1898 0599 EF2F0000 		.4byte	.LASF238
 1899 059d 05       		.byte	0x5
 1900 059e 00       		.uleb128 0
 1901 059f 80120000 		.4byte	.LASF239
 1902 05a3 05       		.byte	0x5
 1903 05a4 00       		.uleb128 0
 1904 05a5 1F0C0000 		.4byte	.LASF240
 1905 05a9 05       		.byte	0x5
 1906 05aa 00       		.uleb128 0
 1907 05ab CF1F0000 		.4byte	.LASF241
 1908 05af 05       		.byte	0x5
 1909 05b0 00       		.uleb128 0
 1910 05b1 730D0000 		.4byte	.LASF242
 1911 05b5 05       		.byte	0x5
 1912 05b6 00       		.uleb128 0
 1913 05b7 11150000 		.4byte	.LASF243
 1914 05bb 05       		.byte	0x5
 1915 05bc 00       		.uleb128 0
 1916 05bd 940F0000 		.4byte	.LASF244
 1917 05c1 05       		.byte	0x5
 1918 05c2 00       		.uleb128 0
 1919 05c3 C8070000 		.4byte	.LASF245
 1920 05c7 05       		.byte	0x5
 1921 05c8 00       		.uleb128 0
 1922 05c9 251E0000 		.4byte	.LASF246
 1923 05cd 05       		.byte	0x5
 1924 05ce 00       		.uleb128 0
 1925 05cf 78250000 		.4byte	.LASF247
 1926 05d3 05       		.byte	0x5
 1927 05d4 00       		.uleb128 0
 1928 05d5 B51A0000 		.4byte	.LASF248
 1929 05d9 05       		.byte	0x5
ARM GAS  /var/folders/f9/8bk2lnw15zn4cbgn6wrnb4lm0000gn/T//cc5RSyFq.s 			page 36


 1930 05da 00       		.uleb128 0
 1931 05db E6130000 		.4byte	.LASF249
 1932 05df 05       		.byte	0x5
 1933 05e0 00       		.uleb128 0
 1934 05e1 18080000 		.4byte	.LASF250
 1935 05e5 05       		.byte	0x5
 1936 05e6 00       		.uleb128 0
 1937 05e7 5F0A0000 		.4byte	.LASF251
 1938 05eb 05       		.byte	0x5
 1939 05ec 00       		.uleb128 0
 1940 05ed C71D0000 		.4byte	.LASF252
 1941 05f1 05       		.byte	0x5
 1942 05f2 00       		.uleb128 0
 1943 05f3 992E0000 		.4byte	.LASF253
 1944 05f7 05       		.byte	0x5
 1945 05f8 00       		.uleb128 0
 1946 05f9 FA050000 		.4byte	.LASF254
 1947 05fd 05       		.byte	0x5
 1948 05fe 00       		.uleb128 0
 1949 05ff F80F0000 		.4byte	.LASF255
 1950 0603 05       		.byte	0x5
 1951 0604 00       		.uleb128 0
 1952 0605 A8110000 		.4byte	.LASF256
 1953 0609 05       		.byte	0x5
 1954 060a 00       		.uleb128 0
 1955 060b D2110000 		.4byte	.LASF257
 1956 060f 05       		.byte	0x5
 1957 0610 00       		.uleb128 0
 1958 0611 88290000 		.4byte	.LASF258
 1959 0615 05       		.byte	0x5
 1960 0616 00       		.uleb128 0
 1961 0617 6E220000 		.4byte	.LASF259
 1962 061b 05       		.byte	0x5
 1963 061c 00       		.uleb128 0
 1964 061d E4080000 		.4byte	.LASF260
 1965 0621 05       		.byte	0x5
 1966 0622 00       		.uleb128 0
 1967 0623 EC070000 		.4byte	.LASF261
 1968 0627 05       		.byte	0x5
 1969 0628 00       		.uleb128 0
 1970 0629 A32F0000 		.4byte	.LASF262
 1971 062d 05       		.byte	0x5
 1972 062e 00       		.uleb128 0
 1973 062f 022E0000 		.4byte	.LASF263
 1974 0633 05       		.byte	0x5
 1975 0634 00       		.uleb128 0
 1976 0635 D6010000 		.4byte	.LASF264
 1977 0639 05       		.byte	0x5
 1978 063a 00       		.uleb128 0
 1979 063b CA220000 		.4byte	.LASF265
 1980 063f 05       		.byte	0x5
 1981 0640 00       		.uleb128 0
 1982 0641 C8010000 		.4byte	.LASF266
 1983 0645 05       		.byte	0x5
 1984 0646 00       		.uleb128 0
 1985 0647 7A200000 		.4byte	.LASF267
 1986 064b 05       		.byte	0x5
ARM GAS  /var/folders/f9/8bk2lnw15zn4cbgn6wrnb4lm0000gn/T//cc5RSyFq.s 			page 37


 1987 064c 00       		.uleb128 0
 1988 064d 900D0000 		.4byte	.LASF268
 1989 0651 05       		.byte	0x5
 1990 0652 00       		.uleb128 0
 1991 0653 791D0000 		.4byte	.LASF269
 1992 0657 05       		.byte	0x5
 1993 0658 00       		.uleb128 0
 1994 0659 1A290000 		.4byte	.LASF270
 1995 065d 05       		.byte	0x5
 1996 065e 00       		.uleb128 0
 1997 065f BD210000 		.4byte	.LASF271
 1998 0663 05       		.byte	0x5
 1999 0664 00       		.uleb128 0
 2000 0665 32170000 		.4byte	.LASF272
 2001 0669 05       		.byte	0x5
 2002 066a 00       		.uleb128 0
 2003 066b 2B1F0000 		.4byte	.LASF273
 2004 066f 05       		.byte	0x5
 2005 0670 00       		.uleb128 0
 2006 0671 B8230000 		.4byte	.LASF274
 2007 0675 05       		.byte	0x5
 2008 0676 00       		.uleb128 0
 2009 0677 05200000 		.4byte	.LASF275
 2010 067b 05       		.byte	0x5
 2011 067c 00       		.uleb128 0
 2012 067d F2100000 		.4byte	.LASF276
 2013 0681 05       		.byte	0x5
 2014 0682 00       		.uleb128 0
 2015 0683 BA250000 		.4byte	.LASF277
 2016 0687 05       		.byte	0x5
 2017 0688 00       		.uleb128 0
 2018 0689 32120000 		.4byte	.LASF278
 2019 068d 05       		.byte	0x5
 2020 068e 00       		.uleb128 0
 2021 068f BA220000 		.4byte	.LASF279
 2022 0693 05       		.byte	0x5
 2023 0694 00       		.uleb128 0
 2024 0695 E4010000 		.4byte	.LASF280
 2025 0699 05       		.byte	0x5
 2026 069a 00       		.uleb128 0
 2027 069b 2B160000 		.4byte	.LASF281
 2028 069f 05       		.byte	0x5
 2029 06a0 00       		.uleb128 0
 2030 06a1 9F0B0000 		.4byte	.LASF282
 2031 06a5 05       		.byte	0x5
 2032 06a6 00       		.uleb128 0
 2033 06a7 B3050000 		.4byte	.LASF283
 2034 06ab 05       		.byte	0x5
 2035 06ac 00       		.uleb128 0
 2036 06ad CA250000 		.4byte	.LASF284
 2037 06b1 05       		.byte	0x5
 2038 06b2 00       		.uleb128 0
 2039 06b3 36100000 		.4byte	.LASF285
 2040 06b7 05       		.byte	0x5
 2041 06b8 00       		.uleb128 0
 2042 06b9 3A090000 		.4byte	.LASF286
 2043 06bd 05       		.byte	0x5
ARM GAS  /var/folders/f9/8bk2lnw15zn4cbgn6wrnb4lm0000gn/T//cc5RSyFq.s 			page 38


 2044 06be 00       		.uleb128 0
 2045 06bf B3090000 		.4byte	.LASF287
 2046 06c3 05       		.byte	0x5
 2047 06c4 00       		.uleb128 0
 2048 06c5 6D0F0000 		.4byte	.LASF288
 2049 06c9 05       		.byte	0x5
 2050 06ca 00       		.uleb128 0
 2051 06cb 2F1B0000 		.4byte	.LASF289
 2052 06cf 05       		.byte	0x5
 2053 06d0 00       		.uleb128 0
 2054 06d1 3A2C0000 		.4byte	.LASF290
 2055 06d5 05       		.byte	0x5
 2056 06d6 00       		.uleb128 0
 2057 06d7 40170000 		.4byte	.LASF291
 2058 06db 05       		.byte	0x5
 2059 06dc 00       		.uleb128 0
 2060 06dd F9220000 		.4byte	.LASF292
 2061 06e1 05       		.byte	0x5
 2062 06e2 00       		.uleb128 0
 2063 06e3 0E140000 		.4byte	.LASF293
 2064 06e7 05       		.byte	0x5
 2065 06e8 00       		.uleb128 0
 2066 06e9 360E0000 		.4byte	.LASF294
 2067 06ed 05       		.byte	0x5
 2068 06ee 00       		.uleb128 0
 2069 06ef 812E0000 		.4byte	.LASF295
 2070 06f3 05       		.byte	0x5
 2071 06f4 00       		.uleb128 0
 2072 06f5 71080000 		.4byte	.LASF296
 2073 06f9 05       		.byte	0x5
 2074 06fa 00       		.uleb128 0
 2075 06fb D9040000 		.4byte	.LASF297
 2076 06ff 05       		.byte	0x5
 2077 0700 00       		.uleb128 0
 2078 0701 D52D0000 		.4byte	.LASF298
 2079 0705 05       		.byte	0x5
 2080 0706 00       		.uleb128 0
 2081 0707 5B060000 		.4byte	.LASF299
 2082 070b 05       		.byte	0x5
 2083 070c 00       		.uleb128 0
 2084 070d 8E210000 		.4byte	.LASF300
 2085 0711 05       		.byte	0x5
 2086 0712 00       		.uleb128 0
 2087 0713 BC200000 		.4byte	.LASF301
 2088 0717 05       		.byte	0x5
 2089 0718 00       		.uleb128 0
 2090 0719 6E050000 		.4byte	.LASF302
 2091 071d 05       		.byte	0x5
 2092 071e 00       		.uleb128 0
 2093 071f 9D160000 		.4byte	.LASF303
 2094 0723 05       		.byte	0x5
 2095 0724 00       		.uleb128 0
 2096 0725 D4100000 		.4byte	.LASF304
 2097 0729 05       		.byte	0x5
 2098 072a 00       		.uleb128 0
 2099 072b 4E020000 		.4byte	.LASF305
 2100 072f 05       		.byte	0x5
ARM GAS  /var/folders/f9/8bk2lnw15zn4cbgn6wrnb4lm0000gn/T//cc5RSyFq.s 			page 39


 2101 0730 00       		.uleb128 0
 2102 0731 F9250000 		.4byte	.LASF306
 2103 0735 05       		.byte	0x5
 2104 0736 00       		.uleb128 0
 2105 0737 AC130000 		.4byte	.LASF307
 2106 073b 05       		.byte	0x5
 2107 073c 00       		.uleb128 0
 2108 073d EB290000 		.4byte	.LASF308
 2109 0741 05       		.byte	0x5
 2110 0742 00       		.uleb128 0
 2111 0743 3E0D0000 		.4byte	.LASF309
 2112 0747 05       		.byte	0x5
 2113 0748 00       		.uleb128 0
 2114 0749 C42E0000 		.4byte	.LASF310
 2115 074d 05       		.byte	0x5
 2116 074e 00       		.uleb128 0
 2117 074f 7C270000 		.4byte	.LASF311
 2118 0753 05       		.byte	0x5
 2119 0754 00       		.uleb128 0
 2120 0755 A6170000 		.4byte	.LASF312
 2121 0759 05       		.byte	0x5
 2122 075a 00       		.uleb128 0
 2123 075b 40250000 		.4byte	.LASF313
 2124 075f 05       		.byte	0x5
 2125 0760 00       		.uleb128 0
 2126 0761 CA170000 		.4byte	.LASF314
 2127 0765 05       		.byte	0x5
 2128 0766 00       		.uleb128 0
 2129 0767 E7260000 		.4byte	.LASF315
 2130 076b 05       		.byte	0x5
 2131 076c 00       		.uleb128 0
 2132 076d B01B0000 		.4byte	.LASF316
 2133 0771 05       		.byte	0x5
 2134 0772 00       		.uleb128 0
 2135 0773 9A020000 		.4byte	.LASF317
 2136 0777 05       		.byte	0x5
 2137 0778 00       		.uleb128 0
 2138 0779 010E0000 		.4byte	.LASF318
 2139 077d 05       		.byte	0x5
 2140 077e 00       		.uleb128 0
 2141 077f C2090000 		.4byte	.LASF319
 2142 0783 05       		.byte	0x5
 2143 0784 00       		.uleb128 0
 2144 0785 A5210000 		.4byte	.LASF320
 2145 0789 05       		.byte	0x5
 2146 078a 00       		.uleb128 0
 2147 078b D90C0000 		.4byte	.LASF321
 2148 078f 05       		.byte	0x5
 2149 0790 00       		.uleb128 0
 2150 0791 13170000 		.4byte	.LASF322
 2151 0795 05       		.byte	0x5
 2152 0796 00       		.uleb128 0
 2153 0797 20070000 		.4byte	.LASF323
 2154 079b 05       		.byte	0x5
 2155 079c 00       		.uleb128 0
 2156 079d 282B0000 		.4byte	.LASF324
 2157 07a1 05       		.byte	0x5
ARM GAS  /var/folders/f9/8bk2lnw15zn4cbgn6wrnb4lm0000gn/T//cc5RSyFq.s 			page 40


 2158 07a2 00       		.uleb128 0
 2159 07a3 4F210000 		.4byte	.LASF325
 2160 07a7 05       		.byte	0x5
 2161 07a8 00       		.uleb128 0
 2162 07a9 D6150000 		.4byte	.LASF326
 2163 07ad 05       		.byte	0x5
 2164 07ae 00       		.uleb128 0
 2165 07af 46080000 		.4byte	.LASF327
 2166 07b3 05       		.byte	0x5
 2167 07b4 00       		.uleb128 0
 2168 07b5 4B0F0000 		.4byte	.LASF328
 2169 07b9 05       		.byte	0x5
 2170 07ba 00       		.uleb128 0
 2171 07bb 03270000 		.4byte	.LASF329
 2172 07bf 05       		.byte	0x5
 2173 07c0 00       		.uleb128 0
 2174 07c1 C1240000 		.4byte	.LASF330
 2175 07c5 05       		.byte	0x5
 2176 07c6 00       		.uleb128 0
 2177 07c7 77160000 		.4byte	.LASF331
 2178 07cb 05       		.byte	0x5
 2179 07cc 00       		.uleb128 0
 2180 07cd 17220000 		.4byte	.LASF332
 2181 07d1 05       		.byte	0x5
 2182 07d2 00       		.uleb128 0
 2183 07d3 04130000 		.4byte	.LASF333
 2184 07d7 05       		.byte	0x5
 2185 07d8 00       		.uleb128 0
 2186 07d9 6C070000 		.4byte	.LASF334
 2187 07dd 05       		.byte	0x5
 2188 07de 00       		.uleb128 0
 2189 07df E51C0000 		.4byte	.LASF335
 2190 07e3 05       		.byte	0x5
 2191 07e4 00       		.uleb128 0
 2192 07e5 EA250000 		.4byte	.LASF336
 2193 07e9 05       		.byte	0x5
 2194 07ea 00       		.uleb128 0
 2195 07eb EB0E0000 		.4byte	.LASF337
 2196 07ef 05       		.byte	0x5
 2197 07f0 00       		.uleb128 0
 2198 07f1 9C170000 		.4byte	.LASF338
 2199 07f5 05       		.byte	0x5
 2200 07f6 00       		.uleb128 0
 2201 07f7 DE090000 		.4byte	.LASF339
 2202 07fb 05       		.byte	0x5
 2203 07fc 00       		.uleb128 0
 2204 07fd 492C0000 		.4byte	.LASF340
 2205 0801 00       		.byte	0
 2206              		.section	.debug_macro,"G",%progbits,wm4.features.h.22.6a4ca7cd053637cc1d0db6c16f39b2d7,comdat
 2207              	.Ldebug_macro2:
 2208 0000 0400     		.2byte	0x4
 2209 0002 00       		.byte	0
 2210 0003 05       		.byte	0x5
 2211 0004 16       		.uleb128 0x16
 2212 0005 DA0A0000 		.4byte	.LASF345
 2213 0009 05       		.byte	0x5
 2214 000a 1F       		.uleb128 0x1f
ARM GAS  /var/folders/f9/8bk2lnw15zn4cbgn6wrnb4lm0000gn/T//cc5RSyFq.s 			page 41


 2215 000b B5020000 		.4byte	.LASF346
 2216 000f 05       		.byte	0x5
 2217 0010 26       		.uleb128 0x26
 2218 0011 F81D0000 		.4byte	.LASF347
 2219 0015 00       		.byte	0
 2220              		.section	.debug_macro,"G",%progbits,wm4._default_types.h.15.8b2cb27e528498f8ff711db085d6e489,comda
 2221              	.Ldebug_macro3:
 2222 0000 0400     		.2byte	0x4
 2223 0002 00       		.byte	0
 2224 0003 05       		.byte	0x5
 2225 0004 0F       		.uleb128 0xf
 2226 0005 89200000 		.4byte	.LASF348
 2227 0009 05       		.byte	0x5
 2228 000a 1D       		.uleb128 0x1d
 2229 000b 4B0A0000 		.4byte	.LASF349
 2230 000f 05       		.byte	0x5
 2231 0010 27       		.uleb128 0x27
 2232 0011 E30F0000 		.4byte	.LASF350
 2233 0015 05       		.byte	0x5
 2234 0016 39       		.uleb128 0x39
 2235 0017 61100000 		.4byte	.LASF351
 2236 001b 05       		.byte	0x5
 2237 001c 4F       		.uleb128 0x4f
 2238 001d 590E0000 		.4byte	.LASF352
 2239 0021 05       		.byte	0x5
 2240 0022 6A       		.uleb128 0x6a
 2241 0023 0A2A0000 		.4byte	.LASF353
 2242 0027 05       		.byte	0x5
 2243 0028 8001     		.uleb128 0x80
 2244 002a 6B140000 		.4byte	.LASF354
 2245 002e 05       		.byte	0x5
 2246 002f 9201     		.uleb128 0x92
 2247 0031 F6140000 		.4byte	.LASF355
 2248 0035 05       		.byte	0x5
 2249 0036 A001     		.uleb128 0xa0
 2250 0038 43130000 		.4byte	.LASF356
 2251 003c 06       		.byte	0x6
 2252 003d B201     		.uleb128 0xb2
 2253 003f CC290000 		.4byte	.LASF357
 2254 0043 00       		.byte	0
 2255              		.section	.debug_macro,"G",%progbits,wm4.stdint.h.20.796e373797e732130a803d4c0338fa1b,comdat
 2256              	.Ldebug_macro4:
 2257 0000 0400     		.2byte	0x4
 2258 0002 00       		.byte	0
 2259 0003 05       		.byte	0x5
 2260 0004 14       		.uleb128 0x14
 2261 0005 39270000 		.4byte	.LASF358
 2262 0009 05       		.byte	0x5
 2263 000a 1E       		.uleb128 0x1e
 2264 000b A72D0000 		.4byte	.LASF359
 2265 000f 05       		.byte	0x5
 2266 0010 25       		.uleb128 0x25
 2267 0011 E1000000 		.4byte	.LASF360
 2268 0015 05       		.byte	0x5
 2269 0016 2B       		.uleb128 0x2b
 2270 0017 48060000 		.4byte	.LASF361
 2271 001b 05       		.byte	0x5
ARM GAS  /var/folders/f9/8bk2lnw15zn4cbgn6wrnb4lm0000gn/T//cc5RSyFq.s 			page 42


 2272 001c 31       		.uleb128 0x31
 2273 001d 63270000 		.4byte	.LASF362
 2274 0021 05       		.byte	0x5
 2275 0022 37       		.uleb128 0x37
 2276 0023 911F0000 		.4byte	.LASF363
 2277 0027 05       		.byte	0x5
 2278 0028 3D       		.uleb128 0x3d
 2279 0029 59180000 		.4byte	.LASF364
 2280 002d 05       		.byte	0x5
 2281 002e 43       		.uleb128 0x43
 2282 002f 50200000 		.4byte	.LASF365
 2283 0033 05       		.byte	0x5
 2284 0034 49       		.uleb128 0x49
 2285 0035 21190000 		.4byte	.LASF366
 2286 0039 05       		.byte	0x5
 2287 003a 4F       		.uleb128 0x4f
 2288 003b 590F0000 		.4byte	.LASF367
 2289 003f 05       		.byte	0x5
 2290 0040 55       		.uleb128 0x55
 2291 0041 83160000 		.4byte	.LASF368
 2292 0045 05       		.byte	0x5
 2293 0046 61       		.uleb128 0x61
 2294 0047 C9000000 		.4byte	.LASF369
 2295 004b 05       		.byte	0x5
 2296 004c 6B       		.uleb128 0x6b
 2297 004d 141D0000 		.4byte	.LASF370
 2298 0051 05       		.byte	0x5
 2299 0052 75       		.uleb128 0x75
 2300 0053 97180000 		.4byte	.LASF371
 2301 0057 05       		.byte	0x5
 2302 0058 7F       		.uleb128 0x7f
 2303 0059 962C0000 		.4byte	.LASF372
 2304 005d 05       		.byte	0x5
 2305 005e C201     		.uleb128 0xc2
 2306 0060 072B0000 		.4byte	.LASF373
 2307 0064 05       		.byte	0x5
 2308 0065 C301     		.uleb128 0xc3
 2309 0067 AE070000 		.4byte	.LASF374
 2310 006b 05       		.byte	0x5
 2311 006c C401     		.uleb128 0xc4
 2312 006e 3B190000 		.4byte	.LASF375
 2313 0072 05       		.byte	0x5
 2314 0073 DA01     		.uleb128 0xda
 2315 0075 E52D0000 		.4byte	.LASF376
 2316 0079 05       		.byte	0x5
 2317 007a DB01     		.uleb128 0xdb
 2318 007c F1110000 		.4byte	.LASF377
 2319 0080 05       		.byte	0x5
 2320 0081 DC01     		.uleb128 0xdc
 2321 0083 9B050000 		.4byte	.LASF378
 2322 0087 05       		.byte	0x5
 2323 0088 E401     		.uleb128 0xe4
 2324 008a 7F110000 		.4byte	.LASF379
 2325 008e 05       		.byte	0x5
 2326 008f E501     		.uleb128 0xe5
 2327 0091 49140000 		.4byte	.LASF380
 2328 0095 05       		.byte	0x5
ARM GAS  /var/folders/f9/8bk2lnw15zn4cbgn6wrnb4lm0000gn/T//cc5RSyFq.s 			page 43


 2329 0096 E601     		.uleb128 0xe6
 2330 0098 2D1D0000 		.4byte	.LASF381
 2331 009c 05       		.byte	0x5
 2332 009d F001     		.uleb128 0xf0
 2333 009f 5E2D0000 		.4byte	.LASF382
 2334 00a3 05       		.byte	0x5
 2335 00a4 F101     		.uleb128 0xf1
 2336 00a6 AF2C0000 		.4byte	.LASF383
 2337 00aa 05       		.byte	0x5
 2338 00ab F201     		.uleb128 0xf2
 2339 00ad DE1A0000 		.4byte	.LASF384
 2340 00b1 05       		.byte	0x5
 2341 00b2 FA01     		.uleb128 0xfa
 2342 00b4 01110000 		.4byte	.LASF385
 2343 00b8 05       		.byte	0x5
 2344 00b9 FB01     		.uleb128 0xfb
 2345 00bb 3F010000 		.4byte	.LASF386
 2346 00bf 05       		.byte	0x5
 2347 00c0 FC01     		.uleb128 0xfc
 2348 00c2 20180000 		.4byte	.LASF387
 2349 00c6 05       		.byte	0x5
 2350 00c7 8602     		.uleb128 0x106
 2351 00c9 78180000 		.4byte	.LASF388
 2352 00cd 05       		.byte	0x5
 2353 00ce 8702     		.uleb128 0x107
 2354 00d0 E4230000 		.4byte	.LASF389
 2355 00d4 05       		.byte	0x5
 2356 00d5 8802     		.uleb128 0x108
 2357 00d7 072C0000 		.4byte	.LASF390
 2358 00db 05       		.byte	0x5
 2359 00dc 9602     		.uleb128 0x116
 2360 00de 1E140000 		.4byte	.LASF391
 2361 00e2 05       		.byte	0x5
 2362 00e3 9702     		.uleb128 0x117
 2363 00e5 322F0000 		.4byte	.LASF392
 2364 00e9 05       		.byte	0x5
 2365 00ea 9802     		.uleb128 0x118
 2366 00ec 3F040000 		.4byte	.LASF393
 2367 00f0 05       		.byte	0x5
 2368 00f1 A802     		.uleb128 0x128
 2369 00f3 5A2B0000 		.4byte	.LASF394
 2370 00f7 05       		.byte	0x5
 2371 00f8 A902     		.uleb128 0x129
 2372 00fa DF1E0000 		.4byte	.LASF395
 2373 00fe 05       		.byte	0x5
 2374 00ff AA02     		.uleb128 0x12a
 2375 0101 BB2D0000 		.4byte	.LASF396
 2376 0105 05       		.byte	0x5
 2377 0106 B802     		.uleb128 0x138
 2378 0108 74010000 		.4byte	.LASF397
 2379 010c 05       		.byte	0x5
 2380 010d B902     		.uleb128 0x139
 2381 010f 03210000 		.4byte	.LASF398
 2382 0113 05       		.byte	0x5
 2383 0114 BA02     		.uleb128 0x13a
 2384 0116 4F1A0000 		.4byte	.LASF399
 2385 011a 05       		.byte	0x5
ARM GAS  /var/folders/f9/8bk2lnw15zn4cbgn6wrnb4lm0000gn/T//cc5RSyFq.s 			page 44


 2386 011b C802     		.uleb128 0x148
 2387 011d 41120000 		.4byte	.LASF400
 2388 0121 05       		.byte	0x5
 2389 0122 C902     		.uleb128 0x149
 2390 0124 0D0A0000 		.4byte	.LASF401
 2391 0128 05       		.byte	0x5
 2392 0129 CA02     		.uleb128 0x14a
 2393 012b 5C280000 		.4byte	.LASF402
 2394 012f 05       		.byte	0x5
 2395 0130 D802     		.uleb128 0x158
 2396 0132 57190000 		.4byte	.LASF403
 2397 0136 05       		.byte	0x5
 2398 0137 D902     		.uleb128 0x159
 2399 0139 78030000 		.4byte	.LASF404
 2400 013d 05       		.byte	0x5
 2401 013e DA02     		.uleb128 0x15a
 2402 0140 362B0000 		.4byte	.LASF405
 2403 0144 05       		.byte	0x5
 2404 0145 E802     		.uleb128 0x168
 2405 0147 0C0F0000 		.4byte	.LASF406
 2406 014b 05       		.byte	0x5
 2407 014c E902     		.uleb128 0x169
 2408 014e CB1B0000 		.4byte	.LASF407
 2409 0152 05       		.byte	0x5
 2410 0153 EA02     		.uleb128 0x16a
 2411 0155 ED150000 		.4byte	.LASF408
 2412 0159 05       		.byte	0x5
 2413 015a F802     		.uleb128 0x178
 2414 015c 4F030000 		.4byte	.LASF409
 2415 0160 05       		.byte	0x5
 2416 0161 F902     		.uleb128 0x179
 2417 0163 A51D0000 		.4byte	.LASF410
 2418 0167 05       		.byte	0x5
 2419 0168 FA02     		.uleb128 0x17a
 2420 016a 00000000 		.4byte	.LASF411
 2421 016e 05       		.byte	0x5
 2422 016f 8803     		.uleb128 0x188
 2423 0171 2D200000 		.4byte	.LASF412
 2424 0175 05       		.byte	0x5
 2425 0176 8903     		.uleb128 0x189
 2426 0178 F1000000 		.4byte	.LASF413
 2427 017c 05       		.byte	0x5
 2428 017d 9103     		.uleb128 0x191
 2429 017f DD030000 		.4byte	.LASF414
 2430 0183 05       		.byte	0x5
 2431 0184 9903     		.uleb128 0x199
 2432 0186 88060000 		.4byte	.LASF415
 2433 018a 05       		.byte	0x5
 2434 018b 9F03     		.uleb128 0x19f
 2435 018d E2180000 		.4byte	.LASF416
 2436 0191 05       		.byte	0x5
 2437 0192 A003     		.uleb128 0x1a0
 2438 0194 9A030000 		.4byte	.LASF417
 2439 0198 05       		.byte	0x5
 2440 0199 A403     		.uleb128 0x1a4
 2441 019b 33210000 		.4byte	.LASF418
 2442 019f 05       		.byte	0x5
ARM GAS  /var/folders/f9/8bk2lnw15zn4cbgn6wrnb4lm0000gn/T//cc5RSyFq.s 			page 45


 2443 01a0 A803     		.uleb128 0x1a8
 2444 01a2 C72C0000 		.4byte	.LASF419
 2445 01a6 05       		.byte	0x5
 2446 01a7 AB03     		.uleb128 0x1ab
 2447 01a9 5B0D0000 		.4byte	.LASF420
 2448 01ad 05       		.byte	0x5
 2449 01ae AE03     		.uleb128 0x1ae
 2450 01b0 70290000 		.4byte	.LASF421
 2451 01b4 05       		.byte	0x5
 2452 01b5 B303     		.uleb128 0x1b3
 2453 01b7 8D2F0000 		.4byte	.LASF422
 2454 01bb 05       		.byte	0x5
 2455 01bc B803     		.uleb128 0x1b8
 2456 01be 910C0000 		.4byte	.LASF423
 2457 01c2 05       		.byte	0x5
 2458 01c3 BF03     		.uleb128 0x1bf
 2459 01c5 AC260000 		.4byte	.LASF424
 2460 01c9 05       		.byte	0x5
 2461 01ca C003     		.uleb128 0x1c0
 2462 01cc 62170000 		.4byte	.LASF425
 2463 01d0 05       		.byte	0x5
 2464 01d1 CB03     		.uleb128 0x1cb
 2465 01d3 850E0000 		.4byte	.LASF426
 2466 01d7 05       		.byte	0x5
 2467 01d8 CC03     		.uleb128 0x1cc
 2468 01da 11160000 		.4byte	.LASF427
 2469 01de 05       		.byte	0x5
 2470 01df D703     		.uleb128 0x1d7
 2471 01e1 9E060000 		.4byte	.LASF428
 2472 01e5 05       		.byte	0x5
 2473 01e6 D803     		.uleb128 0x1d8
 2474 01e8 E0050000 		.4byte	.LASF429
 2475 01ec 05       		.byte	0x5
 2476 01ed E403     		.uleb128 0x1e4
 2477 01ef 30060000 		.4byte	.LASF430
 2478 01f3 05       		.byte	0x5
 2479 01f4 E503     		.uleb128 0x1e5
 2480 01f6 F3010000 		.4byte	.LASF431
 2481 01fa 05       		.byte	0x5
 2482 01fb F403     		.uleb128 0x1f4
 2483 01fd 792B0000 		.4byte	.LASF432
 2484 0201 05       		.byte	0x5
 2485 0202 F503     		.uleb128 0x1f5
 2486 0204 53240000 		.4byte	.LASF433
 2487 0208 00       		.byte	0
 2488              		.section	.debug_macro,"G",%progbits,wm4.stdbool.h.29.1c9ee6859ce8145f7838a4f2549ccec2,comdat
 2489              	.Ldebug_macro5:
 2490 0000 0400     		.2byte	0x4
 2491 0002 00       		.byte	0
 2492 0003 05       		.byte	0x5
 2493 0004 1D       		.uleb128 0x1d
 2494 0005 3F0F0000 		.4byte	.LASF435
 2495 0009 05       		.byte	0x5
 2496 000a 21       		.uleb128 0x21
 2497 000b 11090000 		.4byte	.LASF436
 2498 000f 05       		.byte	0x5
 2499 0010 22       		.uleb128 0x22
ARM GAS  /var/folders/f9/8bk2lnw15zn4cbgn6wrnb4lm0000gn/T//cc5RSyFq.s 			page 46


 2500 0011 DC0F0000 		.4byte	.LASF437
 2501 0015 05       		.byte	0x5
 2502 0016 23       		.uleb128 0x23
 2503 0017 912E0000 		.4byte	.LASF438
 2504 001b 05       		.byte	0x5
 2505 001c 30       		.uleb128 0x30
 2506 001d A70C0000 		.4byte	.LASF439
 2507 0021 00       		.byte	0
 2508              		.section	.debug_macro,"G",%progbits,wm4.lpc_types.h.63.860ba57581a002825766a7c2ac00d549,comdat
 2509              	.Ldebug_macro6:
 2510 0000 0400     		.2byte	0x4
 2511 0002 00       		.byte	0
 2512 0003 05       		.byte	0x5
 2513 0004 3F       		.uleb128 0x3f
 2514 0005 65150000 		.4byte	.LASF440
 2515 0009 05       		.byte	0x5
 2516 000a 45       		.uleb128 0x45
 2517 000b 27220000 		.4byte	.LASF441
 2518 000f 06       		.byte	0x6
 2519 0010 66       		.uleb128 0x66
 2520 0011 74130000 		.4byte	.LASF442
 2521 0015 05       		.byte	0x5
 2522 0016 68       		.uleb128 0x68
 2523 0017 BB280000 		.4byte	.LASF443
 2524 001b 06       		.byte	0x6
 2525 001c 6E       		.uleb128 0x6e
 2526 001d 3D050000 		.4byte	.LASF444
 2527 0021 05       		.byte	0x5
 2528 0022 70       		.uleb128 0x70
 2529 0023 1B260000 		.4byte	.LASF445
 2530 0027 06       		.byte	0x6
 2531 0028 7F       		.uleb128 0x7f
 2532 0029 92070000 		.4byte	.LASF446
 2533 002d 05       		.byte	0x5
 2534 002e 8101     		.uleb128 0x81
 2535 0030 AF270000 		.4byte	.LASF447
 2536 0034 05       		.byte	0x5
 2537 0035 8501     		.uleb128 0x85
 2538 0037 B5190000 		.4byte	.LASF448
 2539 003b 05       		.byte	0x5
 2540 003c 8901     		.uleb128 0x89
 2541 003e AB1E0000 		.4byte	.LASF449
 2542 0042 05       		.byte	0x5
 2543 0043 8C01     		.uleb128 0x8c
 2544 0045 55270000 		.4byte	.LASF450
 2545 0049 05       		.byte	0x5
 2546 004a 8E01     		.uleb128 0x8e
 2547 004c 02300000 		.4byte	.LASF451
 2548 0050 05       		.byte	0x5
 2549 0051 9101     		.uleb128 0x91
 2550 0053 020B0000 		.4byte	.LASF452
 2551 0057 05       		.byte	0x5
 2552 0058 9401     		.uleb128 0x94
 2553 005a F7190000 		.4byte	.LASF453
 2554 005e 05       		.byte	0x5
 2555 005f 9701     		.uleb128 0x97
 2556 0061 8E100000 		.4byte	.LASF454
ARM GAS  /var/folders/f9/8bk2lnw15zn4cbgn6wrnb4lm0000gn/T//cc5RSyFq.s 			page 47


 2557 0065 05       		.byte	0x5
 2558 0066 D001     		.uleb128 0xd0
 2559 0068 EF0C0000 		.4byte	.LASF455
 2560 006c 00       		.byte	0
 2561              		.section	.debug_line,"",%progbits
 2562              	.Ldebug_line0:
 2563 0000 53020000 		.section	.debug_str,"MS",%progbits,1
 2563      0200E401 
 2563      00000201 
 2563      FB0E0D00 
 2563      01010101 
 2564              	.LASF411:
 2565 0000 55494E54 		.ascii	"UINT_FAST64_MAX __UINT_FAST64_MAX__\000"
 2565      5F464153 
 2565      5436345F 
 2565      4D415820 
 2565      5F5F5549 
 2566              	.LASF75:
 2567 0024 5F5F5054 		.ascii	"__PTRDIFF_MAX__ 2147483647\000"
 2567      52444946 
 2567      465F4D41 
 2567      585F5F20 
 2567      32313437 
 2568              	.LASF70:
 2569 003f 5F5F4C4F 		.ascii	"__LONG_LONG_MAX__ 9223372036854775807LL\000"
 2569      4E475F4C 
 2569      4F4E475F 
 2569      4D41585F 
 2569      5F203932 
 2570              	.LASF175:
 2571 0067 5F5F4445 		.ascii	"__DEC64_SUBNORMAL_MIN__ 0.000000000000001E-383DD\000"
 2571      4336345F 
 2571      5355424E 
 2571      4F524D41 
 2571      4C5F4D49 
 2572              	.LASF71:
 2573 0098 5F5F5743 		.ascii	"__WCHAR_MAX__ 4294967295U\000"
 2573      4841525F 
 2573      4D41585F 
 2573      5F203432 
 2573      39343936 
 2574              	.LASF140:
 2575 00b2 5F5F4442 		.ascii	"__DBL_DECIMAL_DIG__ 17\000"
 2575      4C5F4445 
 2575      43494D41 
 2575      4C5F4449 
 2575      475F5F20 
 2576              	.LASF369:
 2577 00c9 5F5F696E 		.ascii	"__int_fast8_t_defined 1\000"
 2577      745F6661 
 2577      7374385F 
 2577      745F6465 
 2577      66696E65 
 2578              	.LASF360:
 2579 00e1 5F5F6861 		.ascii	"__have_long32 1\000"
 2579      76655F6C 
 2579      6F6E6733 
ARM GAS  /var/folders/f9/8bk2lnw15zn4cbgn6wrnb4lm0000gn/T//cc5RSyFq.s 			page 48


 2579      32203100 
 2580              	.LASF413:
 2581 00f1 494E544D 		.ascii	"INTMAX_MIN (-INTMAX_MAX - 1)\000"
 2581      41585F4D 
 2581      494E2028 
 2581      2D494E54 
 2581      4D41585F 
 2582              	.LASF174:
 2583 010e 5F5F4445 		.ascii	"__DEC64_EPSILON__ 1E-15DD\000"
 2583      4336345F 
 2583      45505349 
 2583      4C4F4E5F 
 2583      5F203145 
 2584              	.LASF91:
 2585 0128 5F5F494E 		.ascii	"__INT_LEAST8_MAX__ 127\000"
 2585      545F4C45 
 2585      41535438 
 2585      5F4D4158 
 2585      5F5F2031 
 2586              	.LASF386:
 2587 013f 494E545F 		.ascii	"INT_LEAST16_MAX __INT_LEAST16_MAX__\000"
 2587      4C454153 
 2587      5431365F 
 2587      4D415820 
 2587      5F5F494E 
 2588              	.LASF83:
 2589 0163 5F5F494E 		.ascii	"__INT8_MAX__ 127\000"
 2589      54385F4D 
 2589      41585F5F 
 2589      20313237 
 2589      00
 2590              	.LASF397:
 2591 0174 494E545F 		.ascii	"INT_LEAST64_MIN (-__INT_LEAST64_MAX__ - 1)\000"
 2591      4C454153 
 2591      5436345F 
 2591      4D494E20 
 2591      282D5F5F 
 2592              	.LASF100:
 2593 019f 5F5F5549 		.ascii	"__UINT8_C(c) c\000"
 2593      4E54385F 
 2593      43286329 
 2593      206300
 2594              	.LASF85:
 2595 01ae 5F5F494E 		.ascii	"__INT32_MAX__ 2147483647L\000"
 2595      5433325F 
 2595      4D41585F 
 2595      5F203231 
 2595      34373438 
 2596              	.LASF266:
 2597 01c8 5F5F4851 		.ascii	"__HQ_IBIT__ 0\000"
 2597      5F494249 
 2597      545F5F20 
 2597      3000
 2598              	.LASF264:
 2599 01d6 5F5F5151 		.ascii	"__QQ_IBIT__ 0\000"
 2599      5F494249 
 2599      545F5F20 
ARM GAS  /var/folders/f9/8bk2lnw15zn4cbgn6wrnb4lm0000gn/T//cc5RSyFq.s 			page 49


 2599      3000
 2600              	.LASF280:
 2601 01e4 5F5F5544 		.ascii	"__UDQ_IBIT__ 0\000"
 2601      515F4942 
 2601      49545F5F 
 2601      203000
 2602              	.LASF431:
 2603 01f3 55494E54 		.ascii	"UINT64_C(x) __UINT64_C(x)\000"
 2603      36345F43 
 2603      28782920 
 2603      5F5F5549 
 2603      4E543634 
 2604              	.LASF482:
 2605 020d 74656D70 		.ascii	"temp\000"
 2605      00
 2606              	.LASF127:
 2607 0212 5F5F464C 		.ascii	"__FLT_MAX__ 3.4028234663852886e+38F\000"
 2607      545F4D41 
 2607      585F5F20 
 2607      332E3430 
 2607      32383233 
 2608              	.LASF136:
 2609 0236 5F5F4442 		.ascii	"__DBL_MIN_EXP__ (-1021)\000"
 2609      4C5F4D49 
 2609      4E5F4558 
 2609      505F5F20 
 2609      282D3130 
 2610              	.LASF305:
 2611 024e 5F5F4743 		.ascii	"__GCC_ATOMIC_CHAR16_T_LOCK_FREE 1\000"
 2611      435F4154 
 2611      4F4D4943 
 2611      5F434841 
 2611      5231365F 
 2612              	.LASF97:
 2613 0270 5F5F494E 		.ascii	"__INT_LEAST64_MAX__ 9223372036854775807LL\000"
 2613      545F4C45 
 2613      41535436 
 2613      345F4D41 
 2613      585F5F20 
 2614              	.LASF317:
 2615 029a 5F5F5349 		.ascii	"__SIZEOF_WINT_T__ 4\000"
 2615      5A454F46 
 2615      5F57494E 
 2615      545F545F 
 2615      5F203400 
 2616              	.LASF471:
 2617 02ae 62756666 		.ascii	"buffer\000"
 2617      657200
 2618              	.LASF346:
 2619 02b5 5F5F474E 		.ascii	"__GNUC_PREREQ(maj,min) ((__GNUC__ << 16) + __GNUC_M"
 2619      55435F50 
 2619      52455245 
 2619      51286D61 
 2619      6A2C6D69 
 2620 02e8 494E4F52 		.ascii	"INOR__ >= ((maj) << 16) + (min))\000"
 2620      5F5F203E 
 2620      3D202828 
ARM GAS  /var/folders/f9/8bk2lnw15zn4cbgn6wrnb4lm0000gn/T//cc5RSyFq.s 			page 50


 2620      6D616A29 
 2620      203C3C20 
 2621              	.LASF141:
 2622 0309 5F5F4442 		.ascii	"__DBL_MAX__ ((double)1.7976931348623157e+308L)\000"
 2622      4C5F4D41 
 2622      585F5F20 
 2622      2828646F 
 2622      75626C65 
 2623              	.LASF190:
 2624 0338 5F5F5553 		.ascii	"__USFRACT_MIN__ 0.0UHR\000"
 2624      46524143 
 2624      545F4D49 
 2624      4E5F5F20 
 2624      302E3055 
 2625              	.LASF409:
 2626 034f 494E545F 		.ascii	"INT_FAST64_MIN (-__INT_FAST64_MAX__ - 1)\000"
 2626      46415354 
 2626      36345F4D 
 2626      494E2028 
 2626      2D5F5F49 
 2627              	.LASF404:
 2628 0378 494E545F 		.ascii	"INT_FAST16_MAX __INT_FAST16_MAX__\000"
 2628      46415354 
 2628      31365F4D 
 2628      4158205F 
 2628      5F494E54 
 2629              	.LASF417:
 2630 039a 5349475F 		.ascii	"SIG_ATOMIC_MAX __STDINT_EXP(INT_MAX)\000"
 2630      41544F4D 
 2630      49435F4D 
 2630      4158205F 
 2630      5F535444 
 2631              	.LASF3:
 2632 03bf 5F5F474E 		.ascii	"__GNUC_MINOR__ 8\000"
 2632      55435F4D 
 2632      494E4F52 
 2632      5F5F2038 
 2632      00
 2633              	.LASF464:
 2634 03d0 756E7369 		.ascii	"unsigned int\000"
 2634      676E6564 
 2634      20696E74 
 2634      00
 2635              	.LASF414:
 2636 03dd 55494E54 		.ascii	"UINTMAX_MAX __UINTMAX_MAX__\000"
 2636      4D41585F 
 2636      4D415820 
 2636      5F5F5549 
 2636      4E544D41 
 2637              	.LASF102:
 2638 03f9 5F5F5549 		.ascii	"__UINT16_C(c) c\000"
 2638      4E543136 
 2638      5F432863 
 2638      29206300 
 2639              	.LASF17:
 2640 0409 5F5F5349 		.ascii	"__SIZEOF_SHORT__ 2\000"
 2640      5A454F46 
ARM GAS  /var/folders/f9/8bk2lnw15zn4cbgn6wrnb4lm0000gn/T//cc5RSyFq.s 			page 51


 2640      5F53484F 
 2640      52545F5F 
 2640      203200
 2641              	.LASF36:
 2642 041c 5F5F4348 		.ascii	"__CHAR16_TYPE__ short unsigned int\000"
 2642      41523136 
 2642      5F545950 
 2642      455F5F20 
 2642      73686F72 
 2643              	.LASF393:
 2644 043f 55494E54 		.ascii	"UINT_LEAST32_MAX __UINT_LEAST32_MAX__\000"
 2644      5F4C4541 
 2644      53543332 
 2644      5F4D4158 
 2644      205F5F55 
 2645              	.LASF20:
 2646 0465 5F5F5349 		.ascii	"__SIZEOF_LONG_DOUBLE__ 8\000"
 2646      5A454F46 
 2646      5F4C4F4E 
 2646      475F444F 
 2646      55424C45 
 2647              	.LASF2:
 2648 047e 5F5F474E 		.ascii	"__GNUC__ 4\000"
 2648      55435F5F 
 2648      203400
 2649              	.LASF25:
 2650 0489 5F5F4F52 		.ascii	"__ORDER_BIG_ENDIAN__ 4321\000"
 2650      4445525F 
 2650      4249475F 
 2650      454E4449 
 2650      414E5F5F 
 2651              	.LASF221:
 2652 04a3 5F5F554C 		.ascii	"__ULLFRACT_MAX__ 0XFFFFFFFFFFFFFFFFP-64ULLR\000"
 2652      4C465241 
 2652      43545F4D 
 2652      41585F5F 
 2652      20305846 
 2653              	.LASF465:
 2654 04cf 5F5F696E 		.ascii	"__int32_t\000"
 2654      7433325F 
 2654      7400
 2655              	.LASF297:
 2656 04d9 5F5F5554 		.ascii	"__UTA_FBIT__ 64\000"
 2656      415F4642 
 2656      49545F5F 
 2656      20363400 
 2657              	.LASF134:
 2658 04e9 5F5F4442 		.ascii	"__DBL_MANT_DIG__ 53\000"
 2658      4C5F4D41 
 2658      4E545F44 
 2658      49475F5F 
 2658      20353300 
 2659              	.LASF54:
 2660 04fd 5F5F5549 		.ascii	"__UINT_LEAST64_TYPE__ long long unsigned int\000"
 2660      4E545F4C 
 2660      45415354 
 2660      36345F54 
ARM GAS  /var/folders/f9/8bk2lnw15zn4cbgn6wrnb4lm0000gn/T//cc5RSyFq.s 			page 52


 2660      5950455F 
 2661              	.LASF10:
 2662 052a 5F5F4154 		.ascii	"__ATOMIC_ACQ_REL 4\000"
 2662      4F4D4943 
 2662      5F414351 
 2662      5F52454C 
 2662      203400
 2663              	.LASF444:
 2664 053d 5F534246 		.ascii	"_SBF\000"
 2664      00
 2665              	.LASF9:
 2666 0542 5F5F4154 		.ascii	"__ATOMIC_RELEASE 3\000"
 2666      4F4D4943 
 2666      5F52454C 
 2666      45415345 
 2666      203300
 2667              	.LASF76:
 2668 0555 5F5F5349 		.ascii	"__SIZE_MAX__ 4294967295U\000"
 2668      5A455F4D 
 2668      41585F5F 
 2668      20343239 
 2668      34393637 
 2669              	.LASF302:
 2670 056e 5F5F4348 		.ascii	"__CHAR_UNSIGNED__ 1\000"
 2670      41525F55 
 2670      4E534947 
 2670      4E45445F 
 2670      5F203100 
 2671              	.LASF40:
 2672 0582 5F5F494E 		.ascii	"__INT16_TYPE__ short int\000"
 2672      5431365F 
 2672      54595045 
 2672      5F5F2073 
 2672      686F7274 
 2673              	.LASF378:
 2674 059b 55494E54 		.ascii	"UINT8_MAX __UINT8_MAX__\000"
 2674      385F4D41 
 2674      58205F5F 
 2674      55494E54 
 2674      385F4D41 
 2675              	.LASF283:
 2676 05b3 5F5F4841 		.ascii	"__HA_FBIT__ 7\000"
 2676      5F464249 
 2676      545F5F20 
 2676      3700
 2677              	.LASF149:
 2678 05c1 5F5F4C44 		.ascii	"__LDBL_DIG__ 15\000"
 2678      424C5F44 
 2678      49475F5F 
 2678      20313500 
 2679              	.LASF12:
 2680 05d1 5F5F4F50 		.ascii	"__OPTIMIZE__ 1\000"
 2680      54494D49 
 2680      5A455F5F 
 2680      203100
 2681              	.LASF429:
 2682 05e0 55494E54 		.ascii	"UINT32_C(x) __UINT32_C(x)\000"
ARM GAS  /var/folders/f9/8bk2lnw15zn4cbgn6wrnb4lm0000gn/T//cc5RSyFq.s 			page 53


 2682      33325F43 
 2682      28782920 
 2682      5F5F5549 
 2682      4E543332 
 2683              	.LASF254:
 2684 05fa 5F5F4C4C 		.ascii	"__LLACCUM_IBIT__ 32\000"
 2684      41434355 
 2684      4D5F4942 
 2684      49545F5F 
 2684      20333200 
 2685              	.LASF7:
 2686 060e 5F5F4154 		.ascii	"__ATOMIC_SEQ_CST 5\000"
 2686      4F4D4943 
 2686      5F534551 
 2686      5F435354 
 2686      203500
 2687              	.LASF94:
 2688 0621 5F5F494E 		.ascii	"__INT16_C(c) c\000"
 2688      5431365F 
 2688      43286329 
 2688      206300
 2689              	.LASF430:
 2690 0630 494E5436 		.ascii	"INT64_C(x) __INT64_C(x)\000"
 2690      345F4328 
 2690      7829205F 
 2690      5F494E54 
 2690      36345F43 
 2691              	.LASF361:
 2692 0648 5F5F696E 		.ascii	"__int8_t_defined 1\000"
 2692      74385F74 
 2692      5F646566 
 2692      696E6564 
 2692      203100
 2693              	.LASF299:
 2694 065b 5F5F5245 		.ascii	"__REGISTER_PREFIX__ \000"
 2694      47495354 
 2694      45525F50 
 2694      52454649 
 2694      585F5F20 
 2695              	.LASF80:
 2696 0670 5F5F5549 		.ascii	"__UINTMAX_C(c) c ## ULL\000"
 2696      4E544D41 
 2696      585F4328 
 2696      63292063 
 2696      20232320 
 2697              	.LASF415:
 2698 0688 53495A45 		.ascii	"SIZE_MAX __SIZE_MAX__\000"
 2698      5F4D4158 
 2698      205F5F53 
 2698      495A455F 
 2698      4D41585F 
 2699              	.LASF428:
 2700 069e 494E5433 		.ascii	"INT32_C(x) __INT32_C(x)\000"
 2700      325F4328 
 2700      7829205F 
 2700      5F494E54 
 2700      33325F43 
ARM GAS  /var/folders/f9/8bk2lnw15zn4cbgn6wrnb4lm0000gn/T//cc5RSyFq.s 			page 54


 2701              	.LASF479:
 2702 06b6 2E2E2F2E 		.ascii	"../../evt_lib/src/util.c\000"
 2702      2E2F6576 
 2702      745F6C69 
 2702      622F7372 
 2702      632F7574 
 2703              	.LASF27:
 2704 06cf 5F5F4259 		.ascii	"__BYTE_ORDER__ __ORDER_LITTLE_ENDIAN__\000"
 2704      54455F4F 
 2704      52444552 
 2704      5F5F205F 
 2704      5F4F5244 
 2705              	.LASF99:
 2706 06f6 5F5F5549 		.ascii	"__UINT_LEAST8_MAX__ 255\000"
 2706      4E545F4C 
 2706      45415354 
 2706      385F4D41 
 2706      585F5F20 
 2707              	.LASF204:
 2708 070e 5F5F4C46 		.ascii	"__LFRACT_IBIT__ 0\000"
 2708      52414354 
 2708      5F494249 
 2708      545F5F20 
 2708      3000
 2709              	.LASF323:
 2710 0720 5F5F4152 		.ascii	"__ARM_ARCH 6\000"
 2710      4D5F4152 
 2710      43482036 
 2710      00
 2711              	.LASF51:
 2712 072d 5F5F5549 		.ascii	"__UINT_LEAST8_TYPE__ unsigned char\000"
 2712      4E545F4C 
 2712      45415354 
 2712      385F5459 
 2712      50455F5F 
 2713              	.LASF116:
 2714 0750 5F5F5549 		.ascii	"__UINTPTR_MAX__ 4294967295U\000"
 2714      4E545054 
 2714      525F4D41 
 2714      585F5F20 
 2714      34323934 
 2715              	.LASF334:
 2716 076c 5F5F4152 		.ascii	"__ARM_ARCH_6M__ 1\000"
 2716      4D5F4152 
 2716      43485F36 
 2716      4D5F5F20 
 2716      3100
 2717              	.LASF219:
 2718 077e 5F5F554C 		.ascii	"__ULLFRACT_IBIT__ 0\000"
 2718      4C465241 
 2718      43545F49 
 2718      4249545F 
 2718      5F203000 
 2719              	.LASF446:
 2720 0792 5F424954 		.ascii	"_BITMASK\000"
 2720      4D41534B 
 2720      00
ARM GAS  /var/folders/f9/8bk2lnw15zn4cbgn6wrnb4lm0000gn/T//cc5RSyFq.s 			page 55


 2721              	.LASF6:
 2722 079b 5F5F4154 		.ascii	"__ATOMIC_RELAXED 0\000"
 2722      4F4D4943 
 2722      5F52454C 
 2722      41584544 
 2722      203000
 2723              	.LASF374:
 2724 07ae 494E5450 		.ascii	"INTPTR_MAX __INTPTR_MAX__\000"
 2724      54525F4D 
 2724      4158205F 
 2724      5F494E54 
 2724      5054525F 
 2725              	.LASF245:
 2726 07c8 5F5F4C41 		.ascii	"__LACCUM_MIN__ (-0X1P31LK-0X1P31LK)\000"
 2726      4343554D 
 2726      5F4D494E 
 2726      5F5F2028 
 2726      2D305831 
 2727              	.LASF261:
 2728 07ec 5F5F554C 		.ascii	"__ULLACCUM_MAX__ 0XFFFFFFFFFFFFFFFFP-32ULLK\000"
 2728      4C414343 
 2728      554D5F4D 
 2728      41585F5F 
 2728      20305846 
 2729              	.LASF250:
 2730 0818 5F5F554C 		.ascii	"__ULACCUM_MIN__ 0.0ULK\000"
 2730      41434355 
 2730      4D5F4D49 
 2730      4E5F5F20 
 2730      302E3055 
 2731              	.LASF132:
 2732 082f 5F5F464C 		.ascii	"__FLT_HAS_INFINITY__ 1\000"
 2732      545F4841 
 2732      535F494E 
 2732      46494E49 
 2732      54595F5F 
 2733              	.LASF327:
 2734 0846 5F5F4152 		.ascii	"__ARMEL__ 1\000"
 2734      4D454C5F 
 2734      5F203100 
 2735              	.LASF111:
 2736 0852 5F5F5549 		.ascii	"__UINT_FAST8_MAX__ 4294967295U\000"
 2736      4E545F46 
 2736      41535438 
 2736      5F4D4158 
 2736      5F5F2034 
 2737              	.LASF296:
 2738 0871 5F5F5544 		.ascii	"__UDA_IBIT__ 32\000"
 2738      415F4942 
 2738      49545F5F 
 2738      20333200 
 2739              	.LASF90:
 2740 0881 5F5F5549 		.ascii	"__UINT64_MAX__ 18446744073709551615ULL\000"
 2740      4E543634 
 2740      5F4D4158 
 2740      5F5F2031 
 2740      38343436 
ARM GAS  /var/folders/f9/8bk2lnw15zn4cbgn6wrnb4lm0000gn/T//cc5RSyFq.s 			page 56


 2741              	.LASF58:
 2742 08a8 5F5F494E 		.ascii	"__INT_FAST64_TYPE__ long long int\000"
 2742      545F4641 
 2742      53543634 
 2742      5F545950 
 2742      455F5F20 
 2743              	.LASF92:
 2744 08ca 5F5F494E 		.ascii	"__INT8_C(c) c\000"
 2744      54385F43 
 2744      28632920 
 2744      6300
 2745              	.LASF456:
 2746 08d8 7369676E 		.ascii	"signed char\000"
 2746      65642063 
 2746      68617200 
 2747              	.LASF260:
 2748 08e4 5F5F554C 		.ascii	"__ULLACCUM_MIN__ 0.0ULLK\000"
 2748      4C414343 
 2748      554D5F4D 
 2748      494E5F5F 
 2748      20302E30 
 2749              	.LASF434:
 2750 08fd 5F474343 		.ascii	"_GCC_WRAP_STDINT_H \000"
 2750      5F575241 
 2750      505F5354 
 2750      44494E54 
 2750      5F482000 
 2751              	.LASF436:
 2752 0911 626F6F6C 		.ascii	"bool _Bool\000"
 2752      205F426F 
 2752      6F6C00
 2753              	.LASF64:
 2754 091c 5F5F5549 		.ascii	"__UINTPTR_TYPE__ unsigned int\000"
 2754      4E545054 
 2754      525F5459 
 2754      50455F5F 
 2754      20756E73 
 2755              	.LASF286:
 2756 093a 5F5F5341 		.ascii	"__SA_IBIT__ 16\000"
 2756      5F494249 
 2756      545F5F20 
 2756      313600
 2757              	.LASF216:
 2758 0949 5F5F4C4C 		.ascii	"__LLFRACT_MAX__ 0X7FFFFFFFFFFFFFFFP-63LLR\000"
 2758      46524143 
 2758      545F4D41 
 2758      585F5F20 
 2758      30583746 
 2759              	.LASF121:
 2760 0973 5F5F464C 		.ascii	"__FLT_DIG__ 6\000"
 2760      545F4449 
 2760      475F5F20 
 2760      3600
 2761              	.LASF143:
 2762 0981 5F5F4442 		.ascii	"__DBL_EPSILON__ ((double)2.2204460492503131e-16L)\000"
 2762      4C5F4550 
 2762      53494C4F 
ARM GAS  /var/folders/f9/8bk2lnw15zn4cbgn6wrnb4lm0000gn/T//cc5RSyFq.s 			page 57


 2762      4E5F5F20 
 2762      2828646F 
 2763              	.LASF287:
 2764 09b3 5F5F4441 		.ascii	"__DA_FBIT__ 31\000"
 2764      5F464249 
 2764      545F5F20 
 2764      333100
 2765              	.LASF319:
 2766 09c2 5F5F4152 		.ascii	"__ARM_SIZEOF_MINIMAL_ENUM 1\000"
 2766      4D5F5349 
 2766      5A454F46 
 2766      5F4D494E 
 2766      494D414C 
 2767              	.LASF339:
 2768 09de 5F5F5553 		.ascii	"__USES_INITFINI__ 1\000"
 2768      45535F49 
 2768      4E495446 
 2768      494E495F 
 2768      5F203100 
 2769              	.LASF472:
 2770 09f2 62617365 		.ascii	"base\000"
 2770      00
 2771              	.LASF165:
 2772 09f7 5F5F4445 		.ascii	"__DEC32_MIN__ 1E-95DF\000"
 2772      4333325F 
 2772      4D494E5F 
 2772      5F203145 
 2772      2D393544 
 2773              	.LASF401:
 2774 0a0d 494E545F 		.ascii	"INT_FAST8_MAX __INT_FAST8_MAX__\000"
 2774      46415354 
 2774      385F4D41 
 2774      58205F5F 
 2774      494E545F 
 2775              	.LASF232:
 2776 0a2d 5F5F5553 		.ascii	"__USACCUM_EPSILON__ 0x1P-8UHK\000"
 2776      41434355 
 2776      4D5F4550 
 2776      53494C4F 
 2776      4E5F5F20 
 2777              	.LASF349:
 2778 0a4b 5F5F5F69 		.ascii	"___int8_t_defined 1\000"
 2778      6E74385F 
 2778      745F6465 
 2778      66696E65 
 2778      64203100 
 2779              	.LASF251:
 2780 0a5f 5F5F554C 		.ascii	"__ULACCUM_MAX__ 0XFFFFFFFFFFFFFFFFP-32ULK\000"
 2780      41434355 
 2780      4D5F4D41 
 2780      585F5F20 
 2780      30584646 
 2781              	.LASF201:
 2782 0a89 5F5F5546 		.ascii	"__UFRACT_MAX__ 0XFFFFP-16UR\000"
 2782      52414354 
 2782      5F4D4158 
 2782      5F5F2030 
ARM GAS  /var/folders/f9/8bk2lnw15zn4cbgn6wrnb4lm0000gn/T//cc5RSyFq.s 			page 58


 2782      58464646 
 2783              	.LASF186:
 2784 0aa5 5F5F5346 		.ascii	"__SFRACT_MAX__ 0X7FP-7HR\000"
 2784      52414354 
 2784      5F4D4158 
 2784      5F5F2030 
 2784      58374650 
 2785              	.LASF166:
 2786 0abe 5F5F4445 		.ascii	"__DEC32_MAX__ 9.999999E96DF\000"
 2786      4333325F 
 2786      4D41585F 
 2786      5F20392E 
 2786      39393939 
 2787              	.LASF345:
 2788 0ada 5F535953 		.ascii	"_SYS_FEATURES_H \000"
 2788      5F464541 
 2788      54555245 
 2788      535F4820 
 2788      00
 2789              	.LASF463:
 2790 0aeb 6C6F6E67 		.ascii	"long long unsigned int\000"
 2790      206C6F6E 
 2790      6720756E 
 2790      7369676E 
 2790      65642069 
 2791              	.LASF452:
 2792 0b02 554E5553 		.ascii	"UNUSED(x) (void)(x)\000"
 2792      45442878 
 2792      29202876 
 2792      6F696429 
 2792      28782900 
 2793              	.LASF177:
 2794 0b16 5F5F4445 		.ascii	"__DEC128_MIN_EXP__ (-6142)\000"
 2794      43313238 
 2794      5F4D494E 
 2794      5F455850 
 2794      5F5F2028 
 2795              	.LASF212:
 2796 0b31 5F5F554C 		.ascii	"__ULFRACT_EPSILON__ 0x1P-32ULR\000"
 2796      46524143 
 2796      545F4550 
 2796      53494C4F 
 2796      4E5F5F20 
 2797              	.LASF49:
 2798 0b50 5F5F494E 		.ascii	"__INT_LEAST32_TYPE__ long int\000"
 2798      545F4C45 
 2798      41535433 
 2798      325F5459 
 2798      50455F5F 
 2799              	.LASF109:
 2800 0b6e 5F5F494E 		.ascii	"__INT_FAST32_MAX__ 2147483647\000"
 2800      545F4641 
 2800      53543332 
 2800      5F4D4158 
 2800      5F5F2032 
 2801              	.LASF209:
 2802 0b8c 5F5F554C 		.ascii	"__ULFRACT_IBIT__ 0\000"
ARM GAS  /var/folders/f9/8bk2lnw15zn4cbgn6wrnb4lm0000gn/T//cc5RSyFq.s 			page 59


 2802      46524143 
 2802      545F4942 
 2802      49545F5F 
 2802      203000
 2803              	.LASF282:
 2804 0b9f 5F5F5554 		.ascii	"__UTQ_IBIT__ 0\000"
 2804      515F4942 
 2804      49545F5F 
 2804      203000
 2805              	.LASF130:
 2806 0bae 5F5F464C 		.ascii	"__FLT_DENORM_MIN__ 1.4012984643248171e-45F\000"
 2806      545F4445 
 2806      4E4F524D 
 2806      5F4D494E 
 2806      5F5F2031 
 2807              	.LASF220:
 2808 0bd9 5F5F554C 		.ascii	"__ULLFRACT_MIN__ 0.0ULLR\000"
 2808      4C465241 
 2808      43545F4D 
 2808      494E5F5F 
 2808      20302E30 
 2809              	.LASF105:
 2810 0bf2 5F5F5549 		.ascii	"__UINT_LEAST64_MAX__ 18446744073709551615ULL\000"
 2810      4E545F4C 
 2810      45415354 
 2810      36345F4D 
 2810      41585F5F 
 2811              	.LASF240:
 2812 0c1f 5F5F5541 		.ascii	"__UACCUM_MIN__ 0.0UK\000"
 2812      4343554D 
 2812      5F4D494E 
 2812      5F5F2030 
 2812      2E30554B 
 2813              	.LASF207:
 2814 0c34 5F5F4C46 		.ascii	"__LFRACT_EPSILON__ 0x1P-31LR\000"
 2814      52414354 
 2814      5F455053 
 2814      494C4F4E 
 2814      5F5F2030 
 2815              	.LASF55:
 2816 0c51 5F5F494E 		.ascii	"__INT_FAST8_TYPE__ int\000"
 2816      545F4641 
 2816      5354385F 
 2816      54595045 
 2816      5F5F2069 
 2817              	.LASF60:
 2818 0c68 5F5F5549 		.ascii	"__UINT_FAST16_TYPE__ unsigned int\000"
 2818      4E545F46 
 2818      41535431 
 2818      365F5459 
 2818      50455F5F 
 2819              	.LASF473:
 2820 0c8a 64696769 		.ascii	"digits\000"
 2820      747300
 2821              	.LASF423:
 2822 0c91 57494E54 		.ascii	"WINT_MIN __WINT_MIN__\000"
 2822      5F4D494E 
ARM GAS  /var/folders/f9/8bk2lnw15zn4cbgn6wrnb4lm0000gn/T//cc5RSyFq.s 			page 60


 2822      205F5F57 
 2822      494E545F 
 2822      4D494E5F 
 2823              	.LASF439:
 2824 0ca7 5F5F626F 		.ascii	"__bool_true_false_are_defined 1\000"
 2824      6F6C5F74 
 2824      7275655F 
 2824      66616C73 
 2824      655F6172 
 2825              	.LASF223:
 2826 0cc7 5F5F5341 		.ascii	"__SACCUM_FBIT__ 7\000"
 2826      4343554D 
 2826      5F464249 
 2826      545F5F20 
 2826      3700
 2827              	.LASF321:
 2828 0cd9 5F5F4152 		.ascii	"__ARM_ARCH_PROFILE 77\000"
 2828      4D5F4152 
 2828      43485F50 
 2828      524F4649 
 2828      4C452037 
 2829              	.LASF455:
 2830 0cef 494E4C49 		.ascii	"INLINE inline\000"
 2830      4E452069 
 2830      6E6C696E 
 2830      6500
 2831              	.LASF173:
 2832 0cfd 5F5F4445 		.ascii	"__DEC64_MAX__ 9.999999999999999E384DD\000"
 2832      4336345F 
 2832      4D41585F 
 2832      5F20392E 
 2832      39393939 
 2833              	.LASF195:
 2834 0d23 5F5F4652 		.ascii	"__FRACT_MIN__ (-0.5R-0.5R)\000"
 2834      4143545F 
 2834      4D494E5F 
 2834      5F20282D 
 2834      302E3552 
 2835              	.LASF309:
 2836 0d3e 5F5F4743 		.ascii	"__GCC_ATOMIC_INT_LOCK_FREE 1\000"
 2836      435F4154 
 2836      4F4D4943 
 2836      5F494E54 
 2836      5F4C4F43 
 2837              	.LASF420:
 2838 0d5b 57434841 		.ascii	"WCHAR_MAX __WCHAR_MAX__\000"
 2838      525F4D41 
 2838      58205F5F 
 2838      57434841 
 2838      525F4D41 
 2839              	.LASF242:
 2840 0d73 5F5F5541 		.ascii	"__UACCUM_EPSILON__ 0x1P-16UK\000"
 2840      4343554D 
 2840      5F455053 
 2840      494C4F4E 
 2840      5F5F2030 
 2841              	.LASF268:
ARM GAS  /var/folders/f9/8bk2lnw15zn4cbgn6wrnb4lm0000gn/T//cc5RSyFq.s 			page 61


 2842 0d90 5F5F5351 		.ascii	"__SQ_IBIT__ 0\000"
 2842      5F494249 
 2842      545F5F20 
 2842      3000
 2843              	.LASF470:
 2844 0d9e 76616C75 		.ascii	"value\000"
 2844      6500
 2845              	.LASF158:
 2846 0da4 5F5F4C44 		.ascii	"__LDBL_DENORM_MIN__ 4.9406564584124654e-324L\000"
 2846      424C5F44 
 2846      454E4F52 
 2846      4D5F4D49 
 2846      4E5F5F20 
 2847              	.LASF228:
 2848 0dd1 5F5F5553 		.ascii	"__USACCUM_FBIT__ 8\000"
 2848      41434355 
 2848      4D5F4642 
 2848      49545F5F 
 2848      203800
 2849              	.LASF24:
 2850 0de4 5F5F4F52 		.ascii	"__ORDER_LITTLE_ENDIAN__ 1234\000"
 2850      4445525F 
 2850      4C495454 
 2850      4C455F45 
 2850      4E444941 
 2851              	.LASF318:
 2852 0e01 5F5F5349 		.ascii	"__SIZEOF_PTRDIFF_T__ 4\000"
 2852      5A454F46 
 2852      5F505452 
 2852      44494646 
 2852      5F545F5F 
 2853              	.LASF185:
 2854 0e18 5F5F5346 		.ascii	"__SFRACT_MIN__ (-0.5HR-0.5HR)\000"
 2854      52414354 
 2854      5F4D494E 
 2854      5F5F2028 
 2854      2D302E35 
 2855              	.LASF294:
 2856 0e36 5F5F5553 		.ascii	"__USA_IBIT__ 16\000"
 2856      415F4942 
 2856      49545F5F 
 2856      20313600 
 2857              	.LASF214:
 2858 0e46 5F5F4C4C 		.ascii	"__LLFRACT_IBIT__ 0\000"
 2858      46524143 
 2858      545F4942 
 2858      49545F5F 
 2858      203000
 2859              	.LASF352:
 2860 0e59 5F5F5F69 		.ascii	"___int64_t_defined 1\000"
 2860      6E743634 
 2860      5F745F64 
 2860      6566696E 
 2860      65642031 
 2861              	.LASF176:
 2862 0e6e 5F5F4445 		.ascii	"__DEC128_MANT_DIG__ 34\000"
 2862      43313238 
ARM GAS  /var/folders/f9/8bk2lnw15zn4cbgn6wrnb4lm0000gn/T//cc5RSyFq.s 			page 62


 2862      5F4D414E 
 2862      545F4449 
 2862      475F5F20 
 2863              	.LASF426:
 2864 0e85 494E5431 		.ascii	"INT16_C(x) __INT16_C(x)\000"
 2864      365F4328 
 2864      7829205F 
 2864      5F494E54 
 2864      31365F43 
 2865              	.LASF343:
 2866 0e9d 5F535444 		.ascii	"_STDINT_H \000"
 2866      494E545F 
 2866      482000
 2867              	.LASF18:
 2868 0ea8 5F5F5349 		.ascii	"__SIZEOF_FLOAT__ 4\000"
 2868      5A454F46 
 2868      5F464C4F 
 2868      41545F5F 
 2868      203400
 2869              	.LASF104:
 2870 0ebb 5F5F5549 		.ascii	"__UINT32_C(c) c ## UL\000"
 2870      4E543332 
 2870      5F432863 
 2870      29206320 
 2870      23232055 
 2871              	.LASF164:
 2872 0ed1 5F5F4445 		.ascii	"__DEC32_MAX_EXP__ 97\000"
 2872      4333325F 
 2872      4D41585F 
 2872      4558505F 
 2872      5F203937 
 2873              	.LASF475:
 2874 0ee6 7369676E 		.ascii	"sign\000"
 2874      00
 2875              	.LASF337:
 2876 0eeb 5F5F4758 		.ascii	"__GXX_TYPEINFO_EQUALITY_INLINE 0\000"
 2876      585F5459 
 2876      5045494E 
 2876      464F5F45 
 2876      5155414C 
 2877              	.LASF406:
 2878 0f0c 494E545F 		.ascii	"INT_FAST32_MIN (-__INT_FAST32_MAX__ - 1)\000"
 2878      46415354 
 2878      33325F4D 
 2878      494E2028 
 2878      2D5F5F49 
 2879              	.LASF341:
 2880 0f35 5F555449 		.ascii	"_UTIL_H_ \000"
 2880      4C5F485F 
 2880      2000
 2881              	.LASF435:
 2882 0f3f 5F535444 		.ascii	"_STDBOOL_H \000"
 2882      424F4F4C 
 2882      5F482000 
 2883              	.LASF328:
 2884 0f4b 5F5F5448 		.ascii	"__THUMBEL__ 1\000"
 2884      554D4245 
ARM GAS  /var/folders/f9/8bk2lnw15zn4cbgn6wrnb4lm0000gn/T//cc5RSyFq.s 			page 63


 2884      4C5F5F20 
 2884      3100
 2885              	.LASF367:
 2886 0f59 5F5F696E 		.ascii	"__int64_t_defined 1\000"
 2886      7436345F 
 2886      745F6465 
 2886      66696E65 
 2886      64203100 
 2887              	.LASF288:
 2888 0f6d 5F5F4441 		.ascii	"__DA_IBIT__ 32\000"
 2888      5F494249 
 2888      545F5F20 
 2888      333200
 2889              	.LASF23:
 2890 0f7c 5F5F4249 		.ascii	"__BIGGEST_ALIGNMENT__ 8\000"
 2890      47474553 
 2890      545F414C 
 2890      49474E4D 
 2890      454E545F 
 2891              	.LASF244:
 2892 0f94 5F5F4C41 		.ascii	"__LACCUM_IBIT__ 32\000"
 2892      4343554D 
 2892      5F494249 
 2892      545F5F20 
 2892      333200
 2893              	.LASF93:
 2894 0fa7 5F5F494E 		.ascii	"__INT_LEAST16_MAX__ 32767\000"
 2894      545F4C45 
 2894      41535431 
 2894      365F4D41 
 2894      585F5F20 
 2895              	.LASF191:
 2896 0fc1 5F5F5553 		.ascii	"__USFRACT_MAX__ 0XFFP-8UHR\000"
 2896      46524143 
 2896      545F4D41 
 2896      585F5F20 
 2896      30584646 
 2897              	.LASF437:
 2898 0fdc 74727565 		.ascii	"true 1\000"
 2898      203100
 2899              	.LASF350:
 2900 0fe3 5F5F5F69 		.ascii	"___int16_t_defined 1\000"
 2900      6E743136 
 2900      5F745F64 
 2900      6566696E 
 2900      65642031 
 2901              	.LASF255:
 2902 0ff8 5F5F4C4C 		.ascii	"__LLACCUM_MIN__ (-0X1P31LLK-0X1P31LLK)\000"
 2902      41434355 
 2902      4D5F4D49 
 2902      4E5F5F20 
 2902      282D3058 
 2903              	.LASF65:
 2904 101f 5F5F4758 		.ascii	"__GXX_ABI_VERSION 1002\000"
 2904      585F4142 
 2904      495F5645 
 2904      5253494F 
ARM GAS  /var/folders/f9/8bk2lnw15zn4cbgn6wrnb4lm0000gn/T//cc5RSyFq.s 			page 64


 2904      4E203130 
 2905              	.LASF285:
 2906 1036 5F5F5341 		.ascii	"__SA_FBIT__ 15\000"
 2906      5F464249 
 2906      545F5F20 
 2906      313500
 2907              	.LASF227:
 2908 1045 5F5F5341 		.ascii	"__SACCUM_EPSILON__ 0x1P-7HK\000"
 2908      4343554D 
 2908      5F455053 
 2908      494C4F4E 
 2908      5F5F2030 
 2909              	.LASF351:
 2910 1061 5F5F5F69 		.ascii	"___int32_t_defined 1\000"
 2910      6E743332 
 2910      5F745F64 
 2910      6566696E 
 2910      65642031 
 2911              	.LASF56:
 2912 1076 5F5F494E 		.ascii	"__INT_FAST16_TYPE__ int\000"
 2912      545F4641 
 2912      53543136 
 2912      5F545950 
 2912      455F5F20 
 2913              	.LASF454:
 2914 108e 4D494E28 		.ascii	"MIN(a,b) (((a) < (b)) ? (a) : (b))\000"
 2914      612C6229 
 2914      20282828 
 2914      6129203C 
 2914      20286229 
 2915              	.LASF44:
 2916 10b1 5F5F5549 		.ascii	"__UINT16_TYPE__ short unsigned int\000"
 2916      4E543136 
 2916      5F545950 
 2916      455F5F20 
 2916      73686F72 
 2917              	.LASF304:
 2918 10d4 5F5F4743 		.ascii	"__GCC_ATOMIC_CHAR_LOCK_FREE 1\000"
 2918      435F4154 
 2918      4F4D4943 
 2918      5F434841 
 2918      525F4C4F 
 2919              	.LASF276:
 2920 10f2 5F5F5548 		.ascii	"__UHQ_IBIT__ 0\000"
 2920      515F4942 
 2920      49545F5F 
 2920      203000
 2921              	.LASF385:
 2922 1101 494E545F 		.ascii	"INT_LEAST16_MIN (-__INT_LEAST16_MAX__ - 1)\000"
 2922      4C454153 
 2922      5431365F 
 2922      4D494E20 
 2922      282D5F5F 
 2923              	.LASF47:
 2924 112c 5F5F494E 		.ascii	"__INT_LEAST8_TYPE__ signed char\000"
 2924      545F4C45 
 2924      41535438 
ARM GAS  /var/folders/f9/8bk2lnw15zn4cbgn6wrnb4lm0000gn/T//cc5RSyFq.s 			page 65


 2924      5F545950 
 2924      455F5F20 
 2925              	.LASF42:
 2926 114c 5F5F494E 		.ascii	"__INT64_TYPE__ long long int\000"
 2926      5436345F 
 2926      54595045 
 2926      5F5F206C 
 2926      6F6E6720 
 2927              	.LASF125:
 2928 1169 5F5F464C 		.ascii	"__FLT_MAX_10_EXP__ 38\000"
 2928      545F4D41 
 2928      585F3130 
 2928      5F455850 
 2928      5F5F2033 
 2929              	.LASF379:
 2930 117f 494E545F 		.ascii	"INT_LEAST8_MIN (-__INT_LEAST8_MAX__ - 1)\000"
 2930      4C454153 
 2930      54385F4D 
 2930      494E2028 
 2930      2D5F5F49 
 2931              	.LASF256:
 2932 11a8 5F5F4C4C 		.ascii	"__LLACCUM_MAX__ 0X7FFFFFFFFFFFFFFFP-31LLK\000"
 2932      41434355 
 2932      4D5F4D41 
 2932      585F5F20 
 2932      30583746 
 2933              	.LASF257:
 2934 11d2 5F5F4C4C 		.ascii	"__LLACCUM_EPSILON__ 0x1P-31LLK\000"
 2934      41434355 
 2934      4D5F4550 
 2934      53494C4F 
 2934      4E5F5F20 
 2935              	.LASF377:
 2936 11f1 494E5438 		.ascii	"INT8_MAX __INT8_MAX__\000"
 2936      5F4D4158 
 2936      205F5F49 
 2936      4E54385F 
 2936      4D41585F 
 2937              	.LASF210:
 2938 1207 5F5F554C 		.ascii	"__ULFRACT_MIN__ 0.0ULR\000"
 2938      46524143 
 2938      545F4D49 
 2938      4E5F5F20 
 2938      302E3055 
 2939              	.LASF120:
 2940 121e 5F5F464C 		.ascii	"__FLT_MANT_DIG__ 24\000"
 2940      545F4D41 
 2940      4E545F44 
 2940      49475F5F 
 2940      20323400 
 2941              	.LASF278:
 2942 1232 5F5F5553 		.ascii	"__USQ_IBIT__ 0\000"
 2942      515F4942 
 2942      49545F5F 
 2942      203000
 2943              	.LASF400:
 2944 1241 494E545F 		.ascii	"INT_FAST8_MIN (-__INT_FAST8_MAX__ - 1)\000"
ARM GAS  /var/folders/f9/8bk2lnw15zn4cbgn6wrnb4lm0000gn/T//cc5RSyFq.s 			page 66


 2944      46415354 
 2944      385F4D49 
 2944      4E20282D 
 2944      5F5F494E 
 2945              	.LASF147:
 2946 1268 5F5F4442 		.ascii	"__DBL_HAS_QUIET_NAN__ 1\000"
 2946      4C5F4841 
 2946      535F5155 
 2946      4945545F 
 2946      4E414E5F 
 2947              	.LASF239:
 2948 1280 5F5F5541 		.ascii	"__UACCUM_IBIT__ 16\000"
 2948      4343554D 
 2948      5F494249 
 2948      545F5F20 
 2948      313600
 2949              	.LASF118:
 2950 1293 5F5F4445 		.ascii	"__DEC_EVAL_METHOD__ 2\000"
 2950      435F4556 
 2950      414C5F4D 
 2950      4554484F 
 2950      445F5F20 
 2951              	.LASF137:
 2952 12a9 5F5F4442 		.ascii	"__DBL_MIN_10_EXP__ (-307)\000"
 2952      4C5F4D49 
 2952      4E5F3130 
 2952      5F455850 
 2952      5F5F2028 
 2953              	.LASF229:
 2954 12c3 5F5F5553 		.ascii	"__USACCUM_IBIT__ 8\000"
 2954      41434355 
 2954      4D5F4942 
 2954      49545F5F 
 2954      203800
 2955              	.LASF89:
 2956 12d6 5F5F5549 		.ascii	"__UINT32_MAX__ 4294967295UL\000"
 2956      4E543332 
 2956      5F4D4158 
 2956      5F5F2034 
 2956      32393439 
 2957              	.LASF199:
 2958 12f2 5F5F5546 		.ascii	"__UFRACT_IBIT__ 0\000"
 2958      52414354 
 2958      5F494249 
 2958      545F5F20 
 2958      3000
 2959              	.LASF333:
 2960 1304 5F5F5448 		.ascii	"__THUMB_INTERWORK__ 1\000"
 2960      554D425F 
 2960      494E5445 
 2960      52574F52 
 2960      4B5F5F20 
 2961              	.LASF193:
 2962 131a 5F5F4652 		.ascii	"__FRACT_FBIT__ 15\000"
 2962      4143545F 
 2962      46424954 
 2962      5F5F2031 
ARM GAS  /var/folders/f9/8bk2lnw15zn4cbgn6wrnb4lm0000gn/T//cc5RSyFq.s 			page 67


 2962      3500
 2963              	.LASF16:
 2964 132c 5F5F5349 		.ascii	"__SIZEOF_LONG_LONG__ 8\000"
 2964      5A454F46 
 2964      5F4C4F4E 
 2964      475F4C4F 
 2964      4E475F5F 
 2965              	.LASF356:
 2966 1343 5F5F5F69 		.ascii	"___int_least64_t_defined 1\000"
 2966      6E745F6C 
 2966      65617374 
 2966      36345F74 
 2966      5F646566 
 2967              	.LASF117:
 2968 135e 5F5F464C 		.ascii	"__FLT_EVAL_METHOD__ 0\000"
 2968      545F4556 
 2968      414C5F4D 
 2968      4554484F 
 2968      445F5F20 
 2969              	.LASF442:
 2970 1374 5F424954 		.ascii	"_BIT\000"
 2970      00
 2971              	.LASF59:
 2972 1379 5F5F5549 		.ascii	"__UINT_FAST8_TYPE__ unsigned int\000"
 2972      4E545F46 
 2972      41535438 
 2972      5F545950 
 2972      455F5F20 
 2973              	.LASF233:
 2974 139a 5F5F4143 		.ascii	"__ACCUM_FBIT__ 15\000"
 2974      43554D5F 
 2974      46424954 
 2974      5F5F2031 
 2974      3500
 2975              	.LASF307:
 2976 13ac 5F5F4743 		.ascii	"__GCC_ATOMIC_WCHAR_T_LOCK_FREE 1\000"
 2976      435F4154 
 2976      4F4D4943 
 2976      5F574348 
 2976      41525F54 
 2977              	.LASF170:
 2978 13cd 5F5F4445 		.ascii	"__DEC64_MIN_EXP__ (-382)\000"
 2978      4336345F 
 2978      4D494E5F 
 2978      4558505F 
 2978      5F20282D 
 2979              	.LASF249:
 2980 13e6 5F5F554C 		.ascii	"__ULACCUM_IBIT__ 32\000"
 2980      41434355 
 2980      4D5F4942 
 2980      49545F5F 
 2980      20333200 
 2981              	.LASF213:
 2982 13fa 5F5F4C4C 		.ascii	"__LLFRACT_FBIT__ 63\000"
 2982      46524143 
 2982      545F4642 
 2982      49545F5F 
ARM GAS  /var/folders/f9/8bk2lnw15zn4cbgn6wrnb4lm0000gn/T//cc5RSyFq.s 			page 68


 2982      20363300 
 2983              	.LASF293:
 2984 140e 5F5F5553 		.ascii	"__USA_FBIT__ 16\000"
 2984      415F4642 
 2984      49545F5F 
 2984      20313600 
 2985              	.LASF391:
 2986 141e 494E545F 		.ascii	"INT_LEAST32_MIN (-__INT_LEAST32_MAX__ - 1)\000"
 2986      4C454153 
 2986      5433325F 
 2986      4D494E20 
 2986      282D5F5F 
 2987              	.LASF380:
 2988 1449 494E545F 		.ascii	"INT_LEAST8_MAX __INT_LEAST8_MAX__\000"
 2988      4C454153 
 2988      54385F4D 
 2988      4158205F 
 2988      5F494E54 
 2989              	.LASF354:
 2990 146b 5F5F5F69 		.ascii	"___int_least16_t_defined 1\000"
 2990      6E745F6C 
 2990      65617374 
 2990      31365F74 
 2990      5F646566 
 2991              	.LASF95:
 2992 1486 5F5F494E 		.ascii	"__INT_LEAST32_MAX__ 2147483647L\000"
 2992      545F4C45 
 2992      41535433 
 2992      325F4D41 
 2992      585F5F20 
 2993              	.LASF476:
 2994 14a6 71756F74 		.ascii	"quot\000"
 2994      00
 2995              	.LASF203:
 2996 14ab 5F5F4C46 		.ascii	"__LFRACT_FBIT__ 31\000"
 2996      52414354 
 2996      5F464249 
 2996      545F5F20 
 2996      333100
 2997              	.LASF48:
 2998 14be 5F5F494E 		.ascii	"__INT_LEAST16_TYPE__ short int\000"
 2998      545F4C45 
 2998      41535431 
 2998      365F5459 
 2998      50455F5F 
 2999              	.LASF481:
 3000 14dd 5F5F7265 		.ascii	"__reverse\000"
 3000      76657273 
 3000      6500
 3001              	.LASF135:
 3002 14e7 5F5F4442 		.ascii	"__DBL_DIG__ 15\000"
 3002      4C5F4449 
 3002      475F5F20 
 3002      313500
 3003              	.LASF355:
 3004 14f6 5F5F5F69 		.ascii	"___int_least32_t_defined 1\000"
 3004      6E745F6C 
ARM GAS  /var/folders/f9/8bk2lnw15zn4cbgn6wrnb4lm0000gn/T//cc5RSyFq.s 			page 69


 3004      65617374 
 3004      33325F74 
 3004      5F646566 
 3005              	.LASF243:
 3006 1511 5F5F4C41 		.ascii	"__LACCUM_FBIT__ 31\000"
 3006      4343554D 
 3006      5F464249 
 3006      545F5F20 
 3006      333100
 3007              	.LASF202:
 3008 1524 5F5F5546 		.ascii	"__UFRACT_EPSILON__ 0x1P-16UR\000"
 3008      52414354 
 3008      5F455053 
 3008      494C4F4E 
 3008      5F5F2030 
 3009              	.LASF128:
 3010 1541 5F5F464C 		.ascii	"__FLT_MIN__ 1.1754943508222875e-38F\000"
 3010      545F4D49 
 3010      4E5F5F20 
 3010      312E3137 
 3010      35343934 
 3011              	.LASF440:
 3012 1565 50415241 		.ascii	"PARAM_SETSTATE(State) ((State == RESET) || (State ="
 3012      4D5F5345 
 3012      54535441 
 3012      54452853 
 3012      74617465 
 3013 1598 3D205345 		.ascii	"= SET))\000"
 3013      54292900 
 3014              	.LASF237:
 3015 15a0 5F5F4143 		.ascii	"__ACCUM_EPSILON__ 0x1P-15K\000"
 3015      43554D5F 
 3015      45505349 
 3015      4C4F4E5F 
 3015      5F203078 
 3016              	.LASF344:
 3017 15bb 5F4D4143 		.ascii	"_MACHINE__DEFAULT_TYPES_H \000"
 3017      48494E45 
 3017      5F5F4445 
 3017      4641554C 
 3017      545F5459 
 3018              	.LASF326:
 3019 15d6 5F5F4152 		.ascii	"__ARM_ARCH_ISA_THUMB 1\000"
 3019      4D5F4152 
 3019      43485F49 
 3019      53415F54 
 3019      48554D42 
 3020              	.LASF408:
 3021 15ed 55494E54 		.ascii	"UINT_FAST32_MAX __UINT_FAST32_MAX__\000"
 3021      5F464153 
 3021      5433325F 
 3021      4D415820 
 3021      5F5F5549 
 3022              	.LASF427:
 3023 1611 55494E54 		.ascii	"UINT16_C(x) __UINT16_C(x)\000"
 3023      31365F43 
 3023      28782920 
ARM GAS  /var/folders/f9/8bk2lnw15zn4cbgn6wrnb4lm0000gn/T//cc5RSyFq.s 			page 70


 3023      5F5F5549 
 3023      4E543136 
 3024              	.LASF281:
 3025 162b 5F5F5554 		.ascii	"__UTQ_FBIT__ 128\000"
 3025      515F4642 
 3025      49545F5F 
 3025      20313238 
 3025      00
 3026              	.LASF84:
 3027 163c 5F5F494E 		.ascii	"__INT16_MAX__ 32767\000"
 3027      5431365F 
 3027      4D41585F 
 3027      5F203332 
 3027      37363700 
 3028              	.LASF462:
 3029 1650 6C6F6E67 		.ascii	"long long int\000"
 3029      206C6F6E 
 3029      6720696E 
 3029      7400
 3030              	.LASF179:
 3031 165e 5F5F4445 		.ascii	"__DEC128_MIN__ 1E-6143DL\000"
 3031      43313238 
 3031      5F4D494E 
 3031      5F5F2031 
 3031      452D3631 
 3032              	.LASF331:
 3033 1677 5F5F4152 		.ascii	"__ARM_FP 12\000"
 3033      4D5F4650 
 3033      20313200 
 3034              	.LASF368:
 3035 1683 5F5F696E 		.ascii	"__int_least64_t_defined 1\000"
 3035      745F6C65 
 3035      61737436 
 3035      345F745F 
 3035      64656669 
 3036              	.LASF303:
 3037 169d 5F5F4743 		.ascii	"__GCC_ATOMIC_BOOL_LOCK_FREE 1\000"
 3037      435F4154 
 3037      4F4D4943 
 3037      5F424F4F 
 3037      4C5F4C4F 
 3038              	.LASF155:
 3039 16bb 5F5F4C44 		.ascii	"__LDBL_MAX__ 1.7976931348623157e+308L\000"
 3039      424C5F4D 
 3039      41585F5F 
 3039      20312E37 
 3039      39373639 
 3040              	.LASF13:
 3041 16e1 5F5F4649 		.ascii	"__FINITE_MATH_ONLY__ 0\000"
 3041      4E495445 
 3041      5F4D4154 
 3041      485F4F4E 
 3041      4C595F5F 
 3042              	.LASF226:
 3043 16f8 5F5F5341 		.ascii	"__SACCUM_MAX__ 0X7FFFP-7HK\000"
 3043      4343554D 
 3043      5F4D4158 
ARM GAS  /var/folders/f9/8bk2lnw15zn4cbgn6wrnb4lm0000gn/T//cc5RSyFq.s 			page 71


 3043      5F5F2030 
 3043      58374646 
 3044              	.LASF322:
 3045 1713 5F5F6172 		.ascii	"__arm__ 1\000"
 3045      6D5F5F20 
 3045      3100
 3046              	.LASF148:
 3047 171d 5F5F4C44 		.ascii	"__LDBL_MANT_DIG__ 53\000"
 3047      424C5F4D 
 3047      414E545F 
 3047      4449475F 
 3047      5F203533 
 3048              	.LASF272:
 3049 1732 5F5F5451 		.ascii	"__TQ_IBIT__ 0\000"
 3049      5F494249 
 3049      545F5F20 
 3049      3000
 3050              	.LASF291:
 3051 1740 5F5F5548 		.ascii	"__UHA_FBIT__ 8\000"
 3051      415F4642 
 3051      49545F5F 
 3051      203800
 3052              	.LASF67:
 3053 174f 5F5F5348 		.ascii	"__SHRT_MAX__ 32767\000"
 3053      52545F4D 
 3053      41585F5F 
 3053      20333237 
 3053      363700
 3054              	.LASF425:
 3055 1762 55494E54 		.ascii	"UINT8_C(x) __UINT8_C(x)\000"
 3055      385F4328 
 3055      7829205F 
 3055      5F55494E 
 3055      54385F43 
 3056              	.LASF103:
 3057 177a 5F5F5549 		.ascii	"__UINT_LEAST32_MAX__ 4294967295UL\000"
 3057      4E545F4C 
 3057      45415354 
 3057      33325F4D 
 3057      41585F5F 
 3058              	.LASF338:
 3059 179c 5F5F454C 		.ascii	"__ELF__ 1\000"
 3059      465F5F20 
 3059      3100
 3060              	.LASF312:
 3061 17a6 5F5F4743 		.ascii	"__GCC_ATOMIC_TEST_AND_SET_TRUEVAL 1\000"
 3061      435F4154 
 3061      4F4D4943 
 3061      5F544553 
 3061      545F414E 
 3062              	.LASF314:
 3063 17ca 5F5F4743 		.ascii	"__GCC_HAVE_DWARF2_CFI_ASM 1\000"
 3063      435F4841 
 3063      56455F44 
 3063      57415246 
 3063      325F4346 
 3064              	.LASF198:
ARM GAS  /var/folders/f9/8bk2lnw15zn4cbgn6wrnb4lm0000gn/T//cc5RSyFq.s 			page 72


 3065 17e6 5F5F5546 		.ascii	"__UFRACT_FBIT__ 16\000"
 3065      52414354 
 3065      5F464249 
 3065      545F5F20 
 3065      313600
 3066              	.LASF168:
 3067 17f9 5F5F4445 		.ascii	"__DEC32_SUBNORMAL_MIN__ 0.000001E-95DF\000"
 3067      4333325F 
 3067      5355424E 
 3067      4F524D41 
 3067      4C5F4D49 
 3068              	.LASF387:
 3069 1820 55494E54 		.ascii	"UINT_LEAST16_MAX __UINT_LEAST16_MAX__\000"
 3069      5F4C4541 
 3069      53543136 
 3069      5F4D4158 
 3069      205F5F55 
 3070              	.LASF8:
 3071 1846 5F5F4154 		.ascii	"__ATOMIC_ACQUIRE 2\000"
 3071      4F4D4943 
 3071      5F414351 
 3071      55495245 
 3071      203200
 3072              	.LASF364:
 3073 1859 5F5F696E 		.ascii	"__int_least16_t_defined 1\000"
 3073      745F6C65 
 3073      61737431 
 3073      365F745F 
 3073      64656669 
 3074              	.LASF483:
 3075 1873 69746F61 		.ascii	"itoa\000"
 3075      00
 3076              	.LASF388:
 3077 1878 494E5433 		.ascii	"INT32_MIN (-__INT32_MAX__ - 1)\000"
 3077      325F4D49 
 3077      4E20282D 
 3077      5F5F494E 
 3077      5433325F 
 3078              	.LASF371:
 3079 1897 5F5F696E 		.ascii	"__int_fast32_t_defined 1\000"
 3079      745F6661 
 3079      73743332 
 3079      5F745F64 
 3079      6566696E 
 3080              	.LASF0:
 3081 18b0 5F5F5354 		.ascii	"__STDC__ 1\000"
 3081      44435F5F 
 3081      203100
 3082              	.LASF15:
 3083 18bb 5F5F5349 		.ascii	"__SIZEOF_LONG__ 4\000"
 3083      5A454F46 
 3083      5F4C4F4E 
 3083      475F5F20 
 3083      3400
 3084              	.LASF138:
 3085 18cd 5F5F4442 		.ascii	"__DBL_MAX_EXP__ 1024\000"
 3085      4C5F4D41 
ARM GAS  /var/folders/f9/8bk2lnw15zn4cbgn6wrnb4lm0000gn/T//cc5RSyFq.s 			page 73


 3085      585F4558 
 3085      505F5F20 
 3085      31303234 
 3086              	.LASF416:
 3087 18e2 5349475F 		.ascii	"SIG_ATOMIC_MIN (-__STDINT_EXP(INT_MAX) - 1)\000"
 3087      41544F4D 
 3087      49435F4D 
 3087      494E2028 
 3087      2D5F5F53 
 3088              	.LASF11:
 3089 190e 5F5F4154 		.ascii	"__ATOMIC_CONSUME 1\000"
 3089      4F4D4943 
 3089      5F434F4E 
 3089      53554D45 
 3089      203100
 3090              	.LASF366:
 3091 1921 5F5F696E 		.ascii	"__int_least32_t_defined 1\000"
 3091      745F6C65 
 3091      61737433 
 3091      325F745F 
 3091      64656669 
 3092              	.LASF375:
 3093 193b 55494E54 		.ascii	"UINTPTR_MAX __UINTPTR_MAX__\000"
 3093      5054525F 
 3093      4D415820 
 3093      5F5F5549 
 3093      4E545054 
 3094              	.LASF403:
 3095 1957 494E545F 		.ascii	"INT_FAST16_MIN (-__INT_FAST16_MAX__ - 1)\000"
 3095      46415354 
 3095      31365F4D 
 3095      494E2028 
 3095      2D5F5F49 
 3096              	.LASF33:
 3097 1980 5F5F5749 		.ascii	"__WINT_TYPE__ unsigned int\000"
 3097      4E545F54 
 3097      5950455F 
 3097      5F20756E 
 3097      7369676E 
 3098              	.LASF115:
 3099 199b 5F5F494E 		.ascii	"__INTPTR_MAX__ 2147483647\000"
 3099      54505452 
 3099      5F4D4158 
 3099      5F5F2032 
 3099      31343734 
 3100              	.LASF448:
 3101 19b5 4E554C4C 		.ascii	"NULL ((void *) 0)\000"
 3101      20282876 
 3101      6F696420 
 3101      2A292030 
 3101      2900
 3102              	.LASF208:
 3103 19c7 5F5F554C 		.ascii	"__ULFRACT_FBIT__ 32\000"
 3103      46524143 
 3103      545F4642 
 3103      49545F5F 
 3103      20333200 
ARM GAS  /var/folders/f9/8bk2lnw15zn4cbgn6wrnb4lm0000gn/T//cc5RSyFq.s 			page 74


 3104              	.LASF32:
 3105 19db 5F5F5743 		.ascii	"__WCHAR_TYPE__ unsigned int\000"
 3105      4841525F 
 3105      54595045 
 3105      5F5F2075 
 3105      6E736967 
 3106              	.LASF453:
 3107 19f7 4D415828 		.ascii	"MAX(a,b) (((a) > (b)) ? (a) : (b))\000"
 3107      612C6229 
 3107      20282828 
 3107      6129203E 
 3107      20286229 
 3108              	.LASF235:
 3109 1a1a 5F5F4143 		.ascii	"__ACCUM_MIN__ (-0X1P15K-0X1P15K)\000"
 3109      43554D5F 
 3109      4D494E5F 
 3109      5F20282D 
 3109      30583150 
 3110              	.LASF19:
 3111 1a3b 5F5F5349 		.ascii	"__SIZEOF_DOUBLE__ 8\000"
 3111      5A454F46 
 3111      5F444F55 
 3111      424C455F 
 3111      5F203800 
 3112              	.LASF399:
 3113 1a4f 55494E54 		.ascii	"UINT_LEAST64_MAX __UINT_LEAST64_MAX__\000"
 3113      5F4C4541 
 3113      53543634 
 3113      5F4D4158 
 3113      205F5F55 
 3114              	.LASF4:
 3115 1a75 5F5F474E 		.ascii	"__GNUC_PATCHLEVEL__ 4\000"
 3115      55435F50 
 3115      41544348 
 3115      4C455645 
 3115      4C5F5F20 
 3116              	.LASF196:
 3117 1a8b 5F5F4652 		.ascii	"__FRACT_MAX__ 0X7FFFP-15R\000"
 3117      4143545F 
 3117      4D41585F 
 3117      5F203058 
 3117      37464646 
 3118              	.LASF74:
 3119 1aa5 5F5F5749 		.ascii	"__WINT_MIN__ 0U\000"
 3119      4E545F4D 
 3119      494E5F5F 
 3119      20305500 
 3120              	.LASF248:
 3121 1ab5 5F5F554C 		.ascii	"__ULACCUM_FBIT__ 32\000"
 3121      41434355 
 3121      4D5F4642 
 3121      49545F5F 
 3121      20333200 
 3122              	.LASF200:
 3123 1ac9 5F5F5546 		.ascii	"__UFRACT_MIN__ 0.0UR\000"
 3123      52414354 
 3123      5F4D494E 
ARM GAS  /var/folders/f9/8bk2lnw15zn4cbgn6wrnb4lm0000gn/T//cc5RSyFq.s 			page 75


 3123      5F5F2030 
 3123      2E305552 
 3124              	.LASF384:
 3125 1ade 55494E54 		.ascii	"UINT16_MAX __UINT16_MAX__\000"
 3125      31365F4D 
 3125      4158205F 
 3125      5F55494E 
 3125      5431365F 
 3126              	.LASF194:
 3127 1af8 5F5F4652 		.ascii	"__FRACT_IBIT__ 0\000"
 3127      4143545F 
 3127      49424954 
 3127      5F5F2030 
 3127      00
 3128              	.LASF156:
 3129 1b09 5F5F4C44 		.ascii	"__LDBL_MIN__ 2.2250738585072014e-308L\000"
 3129      424C5F4D 
 3129      494E5F5F 
 3129      20322E32 
 3129      32353037 
 3130              	.LASF289:
 3131 1b2f 5F5F5441 		.ascii	"__TA_FBIT__ 63\000"
 3131      5F464249 
 3131      545F5F20 
 3131      363300
 3132              	.LASF160:
 3133 1b3e 5F5F4C44 		.ascii	"__LDBL_HAS_INFINITY__ 1\000"
 3133      424C5F48 
 3133      41535F49 
 3133      4E46494E 
 3133      4954595F 
 3134              	.LASF62:
 3135 1b56 5F5F5549 		.ascii	"__UINT_FAST64_TYPE__ long long unsigned int\000"
 3135      4E545F46 
 3135      41535436 
 3135      345F5459 
 3135      50455F5F 
 3136              	.LASF150:
 3137 1b82 5F5F4C44 		.ascii	"__LDBL_MIN_EXP__ (-1021)\000"
 3137      424C5F4D 
 3137      494E5F45 
 3137      58505F5F 
 3137      20282D31 
 3138              	.LASF218:
 3139 1b9b 5F5F554C 		.ascii	"__ULLFRACT_FBIT__ 64\000"
 3139      4C465241 
 3139      43545F46 
 3139      4249545F 
 3139      5F203634 
 3140              	.LASF316:
 3141 1bb0 5F5F5349 		.ascii	"__SIZEOF_WCHAR_T__ 4\000"
 3141      5A454F46 
 3141      5F574348 
 3141      41525F54 
 3141      5F5F2034 
 3142              	.LASF468:
 3143 1bc5 5F426F6F 		.ascii	"_Bool\000"
ARM GAS  /var/folders/f9/8bk2lnw15zn4cbgn6wrnb4lm0000gn/T//cc5RSyFq.s 			page 76


 3143      6C00
 3144              	.LASF407:
 3145 1bcb 494E545F 		.ascii	"INT_FAST32_MAX __INT_FAST32_MAX__\000"
 3145      46415354 
 3145      33325F4D 
 3145      4158205F 
 3145      5F494E54 
 3146              	.LASF28:
 3147 1bed 5F5F464C 		.ascii	"__FLOAT_WORD_ORDER__ __ORDER_LITTLE_ENDIAN__\000"
 3147      4F41545F 
 3147      574F5244 
 3147      5F4F5244 
 3147      45525F5F 
 3148              	.LASF236:
 3149 1c1a 5F5F4143 		.ascii	"__ACCUM_MAX__ 0X7FFFFFFFP-15K\000"
 3149      43554D5F 
 3149      4D41585F 
 3149      5F203058 
 3149      37464646 
 3150              	.LASF162:
 3151 1c38 5F5F4445 		.ascii	"__DEC32_MANT_DIG__ 7\000"
 3151      4333325F 
 3151      4D414E54 
 3151      5F444947 
 3151      5F5F2037 
 3152              	.LASF82:
 3153 1c4d 5F5F5349 		.ascii	"__SIG_ATOMIC_MIN__ (-__SIG_ATOMIC_MAX__ - 1)\000"
 3153      475F4154 
 3153      4F4D4943 
 3153      5F4D494E 
 3153      5F5F2028 
 3154              	.LASF217:
 3155 1c7a 5F5F4C4C 		.ascii	"__LLFRACT_EPSILON__ 0x1P-63LLR\000"
 3155      46524143 
 3155      545F4550 
 3155      53494C4F 
 3155      4E5F5F20 
 3156              	.LASF153:
 3157 1c99 5F5F4C44 		.ascii	"__LDBL_MAX_10_EXP__ 308\000"
 3157      424C5F4D 
 3157      41585F31 
 3157      305F4558 
 3157      505F5F20 
 3158              	.LASF183:
 3159 1cb1 5F5F5346 		.ascii	"__SFRACT_FBIT__ 7\000"
 3159      52414354 
 3159      5F464249 
 3159      545F5F20 
 3159      3700
 3160              	.LASF37:
 3161 1cc3 5F5F4348 		.ascii	"__CHAR32_TYPE__ long unsigned int\000"
 3161      41523332 
 3161      5F545950 
 3161      455F5F20 
 3161      6C6F6E67 
 3162              	.LASF335:
 3163 1ce5 5F5F4152 		.ascii	"__ARM_PCS 1\000"
ARM GAS  /var/folders/f9/8bk2lnw15zn4cbgn6wrnb4lm0000gn/T//cc5RSyFq.s 			page 77


 3163      4D5F5043 
 3163      53203100 
 3164              	.LASF50:
 3165 1cf1 5F5F494E 		.ascii	"__INT_LEAST64_TYPE__ long long int\000"
 3165      545F4C45 
 3165      41535436 
 3165      345F5459 
 3165      50455F5F 
 3166              	.LASF370:
 3167 1d14 5F5F696E 		.ascii	"__int_fast16_t_defined 1\000"
 3167      745F6661 
 3167      73743136 
 3167      5F745F64 
 3167      6566696E 
 3168              	.LASF381:
 3169 1d2d 55494E54 		.ascii	"UINT_LEAST8_MAX __UINT_LEAST8_MAX__\000"
 3169      5F4C4541 
 3169      5354385F 
 3169      4D415820 
 3169      5F5F5549 
 3170              	.LASF53:
 3171 1d51 5F5F5549 		.ascii	"__UINT_LEAST32_TYPE__ long unsigned int\000"
 3171      4E545F4C 
 3171      45415354 
 3171      33325F54 
 3171      5950455F 
 3172              	.LASF269:
 3173 1d79 5F5F4451 		.ascii	"__DQ_FBIT__ 63\000"
 3173      5F464249 
 3173      545F5F20 
 3173      363300
 3174              	.LASF231:
 3175 1d88 5F5F5553 		.ascii	"__USACCUM_MAX__ 0XFFFFP-8UHK\000"
 3175      41434355 
 3175      4D5F4D41 
 3175      585F5F20 
 3175      30584646 
 3176              	.LASF410:
 3177 1da5 494E545F 		.ascii	"INT_FAST64_MAX __INT_FAST64_MAX__\000"
 3177      46415354 
 3177      36345F4D 
 3177      4158205F 
 3177      5F494E54 
 3178              	.LASF252:
 3179 1dc7 5F5F554C 		.ascii	"__ULACCUM_EPSILON__ 0x1P-32ULK\000"
 3179      41434355 
 3179      4D5F4550 
 3179      53494C4F 
 3179      4E5F5F20 
 3180              	.LASF87:
 3181 1de6 5F5F5549 		.ascii	"__UINT8_MAX__ 255\000"
 3181      4E54385F 
 3181      4D41585F 
 3181      5F203235 
 3181      3500
 3182              	.LASF347:
 3183 1df8 5F5F474E 		.ascii	"__GNUC_PREREQ__(ma,mi) __GNUC_PREREQ(ma, mi)\000"
ARM GAS  /var/folders/f9/8bk2lnw15zn4cbgn6wrnb4lm0000gn/T//cc5RSyFq.s 			page 78


 3183      55435F50 
 3183      52455245 
 3183      515F5F28 
 3183      6D612C6D 
 3184              	.LASF246:
 3185 1e25 5F5F4C41 		.ascii	"__LACCUM_MAX__ 0X7FFFFFFFFFFFFFFFP-31LK\000"
 3185      4343554D 
 3185      5F4D4158 
 3185      5F5F2030 
 3185      58374646 
 3186              	.LASF26:
 3187 1e4d 5F5F4F52 		.ascii	"__ORDER_PDP_ENDIAN__ 3412\000"
 3187      4445525F 
 3187      5044505F 
 3187      454E4449 
 3187      414E5F5F 
 3188              	.LASF52:
 3189 1e67 5F5F5549 		.ascii	"__UINT_LEAST16_TYPE__ short unsigned int\000"
 3189      4E545F4C 
 3189      45415354 
 3189      31365F54 
 3189      5950455F 
 3190              	.LASF467:
 3191 1e90 63686172 		.ascii	"char\000"
 3191      00
 3192              	.LASF126:
 3193 1e95 5F5F464C 		.ascii	"__FLT_DECIMAL_DIG__ 9\000"
 3193      545F4445 
 3193      43494D41 
 3193      4C5F4449 
 3193      475F5F20 
 3194              	.LASF449:
 3195 1eab 4E454C45 		.ascii	"NELEMENTS(array) (sizeof(array) / sizeof(array[0]))"
 3195      4D454E54 
 3195      53286172 
 3195      72617929 
 3195      20287369 
 3196 1ede 00       		.ascii	"\000"
 3197              	.LASF395:
 3198 1edf 494E5436 		.ascii	"INT64_MAX __INT64_MAX__\000"
 3198      345F4D41 
 3198      58205F5F 
 3198      494E5436 
 3198      345F4D41 
 3199              	.LASF181:
 3200 1ef7 5F5F4445 		.ascii	"__DEC128_EPSILON__ 1E-33DL\000"
 3200      43313238 
 3200      5F455053 
 3200      494C4F4E 
 3200      5F5F2031 
 3201              	.LASF73:
 3202 1f12 5F5F5749 		.ascii	"__WINT_MAX__ 4294967295U\000"
 3202      4E545F4D 
 3202      41585F5F 
 3202      20343239 
 3202      34393637 
 3203              	.LASF273:
ARM GAS  /var/folders/f9/8bk2lnw15zn4cbgn6wrnb4lm0000gn/T//cc5RSyFq.s 			page 79


 3204 1f2b 5F5F5551 		.ascii	"__UQQ_FBIT__ 8\000"
 3204      515F4642 
 3204      49545F5F 
 3204      203800
 3205              	.LASF182:
 3206 1f3a 5F5F4445 		.ascii	"__DEC128_SUBNORMAL_MIN__ 0.000000000000000000000000"
 3206      43313238 
 3206      5F535542 
 3206      4E4F524D 
 3206      414C5F4D 
 3207 1f6d 30303030 		.ascii	"000000001E-6143DL\000"
 3207      30303030 
 3207      31452D36 
 3207      31343344 
 3207      4C00
 3208              	.LASF66:
 3209 1f7f 5F5F5343 		.ascii	"__SCHAR_MAX__ 127\000"
 3209      4841525F 
 3209      4D41585F 
 3209      5F203132 
 3209      3700
 3210              	.LASF363:
 3211 1f91 5F5F696E 		.ascii	"__int16_t_defined 1\000"
 3211      7431365F 
 3211      745F6465 
 3211      66696E65 
 3211      64203100 
 3212              	.LASF113:
 3213 1fa5 5F5F5549 		.ascii	"__UINT_FAST32_MAX__ 4294967295U\000"
 3213      4E545F46 
 3213      41535433 
 3213      325F4D41 
 3213      585F5F20 
 3214              	.LASF458:
 3215 1fc5 73686F72 		.ascii	"short int\000"
 3215      7420696E 
 3215      7400
 3216              	.LASF241:
 3217 1fcf 5F5F5541 		.ascii	"__UACCUM_MAX__ 0XFFFFFFFFP-16UK\000"
 3217      4343554D 
 3217      5F4D4158 
 3217      5F5F2030 
 3217      58464646 
 3218              	.LASF171:
 3219 1fef 5F5F4445 		.ascii	"__DEC64_MAX_EXP__ 385\000"
 3219      4336345F 
 3219      4D41585F 
 3219      4558505F 
 3219      5F203338 
 3220              	.LASF275:
 3221 2005 5F5F5548 		.ascii	"__UHQ_FBIT__ 16\000"
 3221      515F4642 
 3221      49545F5F 
 3221      20313600 
 3222              	.LASF41:
 3223 2015 5F5F494E 		.ascii	"__INT32_TYPE__ long int\000"
 3223      5433325F 
ARM GAS  /var/folders/f9/8bk2lnw15zn4cbgn6wrnb4lm0000gn/T//cc5RSyFq.s 			page 80


 3223      54595045 
 3223      5F5F206C 
 3223      6F6E6720 
 3224              	.LASF412:
 3225 202d 494E544D 		.ascii	"INTMAX_MAX __INTMAX_MAX__\000"
 3225      41585F4D 
 3225      4158205F 
 3225      5F494E54 
 3225      4D41585F 
 3226              	.LASF460:
 3227 2047 6C6F6E67 		.ascii	"long int\000"
 3227      20696E74 
 3227      00
 3228              	.LASF365:
 3229 2050 5F5F696E 		.ascii	"__int32_t_defined 1\000"
 3229      7433325F 
 3229      745F6465 
 3229      66696E65 
 3229      64203100 
 3230              	.LASF152:
 3231 2064 5F5F4C44 		.ascii	"__LDBL_MAX_EXP__ 1024\000"
 3231      424C5F4D 
 3231      41585F45 
 3231      58505F5F 
 3231      20313032 
 3232              	.LASF267:
 3233 207a 5F5F5351 		.ascii	"__SQ_FBIT__ 31\000"
 3233      5F464249 
 3233      545F5F20 
 3233      333100
 3234              	.LASF348:
 3235 2089 5F5F4558 		.ascii	"__EXP(x) __ ##x ##__\000"
 3235      50287829 
 3235      205F5F20 
 3235      23237820 
 3235      23235F5F 
 3236              	.LASF205:
 3237 209e 5F5F4C46 		.ascii	"__LFRACT_MIN__ (-0.5LR-0.5LR)\000"
 3237      52414354 
 3237      5F4D494E 
 3237      5F5F2028 
 3237      2D302E35 
 3238              	.LASF301:
 3239 20bc 5F5F474E 		.ascii	"__GNUC_GNU_INLINE__ 1\000"
 3239      55435F47 
 3239      4E555F49 
 3239      4E4C494E 
 3239      455F5F20 
 3240              	.LASF178:
 3241 20d2 5F5F4445 		.ascii	"__DEC128_MAX_EXP__ 6145\000"
 3241      43313238 
 3241      5F4D4158 
 3241      5F455850 
 3241      5F5F2036 
 3242              	.LASF167:
 3243 20ea 5F5F4445 		.ascii	"__DEC32_EPSILON__ 1E-6DF\000"
 3243      4333325F 
ARM GAS  /var/folders/f9/8bk2lnw15zn4cbgn6wrnb4lm0000gn/T//cc5RSyFq.s 			page 81


 3243      45505349 
 3243      4C4F4E5F 
 3243      5F203145 
 3244              	.LASF398:
 3245 2103 494E545F 		.ascii	"INT_LEAST64_MAX __INT_LEAST64_MAX__\000"
 3245      4C454153 
 3245      5436345F 
 3245      4D415820 
 3245      5F5F494E 
 3246              	.LASF474:
 3247 2127 62756666 		.ascii	"buffer_copy\000"
 3247      65725F63 
 3247      6F707900 
 3248              	.LASF418:
 3249 2133 50545244 		.ascii	"PTRDIFF_MAX __PTRDIFF_MAX__\000"
 3249      4946465F 
 3249      4D415820 
 3249      5F5F5054 
 3249      52444946 
 3250              	.LASF325:
 3251 214f 5F5F7468 		.ascii	"__thumb__ 1\000"
 3251      756D625F 
 3251      5F203100 
 3252              	.LASF161:
 3253 215b 5F5F4C44 		.ascii	"__LDBL_HAS_QUIET_NAN__ 1\000"
 3253      424C5F48 
 3253      41535F51 
 3253      55494554 
 3253      5F4E414E 
 3254              	.LASF39:
 3255 2174 5F5F494E 		.ascii	"__INT8_TYPE__ signed char\000"
 3255      54385F54 
 3255      5950455F 
 3255      5F207369 
 3255      676E6564 
 3256              	.LASF300:
 3257 218e 5F5F5553 		.ascii	"__USER_LABEL_PREFIX__ \000"
 3257      45525F4C 
 3257      4142454C 
 3257      5F505245 
 3257      4649585F 
 3258              	.LASF320:
 3259 21a5 5F5F4152 		.ascii	"__ARM_SIZEOF_WCHAR_T 32\000"
 3259      4D5F5349 
 3259      5A454F46 
 3259      5F574348 
 3259      41525F54 
 3260              	.LASF271:
 3261 21bd 5F5F5451 		.ascii	"__TQ_FBIT__ 127\000"
 3261      5F464249 
 3261      545F5F20 
 3261      31323700 
 3262              	.LASF192:
 3263 21cd 5F5F5553 		.ascii	"__USFRACT_EPSILON__ 0x1P-8UHR\000"
 3263      46524143 
 3263      545F4550 
 3263      53494C4F 
ARM GAS  /var/folders/f9/8bk2lnw15zn4cbgn6wrnb4lm0000gn/T//cc5RSyFq.s 			page 82


 3263      4E5F5F20 
 3264              	.LASF114:
 3265 21eb 5F5F5549 		.ascii	"__UINT_FAST64_MAX__ 18446744073709551615ULL\000"
 3265      4E545F46 
 3265      41535436 
 3265      345F4D41 
 3265      585F5F20 
 3266              	.LASF332:
 3267 2217 5F5F4152 		.ascii	"__ARM_NEON_FP 4\000"
 3267      4D5F4E45 
 3267      4F4E5F46 
 3267      50203400 
 3268              	.LASF441:
 3269 2227 50415241 		.ascii	"PARAM_FUNCTIONALSTATE(State) ((State == DISABLE) ||"
 3269      4D5F4655 
 3269      4E435449 
 3269      4F4E414C 
 3269      53544154 
 3270 225a 20285374 		.ascii	" (State == ENABLE))\000"
 3270      61746520 
 3270      3D3D2045 
 3270      4E41424C 
 3270      45292900 
 3271              	.LASF259:
 3272 226e 5F5F554C 		.ascii	"__ULLACCUM_IBIT__ 32\000"
 3272      4C414343 
 3272      554D5F49 
 3272      4249545F 
 3272      5F203332 
 3273              	.LASF86:
 3274 2283 5F5F494E 		.ascii	"__INT64_MAX__ 9223372036854775807LL\000"
 3274      5436345F 
 3274      4D41585F 
 3274      5F203932 
 3274      32333337 
 3275              	.LASF188:
 3276 22a7 5F5F5553 		.ascii	"__USFRACT_FBIT__ 8\000"
 3276      46524143 
 3276      545F4642 
 3276      49545F5F 
 3276      203800
 3277              	.LASF279:
 3278 22ba 5F5F5544 		.ascii	"__UDQ_FBIT__ 64\000"
 3278      515F4642 
 3278      49545F5F 
 3278      20363400 
 3279              	.LASF265:
 3280 22ca 5F5F4851 		.ascii	"__HQ_FBIT__ 15\000"
 3280      5F464249 
 3280      545F5F20 
 3280      313500
 3281              	.LASF112:
 3282 22d9 5F5F5549 		.ascii	"__UINT_FAST16_MAX__ 4294967295U\000"
 3282      4E545F46 
 3282      41535431 
 3282      365F4D41 
 3282      585F5F20 
ARM GAS  /var/folders/f9/8bk2lnw15zn4cbgn6wrnb4lm0000gn/T//cc5RSyFq.s 			page 83


 3283              	.LASF292:
 3284 22f9 5F5F5548 		.ascii	"__UHA_IBIT__ 8\000"
 3284      415F4942 
 3284      49545F5F 
 3284      203800
 3285              	.LASF184:
 3286 2308 5F5F5346 		.ascii	"__SFRACT_IBIT__ 0\000"
 3286      52414354 
 3286      5F494249 
 3286      545F5F20 
 3286      3000
 3287              	.LASF478:
 3288 231a 474E5520 		.ascii	"GNU C 4.8.4 20140725 (release) [ARM/embedded-4_8-br"
 3288      4320342E 
 3288      382E3420 
 3288      32303134 
 3288      30373235 
 3289 234d 616E6368 		.ascii	"anch revision 213147] -mcpu=cortex-m0 -mthumb -g -g"
 3289      20726576 
 3289      6973696F 
 3289      6E203231 
 3289      33313437 
 3290 2380 67646233 		.ascii	"gdb3 -O2 -std=gnu90 -ffunction-sections -fdata-sect"
 3290      202D4F32 
 3290      202D7374 
 3290      643D676E 
 3290      75393020 
 3291 23b3 696F6E73 		.ascii	"ions\000"
 3291      00
 3292              	.LASF274:
 3293 23b8 5F5F5551 		.ascii	"__UQQ_IBIT__ 0\000"
 3293      515F4942 
 3293      49545F5F 
 3293      203000
 3294              	.LASF43:
 3295 23c7 5F5F5549 		.ascii	"__UINT8_TYPE__ unsigned char\000"
 3295      4E54385F 
 3295      54595045 
 3295      5F5F2075 
 3295      6E736967 
 3296              	.LASF389:
 3297 23e4 494E5433 		.ascii	"INT32_MAX __INT32_MAX__\000"
 3297      325F4D41 
 3297      58205F5F 
 3297      494E5433 
 3297      325F4D41 
 3298              	.LASF98:
 3299 23fc 5F5F494E 		.ascii	"__INT64_C(c) c ## LL\000"
 3299      5436345F 
 3299      43286329 
 3299      20632023 
 3299      23204C4C 
 3300              	.LASF129:
 3301 2411 5F5F464C 		.ascii	"__FLT_EPSILON__ 1.1920928955078125e-7F\000"
 3301      545F4550 
 3301      53494C4F 
 3301      4E5F5F20 
ARM GAS  /var/folders/f9/8bk2lnw15zn4cbgn6wrnb4lm0000gn/T//cc5RSyFq.s 			page 84


 3301      312E3139 
 3302              	.LASF101:
 3303 2438 5F5F5549 		.ascii	"__UINT_LEAST16_MAX__ 65535\000"
 3303      4E545F4C 
 3303      45415354 
 3303      31365F4D 
 3303      41585F5F 
 3304              	.LASF433:
 3305 2453 55494E54 		.ascii	"UINTMAX_C(x) __UINTMAX_C(x)\000"
 3305      4D41585F 
 3305      43287829 
 3305      205F5F55 
 3305      494E544D 
 3306              	.LASF45:
 3307 246f 5F5F5549 		.ascii	"__UINT32_TYPE__ long unsigned int\000"
 3307      4E543332 
 3307      5F545950 
 3307      455F5F20 
 3307      6C6F6E67 
 3308              	.LASF151:
 3309 2491 5F5F4C44 		.ascii	"__LDBL_MIN_10_EXP__ (-307)\000"
 3309      424C5F4D 
 3309      494E5F31 
 3309      305F4558 
 3309      505F5F20 
 3310              	.LASF29:
 3311 24ac 5F5F5349 		.ascii	"__SIZEOF_POINTER__ 4\000"
 3311      5A454F46 
 3311      5F504F49 
 3311      4E544552 
 3311      5F5F2034 
 3312              	.LASF330:
 3313 24c1 5F5F5646 		.ascii	"__VFP_FP__ 1\000"
 3313      505F4650 
 3313      5F5F2031 
 3313      00
 3314              	.LASF211:
 3315 24ce 5F5F554C 		.ascii	"__ULFRACT_MAX__ 0XFFFFFFFFP-32ULR\000"
 3315      46524143 
 3315      545F4D41 
 3315      585F5F20 
 3315      30584646 
 3316              	.LASF342:
 3317 24f0 5F5F4C50 		.ascii	"__LPC_TYPES_H_ \000"
 3317      435F5459 
 3317      5045535F 
 3317      485F2000 
 3318              	.LASF225:
 3319 2500 5F5F5341 		.ascii	"__SACCUM_MIN__ (-0X1P7HK-0X1P7HK)\000"
 3319      4343554D 
 3319      5F4D494E 
 3319      5F5F2028 
 3319      2D305831 
 3320              	.LASF81:
 3321 2522 5F5F5349 		.ascii	"__SIG_ATOMIC_MAX__ 2147483647\000"
 3321      475F4154 
 3321      4F4D4943 
ARM GAS  /var/folders/f9/8bk2lnw15zn4cbgn6wrnb4lm0000gn/T//cc5RSyFq.s 			page 85


 3321      5F4D4158 
 3321      5F5F2032 
 3322              	.LASF313:
 3323 2540 5F5F4743 		.ascii	"__GCC_ATOMIC_POINTER_LOCK_FREE 1\000"
 3323      435F4154 
 3323      4F4D4943 
 3323      5F504F49 
 3323      4E544552 
 3324              	.LASF106:
 3325 2561 5F5F5549 		.ascii	"__UINT64_C(c) c ## ULL\000"
 3325      4E543634 
 3325      5F432863 
 3325      29206320 
 3325      23232055 
 3326              	.LASF247:
 3327 2578 5F5F4C41 		.ascii	"__LACCUM_EPSILON__ 0x1P-31LK\000"
 3327      4343554D 
 3327      5F455053 
 3327      494C4F4E 
 3327      5F5F2030 
 3328              	.LASF187:
 3329 2595 5F5F5346 		.ascii	"__SFRACT_EPSILON__ 0x1P-7HR\000"
 3329      52414354 
 3329      5F455053 
 3329      494C4F4E 
 3329      5F5F2030 
 3330              	.LASF477:
 3331 25b1 73697A65 		.ascii	"sizetype\000"
 3331      74797065 
 3331      00
 3332              	.LASF277:
 3333 25ba 5F5F5553 		.ascii	"__USQ_FBIT__ 32\000"
 3333      515F4642 
 3333      49545F5F 
 3333      20333200 
 3334              	.LASF284:
 3335 25ca 5F5F4841 		.ascii	"__HA_IBIT__ 8\000"
 3335      5F494249 
 3335      545F5F20 
 3335      3800
 3336              	.LASF461:
 3337 25d8 6C6F6E67 		.ascii	"long unsigned int\000"
 3337      20756E73 
 3337      69676E65 
 3337      6420696E 
 3337      7400
 3338              	.LASF336:
 3339 25ea 5F5F4152 		.ascii	"__ARM_EABI__ 1\000"
 3339      4D5F4541 
 3339      42495F5F 
 3339      203100
 3340              	.LASF306:
 3341 25f9 5F5F4743 		.ascii	"__GCC_ATOMIC_CHAR32_T_LOCK_FREE 1\000"
 3341      435F4154 
 3341      4F4D4943 
 3341      5F434841 
 3341      5233325F 
ARM GAS  /var/folders/f9/8bk2lnw15zn4cbgn6wrnb4lm0000gn/T//cc5RSyFq.s 			page 86


 3342              	.LASF445:
 3343 261b 5F534246 		.ascii	"_SBF(f,v) ((v) << (f))\000"
 3343      28662C76 
 3343      29202828 
 3343      7629203C 
 3343      3C202866 
 3344              	.LASF88:
 3345 2632 5F5F5549 		.ascii	"__UINT16_MAX__ 65535\000"
 3345      4E543136 
 3345      5F4D4158 
 3345      5F5F2036 
 3345      35353335 
 3346              	.LASF22:
 3347 2647 5F5F4348 		.ascii	"__CHAR_BIT__ 8\000"
 3347      41525F42 
 3347      49545F5F 
 3347      203800
 3348              	.LASF21:
 3349 2656 5F5F5349 		.ascii	"__SIZEOF_SIZE_T__ 4\000"
 3349      5A454F46 
 3349      5F53495A 
 3349      455F545F 
 3349      5F203400 
 3350              	.LASF79:
 3351 266a 5F5F5549 		.ascii	"__UINTMAX_MAX__ 18446744073709551615ULL\000"
 3351      4E544D41 
 3351      585F4D41 
 3351      585F5F20 
 3351      31383434 
 3352              	.LASF466:
 3353 2692 696E7433 		.ascii	"int32_t\000"
 3353      325F7400 
 3354              	.LASF1:
 3355 269a 5F5F5354 		.ascii	"__STDC_HOSTED__ 1\000"
 3355      44435F48 
 3355      4F535445 
 3355      445F5F20 
 3355      3100
 3356              	.LASF424:
 3357 26ac 494E5438 		.ascii	"INT8_C(x) __INT8_C(x)\000"
 3357      5F432878 
 3357      29205F5F 
 3357      494E5438 
 3357      5F432878 
 3358              	.LASF77:
 3359 26c2 5F5F494E 		.ascii	"__INTMAX_MAX__ 9223372036854775807LL\000"
 3359      544D4158 
 3359      5F4D4158 
 3359      5F5F2039 
 3359      32323333 
 3360              	.LASF315:
 3361 26e7 5F5F5052 		.ascii	"__PRAGMA_REDEFINE_EXTNAME 1\000"
 3361      41474D41 
 3361      5F524544 
 3361      4546494E 
 3361      455F4558 
 3362              	.LASF329:
ARM GAS  /var/folders/f9/8bk2lnw15zn4cbgn6wrnb4lm0000gn/T//cc5RSyFq.s 			page 87


 3363 2703 5F5F534F 		.ascii	"__SOFTFP__ 1\000"
 3363      46544650 
 3363      5F5F2031 
 3363      00
 3364              	.LASF110:
 3365 2710 5F5F494E 		.ascii	"__INT_FAST64_MAX__ 9223372036854775807LL\000"
 3365      545F4641 
 3365      53543634 
 3365      5F4D4158 
 3365      5F5F2039 
 3366              	.LASF358:
 3367 2739 5F5F5354 		.ascii	"__STDINT_EXP(x) __ ##x ##__\000"
 3367      44494E54 
 3367      5F455850 
 3367      28782920 
 3367      5F5F2023 
 3368              	.LASF450:
 3369 2755 53544154 		.ascii	"STATIC static\000"
 3369      49432073 
 3369      74617469 
 3369      6300
 3370              	.LASF362:
 3371 2763 5F5F696E 		.ascii	"__int_least8_t_defined 1\000"
 3371      745F6C65 
 3371      61737438 
 3371      5F745F64 
 3371      6566696E 
 3372              	.LASF311:
 3373 277c 5F5F4743 		.ascii	"__GCC_ATOMIC_LLONG_LOCK_FREE 1\000"
 3373      435F4154 
 3373      4F4D4943 
 3373      5F4C4C4F 
 3373      4E475F4C 
 3374              	.LASF124:
 3375 279b 5F5F464C 		.ascii	"__FLT_MAX_EXP__ 128\000"
 3375      545F4D41 
 3375      585F4558 
 3375      505F5F20 
 3375      31323800 
 3376              	.LASF447:
 3377 27af 5F424954 		.ascii	"_BITMASK(field_width) ( _BIT(field_width) - 1)\000"
 3377      4D41534B 
 3377      28666965 
 3377      6C645F77 
 3377      69647468 
 3378              	.LASF108:
 3379 27de 5F5F494E 		.ascii	"__INT_FAST16_MAX__ 2147483647\000"
 3379      545F4641 
 3379      53543136 
 3379      5F4D4158 
 3379      5F5F2032 
 3380              	.LASF234:
 3381 27fc 5F5F4143 		.ascii	"__ACCUM_IBIT__ 16\000"
 3381      43554D5F 
 3381      49424954 
 3381      5F5F2031 
 3381      3600
ARM GAS  /var/folders/f9/8bk2lnw15zn4cbgn6wrnb4lm0000gn/T//cc5RSyFq.s 			page 88


 3382              	.LASF457:
 3383 280e 756E7369 		.ascii	"unsigned char\000"
 3383      676E6564 
 3383      20636861 
 3383      7200
 3384              	.LASF163:
 3385 281c 5F5F4445 		.ascii	"__DEC32_MIN_EXP__ (-94)\000"
 3385      4333325F 
 3385      4D494E5F 
 3385      4558505F 
 3385      5F20282D 
 3386              	.LASF35:
 3387 2834 5F5F5549 		.ascii	"__UINTMAX_TYPE__ long long unsigned int\000"
 3387      4E544D41 
 3387      585F5459 
 3387      50455F5F 
 3387      206C6F6E 
 3388              	.LASF402:
 3389 285c 55494E54 		.ascii	"UINT_FAST8_MAX __UINT_FAST8_MAX__\000"
 3389      5F464153 
 3389      54385F4D 
 3389      4158205F 
 3389      5F55494E 
 3390              	.LASF157:
 3391 287e 5F5F4C44 		.ascii	"__LDBL_EPSILON__ 2.2204460492503131e-16L\000"
 3391      424C5F45 
 3391      5053494C 
 3391      4F4E5F5F 
 3391      20322E32 
 3392              	.LASF63:
 3393 28a7 5F5F494E 		.ascii	"__INTPTR_TYPE__ int\000"
 3393      54505452 
 3393      5F545950 
 3393      455F5F20 
 3393      696E7400 
 3394              	.LASF443:
 3395 28bb 5F424954 		.ascii	"_BIT(n) (1 << (n))\000"
 3395      286E2920 
 3395      2831203C 
 3395      3C20286E 
 3395      292900
 3396              	.LASF230:
 3397 28ce 5F5F5553 		.ascii	"__USACCUM_MIN__ 0.0UHK\000"
 3397      41434355 
 3397      4D5F4D49 
 3397      4E5F5F20 
 3397      302E3055 
 3398              	.LASF189:
 3399 28e5 5F5F5553 		.ascii	"__USFRACT_IBIT__ 0\000"
 3399      46524143 
 3399      545F4942 
 3399      49545F5F 
 3399      203000
 3400              	.LASF61:
 3401 28f8 5F5F5549 		.ascii	"__UINT_FAST32_TYPE__ unsigned int\000"
 3401      4E545F46 
 3401      41535433 
ARM GAS  /var/folders/f9/8bk2lnw15zn4cbgn6wrnb4lm0000gn/T//cc5RSyFq.s 			page 89


 3401      325F5459 
 3401      50455F5F 
 3402              	.LASF270:
 3403 291a 5F5F4451 		.ascii	"__DQ_IBIT__ 0\000"
 3403      5F494249 
 3403      545F5F20 
 3403      3000
 3404              	.LASF119:
 3405 2928 5F5F464C 		.ascii	"__FLT_RADIX__ 2\000"
 3405      545F5241 
 3405      4449585F 
 3405      5F203200 
 3406              	.LASF107:
 3407 2938 5F5F494E 		.ascii	"__INT_FAST8_MAX__ 2147483647\000"
 3407      545F4641 
 3407      5354385F 
 3407      4D41585F 
 3407      5F203231 
 3408              	.LASF30:
 3409 2955 5F5F5349 		.ascii	"__SIZE_TYPE__ unsigned int\000"
 3409      5A455F54 
 3409      5950455F 
 3409      5F20756E 
 3409      7369676E 
 3410              	.LASF421:
 3411 2970 57434841 		.ascii	"WCHAR_MIN __WCHAR_MIN__\000"
 3411      525F4D49 
 3411      4E205F5F 
 3411      57434841 
 3411      525F4D49 
 3412              	.LASF258:
 3413 2988 5F5F554C 		.ascii	"__ULLACCUM_FBIT__ 32\000"
 3413      4C414343 
 3413      554D5F46 
 3413      4249545F 
 3413      5F203332 
 3414              	.LASF142:
 3415 299d 5F5F4442 		.ascii	"__DBL_MIN__ ((double)2.2250738585072014e-308L)\000"
 3415      4C5F4D49 
 3415      4E5F5F20 
 3415      2828646F 
 3415      75626C65 
 3416              	.LASF357:
 3417 29cc 5F5F4558 		.ascii	"__EXP\000"
 3417      5000
 3418              	.LASF69:
 3419 29d2 5F5F4C4F 		.ascii	"__LONG_MAX__ 2147483647L\000"
 3419      4E475F4D 
 3419      41585F5F 
 3419      20323134 
 3419      37343833 
 3420              	.LASF308:
 3421 29eb 5F5F4743 		.ascii	"__GCC_ATOMIC_SHORT_LOCK_FREE 1\000"
 3421      435F4154 
 3421      4F4D4943 
 3421      5F53484F 
 3421      52545F4C 
ARM GAS  /var/folders/f9/8bk2lnw15zn4cbgn6wrnb4lm0000gn/T//cc5RSyFq.s 			page 90


 3422              	.LASF353:
 3423 2a0a 5F5F5F69 		.ascii	"___int_least8_t_defined 1\000"
 3423      6E745F6C 
 3423      65617374 
 3423      385F745F 
 3423      64656669 
 3424              	.LASF197:
 3425 2a24 5F5F4652 		.ascii	"__FRACT_EPSILON__ 0x1P-15R\000"
 3425      4143545F 
 3425      45505349 
 3425      4C4F4E5F 
 3425      5F203078 
 3426              	.LASF123:
 3427 2a3f 5F5F464C 		.ascii	"__FLT_MIN_10_EXP__ (-37)\000"
 3427      545F4D49 
 3427      4E5F3130 
 3427      5F455850 
 3427      5F5F2028 
 3428              	.LASF72:
 3429 2a58 5F5F5743 		.ascii	"__WCHAR_MIN__ 0U\000"
 3429      4841525F 
 3429      4D494E5F 
 3429      5F203055 
 3429      00
 3430              	.LASF146:
 3431 2a69 5F5F4442 		.ascii	"__DBL_HAS_INFINITY__ 1\000"
 3431      4C5F4841 
 3431      535F494E 
 3431      46494E49 
 3431      54595F5F 
 3432              	.LASF57:
 3433 2a80 5F5F494E 		.ascii	"__INT_FAST32_TYPE__ int\000"
 3433      545F4641 
 3433      53543332 
 3433      5F545950 
 3433      455F5F20 
 3434              	.LASF224:
 3435 2a98 5F5F5341 		.ascii	"__SACCUM_IBIT__ 8\000"
 3435      4343554D 
 3435      5F494249 
 3435      545F5F20 
 3435      3800
 3436              	.LASF133:
 3437 2aaa 5F5F464C 		.ascii	"__FLT_HAS_QUIET_NAN__ 1\000"
 3437      545F4841 
 3437      535F5155 
 3437      4945545F 
 3437      4E414E5F 
 3438              	.LASF14:
 3439 2ac2 5F5F5349 		.ascii	"__SIZEOF_INT__ 4\000"
 3439      5A454F46 
 3439      5F494E54 
 3439      5F5F2034 
 3439      00
 3440              	.LASF34:
 3441 2ad3 5F5F494E 		.ascii	"__INTMAX_TYPE__ long long int\000"
 3441      544D4158 
ARM GAS  /var/folders/f9/8bk2lnw15zn4cbgn6wrnb4lm0000gn/T//cc5RSyFq.s 			page 91


 3441      5F545950 
 3441      455F5F20 
 3441      6C6F6E67 
 3442              	.LASF78:
 3443 2af1 5F5F494E 		.ascii	"__INTMAX_C(c) c ## LL\000"
 3443      544D4158 
 3443      5F432863 
 3443      29206320 
 3443      2323204C 
 3444              	.LASF373:
 3445 2b07 494E5450 		.ascii	"INTPTR_MIN (-__INTPTR_MAX__ - 1)\000"
 3445      54525F4D 
 3445      494E2028 
 3445      2D5F5F49 
 3445      4E545054 
 3446              	.LASF324:
 3447 2b28 5F5F4150 		.ascii	"__APCS_32__ 1\000"
 3447      43535F33 
 3447      325F5F20 
 3447      3100
 3448              	.LASF405:
 3449 2b36 55494E54 		.ascii	"UINT_FAST16_MAX __UINT_FAST16_MAX__\000"
 3449      5F464153 
 3449      5431365F 
 3449      4D415820 
 3449      5F5F5549 
 3450              	.LASF394:
 3451 2b5a 494E5436 		.ascii	"INT64_MIN (-__INT64_MAX__ - 1)\000"
 3451      345F4D49 
 3451      4E20282D 
 3451      5F5F494E 
 3451      5436345F 
 3452              	.LASF432:
 3453 2b79 494E544D 		.ascii	"INTMAX_C(x) __INTMAX_C(x)\000"
 3453      41585F43 
 3453      28782920 
 3453      5F5F494E 
 3453      544D4158 
 3454              	.LASF144:
 3455 2b93 5F5F4442 		.ascii	"__DBL_DENORM_MIN__ ((double)4.9406564584124654e-324"
 3455      4C5F4445 
 3455      4E4F524D 
 3455      5F4D494E 
 3455      5F5F2028 
 3456 2bc6 4C2900   		.ascii	"L)\000"
 3457              	.LASF46:
 3458 2bc9 5F5F5549 		.ascii	"__UINT64_TYPE__ long long unsigned int\000"
 3458      4E543634 
 3458      5F545950 
 3458      455F5F20 
 3458      6C6F6E67 
 3459              	.LASF139:
 3460 2bf0 5F5F4442 		.ascii	"__DBL_MAX_10_EXP__ 308\000"
 3460      4C5F4D41 
 3460      585F3130 
 3460      5F455850 
 3460      5F5F2033 
ARM GAS  /var/folders/f9/8bk2lnw15zn4cbgn6wrnb4lm0000gn/T//cc5RSyFq.s 			page 92


 3461              	.LASF390:
 3462 2c07 55494E54 		.ascii	"UINT32_MAX __UINT32_MAX__\000"
 3462      33325F4D 
 3462      4158205F 
 3462      5F55494E 
 3462      5433325F 
 3463              	.LASF459:
 3464 2c21 73686F72 		.ascii	"short unsigned int\000"
 3464      7420756E 
 3464      7369676E 
 3464      65642069 
 3464      6E7400
 3465              	.LASF469:
 3466 2c34 62656769 		.ascii	"begin\000"
 3466      6E00
 3467              	.LASF290:
 3468 2c3a 5F5F5441 		.ascii	"__TA_IBIT__ 64\000"
 3468      5F494249 
 3468      545F5F20 
 3468      363400
 3469              	.LASF340:
 3470 2c49 434F5245 		.ascii	"CORE_M0 1\000"
 3470      5F4D3020 
 3470      3100
 3471              	.LASF480:
 3472 2c53 2F557365 		.ascii	"/Users/eaponce/Documents/evt/opel_EE/lpc11cx4-libra"
 3472      72732F65 
 3472      61706F6E 
 3472      63652F44 
 3472      6F63756D 
 3473 2c86 72792F65 		.ascii	"ry/examples/can\000"
 3473      78616D70 
 3473      6C65732F 
 3473      63616E00 
 3474              	.LASF372:
 3475 2c96 5F5F696E 		.ascii	"__int_fast64_t_defined 1\000"
 3475      745F6661 
 3475      73743634 
 3475      5F745F64 
 3475      6566696E 
 3476              	.LASF383:
 3477 2caf 494E5431 		.ascii	"INT16_MAX __INT16_MAX__\000"
 3477      365F4D41 
 3477      58205F5F 
 3477      494E5431 
 3477      365F4D41 
 3478              	.LASF419:
 3479 2cc7 50545244 		.ascii	"PTRDIFF_MIN (-PTRDIFF_MAX - 1)\000"
 3479      4946465F 
 3479      4D494E20 
 3479      282D5054 
 3479      52444946 
 3480              	.LASF122:
 3481 2ce6 5F5F464C 		.ascii	"__FLT_MIN_EXP__ (-125)\000"
 3481      545F4D49 
 3481      4E5F4558 
 3481      505F5F20 
ARM GAS  /var/folders/f9/8bk2lnw15zn4cbgn6wrnb4lm0000gn/T//cc5RSyFq.s 			page 93


 3481      282D3132 
 3482              	.LASF180:
 3483 2cfd 5F5F4445 		.ascii	"__DEC128_MAX__ 9.999999999999999999999999999999999E"
 3483      43313238 
 3483      5F4D4158 
 3483      5F5F2039 
 3483      2E393939 
 3484 2d30 36313434 		.ascii	"6144DL\000"
 3484      444C00
 3485              	.LASF154:
 3486 2d37 5F5F4445 		.ascii	"__DECIMAL_DIG__ 17\000"
 3486      43494D41 
 3486      4C5F4449 
 3486      475F5F20 
 3486      313700
 3487              	.LASF96:
 3488 2d4a 5F5F494E 		.ascii	"__INT32_C(c) c ## L\000"
 3488      5433325F 
 3488      43286329 
 3488      20632023 
 3488      23204C00 
 3489              	.LASF382:
 3490 2d5e 494E5431 		.ascii	"INT16_MIN (-__INT16_MAX__ - 1)\000"
 3490      365F4D49 
 3490      4E20282D 
 3490      5F5F494E 
 3490      5431365F 
 3491              	.LASF31:
 3492 2d7d 5F5F5054 		.ascii	"__PTRDIFF_TYPE__ int\000"
 3492      52444946 
 3492      465F5459 
 3492      50455F5F 
 3492      20696E74 
 3493              	.LASF145:
 3494 2d92 5F5F4442 		.ascii	"__DBL_HAS_DENORM__ 1\000"
 3494      4C5F4841 
 3494      535F4445 
 3494      4E4F524D 
 3494      5F5F2031 
 3495              	.LASF359:
 3496 2da7 5F5F6861 		.ascii	"__have_longlong64 1\000"
 3496      76655F6C 
 3496      6F6E676C 
 3496      6F6E6736 
 3496      34203100 
 3497              	.LASF396:
 3498 2dbb 55494E54 		.ascii	"UINT64_MAX __UINT64_MAX__\000"
 3498      36345F4D 
 3498      4158205F 
 3498      5F55494E 
 3498      5436345F 
 3499              	.LASF298:
 3500 2dd5 5F5F5554 		.ascii	"__UTA_IBIT__ 64\000"
 3500      415F4942 
 3500      49545F5F 
 3500      20363400 
 3501              	.LASF376:
ARM GAS  /var/folders/f9/8bk2lnw15zn4cbgn6wrnb4lm0000gn/T//cc5RSyFq.s 			page 94


 3502 2de5 494E5438 		.ascii	"INT8_MIN (-__INT8_MAX__ - 1)\000"
 3502      5F4D494E 
 3502      20282D5F 
 3502      5F494E54 
 3502      385F4D41 
 3503              	.LASF263:
 3504 2e02 5F5F5151 		.ascii	"__QQ_FBIT__ 7\000"
 3504      5F464249 
 3504      545F5F20 
 3504      3700
 3505              	.LASF206:
 3506 2e10 5F5F4C46 		.ascii	"__LFRACT_MAX__ 0X7FFFFFFFP-31LR\000"
 3506      52414354 
 3506      5F4D4158 
 3506      5F5F2030 
 3506      58374646 
 3507              	.LASF5:
 3508 2e30 5F5F5645 		.ascii	"__VERSION__ \"4.8.4 20140725 (release) [ARM/embedde"
 3508      5253494F 
 3508      4E5F5F20 
 3508      22342E38 
 3508      2E342032 
 3509 2e62 642D345F 		.ascii	"d-4_8-branch revision 213147]\"\000"
 3509      382D6272 
 3509      616E6368 
 3509      20726576 
 3509      6973696F 
 3510              	.LASF295:
 3511 2e81 5F5F5544 		.ascii	"__UDA_FBIT__ 32\000"
 3511      415F4642 
 3511      49545F5F 
 3511      20333200 
 3512              	.LASF438:
 3513 2e91 66616C73 		.ascii	"false 0\000"
 3513      65203000 
 3514              	.LASF253:
 3515 2e99 5F5F4C4C 		.ascii	"__LLACCUM_FBIT__ 31\000"
 3515      41434355 
 3515      4D5F4642 
 3515      49545F5F 
 3515      20333100 
 3516              	.LASF172:
 3517 2ead 5F5F4445 		.ascii	"__DEC64_MIN__ 1E-383DD\000"
 3517      4336345F 
 3517      4D494E5F 
 3517      5F203145 
 3517      2D333833 
 3518              	.LASF310:
 3519 2ec4 5F5F4743 		.ascii	"__GCC_ATOMIC_LONG_LOCK_FREE 1\000"
 3519      435F4154 
 3519      4F4D4943 
 3519      5F4C4F4E 
 3519      475F4C4F 
 3520              	.LASF68:
 3521 2ee2 5F5F494E 		.ascii	"__INT_MAX__ 2147483647\000"
 3521      545F4D41 
 3521      585F5F20 
ARM GAS  /var/folders/f9/8bk2lnw15zn4cbgn6wrnb4lm0000gn/T//cc5RSyFq.s 			page 95


 3521      32313437 
 3521      34383336 
 3522              	.LASF38:
 3523 2ef9 5F5F5349 		.ascii	"__SIG_ATOMIC_TYPE__ int\000"
 3523      475F4154 
 3523      4F4D4943 
 3523      5F545950 
 3523      455F5F20 
 3524              	.LASF215:
 3525 2f11 5F5F4C4C 		.ascii	"__LLFRACT_MIN__ (-0.5LLR-0.5LLR)\000"
 3525      46524143 
 3525      545F4D49 
 3525      4E5F5F20 
 3525      282D302E 
 3526              	.LASF392:
 3527 2f32 494E545F 		.ascii	"INT_LEAST32_MAX __INT_LEAST32_MAX__\000"
 3527      4C454153 
 3527      5433325F 
 3527      4D415820 
 3527      5F5F494E 
 3528              	.LASF222:
 3529 2f56 5F5F554C 		.ascii	"__ULLFRACT_EPSILON__ 0x1P-64ULLR\000"
 3529      4C465241 
 3529      43545F45 
 3529      5053494C 
 3529      4F4E5F5F 
 3530              	.LASF159:
 3531 2f77 5F5F4C44 		.ascii	"__LDBL_HAS_DENORM__ 1\000"
 3531      424C5F48 
 3531      41535F44 
 3531      454E4F52 
 3531      4D5F5F20 
 3532              	.LASF422:
 3533 2f8d 57494E54 		.ascii	"WINT_MAX __WINT_MAX__\000"
 3533      5F4D4158 
 3533      205F5F57 
 3533      494E545F 
 3533      4D41585F 
 3534              	.LASF262:
 3535 2fa3 5F5F554C 		.ascii	"__ULLACCUM_EPSILON__ 0x1P-32ULLK\000"
 3535      4C414343 
 3535      554D5F45 
 3535      5053494C 
 3535      4F4E5F5F 
 3536              	.LASF169:
 3537 2fc4 5F5F4445 		.ascii	"__DEC64_MANT_DIG__ 16\000"
 3537      4336345F 
 3537      4D414E54 
 3537      5F444947 
 3537      5F5F2031 
 3538              	.LASF131:
 3539 2fda 5F5F464C 		.ascii	"__FLT_HAS_DENORM__ 1\000"
 3539      545F4841 
 3539      535F4445 
 3539      4E4F524D 
 3539      5F5F2031 
 3540              	.LASF238:
ARM GAS  /var/folders/f9/8bk2lnw15zn4cbgn6wrnb4lm0000gn/T//cc5RSyFq.s 			page 96


 3541 2fef 5F5F5541 		.ascii	"__UACCUM_FBIT__ 16\000"
 3541      4343554D 
 3541      5F464249 
 3541      545F5F20 
 3541      313600
 3542              	.LASF451:
 3543 3002 45585445 		.ascii	"EXTERN extern\000"
 3543      524E2065 
 3543      78746572 
 3543      6E00
 3544              		.ident	"GCC: (GNU Tools for ARM Embedded Processors) 4.8.4 20140725 (release) [ARM/embedded-4_8-br
ARM GAS  /var/folders/f9/8bk2lnw15zn4cbgn6wrnb4lm0000gn/T//cc5RSyFq.s 			page 97


DEFINED SYMBOLS
                            *ABS*:0000000000000000 util.c
/var/folders/f9/8bk2lnw15zn4cbgn6wrnb4lm0000gn/T//cc5RSyFq.s:66     .text.__reverse:0000000000000000 $t
/var/folders/f9/8bk2lnw15zn4cbgn6wrnb4lm0000gn/T//cc5RSyFq.s:71     .text.__reverse:0000000000000000 __reverse
/var/folders/f9/8bk2lnw15zn4cbgn6wrnb4lm0000gn/T//cc5RSyFq.s:109    .text.itoa:0000000000000000 $t
/var/folders/f9/8bk2lnw15zn4cbgn6wrnb4lm0000gn/T//cc5RSyFq.s:114    .text.itoa:0000000000000000 itoa
/var/folders/f9/8bk2lnw15zn4cbgn6wrnb4lm0000gn/T//cc5RSyFq.s:276    .text.itoa:0000000000000098 $d
/var/folders/f9/8bk2lnw15zn4cbgn6wrnb4lm0000gn/T//cc5RSyFq.s:281    .rodata.digits.4160:0000000000000000 $d
/var/folders/f9/8bk2lnw15zn4cbgn6wrnb4lm0000gn/T//cc5RSyFq.s:285    .rodata.digits.4160:0000000000000000 digits.4160
                     .debug_frame:0000000000000010 $d
                           .group:0000000000000000 wm4.0.121fbee677f1a8a7d8c40a6e8762ca43
                           .group:0000000000000000 wm4.features.h.22.6a4ca7cd053637cc1d0db6c16f39b2d7
                           .group:0000000000000000 wm4._default_types.h.15.8b2cb27e528498f8ff711db085d6e489
                           .group:0000000000000000 wm4.stdint.h.20.796e373797e732130a803d4c0338fa1b
                           .group:0000000000000000 wm4.stdbool.h.29.1c9ee6859ce8145f7838a4f2549ccec2
                           .group:0000000000000000 wm4.lpc_types.h.63.860ba57581a002825766a7c2ac00d549

UNDEFINED SYMBOLS
__aeabi_idiv
__aeabi_idivmod
